(lp1
(S'AEIRASANL_AELEGIQY_ALRANSAVK_ATEGALNTPK_ATSRTLSYY_EEHVQIHTI_FAYANRNRF_FLLNKEMYL_FLLPSLATV_FLNRFTTTL_FLPRVFSAV_FLQSINFVR_FPQSAPHGV_FPRGQGVPI_FTYASALWEI_FVDGVPFVV_HVTFFIYNK_IPRRNVATL_IPTNFTISV_ISDYDYYRY_ITLATCELY_ITLKKRWQL_KAYNVTQAF_KTFPPTEPK_KVSIWNLDY_LLYDANYFL_LSPRWYFYY_LTDEMIAQY_LYSPIFLIV_MGYINVFAF_MIELSLIDFY_MPASWVMRI_MTSCCSCLK_NVFAFPFTIY_QELYSPIFL_QLPQGTTLPK_QYIKWPWYI_RARSVSPKL_RLYYDSMSY_RQLLFVVEV_RTFKVSIWNL_SIIAYTMSL_SINFVRIIMR_SLIDFYLCFL_SPRWYFYYL_SSPDDQIGYY_TMADLVYAL_TSRTLSYYK_TVYSHLLLV_VEHVTFFIY_VLWAHGFEL_VTPSGTWLTY_VYFLQSINF_YANRNRFLY_YEQYIKWPW_YFIASFRLF_YIFFASFYY_YIIKLIFLW_YLDAYNMMI_YLYALVYFL'
p2
cnumpy.core.multiarray
scalar
p3
(cnumpy
dtype
p4
(S'f8'
I0
I1
tRp5
(I3
S'<'
NNNI-1
I-1
I0
tbS'\xa0\xa7VQ:\x9e\xef?'
tRp6
tp7
a(S'AEIRASANL_AELEGIQY_ALRANSAVK_ATEGALNTPK_ATSRTLSYY_EEHVQIHTI_FAYANRNRF_FLLNKEMYL_FLLPSLATV_FLNRFTTTL_FLPRVFSAV_FLQSINFVR_FPQSAPHGV_FPRGQGVPI_FTYASALWEI_FVDGVPFVV_HVTFFIYNK_ILLIIMRTFK_IPRRNVATL_IPTNFTISV_ISDYDYYRY_ITLATCELY_ITLKKRWQL_KAYNVTQAF_KTFPPTEPK_KVSIWNLDY_LLYDANYFL_LSPRWYFYY_LTDEMIAQY_LYSPIFLIV_MGYINVFAF_MIELSLIDFY_MPASWVMRI_MTSCCSCLK_NVFAFPFTIY_QELYSPIFL_QYIKWPWYI_RARSVSPKL_RLYYDSMSY_RQLLFVVEV_RTFKVSIWNL_SIIAYTMSL_SINFVRIIMR_SLIDFYLCFL_SPRWYFYYL_SSPDDQIGYY_TMADLVYAL_TSRTLSYYK_TVYSHLLLV_VEHVTFFIY_VLWAHGFEL_VTPSGTWLTY_VYFLQSINF_YANRNRFLY_YEQYIKWPW_YFIASFRLF_YIFFASFYY_YIIKLIFLW_YLDAYNMMI_YLYALVYFL'
p8
g6
tp9
a(S'AEIRASANL_AELEGIQY_ALRANSAVK_ATEGALNTPK_ATSRTLSYY_EEHVQIHTI_FAYANRNRF_FLAFLLFLV_FLLNKEMYL_FLLPSLATV_FLNRFTTTL_FLPRVFSAV_FLQSINFVR_FPQSAPHGV_FPRGQGVPI_FTYASALWEI_FVDGVPFVV_HVTFFIYNK_IPRRNVATL_IPTNFTISV_ISDYDYYRY_ITLATCELY_ITLKKRWQL_KAYNVTQAF_KTFPPTEPK_KVSIWNLDY_LLYDANYFL_LSPRWYFYY_LTDEMIAQY_LYSPIFLIV_MGYINVFAF_MIELSLIDFY_MPASWVMRI_MTSCCSCLK_NVFAFPFTIY_QELYSPIFL_QLPQGTTLPK_QYIKWPWYI_RARSVSPKL_RLYYDSMSY_RQLLFVVEV_RTFKVSIWNL_SIIAYTMSL_SINFVRIIMR_SPRWYFYYL_SSPDDQIGYY_TMADLVYAL_TSRTLSYYK_TVYSHLLLV_VEHVTFFIY_VLWAHGFEL_VTPSGTWLTY_VYFLQSINF_YANRNRFLY_YEQYIKWPW_YFIASFRLF_YIFFASFYY_YIIKLIFLW_YLDAYNMMI_YLYALVYFL'
p10
g3
(g5
S'\xa0\xa7VQ:\x9e\xef?'
tRp11
tp12
a(S'AEIRASANL_AELEGIQY_ALRANSAVK_ATEGALNTPK_ATSRTLSYY_EEHVQIHTI_FAYANRNRF_FLAFLLFLV_FLLNKEMYL_FLLPSLATV_FLNRFTTTL_FLPRVFSAV_FLQSINFVR_FPQSAPHGV_FPRGQGVPI_FTYASALWEI_FVDGVPFVV_HVTFFIYNK_ILLIIMRTFK_IPRRNVATL_IPTNFTISV_ISDYDYYRY_ITLATCELY_ITLKKRWQL_KAYNVTQAF_KTFPPTEPK_KVSIWNLDY_LLYDANYFL_LSPRWYFYY_LTDEMIAQY_LYSPIFLIV_MGYINVFAF_MIELSLIDFY_MPASWVMRI_MTSCCSCLK_NVFAFPFTIY_QELYSPIFL_QYIKWPWYI_RARSVSPKL_RLYYDSMSY_RQLLFVVEV_RTFKVSIWNL_SIIAYTMSL_SINFVRIIMR_SPRWYFYYL_SSPDDQIGYY_TMADLVYAL_TSRTLSYYK_TVYSHLLLV_VEHVTFFIY_VLWAHGFEL_VTPSGTWLTY_VYFLQSINF_YANRNRFLY_YEQYIKWPW_YFIASFRLF_YIFFASFYY_YIIKLIFLW_YLDAYNMMI_YLYALVYFL'
p13
g11
tp14
a(S'AEIRASANL_AELEGIQY_ALRANSAVK_ATEGALNTPK_ATSRTLSYY_EEHVQIHTI_FAYANRNRF_FIAGLIAIV_FLLNKEMYL_FLLPSLATV_FLNRFTTTL_FLPRVFSAV_FLQSINFVR_FPQSAPHGV_FPRGQGVPI_FTYASALWEI_FVDGVPFVV_HVTFFIYNK_IPRRNVATL_IPTNFTISV_ISDYDYYRY_ITLATCELY_ITLKKRWQL_KAYNVTQAF_KTFPPTEPK_KVSIWNLDY_LLYDANYFL_LSPRWYFYY_LTDEMIAQY_LYSPIFLIV_MGYINVFAF_MIELSLIDFY_MPASWVMRI_MTSCCSCLK_NVFAFPFTIY_QELYSPIFL_QLPQGTTLPK_QYIKWPWYI_RARSVSPKL_RLYYDSMSY_RQLLFVVEV_RTFKVSIWNL_SIIAYTMSL_SINFVRIIMR_SPRWYFYYL_SSPDDQIGYY_TMADLVYAL_TSRTLSYYK_TVYSHLLLV_VEHVTFFIY_VLWAHGFEL_VTPSGTWLTY_VYFLQSINF_YANRNRFLY_YEQYIKWPW_YFIASFRLF_YIFFASFYY_YIIKLIFLW_YLDAYNMMI_YLYALVYFL'
p15
g3
(g5
S'E4\x8687\x9e\xef?'
tRp16
tp17
a(S'AEIRASANL_AELEGIQY_ALRANSAVK_ATEGALNTPK_ATSRTLSYY_EEHVQIHTI_FAYANRNRF_FIAGLIAIV_FLLNKEMYL_FLLPSLATV_FLNRFTTTL_FLPRVFSAV_FLQSINFVR_FPQSAPHGV_FPRGQGVPI_FTYASALWEI_FVDGVPFVV_HVTFFIYNK_ILLIIMRTFK_IPRRNVATL_IPTNFTISV_ISDYDYYRY_ITLATCELY_ITLKKRWQL_KAYNVTQAF_KTFPPTEPK_KVSIWNLDY_LLYDANYFL_LSPRWYFYY_LTDEMIAQY_LYSPIFLIV_MGYINVFAF_MIELSLIDFY_MPASWVMRI_MTSCCSCLK_NVFAFPFTIY_QELYSPIFL_QYIKWPWYI_RARSVSPKL_RLYYDSMSY_RQLLFVVEV_RTFKVSIWNL_SIIAYTMSL_SINFVRIIMR_SPRWYFYYL_SSPDDQIGYY_TMADLVYAL_TSRTLSYYK_TVYSHLLLV_VEHVTFFIY_VLWAHGFEL_VTPSGTWLTY_VYFLQSINF_YANRNRFLY_YEQYIKWPW_YFIASFRLF_YIFFASFYY_YIIKLIFLW_YLDAYNMMI_YLYALVYFL'
p18
g16
tp19
a(S'AEIRASANL_AELEGIQY_ALRANSAVK_ATSRTLSYY_EEHVQIHTI_FAYANRNRF_FIAGLIAIV_FLLNKEMYL_FLLPSLATV_FLNRFTTTL_FLPRVFSAV_FLQSINFVR_FPQSAPHGV_FPRGQGVPI_FTYASALWEI_FVDGVPFVV_HVTFFIYNK_ILLIIMRTFK_IPRRNVATL_IPTNFTISV_ISDYDYYRY_ITLATCELY_ITLKKRWQL_KAYNVTQAF_KTFPPTEPK_KVSIWNLDY_LLYDANYFL_LSPRWYFYY_LTDEMIAQY_LYSPIFLIV_MGYINVFAF_MIELSLIDFY_MPASWVMRI_MTSCCSCLK_NVFAFPFTIY_QELYSPIFL_QLPQGTTLPK_QYIKWPWYI_RARSVSPKL_RLYYDSMSY_RQLLFVVEV_RTFKVSIWNL_SIIAYTMSL_SINFVRIIMR_SPRWYFYYL_SSPDDQIGYY_TMADLVYAL_TSRTLSYYK_TVYSHLLLV_VEHVTFFIY_VLWAHGFEL_VTPSGTWLTY_VYFLQSINF_YANRNRFLY_YEQYIKWPW_YFIASFRLF_YIFFASFYY_YIIKLIFLW_YLDAYNMMI_YLYALVYFL'
p20
g3
(g5
S'D4\x8687\x9e\xef?'
tRp21
tp22
a(S'AEIRASANL_AELEGIQY_ALRANSAVK_ATEGALNTPK_ATSRTLSYY_EEHVQIHTI_FAYANRNRF_FLLNKEMYL_FLLPSLATV_FLNRFTTTL_FLPRVFSAV_FLQSINFVR_FPQSAPHGV_FPRGQGVPI_FTYASALWEI_FVDGVPFVV_HVTFFIYNK_IPRRNVATL_IPTNFTISV_ISDYDYYRY_ITLATCELY_ITLKKRWQL_KAYNVTQAF_KTFPPTEPK_KVSIWNLDY_LLYDANYFL_LSPRWYFYY_LTDEMIAQY_LYSPIFLIV_MGYINVFAF_MIELSLIDFY_MPASWVMRI_MTSCCSCLK_NVFAFPFTIY_QELYSPIFL_QYIKWPWYI_RARSVSPKL_RIRGGDGKMK_RLYYDSMSY_RQLLFVVEV_RTFKVSIWNL_SIIAYTMSL_SINFVRIIMR_SLIDFYLCFL_SPRWYFYYL_SSPDDQIGYY_TMADLVYAL_TSRTLSYYK_TVYSHLLLV_VEHVTFFIY_VLWAHGFEL_VTPSGTWLTY_VYFLQSINF_YANRNRFLY_YEQYIKWPW_YFIASFRLF_YIFFASFYY_YIIKLIFLW_YLDAYNMMI_YLYALVYFL'
p23
g3
(g5
S';(S\x1c5\x9e\xef?'
tRp24
tp25
a(S'AEIRASANL_AELEGIQY_ALRANSAVK_ATEGALNTPK_ATSRTLSYY_EEHVQIHTI_FAYANRNRF_FLLNKEMYL_FLLPSLATV_FLNRFTTTL_FLPRVFSAV_FLQSINFVR_FPQSAPHGV_FPRGQGVPI_FTYASALWEI_FVDGVPFVV_HVTFFIYNK_IPRRNVATL_IPTNFTISV_ISDYDYYRY_ITLATCELY_ITLKKRWQL_KAYNVTQAF_KQIYKTPPIK_KTFPPTEPK_KVSIWNLDY_LLYDANYFL_LSPRWYFYY_LTDEMIAQY_LYSPIFLIV_MGYINVFAF_MIELSLIDFY_MPASWVMRI_MTSCCSCLK_NVFAFPFTIY_QELYSPIFL_QYIKWPWYI_RARSVSPKL_RLYYDSMSY_RQLLFVVEV_RTFKVSIWNL_SIIAYTMSL_SINFVRIIMR_SLIDFYLCFL_SPRWYFYYL_SSPDDQIGYY_TMADLVYAL_TSRTLSYYK_TVYSHLLLV_VEHVTFFIY_VLWAHGFEL_VTPSGTWLTY_VYFLQSINF_YANRNRFLY_YEQYIKWPW_YFIASFRLF_YIFFASFYY_YIIKLIFLW_YLDAYNMMI_YLYALVYFL'
p26
g24
tp27
a(S'AEIRASANL_AELEGIQY_ALRANSAVK_ATEGALNTPK_ATSRTLSYY_EEHVQIHTI_FAYANRNRF_FLAFLLFLV_FLLNKEMYL_FLLPSLATV_FLNRFTTTL_FLPRVFSAV_FLQSINFVR_FPQSAPHGV_FPRGQGVPI_FTYASALWEI_FVDGVPFVV_HVTFFIYNK_IPRRNVATL_IPTNFTISV_ISDYDYYRY_ITLATCELY_ITLKKRWQL_KAYNVTQAF_KTFPPTEPK_KVSIWNLDY_LLYDANYFL_LSPRWYFYY_LTDEMIAQY_LYSPIFLIV_MGYINVFAF_MIELSLIDFY_MPASWVMRI_MTSCCSCLK_NVFAFPFTIY_QELYSPIFL_QYIKWPWYI_RARSVSPKL_RIRGGDGKMK_RLYYDSMSY_RQLLFVVEV_RTFKVSIWNL_SIIAYTMSL_SINFVRIIMR_SPRWYFYYL_SSPDDQIGYY_TMADLVYAL_TSRTLSYYK_TVYSHLLLV_VEHVTFFIY_VLWAHGFEL_VTPSGTWLTY_VYFLQSINF_YANRNRFLY_YEQYIKWPW_YFIASFRLF_YIFFASFYY_YIIKLIFLW_YLDAYNMMI_YLYALVYFL'
p28
g3
(g5
S';(S\x1c5\x9e\xef?'
tRp29
tp30
a.