(lp1
(S'ATSRTLSYY_FAYANRNRF_FLLPSLATV_FLNRFTTTL_FVDGVPFVV_HVTFFIYNK_ISDYDYYRY_ITLKKRWQL_MTSCCSCLK_NVFAFPFTIY_SIIAYTMSL_SINFVRIIMR_TMADLVYAL_YEQYIKWPW_YIFFASFYY_YLDAYNMMI_YLYALVYFL'
p2
cnumpy.core.multiarray
scalar
p3
(cnumpy
dtype
p4
(S'f8'
I0
I1
tRp5
(I3
S'<'
NNNI-1
I-1
I0
tbS'\xb5Y\xf3\xee\xcd\xca\xef?'
tRp6
tp7
a(S'ATSRTLSYY_FAYANRNRF_FLNRFTTTL_FVDGVPFVV_HVTFFIYNK_ISDYDYYRY_ITLKKRWQL_LLYDANYFL_MTSCCSCLK_NVFAFPFTIY_SIIAYTMSL_SINFVRIIMR_TMADLVYAL_YEQYIKWPW_YIFFASFYY_YLDAYNMMI_YLYALVYFL'
p8
g3
(g5
S'\xe5\xac%\x17\xc5\xca\xef?'
tRp9
tp10
a(S'ATSRTLSYY_FAYANRNRF_FLNRFTTTL_FLPRVFSAV_FVDGVPFVV_HVTFFIYNK_ISDYDYYRY_ITLKKRWQL_MTSCCSCLK_NVFAFPFTIY_SIIAYTMSL_SINFVRIIMR_TMADLVYAL_YEQYIKWPW_YIFFASFYY_YLDAYNMMI_YLYALVYFL'
p11
g3
(g5
S'(\t\x98\xa0\xc1\xca\xef?'
tRp12
tp13
a(S'AELEGIQY_ATSRTLSYY_FAYANRNRF_FLLPSLATV_FLNRFTTTL_FVDGVPFVV_HVTFFIYNK_ISDYDYYRY_ITLKKRWQL_MTSCCSCLK_NVFAFPFTIY_SIIAYTMSL_SINFVRIIMR_TMADLVYAL_YIFFASFYY_YLDAYNMMI_YLYALVYFL'
p14
g3
(g5
S's\x06\x8e\xc3\xb8\xca\xef?'
tRp15
tp16
a(S'AELEGIQY_ATSRTLSYY_FAYANRNRF_FLNRFTTTL_FVDGVPFVV_HVTFFIYNK_ISDYDYYRY_ITLKKRWQL_LLYDANYFL_MTSCCSCLK_NVFAFPFTIY_SIIAYTMSL_SINFVRIIMR_TMADLVYAL_YIFFASFYY_YLDAYNMMI_YLYALVYFL'
p17
g3
(g5
S'\xbbB\xbe\xce\xaf\xca\xef?'
tRp18
tp19
a(S'ATSRTLSYY_FAYANRNRF_FLNRFTTTL_FLPRVFSAV_FVDGVPFVV_HVTFFIYNK_ISDYDYYRY_ITLKKRWQL_LLYDANYFL_MTSCCSCLK_NVFAFPFTIY_SIIAYTMSL_SINFVRIIMR_YEQYIKWPW_YIFFASFYY_YLDAYNMMI_YLYALVYFL'
p20
g3
(g5
S'\xbbH\xbe\x96\xac\xca\xef?'
tRp21
tp22
a(S'AELEGIQY_ATSRTLSYY_FAYANRNRF_FLNRFTTTL_FLPRVFSAV_FVDGVPFVV_HVTFFIYNK_ISDYDYYRY_ITLKKRWQL_MTSCCSCLK_NVFAFPFTIY_SIIAYTMSL_SINFVRIIMR_TMADLVYAL_YIFFASFYY_YLDAYNMMI_YLYALVYFL'
p23
g3
(g5
S'\x01\x9f0X\xac\xca\xef?'
tRp24
tp25
a(S'ATSRTLSYY_FAYANRNRF_FLLPSLATV_FLNRFTTTL_FVDGVPFVV_HVTFFIYNK_ISDYDYYRY_ITLKKRWQL_LLYDANYFL_MTSCCSCLK_NVFAFPFTIY_SIIAYTMSL_SINFVRIIMR_YEQYIKWPW_YIFFASFYY_YLDAYNMMI_YLYALVYFL'
p26
g3
(g5
S'\xb01\x16.\xaa\xca\xef?'
tRp27
tp28
a(S'AELEGIQY_ATSRTLSYY_FAYANRNRF_FLNRFTTTL_FLPRVFSAV_FVDGVPFVV_HVTFFIYNK_ISDYDYYRY_ITLKKRWQL_LLYDANYFL_MTSCCSCLK_NVFAFPFTIY_SIIAYTMSL_SINFVRIIMR_YIFFASFYY_YLDAYNMMI_YLYALVYFL'
p29
g3
(g5
S'\xa7"\xaeS\x97\xca\xef?'
tRp30
tp31
a(S'AELEGIQY_ATSRTLSYY_FAYANRNRF_FLLPSLATV_FLNRFTTTL_FVDGVPFVV_HVTFFIYNK_ISDYDYYRY_ITLKKRWQL_LLYDANYFL_MTSCCSCLK_NVFAFPFTIY_SIIAYTMSL_SINFVRIIMR_YIFFASFYY_YLDAYNMMI_YLYALVYFL'
p32
g3
(g5
S'\x80"\x08\x08\x95\xca\xef?'
tRp33
tp34
a.