(lp1
(S'ATSRTLSYY_FAYANRNRF_FLQSINFVR_HVTFFIYNK_ISDYDYYRY_ITLKKRWQL_MTSCCSCLK_NVFAFPFTIY_RLYYDSMSY_SIIAYTMSL_YEQYIKWPW_YLDAYNMMI'
p2
cnumpy.core.multiarray
scalar
p3
(cnumpy
dtype
p4
(S'f8'
I0
I1
tRp5
(I3
S'<'
NNNI-1
I-1
I0
tbS'\x0cP\x0e\x84\x1f\xfa\xef?'
tRp6
tp7
a(S'ATSRTLSYY_FAYANRNRF_HVTFFIYNK_ISDYDYYRY_ITLKKRWQL_MTSCCSCLK_NVFAFPFTIY_RLYYDSMSY_SIIAYTMSL_SINFVRIIMR_YEQYIKWPW_YLDAYNMMI'
p8
g3
(g5
S'\x0bP\x0e\x84\x1f\xfa\xef?'
tRp9
tp10
a(S'ATSRTLSYY_FAYANRNRF_HVTFFIYNK_ISDYDYYRY_ITLATCELY_ITLKKRWQL_MTSCCSCLK_NVFAFPFTIY_SIIAYTMSL_SINFVRIIMR_YEQYIKWPW_YLDAYNMMI'
p11
g3
(g5
S'3\x97Xe\x1f\xfa\xef?'
tRp12
tp13
a(S'ATSRTLSYY_FAYANRNRF_FLQSINFVR_HVTFFIYNK_ISDYDYYRY_ITLATCELY_ITLKKRWQL_MTSCCSCLK_NVFAFPFTIY_SIIAYTMSL_YEQYIKWPW_YLDAYNMMI'
p14
g3
(g5
S'3\x97Xe\x1f\xfa\xef?'
tRp15
tp16
a(S'ATSRTLSYY_FAYANRNRF_HVTFFIYNK_ISDYDYYRY_ITLKKRWQL_MTSCCSCLK_NVFAFPFTIY_SIIAYTMSL_SINFVRIIMR_YEQYIKWPW_YIFFASFYY_YLDAYNMMI'
p17
g3
(g5
S')\x97Xe\x1f\xfa\xef?'
tRp18
tp19
a(S'AELEGIQY_ATSRTLSYY_FAYANRNRF_HVTFFIYNK_ISDYDYYRY_ITLKKRWQL_MTSCCSCLK_NVFAFPFTIY_RLYYDSMSY_SIIAYTMSL_SINFVRIIMR_YLDAYNMMI'
p20
g3
(g5
S'\x0f\xe1#\xfe\x1a\xfa\xef?'
tRp21
tp22
a(S'AELEGIQY_ATSRTLSYY_FAYANRNRF_FLQSINFVR_HVTFFIYNK_ISDYDYYRY_ITLKKRWQL_MTSCCSCLK_NVFAFPFTIY_RLYYDSMSY_SIIAYTMSL_YLDAYNMMI'
p23
g3
(g5
S'\x0f\xe1#\xfe\x1a\xfa\xef?'
tRp24
tp25
a(S'AELEGIQY_ATSRTLSYY_FAYANRNRF_HVTFFIYNK_ISDYDYYRY_ITLATCELY_ITLKKRWQL_MTSCCSCLK_NVFAFPFTIY_SIIAYTMSL_SINFVRIIMR_YLDAYNMMI'
p26
g3
(g5
S'5(n\xdf\x1a\xfa\xef?'
tRp27
tp28
a(S'AELEGIQY_ATSRTLSYY_FAYANRNRF_FLQSINFVR_HVTFFIYNK_ISDYDYYRY_ITLATCELY_ITLKKRWQL_MTSCCSCLK_NVFAFPFTIY_SIIAYTMSL_YLDAYNMMI'
p29
g3
(g5
S'5(n\xdf\x1a\xfa\xef?'
tRp30
tp31
a(S'AELEGIQY_ATSRTLSYY_FAYANRNRF_HVTFFIYNK_ISDYDYYRY_ITLKKRWQL_MTSCCSCLK_NVFAFPFTIY_SIIAYTMSL_SINFVRIIMR_YIFFASFYY_YLDAYNMMI'
p32
g3
(g5
S'0(n\xdf\x1a\xfa\xef?'
tRp33
tp34
a.