(lp1
(S'ATSRTLSYY_FAYANRNRF_FLNRFTTTL_FVDGVPFVV_HVTFFIYNK_ISDYDYYRY_ITLKKRWQL_MTSCCSCLK_NVFAFPFTIY_SIIAYTMSL_SINFVRIIMR_YEQYIKWPW_YIFFASFYY_YLDAYNMMI_YLYALVYFL'
p2
cnumpy.core.multiarray
scalar
p3
(cnumpy
dtype
p4
(S'f8'
I0
I1
tRp5
(I3
S'<'
NNNI-1
I-1
I0
tbS'+\xb8P$\xfa\xef\xef?'
tRp6
tp7
a(S'AELEGIQY_ATSRTLSYY_FAYANRNRF_FLNRFTTTL_FVDGVPFVV_HVTFFIYNK_ISDYDYYRY_ITLKKRWQL_MTSCCSCLK_NVFAFPFTIY_SIIAYTMSL_SINFVRIIMR_YIFFASFYY_YLDAYNMMI_YLYALVYFL'
p8
g3
(g5
S'5Z\xf7\xf4\xf3\xef\xef?'
tRp9
tp10
a(S'ATSRTLSYY_FAYANRNRF_FLNRFTTTL_HVTFFIYNK_ISDYDYYRY_ITLATCELY_ITLKKRWQL_LTDEMIAQY_MTSCCSCLK_NVFAFPFTIY_SIIAYTMSL_SINFVRIIMR_YEQYIKWPW_YLDAYNMMI_YLYALVYFL'
p11
g3
(g5
S'\x107\n\x14\xef\xef\xef?'
tRp12
tp13
a(S'ATSRTLSYY_FAYANRNRF_FLNRFTTTL_FLQSINFVR_HVTFFIYNK_ISDYDYYRY_ITLATCELY_ITLKKRWQL_LTDEMIAQY_MTSCCSCLK_NVFAFPFTIY_SIIAYTMSL_YEQYIKWPW_YLDAYNMMI_YLYALVYFL'
p14
g3
(g5
S'\xc0\xe76\x88\xeb\xef\xef?'
tRp15
tp16
a(S'ATSRTLSYY_FAYANRNRF_FLNRFTTTL_HVTFFIYNK_ISDYDYYRY_ITLKKRWQL_LTDEMIAQY_MTSCCSCLK_NVFAFPFTIY_SIIAYTMSL_SINFVRIIMR_YEQYIKWPW_YIFFASFYY_YLDAYNMMI_YLYALVYFL'
p17
g3
(g5
S't\xab(\xb6\xe5\xef\xef?'
tRp18
tp19
a(S'AELEGIQY_ATSRTLSYY_FAYANRNRF_FLNRFTTTL_HVTFFIYNK_ISDYDYYRY_ITLKKRWQL_LTDEMIAQY_MTSCCSCLK_NVFAFPFTIY_SIIAYTMSL_SINFVRIIMR_YIFFASFYY_YLDAYNMMI_YLYALVYFL'
p20
g3
(g5
S'onG\xd8\xe0\xef\xef?'
tRp21
tp22
a(S'ATSRTLSYY_FAYANRNRF_FLNRFTTTL_HVTFFIYNK_ISDYDYYRY_ITLKKRWQL_LTDEMIAQY_MTSCCSCLK_NVFAFPFTIY_RLYYDSMSY_SIIAYTMSL_SINFVRIIMR_YEQYIKWPW_YLDAYNMMI_YLYALVYFL'
p23
g3
(g5
S'e|\x7f\x1e\xb4\xef\xef?'
tRp24
tp25
a(S'ATSRTLSYY_FAYANRNRF_FLNRFTTTL_FLQSINFVR_HVTFFIYNK_ISDYDYYRY_ITLKKRWQL_LTDEMIAQY_MTSCCSCLK_NVFAFPFTIY_RLYYDSMSY_SIIAYTMSL_YEQYIKWPW_YLDAYNMMI_YLYALVYFL'
p26
g3
(g5
S'\x10-\xac\x92\xb0\xef\xef?'
tRp27
tp28
a(S'ATSRTLSYY_FAYANRNRF_FLNRFTTTL_HVTFFIYNK_ISDYDYYRY_ITLKKRWQL_MTSCCSCLK_NVFAFPFTIY_SIIAYTMSL_SINFVRIIMR_YANRNRFLY_YEQYIKWPW_YIFFASFYY_YLDAYNMMI_YLYALVYFL'
p29
g3
(g5
S'}\xc3\x07\x84\x9b\xef\xef?'
tRp30
tp31
a(S'AELEGIQY_ATSRTLSYY_FAYANRNRF_FLNRFTTTL_HVTFFIYNK_ISDYDYYRY_ITLKKRWQL_MTSCCSCLK_NVFAFPFTIY_SIIAYTMSL_SINFVRIIMR_YANRNRFLY_YIFFASFYY_YLDAYNMMI_YLYALVYFL'
p32
g3
(g5
S'\xd5A+j\x95\xef\xef?'
tRp33
tp34
a.