(lp1
(S'AELEGIQY_ATSRTLSYY_FAYANRNRF_HVTFFIYNK_ISDYDYYRY_ITLKKRWQL_SINFVRIIMR_YLDAYNMMI'
p2
cnumpy.core.multiarray
scalar
p3
(cnumpy
dtype
p4
(S'f8'
I0
I1
tRp5
(I3
S'<'
NNNI-1
I-1
I0
tbS')w,OT\xfe\xef?'
tRp6
tp7
a(S'AELEGIQY_ATSRTLSYY_FAYANRNRF_FLQSINFVR_HVTFFIYNK_ISDYDYYRY_ITLKKRWQL_YLDAYNMMI'
p8
g3
(g5
S')w,OT\xfe\xef?'
tRp9
tp10
a(S'ATSRTLSYY_FAYANRNRF_FLQSINFVR_HVTFFIYNK_ISDYDYYRY_ITLKKRWQL_YEQYIKWPW_YLDAYNMMI'
p11
g3
(g5
S'(w,OT\xfe\xef?'
tRp12
tp13
a(S'ATSRTLSYY_FAYANRNRF_HVTFFIYNK_ISDYDYYRY_ITLKKRWQL_SINFVRIIMR_YEQYIKWPW_YLDAYNMMI'
p14
g3
(g5
S'%w,OT\xfe\xef?'
tRp15
tp16
a(S'ATSRTLSYY_FAYANRNRF_FLQSINFVR_ISDYDYYRY_ITLKKRWQL_MTSCCSCLK_YEQYIKWPW_YLDAYNMMI'
p17
g3
(g5
S'\x08(\xa2\xc3S\xfe\xef?'
tRp18
tp19
a(S'AELEGIQY_ATSRTLSYY_FAYANRNRF_ISDYDYYRY_ITLKKRWQL_MTSCCSCLK_SINFVRIIMR_YLDAYNMMI'
p20
g3
(g5
S'\x08(\xa2\xc3S\xfe\xef?'
tRp21
tp22
a(S'ATSRTLSYY_FAYANRNRF_ISDYDYYRY_ITLKKRWQL_MTSCCSCLK_SINFVRIIMR_YEQYIKWPW_YLDAYNMMI'
p23
g3
(g5
S'\x05(\xa2\xc3S\xfe\xef?'
tRp24
tp25
a(S'AELEGIQY_ATSRTLSYY_FAYANRNRF_FLQSINFVR_ISDYDYYRY_ITLKKRWQL_MTSCCSCLK_YLDAYNMMI'
p26
g3
(g5
S'\x04(\xa2\xc3S\xfe\xef?'
tRp27
tp28
a(S'ATSRTLSYY_FAYANRNRF_HVTFFIYNK_ISDYDYYRY_ITLKKRWQL_SINFVRIIMR_VEHVTFFIY_YLDAYNMMI'
p29
g3
(g5
S'\xcb\xe3S>S\xfe\xef?'
tRp30
tp31
a(S'ATSRTLSYY_FAYANRNRF_FLQSINFVR_HVTFFIYNK_ISDYDYYRY_ITLKKRWQL_VEHVTFFIY_YLDAYNMMI'
p32
g3
(g5
S'\xcb\xe3S>S\xfe\xef?'
tRp33
tp34
a.