(lp1
(S'ATSRTLSYY_FAYANRNRF_HVTFFIYNK_ISDYDYYRY_YLDAYNMMI'
p2
cnumpy.core.multiarray
scalar
p3
(cnumpy
dtype
p4
(S'f8'
I0
I1
tRp5
(I3
S'<'
NNNI-1
I-1
I0
tbS'\x18\xa7\r~|\xff\xef?'
tRp6
tp7
a(S'FAYANRNRF_ISDYDYYRY_MTSCCSCLK_RLYYDSMSY_YLDAYNMMI'
p8
g3
(g5
S'\x14\xa7\r~|\xff\xef?'
tRp9
tp10
a(S'ATSRTLSYY_FAYANRNRF_ISDYDYYRY_MTSCCSCLK_YLDAYNMMI'
p11
g3
(g5
S'\x14\xa7\r~|\xff\xef?'
tRp12
tp13
a(S'ATSRTLSYY_FAYANRNRF_HVTFFIYNK_LTDEMIAQY_YLDAYNMMI'
p14
g3
(g5
S'\x10\xa7\r~|\xff\xef?'
tRp15
tp16
a(S'FAYANRNRF_HVTFFIYNK_ISDYDYYRY_ITLATCELY_YLDAYNMMI'
p17
g3
(g5
S'\x0f\xa7\r~|\xff\xef?'
tRp18
tp19
a(S'FAYANRNRF_ISDYDYYRY_MTSCCSCLK_YIFFASFYY_YLDAYNMMI'
p20
g3
(g5
S'\r\xa7\r~|\xff\xef?'
tRp21
tp22
a(S'FAYANRNRF_ISDYDYYRY_ITLATCELY_MTSCCSCLK_YLDAYNMMI'
p23
g3
(g5
S'\x0b\xa7\r~|\xff\xef?'
tRp24
tp25
a(S'FAYANRNRF_HVTFFIYNK_ISDYDYYRY_RLYYDSMSY_YLDAYNMMI'
p26
g3
(g5
S'\x0b\xa7\r~|\xff\xef?'
tRp27
tp28
a(S'FAYANRNRF_ITLATCELY_LTDEMIAQY_MTSCCSCLK_YLDAYNMMI'
p29
g3
(g5
S'\x08\xa7\r~|\xff\xef?'
tRp30
tp31
a(S'FAYANRNRF_HVTFFIYNK_LTDEMIAQY_RLYYDSMSY_YLDAYNMMI'
p32
g3
(g5
S'\x05\xa7\r~|\xff\xef?'
tRp33
tp34
a.