(lp1
(S'FAYANRNRF_HVTFFIYNK_YIFFASFYY_YLDAYNMMI'
p2
cnumpy.core.multiarray
scalar
p3
(cnumpy
dtype
p4
(S'f8'
I0
I1
tRp5
(I3
S'<'
NNNI-1
I-1
I0
tbS'\x1b+\xe5ia\xff\xef?'
tRp6
tp7
a(S'ATSRTLSYY_FAYANRNRF_HVTFFIYNK_YLDAYNMMI'
p8
g3
(g5
S'\x19+\xe5ia\xff\xef?'
tRp9
tp10
a(S'FAYANRNRF_MTSCCSCLK_YIFFASFYY_YLDAYNMMI'
p11
g3
(g5
S'\x14+\xe5ia\xff\xef?'
tRp12
tp13
a(S'ATSRTLSYY_FAYANRNRF_MTSCCSCLK_YLDAYNMMI'
p14
g3
(g5
S'\x13+\xe5ia\xff\xef?'
tRp15
tp16
a(S'FAYANRNRF_MTSCCSCLK_RLYYDSMSY_YLDAYNMMI'
p17
g3
(g5
S'\x0f+\xe5ia\xff\xef?'
tRp18
tp19
a(S'FAYANRNRF_HVTFFIYNK_RLYYDSMSY_YLDAYNMMI'
p20
g3
(g5
S'\x07+\xe5ia\xff\xef?'
tRp21
tp22
a(S'FAYANRNRF_HVTFFIYNK_ITLATCELY_YLDAYNMMI'
p23
g3
(g5
S'\xfd*\xe5ia\xff\xef?'
tRp24
tp25
a(S'FAYANRNRF_ITLATCELY_MTSCCSCLK_YLDAYNMMI'
p26
g3
(g5
S'\xfb*\xe5ia\xff\xef?'
tRp27
tp28
a(S'FAYANRNRF_FLNRFTTTL_HVTFFIYNK_RLYYDSMSY'
p29
g3
(g5
S'\x83p\xa4m`\xff\xef?'
tRp30
tp31
a(S'ATSRTLSYY_FAYANRNRF_FLNRFTTTL_HVTFFIYNK'
p32
g3
(g5
S'\x80p\xa4m`\xff\xef?'
tRp33
tp34
a.