(lp1
(S'AEIRASANL_AELEGIQY_ALRANSAVK_ASKIITLKK_ATEGALNTPK_ATSRTLSYY_CPDGVKHVY_EEHVQIHTI_FAYANRNRF_FIAGLIAIV_FLLNKEMYL_FLLPSLATV_FLNRFTTTL_FLPRVFSAV_FLQSINFVR_FPPTSFGPL_FPQSAPHGV_FPRGQGVPI_FTYASALWEI_FVDGVPFVV_HVTFFIYNK_IELSLIDFYL_ILLIIMRTFK_IPRRNVATL_IPTNFTISV_ISDYDYYRY_ITLATCELY_ITLKKRWQL_KAYNVTQAF_KMQRMLLEK_KTFPPTEPK_KTSVDCTMYI_KVSIWNLDY_LEYHDVRVV_LIIMRTFKV_LLYDANYFL_LSPRWYFYY_LTDEMIAQY_LWPVTLACF_LYSPIFLIV_MGYINVFAF_MIELSLIDFY_MPASWVMRI_MTSCCSCLK_NSIAIPTNF_NVFAFPFTIY_QELYSPIFL_QLPQGTTLPK_QYIKWPWYI_RARSVSPKL_RLYYDSMSY_RQLLFVVEV_RTFKVSIWNL_SIIAYTMSL_SINFVRIIMR_SLIDFYLCFL_SPRWYFYYL_SQSIIAYTM_SSPDDQIGYY_SSRGTSPAR_SYFTSDYYQL_TMADLVYAL_TSRTLSYYK_TVYSHLLLV_VEHVTFFIY_VLWAHGFEL_VSIWNLDYII_VTPSGTWLTY_VVYRGTTTY_VYFLQSINF_YANRNRFLY_YDANYFLCW_YEQYIKWPW_YFIASFRLF_YIFFASFYY_YIIKLIFLW_YINVFAFPF_YLDAYNMMI_YLYALVYFL'
p2
cnumpy.core.multiarray
scalar
p3
(cnumpy
dtype
p4
(S'f8'
I0
I1
tRp5
(I3
S'<'
NNNI-1
I-1
I0
tbS'\xdc\xcd\xadp\x8a\xa1\xef?'
tRp6
tp7
a(S'AEIRASANL_AELEGIQY_ALRANSAVK_ASKIITLKK_ATEGALNTPK_ATSRTLSYY_CPDGVKHVY_EEHVQIHTI_FAYANRNRF_FIAGLIAIV_FLLNKEMYL_FLLPSLATV_FLNRFTTTL_FLPRVFSAV_FLQSINFVR_FPPTSFGPL_FPQSAPHGV_FPRGQGVPI_FTYASALWEI_FVDGVPFVV_HVTFFIYNK_IELSLIDFYL_ILLIIMRTFK_IPRRNVATL_IPTNFTISV_ISDYDYYRY_ITLATCELY_ITLKKRWQL_KAYNVTQAF_KMQRMLLEK_KTFPPTEPK_KTSVDCTMYI_KVSIWNLDY_LEYHDVRVV_LIIMRTFKV_LLYDANYFL_LSPRWYFYY_LTDEMIAQY_LWLLWPVTL_LYSPIFLIV_MGYINVFAF_MIELSLIDFY_MPASWVMRI_MTSCCSCLK_NSIAIPTNF_NVFAFPFTIY_QELYSPIFL_QLPQGTTLPK_QYIKWPWYI_RARSVSPKL_RLYYDSMSY_RQLLFVVEV_RTFKVSIWNL_SIIAYTMSL_SINFVRIIMR_SLIDFYLCFL_SPRWYFYYL_SQSIIAYTM_SSPDDQIGYY_SSRGTSPAR_SYFTSDYYQL_TMADLVYAL_TSRTLSYYK_TVYSHLLLV_VEHVTFFIY_VLWAHGFEL_VSIWNLDYII_VTPSGTWLTY_VVYRGTTTY_VYFLQSINF_YANRNRFLY_YDANYFLCW_YEQYIKWPW_YFIASFRLF_YIFFASFYY_YIIKLIFLW_YINVFAFPF_YLDAYNMMI_YLYALVYFL'
p8
g3
(g5
S'\xdc\xcd\xadp\x8a\xa1\xef?'
tRp9
tp10
a(S'AEIRASANL_AELEGIQY_ALRANSAVK_ASKIITLKK_ATEGALNTPK_ATSRTLSYY_CPDGVKHVY_EEHVQIHTI_FAYANRNRF_FIAGLIAIV_FLAFLLFLV_FLLNKEMYL_FLLPSLATV_FLNRFTTTL_FLPRVFSAV_FLQSINFVR_FPPTSFGPL_FPQSAPHGV_FPRGQGVPI_FTYASALWEI_FVDGVPFVV_HVTFFIYNK_IELSLIDFYL_ILLIIMRTFK_IPRRNVATL_IPTNFTISV_ISDYDYYRY_ITLATCELY_ITLKKRWQL_KAYNVTQAF_KMQRMLLEK_KTFPPTEPK_KTSVDCTMYI_KVSIWNLDY_LEYHDVRVV_LIIMRTFKV_LLYDANYFL_LSPRWYFYY_LTDEMIAQY_LWPVTLACF_LYSPIFLIV_MGYINVFAF_MIELSLIDFY_MPASWVMRI_MTSCCSCLK_NSIAIPTNF_NVFAFPFTIY_QELYSPIFL_QLPQGTTLPK_QYIKWPWYI_RARSVSPKL_RLYYDSMSY_RQLLFVVEV_RTFKVSIWNL_SIIAYTMSL_SINFVRIIMR_SPRWYFYYL_SQSIIAYTM_SSPDDQIGYY_SSRGTSPAR_SYFTSDYYQL_TMADLVYAL_TSRTLSYYK_TVYSHLLLV_VEHVTFFIY_VLWAHGFEL_VSIWNLDYII_VTPSGTWLTY_VVYRGTTTY_VYFLQSINF_YANRNRFLY_YDANYFLCW_YEQYIKWPW_YFIASFRLF_YIFFASFYY_YIIKLIFLW_YINVFAFPF_YLDAYNMMI_YLYALVYFL'
p11
g3
(g5
S'\xdc\xcd\xadp\x8a\xa1\xef?'
tRp12
tp13
a(S'AEIRASANL_AELEGIQY_ALRANSAVK_ASKIITLKK_ATEGALNTPK_ATSRTLSYY_CPDGVKHVY_EEHVQIHTI_FAYANRNRF_FIAGLIAIV_FLAFLLFLV_FLLNKEMYL_FLLPSLATV_FLNRFTTTL_FLPRVFSAV_FLQSINFVR_FPPTSFGPL_FPQSAPHGV_FPRGQGVPI_FTYASALWEI_FVDGVPFVV_HVTFFIYNK_IELSLIDFYL_ILLIIMRTFK_IPRRNVATL_IPTNFTISV_ISDYDYYRY_ITLATCELY_ITLKKRWQL_KAYNVTQAF_KMQRMLLEK_KTFPPTEPK_KTSVDCTMYI_KVSIWNLDY_LEYHDVRVV_LIIMRTFKV_LLYDANYFL_LSPRWYFYY_LTDEMIAQY_LWLLWPVTL_LYSPIFLIV_MGYINVFAF_MIELSLIDFY_MPASWVMRI_MTSCCSCLK_NSIAIPTNF_NVFAFPFTIY_QELYSPIFL_QLPQGTTLPK_QYIKWPWYI_RARSVSPKL_RLYYDSMSY_RQLLFVVEV_RTFKVSIWNL_SIIAYTMSL_SINFVRIIMR_SPRWYFYYL_SQSIIAYTM_SSPDDQIGYY_SSRGTSPAR_SYFTSDYYQL_TMADLVYAL_TSRTLSYYK_TVYSHLLLV_VEHVTFFIY_VLWAHGFEL_VSIWNLDYII_VTPSGTWLTY_VVYRGTTTY_VYFLQSINF_YANRNRFLY_YDANYFLCW_YEQYIKWPW_YFIASFRLF_YIFFASFYY_YIIKLIFLW_YINVFAFPF_YLDAYNMMI_YLYALVYFL'
p14
g3
(g5
S'\xdc\xcd\xadp\x8a\xa1\xef?'
tRp15
tp16
a(S'AEIRASANL_AELEGIQY_ALRANSAVK_ASKIITLKK_ATEGALNTPK_ATSRTLSYY_CPDGVKHVY_EEHVQIHTI_EELKKLLEQW_FAYANRNRF_FIAGLIAIV_FLLNKEMYL_FLLPSLATV_FLNRFTTTL_FLPRVFSAV_FLQSINFVR_FPPTSFGPL_FPQSAPHGV_FPRGQGVPI_FTYASALWEI_FVDGVPFVV_HVTFFIYNK_IELSLIDFYL_ILLIIMRTFK_IPRRNVATL_IPTNFTISV_ISDYDYYRY_ITLATCELY_ITLKKRWQL_KAYNVTQAF_KMQRMLLEK_KTFPPTEPK_KTSVDCTMYI_KVSIWNLDY_LEYHDVRVV_LIIMRTFKV_LLYDANYFL_LSPRWYFYY_LTDEMIAQY_LWPVTLACF_LYSPIFLIV_MGYINVFAF_MIELSLIDFY_MPASWVMRI_MTSCCSCLK_NSIAIPTNF_NVFAFPFTIY_QELYSPIFL_QLPQGTTLPK_QYIKWPWYI_RARSVSPKL_RLYYDSMSY_RQLLFVVEV_RTFKVSIWNL_SIIAYTMSL_SINFVRIIMR_SLIDFYLCFL_SPRWYFYYL_SQSIIAYTM_SSPDDQIGYY_SSRGTSPAR_SYFTSDYYQL_TMADLVYAL_TSRTLSYYK_TVYSHLLLV_VEHVTFFIY_VLWAHGFEL_VSIWNLDYII_VTPSGTWLTY_VVYRGTTTY_VYFLQSINF_YANRNRFLY_YEQYIKWPW_YFIASFRLF_YIFFASFYY_YIIKLIFLW_YINVFAFPF_YLDAYNMMI_YLYALVYFL'
p17
g3
(g5
S'\xdc\xcd\xadp\x8a\xa1\xef?'
tRp18
tp19
a(S'AEIRASANL_AELEGIQY_ALRANSAVK_ASKIITLKK_ATEGALNTPK_ATSRTLSYY_CPDGVKHVY_EEHVQIHTI_EELKKLLEQW_FAYANRNRF_FIAGLIAIV_FLLNKEMYL_FLLPSLATV_FLNRFTTTL_FLPRVFSAV_FLQSINFVR_FPPTSFGPL_FPQSAPHGV_FPRGQGVPI_FTYASALWEI_FVDGVPFVV_HVTFFIYNK_IELSLIDFYL_ILLIIMRTFK_IPRRNVATL_IPTNFTISV_ISDYDYYRY_ITLATCELY_ITLKKRWQL_KAYNVTQAF_KMQRMLLEK_KTFPPTEPK_KTSVDCTMYI_KVSIWNLDY_LEYHDVRVV_LIIMRTFKV_LLYDANYFL_LSPRWYFYY_LTDEMIAQY_LWLLWPVTL_LYSPIFLIV_MGYINVFAF_MIELSLIDFY_MPASWVMRI_MTSCCSCLK_NSIAIPTNF_NVFAFPFTIY_QELYSPIFL_QLPQGTTLPK_QYIKWPWYI_RARSVSPKL_RLYYDSMSY_RQLLFVVEV_RTFKVSIWNL_SIIAYTMSL_SINFVRIIMR_SLIDFYLCFL_SPRWYFYYL_SQSIIAYTM_SSPDDQIGYY_SSRGTSPAR_SYFTSDYYQL_TMADLVYAL_TSRTLSYYK_TVYSHLLLV_VEHVTFFIY_VLWAHGFEL_VSIWNLDYII_VTPSGTWLTY_VVYRGTTTY_VYFLQSINF_YANRNRFLY_YEQYIKWPW_YFIASFRLF_YIFFASFYY_YIIKLIFLW_YINVFAFPF_YLDAYNMMI_YLYALVYFL'
p20
g3
(g5
S'\xdc\xcd\xadp\x8a\xa1\xef?'
tRp21
tp22
a(S'AEIRASANL_AELEGIQY_ALRANSAVK_ASKIITLKK_ATEGALNTPK_ATSRTLSYY_CPDGVKHVY_EEHVQIHTI_FAYANRNRF_FIAGLIAIV_FLLNKEMYL_FLLPSLATV_FLNRFTTTL_FLPRVFSAV_FLQSINFVR_FPPTSFGPL_FPQSAPHGV_FPRGQGVPI_FTYASALWEI_FVDGVPFVV_HVTFFIYNK_IELSLIDFYL_IPRRNVATL_IPTNFTISV_ISDYDYYRY_ITLATCELY_ITLKKRWQL_KAYNVTQAF_KMQRMLLEK_KTFPPTEPK_KTSVDCTMYI_KVSIWNLDY_LEYHDVRVV_LIIMRTFKV_LLYDANYFL_LSPRWYFYY_LTDEMIAQY_LWPVTLACF_LYSPIFLIV_MGYINVFAF_MIELSLIDFY_MPASWVMRI_MTSCCSCLK_NSIAIPTNF_NVFAFPFTIY_QELYSPIFL_QLPQGTTLPK_QYIKWPWYI_RARSVSPKL_RIRGGDGKMK_RLYYDSMSY_RQLLFVVEV_RTFKVSIWNL_SIIAYTMSL_SINFVRIIMR_SLIDFYLCFL_SPRWYFYYL_SQSIIAYTM_SSPDDQIGYY_SSRGTSPAR_SYFTSDYYQL_TMADLVYAL_TSRTLSYYK_TVYSHLLLV_VEHVTFFIY_VLWAHGFEL_VSIWNLDYII_VTPSGTWLTY_VVYRGTTTY_VYFLQSINF_YANRNRFLY_YDANYFLCW_YEQYIKWPW_YFIASFRLF_YIFFASFYY_YIIKLIFLW_YINVFAFPF_YLDAYNMMI_YLYALVYFL'
p23
g3
(g5
S'#4\xec\x1f\x8a\xa1\xef?'
tRp24
tp25
a(S'AEIRASANL_AELEGIQY_ALRANSAVK_ASKIITLKK_ATEGALNTPK_ATSRTLSYY_CPDGVKHVY_EEHVQIHTI_FAYANRNRF_FIAGLIAIV_FLLNKEMYL_FLLPSLATV_FLNRFTTTL_FLPRVFSAV_FLQSINFVR_FPPTSFGPL_FPQSAPHGV_FPRGQGVPI_FTYASALWEI_FVDGVPFVV_HVTFFIYNK_IELSLIDFYL_IPRRNVATL_IPTNFTISV_ISDYDYYRY_ITLATCELY_ITLKKRWQL_KAYNVTQAF_KMQRMLLEK_KTFPPTEPK_KTSVDCTMYI_KVSIWNLDY_LEYHDVRVV_LIIMRTFKV_LLYDANYFL_LSPRWYFYY_LTDEMIAQY_LWLLWPVTL_LYSPIFLIV_MGYINVFAF_MIELSLIDFY_MPASWVMRI_MTSCCSCLK_NSIAIPTNF_NVFAFPFTIY_QELYSPIFL_QLPQGTTLPK_QYIKWPWYI_RARSVSPKL_RIRGGDGKMK_RLYYDSMSY_RQLLFVVEV_RTFKVSIWNL_SIIAYTMSL_SINFVRIIMR_SLIDFYLCFL_SPRWYFYYL_SQSIIAYTM_SSPDDQIGYY_SSRGTSPAR_SYFTSDYYQL_TMADLVYAL_TSRTLSYYK_TVYSHLLLV_VEHVTFFIY_VLWAHGFEL_VSIWNLDYII_VTPSGTWLTY_VVYRGTTTY_VYFLQSINF_YANRNRFLY_YDANYFLCW_YEQYIKWPW_YFIASFRLF_YIFFASFYY_YIIKLIFLW_YINVFAFPF_YLDAYNMMI_YLYALVYFL'
p26
g3
(g5
S'#4\xec\x1f\x8a\xa1\xef?'
tRp27
tp28
a(S'AEIRASANL_AELEGIQY_ALRANSAVK_ASKIITLKK_ATEGALNTPK_ATSRTLSYY_CPDGVKHVY_EEHVQIHTI_FAYANRNRF_FIAGLIAIV_FLLNKEMYL_FLLPSLATV_FLNRFTTTL_FLPRVFSAV_FLQSINFVR_FPPTSFGPL_FPQSAPHGV_FPRGQGVPI_FTYASALWEI_FVDGVPFVV_HVTFFIYNK_IELSLIDFYL_IPRRNVATL_IPTNFTISV_ISDYDYYRY_ITLATCELY_ITLKKRWQL_KAYNVTQAF_KMQRMLLEK_KQIYKTPPIK_KTFPPTEPK_KTSVDCTMYI_KVSIWNLDY_LEYHDVRVV_LIIMRTFKV_LLYDANYFL_LSPRWYFYY_LTDEMIAQY_LWPVTLACF_LYSPIFLIV_MGYINVFAF_MIELSLIDFY_MPASWVMRI_MTSCCSCLK_NSIAIPTNF_NVFAFPFTIY_QELYSPIFL_QLPQGTTLPK_QYIKWPWYI_RARSVSPKL_RLYYDSMSY_RQLLFVVEV_RTFKVSIWNL_SIIAYTMSL_SINFVRIIMR_SLIDFYLCFL_SPRWYFYYL_SQSIIAYTM_SSPDDQIGYY_SSRGTSPAR_SYFTSDYYQL_TMADLVYAL_TSRTLSYYK_TVYSHLLLV_VEHVTFFIY_VLWAHGFEL_VSIWNLDYII_VTPSGTWLTY_VVYRGTTTY_VYFLQSINF_YANRNRFLY_YDANYFLCW_YEQYIKWPW_YFIASFRLF_YIFFASFYY_YIIKLIFLW_YINVFAFPF_YLDAYNMMI_YLYALVYFL'
p29
g24
tp30
a(S'AEIRASANL_AELEGIQY_ALRANSAVK_ASKIITLKK_ATEGALNTPK_ATSRTLSYY_CPDGVKHVY_EEHVQIHTI_FAYANRNRF_FIAGLIAIV_FLLNKEMYL_FLLPSLATV_FLNRFTTTL_FLPRVFSAV_FLQSINFVR_FPPTSFGPL_FPQSAPHGV_FPRGQGVPI_FTYASALWEI_FVDGVPFVV_HVTFFIYNK_IELSLIDFYL_IPRRNVATL_IPTNFTISV_ISDYDYYRY_ITLATCELY_ITLKKRWQL_KAYNVTQAF_KMQRMLLEK_KQIYKTPPIK_KTFPPTEPK_KTSVDCTMYI_KVSIWNLDY_LEYHDVRVV_LIIMRTFKV_LLYDANYFL_LSPRWYFYY_LTDEMIAQY_LWLLWPVTL_LYSPIFLIV_MGYINVFAF_MIELSLIDFY_MPASWVMRI_MTSCCSCLK_NSIAIPTNF_NVFAFPFTIY_QELYSPIFL_QLPQGTTLPK_QYIKWPWYI_RARSVSPKL_RLYYDSMSY_RQLLFVVEV_RTFKVSIWNL_SIIAYTMSL_SINFVRIIMR_SLIDFYLCFL_SPRWYFYYL_SQSIIAYTM_SSPDDQIGYY_SSRGTSPAR_SYFTSDYYQL_TMADLVYAL_TSRTLSYYK_TVYSHLLLV_VEHVTFFIY_VLWAHGFEL_VSIWNLDYII_VTPSGTWLTY_VVYRGTTTY_VYFLQSINF_YANRNRFLY_YDANYFLCW_YEQYIKWPW_YFIASFRLF_YIFFASFYY_YIIKLIFLW_YINVFAFPF_YLDAYNMMI_YLYALVYFL'
p31
g27
tp32
a.