(lp1
(S'FAYANRNRF_HVTFFIYNK_ISDYDYYRY_ITLKKRWQL_RLYYDSMSY_YLDAYNMMI'
p2
cnumpy.core.multiarray
scalar
p3
(cnumpy
dtype
p4
(S'f8'
I0
I1
tRp5
(I3
S'<'
NNNI-1
I-1
I0
tbS'\xbb\xaf\x064\x94\xff\xef?'
tRp6
tp7
a(S'ATSRTLSYY_FAYANRNRF_ISDYDYYRY_ITLKKRWQL_MTSCCSCLK_YLDAYNMMI'
p8
g3
(g5
S'\xb8\xaf\x064\x94\xff\xef?'
tRp9
tp10
a(S'ATSRTLSYY_FAYANRNRF_HVTFFIYNK_ISDYDYYRY_ITLKKRWQL_YLDAYNMMI'
p11
g3
(g5
S'\xb5\xaf\x064\x94\xff\xef?'
tRp12
tp13
a(S'FAYANRNRF_ISDYDYYRY_ITLKKRWQL_MTSCCSCLK_RLYYDSMSY_YLDAYNMMI'
p14
g3
(g5
S'\xb4\xaf\x064\x94\xff\xef?'
tRp15
tp16
a(S'FAYANRNRF_HVTFFIYNK_ISDYDYYRY_ITLATCELY_ITLKKRWQL_YLDAYNMMI'
p17
g3
(g5
S'\xb4\xaf\x064\x94\xff\xef?'
tRp18
tp19
a(S'FAYANRNRF_HVTFFIYNK_ITLKKRWQL_LTDEMIAQY_RLYYDSMSY_YLDAYNMMI'
p20
g3
(g5
S'\xad\xaf\x064\x94\xff\xef?'
tRp21
tp22
a(S'FAYANRNRF_ISDYDYYRY_ITLATCELY_ITLKKRWQL_MTSCCSCLK_YLDAYNMMI'
p23
g3
(g5
S'\xac\xaf\x064\x94\xff\xef?'
tRp24
tp25
a(S'FAYANRNRF_ISDYDYYRY_ITLKKRWQL_MTSCCSCLK_YIFFASFYY_YLDAYNMMI'
p26
g3
(g5
S'\xab\xaf\x064\x94\xff\xef?'
tRp27
tp28
a(S'ATSRTLSYY_FAYANRNRF_HVTFFIYNK_ITLKKRWQL_LTDEMIAQY_YLDAYNMMI'
p29
g3
(g5
S'\xa1\xaf\x064\x94\xff\xef?'
tRp30
tp31
a(S'FAYANRNRF_ITLATCELY_ITLKKRWQL_LTDEMIAQY_MTSCCSCLK_YLDAYNMMI'
p32
g3
(g5
S'\x9d\xaf\x064\x94\xff\xef?'
tRp33
tp34
a.