(lp1
(S'ATSRTLSYY_FAYANRNRF_HVTFFIYNK_ISDYDYYRY_ITLKKRWQL_MTSCCSCLK_NVFAFPFTIY_SIIAYTMSL_SINFVRIIMR_YEQYIKWPW_YIFFASFYY_YLDAYNMMI_YLYALVYFL'
p2
cnumpy.core.multiarray
scalar
p3
(cnumpy
dtype
p4
(S'f8'
I0
I1
tRp5
(I3
S'<'
NNNI-1
I-1
I0
tbS'\xdd\x14\xce\xce5\xf4\xef?'
tRp6
tp7
a(S'AELEGIQY_ATSRTLSYY_FAYANRNRF_HVTFFIYNK_ISDYDYYRY_ITLKKRWQL_MTSCCSCLK_NVFAFPFTIY_SIIAYTMSL_SINFVRIIMR_YIFFASFYY_YLDAYNMMI_YLYALVYFL'
p8
g3
(g5
S'\xe9\xc6\xedr2\xf4\xef?'
tRp9
tp10
a(S'ATSRTLSYY_FAYANRNRF_FLQSINFVR_HVTFFIYNK_ISDYDYYRY_ITLATCELY_ITLKKRWQL_MTSCCSCLK_NVFAFPFTIY_SIIAYTMSL_YEQYIKWPW_YLDAYNMMI_YLYALVYFL'
p11
g3
(g5
S'_\x8eAR\x04\xf4\xef?'
tRp12
tp13
a(S'ATSRTLSYY_FAYANRNRF_HVTFFIYNK_ISDYDYYRY_ITLATCELY_ITLKKRWQL_MTSCCSCLK_NVFAFPFTIY_SIIAYTMSL_SINFVRIIMR_YEQYIKWPW_YLDAYNMMI_YLYALVYFL'
p14
g3
(g5
S'\xad\xc5F\x89\x03\xf4\xef?'
tRp15
tp16
a(S'ATSRTLSYY_FAYANRNRF_FLQSINFVR_HVTFFIYNK_ISDYDYYRY_ITLKKRWQL_MTSCCSCLK_NVFAFPFTIY_RLYYDSMSY_SIIAYTMSL_YEQYIKWPW_YLDAYNMMI_YLYALVYFL'
p17
g3
(g5
S'E\x90\xa7S\x02\xf4\xef?'
tRp18
tp19
a(S'ATSRTLSYY_FAYANRNRF_HVTFFIYNK_ISDYDYYRY_ITLKKRWQL_MTSCCSCLK_NVFAFPFTIY_RLYYDSMSY_SIIAYTMSL_SINFVRIIMR_YEQYIKWPW_YLDAYNMMI_YLYALVYFL'
p20
g3
(g5
S'\x9b\xc7\xac\x8a\x01\xf4\xef?'
tRp21
tp22
a(S'AELEGIQY_ATSRTLSYY_FAYANRNRF_FLQSINFVR_HVTFFIYNK_ISDYDYYRY_ITLATCELY_ITLKKRWQL_MTSCCSCLK_NVFAFPFTIY_SIIAYTMSL_YLDAYNMMI_YLYALVYFL'
p23
g3
(g5
S'l@a\xf6\x00\xf4\xef?'
tRp24
tp25
a(S'AELEGIQY_ATSRTLSYY_FAYANRNRF_HVTFFIYNK_ISDYDYYRY_ITLATCELY_ITLKKRWQL_MTSCCSCLK_NVFAFPFTIY_SIIAYTMSL_SINFVRIIMR_YLDAYNMMI_YLYALVYFL'
p26
g3
(g5
S'\xb8wf-\x00\xf4\xef?'
tRp27
tp28
a(S'AELEGIQY_ATSRTLSYY_FAYANRNRF_FLQSINFVR_HVTFFIYNK_ISDYDYYRY_ITLKKRWQL_MTSCCSCLK_NVFAFPFTIY_RLYYDSMSY_SIIAYTMSL_YLDAYNMMI_YLYALVYFL'
p29
g3
(g5
S'SB\xc7\xf7\xfe\xf3\xef?'
tRp30
tp31
a(S'AELEGIQY_ATSRTLSYY_FAYANRNRF_HVTFFIYNK_ISDYDYYRY_ITLKKRWQL_MTSCCSCLK_NVFAFPFTIY_RLYYDSMSY_SIIAYTMSL_SINFVRIIMR_YLDAYNMMI_YLYALVYFL'
p32
g3
(g5
S'\xa5y\xcc.\xfe\xf3\xef?'
tRp33
tp34
a.