(lp1
(S'AEIRASANL_AELEGIQY_ATSRTLSYY_EEHVQIHTI_FAYANRNRF_FLLPSLATV_FLNRFTTTL_FLQSINFVR_FPRGQGVPI_FTYASALWEI_FVDGVPFVV_HVTFFIYNK_ISDYDYYRY_ITLKKRWQL_KTFPPTEPK_LLYDANYFL_MTSCCSCLK_NVFAFPFTIY_SIIAYTMSL_SINFVRIIMR_TMADLVYAL_TVYSHLLLV_YANRNRFLY_YEQYIKWPW_YIFFASFYY_YLDAYNMMI_YLYALVYFL'
p2
cnumpy.core.multiarray
scalar
p3
(cnumpy
dtype
p4
(S'f8'
I0
I1
tRp5
(I3
S'<'
NNNI-1
I-1
I0
tbS'\xd1\xad\xcaP\xa3\xe1\xef?'
tRp6
tp7
a(S'AEIRASANL_AELEGIQY_ATSRTLSYY_EEHVQIHTI_FAYANRNRF_FLLPSLATV_FLNRFTTTL_FLQSINFVR_FPRGQGVPI_FTYASALWEI_FVDGVPFVV_HVTFFIYNK_ISDYDYYRY_ITLKKRWQL_LLYDANYFL_MTSCCSCLK_NVFAFPFTIY_SIIAYTMSL_SINFVRIIMR_TMADLVYAL_TSRTLSYYK_TVYSHLLLV_YANRNRFLY_YEQYIKWPW_YIFFASFYY_YLDAYNMMI_YLYALVYFL'
p8
g3
(g5
S's\x01\xe4\xae\x9f\xe1\xef?'
tRp9
tp10
a(S'AEIRASANL_AELEGIQY_ALRANSAVK_ATSRTLSYY_EEHVQIHTI_FAYANRNRF_FLLPSLATV_FLNRFTTTL_FLQSINFVR_FPRGQGVPI_FTYASALWEI_FVDGVPFVV_HVTFFIYNK_ISDYDYYRY_ITLKKRWQL_LLYDANYFL_MTSCCSCLK_NVFAFPFTIY_SIIAYTMSL_SINFVRIIMR_TMADLVYAL_TVYSHLLLV_YANRNRFLY_YEQYIKWPW_YIFFASFYY_YLDAYNMMI_YLYALVYFL'
p11
g3
(g5
S'\x9f\xb0\xe5\xfa\x9c\xe1\xef?'
tRp12
tp13
a(S'AEIRASANL_ATSRTLSYY_EEHVQIHTI_FAYANRNRF_FLLPSLATV_FLNRFTTTL_FLQSINFVR_FPRGQGVPI_FTYASALWEI_FVDGVPFVV_HVTFFIYNK_ISDYDYYRY_ITLKKRWQL_KTFPPTEPK_LLYDANYFL_MTSCCSCLK_NVFAFPFTIY_SIIAYTMSL_SINFVRIIMR_TMADLVYAL_TVYSHLLLV_VEHVTFFIY_YANRNRFLY_YEQYIKWPW_YIFFASFYY_YLDAYNMMI_YLYALVYFL'
p14
g3
(g5
S'AcU\xdc\x9a\xe1\xef?'
tRp15
tp16
a(S'AEIRASANL_ATSRTLSYY_EEHVQIHTI_FAYANRNRF_FLLPSLATV_FLNRFTTTL_FLQSINFVR_FPRGQGVPI_FTYASALWEI_FVDGVPFVV_HVTFFIYNK_ISDYDYYRY_ITLKKRWQL_LLYDANYFL_MTSCCSCLK_NVFAFPFTIY_SIIAYTMSL_SINFVRIIMR_TMADLVYAL_TSRTLSYYK_TVYSHLLLV_VEHVTFFIY_YANRNRFLY_YEQYIKWPW_YIFFASFYY_YLDAYNMMI_YLYALVYFL'
p17
g3
(g5
S'\xe0\xb6n:\x97\xe1\xef?'
tRp18
tp19
a(S'AEIRASANL_ALRANSAVK_ATSRTLSYY_EEHVQIHTI_FAYANRNRF_FLLPSLATV_FLNRFTTTL_FLQSINFVR_FPRGQGVPI_FTYASALWEI_FVDGVPFVV_HVTFFIYNK_ISDYDYYRY_ITLKKRWQL_LLYDANYFL_MTSCCSCLK_NVFAFPFTIY_SIIAYTMSL_SINFVRIIMR_TMADLVYAL_TVYSHLLLV_VEHVTFFIY_YANRNRFLY_YEQYIKWPW_YIFFASFYY_YLDAYNMMI_YLYALVYFL'
p20
g3
(g5
S'\x8d\xd7\x9fm\x94\xe1\xef?'
tRp21
tp22
a(S'AEIRASANL_ATSRTLSYY_EEHVQIHTI_FAYANRNRF_FLLPSLATV_FLNRFTTTL_FLQSINFVR_FPRGQGVPI_FTYASALWEI_FVDGVPFVV_HVTFFIYNK_ISDYDYYRY_ITLKKRWQL_KTFPPTEPK_LLYDANYFL_MPASWVMRI_MTSCCSCLK_NVFAFPFTIY_SIIAYTMSL_SINFVRIIMR_TMADLVYAL_TVYSHLLLV_YANRNRFLY_YEQYIKWPW_YIFFASFYY_YLDAYNMMI_YLYALVYFL'
p23
g3
(g5
S'\xcd[\x92&t\xe1\xef?'
tRp24
tp25
a(S'AEIRASANL_ATSRTLSYY_EEHVQIHTI_FAYANRNRF_FLLPSLATV_FLNRFTTTL_FLQSINFVR_FPRGQGVPI_FTYASALWEI_FVDGVPFVV_HVTFFIYNK_ISDYDYYRY_ITLKKRWQL_LLYDANYFL_MPASWVMRI_MTSCCSCLK_NVFAFPFTIY_SIIAYTMSL_SINFVRIIMR_TMADLVYAL_TSRTLSYYK_TVYSHLLLV_YANRNRFLY_YEQYIKWPW_YIFFASFYY_YLDAYNMMI_YLYALVYFL'
p26
g3
(g5
S'\x15\xad\x81\xebp\xe1\xef?'
tRp27
tp28
a(S'AEIRASANL_AELEGIQY_ATSRTLSYY_FAYANRNRF_FLLPSLATV_FLNRFTTTL_FLQSINFVR_FPRGQGVPI_FTYASALWEI_FVDGVPFVV_HVTFFIYNK_ISDYDYYRY_ITLKKRWQL_KTFPPTEPK_LLYDANYFL_MGYINVFAF_MTSCCSCLK_NVFAFPFTIY_SIIAYTMSL_SINFVRIIMR_TMADLVYAL_TVYSHLLLV_YANRNRFLY_YEQYIKWPW_YIFFASFYY_YLDAYNMMI_YLYALVYFL'
p29
g3
(g5
S'\x8c\xbb\xf6\x8ao\xe1\xef?'
tRp30
tp31
a(S'AEIRASANL_ALRANSAVK_ATSRTLSYY_EEHVQIHTI_FAYANRNRF_FLLPSLATV_FLNRFTTTL_FLQSINFVR_FPRGQGVPI_FTYASALWEI_FVDGVPFVV_HVTFFIYNK_ISDYDYYRY_ITLKKRWQL_LLYDANYFL_MPASWVMRI_MTSCCSCLK_NVFAFPFTIY_SIIAYTMSL_SINFVRIIMR_TMADLVYAL_TVYSHLLLV_YANRNRFLY_YEQYIKWPW_YIFFASFYY_YLDAYNMMI_YLYALVYFL'
p32
g3
(g5
S'\x1c\xd1\xf5\xeel\xe1\xef?'
tRp33
tp34
a.