(lp1
(S'AEIRASANL_AELEGIQY_ALRANSAVK_ASKIITLKK_ATEGALNTPK_ATSRTLSYY_CPDGVKHVY_DLFMRIFTI_EEHVQIHTI_FAYANRNRF_FIAGLIAIV_FLAFLLFLV_FLLNKEMYL_FLLPSLATV_FLNRFTTTL_FLPRVFSAV_FLQSINFVR_FPPTSFGPL_FPQSAPHGV_FPRGQGVPI_FTYASALWEI_FVDGVPFVV_HVTFFIYNK_IELSLIDFYL_ILLIIMRTFK_IPIQASLPF_IPRRNVATL_IPTNFTISV_ISDYDYYRY_ITLATCELY_ITLKKRWQL_KAYNVTQAF_KMQRMLLEK_KTFPPTEPK_KTSVDCTMYI_KVSIWNLDY_LEYHDVRVV_LIIMRTFKV_LLYDANYFL_LSPRWYFYY_LTDEMIAQY_LWLLWPVTL_LWPVTLACF_LYSPIFLIV_MGYINVFAF_MIELSLIDFY_MPASWVMRI_MTSCCSCLK_NSIAIPTNF_NVFAFPFTIY_QELIRQGTDY_QELYSPIFL_QLPQGTTLPK_QYIKWPWYI_RARSVSPKL_RLYYDSMSY_RQLLFVVEV_RTFKVSIWNL_SELVIGAVI_SIIAYTMSL_SINFVRIIMR_SLIDFYLCFL_SPRWYFYYL_SQSIIAYTM_SSPDDQIGYY_SSRGTSPAR_SYFTSDYYQL_TMADLVYAL_TSRTLSYYK_TVYSHLLLV_VEHVTFFIY_VLWAHGFEL_VSIWNLDYII_VTPSGTWLTY_VVYRGTTTY_VYFLQSINF_WPVTLACFVL_YANRNRFLY_YDANYFLCW_YEQYIKWPW_YFIASFRLF_YFTSDYYQLY_YIFFASFYY_YIIKLIFLW_YINVFAFPF_YLDAYNMMI_YLYALVYFL_YTVSCLPFTI'
p2
cnumpy.core.multiarray
scalar
p3
(cnumpy
dtype
p4
(S'f8'
I0
I1
tRp5
(I3
S'<'
NNNI-1
I-1
I0
tbS'5\x19\xe3\xbc\xb6\xa8\xef?'
tRp6
tp7
a(S'AEIRASANL_AELEGIQY_ALRANSAVK_ASKIITLKK_ATEGALNTPK_ATSRTLSYY_CPDGVKHVY_DLFMRIFTI_EEHVQIHTI_EELKKLLEQW_FAYANRNRF_FIAGLIAIV_FLAFLLFLV_FLLNKEMYL_FLLPSLATV_FLNRFTTTL_FLPRVFSAV_FLQSINFVR_FPPTSFGPL_FPQSAPHGV_FPRGQGVPI_FTYASALWEI_FVDGVPFVV_HVTFFIYNK_IELSLIDFYL_ILLIIMRTFK_IPIQASLPF_IPRRNVATL_IPTNFTISV_ISDYDYYRY_ITLATCELY_ITLKKRWQL_KAYNVTQAF_KMQRMLLEK_KTFPPTEPK_KTSVDCTMYI_KVSIWNLDY_LEYHDVRVV_LIIMRTFKV_LLYDANYFL_LSPRWYFYY_LTDEMIAQY_LWLLWPVTL_LWPVTLACF_LYSPIFLIV_MGYINVFAF_MIELSLIDFY_MPASWVMRI_MTSCCSCLK_NSIAIPTNF_NVFAFPFTIY_QELYSPIFL_QLPQGTTLPK_QYIKWPWYI_RARSVSPKL_RLYYDSMSY_RQLLFVVEV_RTFKVSIWNL_SELVIGAVI_SIIAYTMSL_SINFVRIIMR_SLIDFYLCFL_SPRWYFYYL_SQSIIAYTM_SSPDDQIGYY_SSRGTSPAR_SYFTSDYYQL_TMADLVYAL_TSRTLSYYK_TVYSHLLLV_VEHVTFFIY_VLWAHGFEL_VSIWNLDYII_VTPSGTWLTY_VVYRGTTTY_VYFLQSINF_WPVTLACFVL_YANRNRFLY_YDANYFLCW_YEQYIKWPW_YFIASFRLF_YFTSDYYQLY_YIFFASFYY_YIIKLIFLW_YINVFAFPF_YLDAYNMMI_YLYALVYFL_YTVSCLPFTI'
p8
g3
(g5
S'5\x19\xe3\xbc\xb6\xa8\xef?'
tRp9
tp10
a(S'AEIRASANL_AELEGIQY_ALRANSAVK_ASKIITLKK_ATEGALNTPK_ATSRTLSYY_CPDGVKHVY_DLFMRIFTI_EEHVQIHTI_EELKKLLEQW_FAYANRNRF_FIAGLIAIV_FLAFLLFLV_FLLNKEMYL_FLLPSLATV_FLNRFTTTL_FLPRVFSAV_FLQSINFVR_FPPTSFGPL_FPQSAPHGV_FPRGQGVPI_FTYASALWEI_FVDGVPFVV_HVTFFIYNK_IELSLIDFYL_ILLIIMRTFK_IPIQASLPF_IPRRNVATL_IPTNFTISV_ISDYDYYRY_ITLATCELY_ITLKKRWQL_KAYNVTQAF_KMQRMLLEK_KTFPPTEPK_KTSVDCTMYI_KVSIWNLDY_LEYHDVRVV_LIIMRTFKV_LLYDANYFL_LSPRWYFYY_LTDEMIAQY_LWLLWPVTL_LWPVTLACF_LYSPIFLIV_MGYINVFAF_MIELSLIDFY_MPASWVMRI_MTSCCSCLK_NSIAIPTNF_NVFAFPFTIY_QELIRQGTDY_QELYSPIFL_QLPQGTTLPK_QYIKWPWYI_RARSVSPKL_RLYYDSMSY_RQLLFVVEV_RTFKVSIWNL_SELVIGAVI_SIIAYTMSL_SINFVRIIMR_SLIDFYLCFL_SPRWYFYYL_SQSIIAYTM_SSPDDQIGYY_SSRGTSPAR_SYFTSDYYQL_TMADLVYAL_TSRTLSYYK_TVYSHLLLV_VEHVTFFIY_VLWAHGFEL_VSIWNLDYII_VTPSGTWLTY_VVYRGTTTY_VYFLQSINF_WPVTLACFVL_YANRNRFLY_YEQYIKWPW_YFIASFRLF_YFTSDYYQLY_YIFFASFYY_YIIKLIFLW_YINVFAFPF_YLDAYNMMI_YLYALVYFL_YTVSCLPFTI'
p11
g3
(g5
S'5\x19\xe3\xbc\xb6\xa8\xef?'
tRp12
tp13
a(S'AEIRASANL_AELEGIQY_ALRANSAVK_ASKIITLKK_ATEGALNTPK_ATSRTLSYY_CPDGVKHVY_DLFMRIFTI_EEHVQIHTI_EELKKLLEQW_FAYANRNRF_FIAGLIAIV_FLAFLLFLV_FLLNKEMYL_FLLPSLATV_FLNRFTTTL_FLPRVFSAV_FLQSINFVR_FPPTSFGPL_FPQSAPHGV_FPRGQGVPI_FTYASALWEI_FVDGVPFVV_HVTFFIYNK_IELSLIDFYL_ILLIIMRTFK_IPIQASLPF_IPRRNVATL_IPTNFTISV_ISDYDYYRY_ITLATCELY_ITLKKRWQL_KAYNVTQAF_KEIDRLNEV_KMQRMLLEK_KTFPPTEPK_KTSVDCTMYI_KVSIWNLDY_LEYHDVRVV_LIIMRTFKV_LLYDANYFL_LSPRWYFYY_LTDEMIAQY_LWLLWPVTL_LWPVTLACF_LYSPIFLIV_MGYINVFAF_MIELSLIDFY_MPASWVMRI_MTSCCSCLK_NSIAIPTNF_NVFAFPFTIY_QELYSPIFL_QLPQGTTLPK_QYIKWPWYI_RARSVSPKL_RLYYDSMSY_RQLLFVVEV_RTFKVSIWNL_SIIAYTMSL_SINFVRIIMR_SLIDFYLCFL_SPRWYFYYL_SQSIIAYTM_SSPDDQIGYY_SSRGTSPAR_SYFTSDYYQL_TMADLVYAL_TSRTLSYYK_TVYSHLLLV_VEHVTFFIY_VLWAHGFEL_VSIWNLDYII_VTPSGTWLTY_VVYRGTTTY_VYFLQSINF_WPVTLACFVL_YANRNRFLY_YDANYFLCW_YEQYIKWPW_YFIASFRLF_YFTSDYYQLY_YIFFASFYY_YIIKLIFLW_YINVFAFPF_YLDAYNMMI_YLYALVYFL_YTVSCLPFTI'
p14
g3
(g5
S'#\xf0j\xad\xb6\xa8\xef?'
tRp15
tp16
a(S'AEIRASANL_AELEGIQY_ALRANSAVK_ASKIITLKK_ATEGALNTPK_ATSRTLSYY_CPDGVKHVY_DLFMRIFTI_EEHVQIHTI_FAYANRNRF_FIAGLIAIV_FLAFLLFLV_FLLNKEMYL_FLLPSLATV_FLNRFTTTL_FLPRVFSAV_FLQSINFVR_FPPTSFGPL_FPQSAPHGV_FPRGQGVPI_FTYASALWEI_FVDGVPFVV_HVTFFIYNK_IELSLIDFYL_ILLIIMRTFK_IPIQASLPF_IPRRNVATL_IPTNFTISV_ISDYDYYRY_ITLATCELY_ITLKKRWQL_KAYNVTQAF_KEIDRLNEV_KMQRMLLEK_KTFPPTEPK_KTSVDCTMYI_KVSIWNLDY_LEYHDVRVV_LIIMRTFKV_LLYDANYFL_LSPRWYFYY_LTDEMIAQY_LWLLWPVTL_LWPVTLACF_LYSPIFLIV_MGYINVFAF_MIELSLIDFY_MPASWVMRI_MTSCCSCLK_NSIAIPTNF_NVFAFPFTIY_QELIRQGTDY_QELYSPIFL_QLPQGTTLPK_QYIKWPWYI_RARSVSPKL_RLYYDSMSY_RQLLFVVEV_RTFKVSIWNL_SIIAYTMSL_SINFVRIIMR_SLIDFYLCFL_SPRWYFYYL_SQSIIAYTM_SSPDDQIGYY_SSRGTSPAR_SYFTSDYYQL_TMADLVYAL_TSRTLSYYK_TVYSHLLLV_VEHVTFFIY_VLWAHGFEL_VSIWNLDYII_VTPSGTWLTY_VVYRGTTTY_VYFLQSINF_WPVTLACFVL_YANRNRFLY_YDANYFLCW_YEQYIKWPW_YFIASFRLF_YFTSDYYQLY_YIFFASFYY_YIIKLIFLW_YINVFAFPF_YLDAYNMMI_YLYALVYFL_YTVSCLPFTI'
p17
g3
(g5
S'\xe7\x8b\xaf\xa9\xb6\xa8\xef?'
tRp18
tp19
a(S'AEIRASANL_AELEGIQY_ALRANSAVK_ASKIITLKK_ATEGALNTPK_ATSRTLSYY_CPDGVKHVY_DLFMRIFTI_EEHVQIHTI_FAYANRNRF_FIAGLIAIV_FLAFLLFLV_FLLNKEMYL_FLLPSLATV_FLNRFTTTL_FLPRVFSAV_FLQSINFVR_FPPTSFGPL_FPQSAPHGV_FPRGQGVPI_FTYASALWEI_FVDGVPFVV_FYLCFLAFL_HVTFFIYNK_IELSLIDFYL_ILLIIMRTFK_IPIQASLPF_IPRRNVATL_IPTNFTISV_ISDYDYYRY_ITLATCELY_ITLKKRWQL_KAYNVTQAF_KMQRMLLEK_KTFPPTEPK_KTSVDCTMYI_KVSIWNLDY_LEYHDVRVV_LIIMRTFKV_LLYDANYFL_LSPRWYFYY_LTDEMIAQY_LWPVTLACF_LYSPIFLIV_MGYINVFAF_MIELSLIDFY_MPASWVMRI_MTSCCSCLK_NSIAIPTNF_NVFAFPFTIY_QELIRQGTDY_QELYSPIFL_QLPQGTTLPK_QYIKWPWYI_RARSVSPKL_RLYYDSMSY_RQLLFVVEV_RTFKVSIWNL_SELVIGAVI_SIIAYTMSL_SINFVRIIMR_SLIDFYLCFL_SPRWYFYYL_SQSIIAYTM_SSPDDQIGYY_SSRGTSPAR_SYFTSDYYQL_TMADLVYAL_TSRTLSYYK_TVYSHLLLV_VEHVTFFIY_VLWAHGFEL_VSIWNLDYII_VTPSGTWLTY_VVYRGTTTY_VYFLQSINF_WPVTLACFVL_YANRNRFLY_YDANYFLCW_YEQYIKWPW_YFIASFRLF_YFTSDYYQLY_YIFFASFYY_YIIKLIFLW_YINVFAFPF_YLDAYNMMI_YLYALVYFL_YTVSCLPFTI'
p20
g3
(g5
S'\xff\xadI\xd3\xb4\xa8\xef?'
tRp21
tp22
a(S'AEIRASANL_AELEGIQY_ALRANSAVK_ASKIITLKK_ATEGALNTPK_ATSRTLSYY_CPDGVKHVY_DLFMRIFTI_EEHVQIHTI_FAYANRNRF_FIAGLIAIV_FLAFLLFLV_FLLNKEMYL_FLLPSLATV_FLNRFTTTL_FLPRVFSAV_FLQSINFVR_FPPTSFGPL_FPQSAPHGV_FPRGQGVPI_FTYASALWEI_FVDGVPFVV_FYLCFLAFL_HVTFFIYNK_IELSLIDFYL_ILLIIMRTFK_IPIQASLPF_IPRRNVATL_IPTNFTISV_ISDYDYYRY_ITLATCELY_ITLKKRWQL_KAYNVTQAF_KMQRMLLEK_KTFPPTEPK_KTSVDCTMYI_KVSIWNLDY_LEYHDVRVV_LIIMRTFKV_LLYDANYFL_LSPRWYFYY_LTDEMIAQY_LWLLWPVTL_LYSPIFLIV_MGYINVFAF_MIELSLIDFY_MPASWVMRI_MTSCCSCLK_NSIAIPTNF_NVFAFPFTIY_QELIRQGTDY_QELYSPIFL_QLPQGTTLPK_QYIKWPWYI_RARSVSPKL_RLYYDSMSY_RQLLFVVEV_RTFKVSIWNL_SELVIGAVI_SIIAYTMSL_SINFVRIIMR_SLIDFYLCFL_SPRWYFYYL_SQSIIAYTM_SSPDDQIGYY_SSRGTSPAR_SYFTSDYYQL_TMADLVYAL_TSRTLSYYK_TVYSHLLLV_VEHVTFFIY_VLWAHGFEL_VSIWNLDYII_VTPSGTWLTY_VVYRGTTTY_VYFLQSINF_WPVTLACFVL_YANRNRFLY_YDANYFLCW_YEQYIKWPW_YFIASFRLF_YFTSDYYQLY_YIFFASFYY_YIIKLIFLW_YINVFAFPF_YLDAYNMMI_YLYALVYFL_YTVSCLPFTI'
p23
g3
(g5
S'\xff\xadI\xd3\xb4\xa8\xef?'
tRp24
tp25
a(S'AEIRASANL_AELEGIQY_ALRANSAVK_ASKIITLKK_ATEGALNTPK_ATSRTLSYY_CPDGVKHVY_DLFMRIFTI_EEHVQIHTI_FAYANRNRF_FIAGLIAIV_FLAFLLFLV_FLLNKEMYL_FLLPSLATV_FLNRFTTTL_FLPRVFSAV_FLQSINFVR_FPPTSFGPL_FPQSAPHGV_FPRGQGVPI_FTYASALWEI_FVDGVPFVV_FYLCFLAFLL_HVTFFIYNK_IELSLIDFYL_ILLIIMRTFK_IPIQASLPF_IPRRNVATL_IPTNFTISV_ISDYDYYRY_ITLATCELY_ITLKKRWQL_KAYNVTQAF_KMQRMLLEK_KTFPPTEPK_KTSVDCTMYI_KVSIWNLDY_LEYHDVRVV_LIIMRTFKV_LLYDANYFL_LSPRWYFYY_LTDEMIAQY_LWPVTLACF_LYSPIFLIV_MGYINVFAF_MIELSLIDFY_MPASWVMRI_MTSCCSCLK_NSIAIPTNF_NVFAFPFTIY_QELIRQGTDY_QELYSPIFL_QLPQGTTLPK_QYIKWPWYI_RARSVSPKL_RLYYDSMSY_RQLLFVVEV_RTFKVSIWNL_SELVIGAVI_SIIAYTMSL_SINFVRIIMR_SLIDFYLCFL_SPRWYFYYL_SQSIIAYTM_SSPDDQIGYY_SSRGTSPAR_SYFTSDYYQL_TMADLVYAL_TSRTLSYYK_TVYSHLLLV_VEHVTFFIY_VLWAHGFEL_VSIWNLDYII_VTPSGTWLTY_VVYRGTTTY_VYFLQSINF_WPVTLACFVL_YANRNRFLY_YDANYFLCW_YEQYIKWPW_YFIASFRLF_YFTSDYYQLY_YIFFASFYY_YIIKLIFLW_YINVFAFPF_YLDAYNMMI_YLYALVYFL_YTVSCLPFTI'
p26
g3
(g5
S'\xfd\xadI\xd3\xb4\xa8\xef?'
tRp27
tp28
a(S'AEIRASANL_AELEGIQY_ALRANSAVK_ASKIITLKK_ATEGALNTPK_ATSRTLSYY_CPDGVKHVY_DLFMRIFTI_EEHVQIHTI_FAYANRNRF_FIAGLIAIV_FLAFLLFLV_FLLNKEMYL_FLLPSLATV_FLNRFTTTL_FLPRVFSAV_FLQSINFVR_FPPTSFGPL_FPQSAPHGV_FPRGQGVPI_FTYASALWEI_FVDGVPFVV_FYLCFLAFLL_HVTFFIYNK_IELSLIDFYL_ILLIIMRTFK_IPIQASLPF_IPRRNVATL_IPTNFTISV_ISDYDYYRY_ITLATCELY_ITLKKRWQL_KAYNVTQAF_KMQRMLLEK_KTFPPTEPK_KTSVDCTMYI_KVSIWNLDY_LEYHDVRVV_LIIMRTFKV_LLYDANYFL_LSPRWYFYY_LTDEMIAQY_LWLLWPVTL_LYSPIFLIV_MGYINVFAF_MIELSLIDFY_MPASWVMRI_MTSCCSCLK_NSIAIPTNF_NVFAFPFTIY_QELIRQGTDY_QELYSPIFL_QLPQGTTLPK_QYIKWPWYI_RARSVSPKL_RLYYDSMSY_RQLLFVVEV_RTFKVSIWNL_SELVIGAVI_SIIAYTMSL_SINFVRIIMR_SLIDFYLCFL_SPRWYFYYL_SQSIIAYTM_SSPDDQIGYY_SSRGTSPAR_SYFTSDYYQL_TMADLVYAL_TSRTLSYYK_TVYSHLLLV_VEHVTFFIY_VLWAHGFEL_VSIWNLDYII_VTPSGTWLTY_VVYRGTTTY_VYFLQSINF_WPVTLACFVL_YANRNRFLY_YDANYFLCW_YEQYIKWPW_YFIASFRLF_YFTSDYYQLY_YIFFASFYY_YIIKLIFLW_YINVFAFPF_YLDAYNMMI_YLYALVYFL_YTVSCLPFTI'
p29
g3
(g5
S'\xfd\xadI\xd3\xb4\xa8\xef?'
tRp30
tp31
a(S'AEIRASANL_AELEGIQY_ALRANSAVK_ASKIITLKK_ATEGALNTPK_ATSRTLSYY_CPDGVKHVY_DLFMRIFTI_EEHVQIHTI_EELKKLLEQW_FAYANRNRF_FIAGLIAIV_FLAFLLFLV_FLLNKEMYL_FLLPSLATV_FLNRFTTTL_FLPRVFSAV_FLQSINFVR_FPPTSFGPL_FPQSAPHGV_FPRGQGVPI_FTYASALWEI_FVDGVPFVV_HVTFFIYNK_IELSLIDFYL_ILLIIMRTFK_IPIQASLPF_IPRRNVATL_IPTNFTISV_ISDYDYYRY_ITLATCELY_ITLKKRWQL_KAYNVTQAF_KMQRMLLEK_KTFPPTEPK_KTSVDCTMYI_KVSIWNLDY_LEYHDVRVV_LIIMRTFKV_LLYDANYFL_LSPRWYFYY_LTDEMIAQY_LWPVTLACF_LYDANYFLCW_LYSPIFLIV_MGYINVFAF_MIELSLIDFY_MPASWVMRI_MTSCCSCLK_NSIAIPTNF_NVFAFPFTIY_QELIRQGTDY_QELYSPIFL_QLPQGTTLPK_QYIKWPWYI_RARSVSPKL_RLYYDSMSY_RQLLFVVEV_RTFKVSIWNL_SELVIGAVI_SIIAYTMSL_SINFVRIIMR_SLIDFYLCFL_SPRWYFYYL_SQSIIAYTM_SSPDDQIGYY_SSRGTSPAR_SYFTSDYYQL_TMADLVYAL_TSRTLSYYK_TVYSHLLLV_VEHVTFFIY_VLWAHGFEL_VSIWNLDYII_VTPSGTWLTY_VVYRGTTTY_VYFLQSINF_WPVTLACFVL_YANRNRFLY_YEQYIKWPW_YFIASFRLF_YFTSDYYQLY_YIFFASFYY_YIIKLIFLW_YINVFAFPF_YLDAYNMMI_YLYALVYFL_YTVSCLPFTI'
p32
g3
(g5
S'\xfd\xadI\xd3\xb4\xa8\xef?'
tRp33
tp34
a.