(lp1
(S'AELEGIQY_ATSRTLSYY_FAYANRNRF_FLQSINFVR_HVTFFIYNK_ISDYDYYRY_ITLKKRWQL_MTSCCSCLK_NVFAFPFTIY_RLYYDSMSY_YLDAYNMMI'
p2
cnumpy.core.multiarray
scalar
p3
(cnumpy
dtype
p4
(S'f8'
I0
I1
tRp5
(I3
S'<'
NNNI-1
I-1
I0
tbS'g\xb0\xeet\x0e\xff\xef?'
tRp6
tp7
a(S'ATSRTLSYY_FAYANRNRF_FLQSINFVR_HVTFFIYNK_ISDYDYYRY_ITLKKRWQL_MTSCCSCLK_NVFAFPFTIY_RLYYDSMSY_YEQYIKWPW_YLDAYNMMI'
p8
g3
(g5
S'd\xb0\xeet\x0e\xff\xef?'
tRp9
tp10
a(S'ATSRTLSYY_FAYANRNRF_HVTFFIYNK_ISDYDYYRY_ITLKKRWQL_MTSCCSCLK_NVFAFPFTIY_RLYYDSMSY_SINFVRIIMR_YEQYIKWPW_YLDAYNMMI'
p11
g3
(g5
S'c\xb0\xeet\x0e\xff\xef?'
tRp12
tp13
a(S'AELEGIQY_ATSRTLSYY_FAYANRNRF_HVTFFIYNK_ISDYDYYRY_ITLKKRWQL_MTSCCSCLK_NVFAFPFTIY_RLYYDSMSY_SINFVRIIMR_YLDAYNMMI'
p14
g3
(g5
S'c\xb0\xeet\x0e\xff\xef?'
tRp15
tp16
a(S'ATSRTLSYY_FAYANRNRF_HVTFFIYNK_ISDYDYYRY_ITLATCELY_ITLKKRWQL_MTSCCSCLK_NVFAFPFTIY_SINFVRIIMR_YEQYIKWPW_YLDAYNMMI'
p17
g3
(g5
S'[\xb0\xeet\x0e\xff\xef?'
tRp18
tp19
a(S'AELEGIQY_ATSRTLSYY_FAYANRNRF_HVTFFIYNK_ISDYDYYRY_ITLATCELY_ITLKKRWQL_MTSCCSCLK_NVFAFPFTIY_SINFVRIIMR_YLDAYNMMI'
p20
g3
(g5
S'[\xb0\xeet\x0e\xff\xef?'
tRp21
tp22
a(S'ATSRTLSYY_FAYANRNRF_HVTFFIYNK_ISDYDYYRY_ITLKKRWQL_MTSCCSCLK_NVFAFPFTIY_SINFVRIIMR_YEQYIKWPW_YIFFASFYY_YLDAYNMMI'
p23
g3
(g5
S'Y\xb0\xeet\x0e\xff\xef?'
tRp24
tp25
a(S'ATSRTLSYY_FAYANRNRF_FLQSINFVR_HVTFFIYNK_ISDYDYYRY_ITLATCELY_ITLKKRWQL_MTSCCSCLK_NVFAFPFTIY_YEQYIKWPW_YLDAYNMMI'
p26
g3
(g5
S'Y\xb0\xeet\x0e\xff\xef?'
tRp27
tp28
a(S'AELEGIQY_ATSRTLSYY_FAYANRNRF_FLQSINFVR_HVTFFIYNK_ISDYDYYRY_ITLATCELY_ITLKKRWQL_MTSCCSCLK_NVFAFPFTIY_YLDAYNMMI'
p29
g3
(g5
S'Y\xb0\xeet\x0e\xff\xef?'
tRp30
tp31
a(S'AELEGIQY_ATSRTLSYY_FAYANRNRF_HVTFFIYNK_ISDYDYYRY_ITLKKRWQL_MTSCCSCLK_NVFAFPFTIY_SINFVRIIMR_YIFFASFYY_YLDAYNMMI'
p32
g3
(g5
S'W\xb0\xeet\x0e\xff\xef?'
tRp33
tp34
a.