(lp1
(S'AEIRASANL_AELEGIQY_ALRANSAVK_ATSRTLSYY_EEHVQIHTI_FAYANRNRF_FLLNKEMYL_FLLPSLATV_FLNRFTTTL_FLPRVFSAV_FLQSINFVR_FPRGQGVPI_FTYASALWEI_FVDGVPFVV_HVTFFIYNK_IPTNFTISV_ISDYDYYRY_ITLATCELY_ITLKKRWQL_KTFPPTEPK_KVSIWNLDY_LLYDANYFL_LSPRWYFYY_LTDEMIAQY_MGYINVFAF_MPASWVMRI_MTSCCSCLK_NVFAFPFTIY_RQLLFVVEV_SIIAYTMSL_SINFVRIIMR_SPRWYFYYL_TMADLVYAL_TSRTLSYYK_TVYSHLLLV_VLWAHGFEL_VTPSGTWLTY_VYFLQSINF_YANRNRFLY_YEQYIKWPW_YFIASFRLF_YIFFASFYY_YIIKLIFLW_YLDAYNMMI_YLYALVYFL'
p2
cnumpy.core.multiarray
scalar
p3
(cnumpy
dtype
p4
(S'f8'
I0
I1
tRp5
(I3
S'<'
NNNI-1
I-1
I0
tbS'E\xd6\xad\xd25\xa5\xef?'
tRp6
tp7
a(S'AEIRASANL_AELEGIQY_ALRANSAVK_ATSRTLSYY_EEHVQIHTI_FAYANRNRF_FLLNKEMYL_FLLPSLATV_FLNRFTTTL_FLPRVFSAV_FLQSINFVR_FPRGQGVPI_FTYASALWEI_FVDGVPFVV_HVTFFIYNK_IPTNFTISV_ISDYDYYRY_ITLATCELY_ITLKKRWQL_KTFPPTEPK_KVSIWNLDY_LLYDANYFL_LSPRWYFYY_LTDEMIAQY_LYSPIFLIV_MGYINVFAF_MPASWVMRI_MTSCCSCLK_NVFAFPFTIY_RQLLFVVEV_SIIAYTMSL_SINFVRIIMR_SPRWYFYYL_TMADLVYAL_TSRTLSYYK_TVYSHLLLV_VLWAHGFEL_VTPSGTWLTY_YANRNRFLY_YEQYIKWPW_YFIASFRLF_YIFFASFYY_YIIKLIFLW_YLDAYNMMI_YLYALVYFL'
p8
g3
(g5
S'\xfd\x12\x82P2\xa5\xef?'
tRp9
tp10
a(S'AEIRASANL_AELEGIQY_ALRANSAVK_ATSRTLSYY_EEHVQIHTI_FAYANRNRF_FLLNKEMYL_FLLPSLATV_FLNRFTTTL_FLPRVFSAV_FLQSINFVR_FPRGQGVPI_FTYASALWEI_FVDGVPFVV_HVTFFIYNK_IPTNFTISV_ISDYDYYRY_ITLATCELY_ITLKKRWQL_KTFPPTEPK_KVSIWNLDY_LLYDANYFL_LSPRWYFYY_LTDEMIAQY_MGYINVFAF_MPASWVMRI_MTSCCSCLK_NVFAFPFTIY_RQLLFVVEV_SIIAYTMSL_SINFVRIIMR_SPRWYFYYL_SSPDDQIGYY_TMADLVYAL_TSRTLSYYK_TVYSHLLLV_VLWAHGFEL_VYFLQSINF_YANRNRFLY_YEQYIKWPW_YFIASFRLF_YIFFASFYY_YIIKLIFLW_YLDAYNMMI_YLYALVYFL'
p11
g3
(g5
S'?\x8f\xe9\xd30\xa5\xef?'
tRp12
tp13
a(S'AEIRASANL_AELEGIQY_ALRANSAVK_ATSRTLSYY_EEHVQIHTI_FAYANRNRF_FLLNKEMYL_FLLPSLATV_FLNRFTTTL_FLPRVFSAV_FLQSINFVR_FPRGQGVPI_FTYASALWEI_FVDGVPFVV_HVTFFIYNK_IPTNFTISV_ISDYDYYRY_ITLATCELY_ITLKKRWQL_KTFPPTEPK_KVSIWNLDY_LLYDANYFL_LSPRWYFYY_LTDEMIAQY_MGYINVFAF_MIELSLIDFY_MPASWVMRI_MTSCCSCLK_NVFAFPFTIY_RQLLFVVEV_SIIAYTMSL_SINFVRIIMR_SPRWYFYYL_TMADLVYAL_TSRTLSYYK_TVYSHLLLV_VLWAHGFEL_VYFLQSINF_YANRNRFLY_YEQYIKWPW_YFIASFRLF_YIFFASFYY_YIIKLIFLW_YLDAYNMMI_YLYALVYFL'
p14
g3
(g5
S';\x8f\xe9\xd30\xa5\xef?'
tRp15
tp16
a(S'AEIRASANL_AELEGIQY_ALRANSAVK_ATSRTLSYY_EEHVQIHTI_FAYANRNRF_FLLNKEMYL_FLLPSLATV_FLNRFTTTL_FLPRVFSAV_FLQSINFVR_FPRGQGVPI_FTYASALWEI_FVDGVPFVV_HVTFFIYNK_IPTNFTISV_ISDYDYYRY_ITLATCELY_ITLKKRWQL_KTFPPTEPK_KVSIWNLDY_LLYDANYFL_LSPRWYFYY_LTDEMIAQY_LYSPIFLIV_MGYINVFAF_MIELSLIDFY_MPASWVMRI_MTSCCSCLK_NVFAFPFTIY_RQLLFVVEV_SIIAYTMSL_SINFVRIIMR_SPRWYFYYL_TMADLVYAL_TSRTLSYYK_TVYSHLLLV_VLWAHGFEL_YANRNRFLY_YEQYIKWPW_YFIASFRLF_YIFFASFYY_YIIKLIFLW_YLDAYNMMI_YLYALVYFL'
p17
g3
(g5
S'\xf8\xcb\xbdQ-\xa5\xef?'
tRp18
tp19
a(S'AEIRASANL_AELEGIQY_ALRANSAVK_ATSRTLSYY_EEHVQIHTI_FAYANRNRF_FLLNKEMYL_FLLPSLATV_FLNRFTTTL_FLPRVFSAV_FLQSINFVR_FPRGQGVPI_FTYASALWEI_FVDGVPFVV_HVTFFIYNK_IPTNFTISV_ISDYDYYRY_ITLATCELY_ITLKKRWQL_KTFPPTEPK_KVSIWNLDY_LLYDANYFL_LSPRWYFYY_LTDEMIAQY_LYSPIFLIV_MGYINVFAF_MPASWVMRI_MTSCCSCLK_NVFAFPFTIY_RQLLFVVEV_SIIAYTMSL_SINFVRIIMR_SPRWYFYYL_SSPDDQIGYY_TMADLVYAL_TSRTLSYYK_TVYSHLLLV_VLWAHGFEL_YANRNRFLY_YEQYIKWPW_YFIASFRLF_YIFFASFYY_YIIKLIFLW_YLDAYNMMI_YLYALVYFL'
p20
g3
(g5
S'\xf7\xcb\xbdQ-\xa5\xef?'
tRp21
tp22
a(S'AEIRASANL_AELEGIQY_ALRANSAVK_ATSRTLSYY_EEHVQIHTI_FAYANRNRF_FLLNKEMYL_FLLPSLATV_FLNRFTTTL_FLPRVFSAV_FLQSINFVR_FPRGQGVPI_FTYASALWEI_FVDGVPFVV_HVTFFIYNK_IPTNFTISV_ISDYDYYRY_ITLATCELY_ITLKKRWQL_KTFPPTEPK_KVSIWNLDY_LLYDANYFL_LSPRWYFYY_LTDEMIAQY_MGYINVFAF_MPASWVMRI_MTSCCSCLK_NVFAFPFTIY_QYIKWPWYI_RQLLFVVEV_SIIAYTMSL_SINFVRIIMR_SPRWYFYYL_TMADLVYAL_TSRTLSYYK_TVYSHLLLV_VLWAHGFEL_VTPSGTWLTY_YANRNRFLY_YEQYIKWPW_YFIASFRLF_YIFFASFYY_YIIKLIFLW_YLDAYNMMI_YLYALVYFL'
p23
g3
(g5
S'\x10\xdd\x08S+\xa5\xef?'
tRp24
tp25
a(S'AEIRASANL_ALRANSAVK_ATSRTLSYY_EEHVQIHTI_FAYANRNRF_FLLNKEMYL_FLLPSLATV_FLNRFTTTL_FLPRVFSAV_FLQSINFVR_FPRGQGVPI_FTYASALWEI_FVDGVPFVV_HVTFFIYNK_IPTNFTISV_ISDYDYYRY_ITLATCELY_ITLKKRWQL_KTFPPTEPK_KVSIWNLDY_LLYDANYFL_LSPRWYFYY_LTDEMIAQY_MGYINVFAF_MPASWVMRI_MTSCCSCLK_NVFAFPFTIY_RQLLFVVEV_SIIAYTMSL_SINFVRIIMR_SPRWYFYYL_TMADLVYAL_TSRTLSYYK_TVYSHLLLV_VEHVTFFIY_VLWAHGFEL_VTPSGTWLTY_VYFLQSINF_YANRNRFLY_YEQYIKWPW_YFIASFRLF_YIFFASFYY_YIIKLIFLW_YLDAYNMMI_YLYALVYFL'
p26
g3
(g5
S'\x05\x8d\x85\x9e)\xa5\xef?'
tRp27
tp28
a(S'AEIRASANL_AELEGIQY_ALRANSAVK_ATSRTLSYY_EEHVQIHTI_FAYANRNRF_FLLNKEMYL_FLLPSLATV_FLNRFTTTL_FLPRVFSAV_FLQSINFVR_FPQSAPHGV_FPRGQGVPI_FTYASALWEI_FVDGVPFVV_HVTFFIYNK_ISDYDYYRY_ITLATCELY_ITLKKRWQL_KTFPPTEPK_KVSIWNLDY_LLYDANYFL_LSPRWYFYY_LTDEMIAQY_MGYINVFAF_MPASWVMRI_MTSCCSCLK_NVFAFPFTIY_RQLLFVVEV_SIIAYTMSL_SINFVRIIMR_SPRWYFYYL_TMADLVYAL_TSRTLSYYK_TVYSHLLLV_VLWAHGFEL_VTPSGTWLTY_VYFLQSINF_YANRNRFLY_YEQYIKWPW_YFIASFRLF_YIFFASFYY_YIIKLIFLW_YLDAYNMMI_YLYALVYFL'
p29
g3
(g5
S'\xd1C\x980\xcb\xa4\xef?'
tRp30
tp31
a(S'AEIRASANL_AELEGIQY_ALRANSAVK_ATSRTLSYY_EEHVQIHTI_FAYANRNRF_FLLNKEMYL_FLLPSLATV_FLNRFTTTL_FLPRVFSAV_FLQSINFVR_FPQSAPHGV_FPRGQGVPI_FTYASALWEI_FVDGVPFVV_HVTFFIYNK_ISDYDYYRY_ITLATCELY_ITLKKRWQL_KTFPPTEPK_KVSIWNLDY_LLYDANYFL_LSPRWYFYY_LTDEMIAQY_LYSPIFLIV_MGYINVFAF_MPASWVMRI_MTSCCSCLK_NVFAFPFTIY_RQLLFVVEV_SIIAYTMSL_SINFVRIIMR_SPRWYFYYL_TMADLVYAL_TSRTLSYYK_TVYSHLLLV_VLWAHGFEL_VTPSGTWLTY_YANRNRFLY_YEQYIKWPW_YFIASFRLF_YIFFASFYY_YIIKLIFLW_YLDAYNMMI_YLYALVYFL'
p32
g3
(g5
S'\x03\x14\x98\x7f\xc7\xa4\xef?'
tRp33
tp34
a.