(lp1
(S'AEIRASANL_AELEGIQY_ALRANSAVK_ATEGALNTPK_ATSRTLSYY_CPDGVKHVY_EEHVQIHTI_FAYANRNRF_FIAGLIAIV_FLLNKEMYL_FLLPSLATV_FLNRFTTTL_FLPRVFSAV_FLQSINFVR_FPQSAPHGV_FPRGQGVPI_FTYASALWEI_FVDGVPFVV_HVTFFIYNK_IPRRNVATL_IPTNFTISV_ISDYDYYRY_ITLATCELY_ITLKKRWQL_KAYNVTQAF_KTFPPTEPK_KVSIWNLDY_LLYDANYFL_LSPRWYFYY_LTDEMIAQY_LWPVTLACF_LYSPIFLIV_MGYINVFAF_MIELSLIDFY_MPASWVMRI_MTSCCSCLK_NVFAFPFTIY_QELYSPIFL_QLPQGTTLPK_QYIKWPWYI_RARSVSPKL_RLYYDSMSY_RQLLFVVEV_RTFKVSIWNL_SIIAYTMSL_SINFVRIIMR_SLIDFYLCFL_SPRWYFYYL_SSPDDQIGYY_TMADLVYAL_TSRTLSYYK_TVYSHLLLV_VEHVTFFIY_VLWAHGFEL_VTPSGTWLTY_VVYRGTTTY_VYFLQSINF_YANRNRFLY_YEQYIKWPW_YFIASFRLF_YIFFASFYY_YIIKLIFLW_YLDAYNMMI_YLYALVYFL'
p2
cnumpy.core.multiarray
scalar
p3
(cnumpy
dtype
p4
(S'f8'
I0
I1
tRp5
(I3
S'<'
NNNI-1
I-1
I0
tbS'\xe0\xf7\x14\x0c\xe3\xa4\xef?'
tRp6
tp7
a(S'AEIRASANL_AELEGIQY_ALRANSAVK_ATEGALNTPK_ATSRTLSYY_CPDGVKHVY_EEHVQIHTI_FAYANRNRF_FIAGLIAIV_FLLNKEMYL_FLLPSLATV_FLNRFTTTL_FLPRVFSAV_FLQSINFVR_FPQSAPHGV_FPRGQGVPI_FTYASALWEI_FVDGVPFVV_HVTFFIYNK_IPRRNVATL_IPTNFTISV_ISDYDYYRY_ITLATCELY_ITLKKRWQL_KAYNVTQAF_KTFPPTEPK_KVSIWNLDY_LLYDANYFL_LSPRWYFYY_LTDEMIAQY_LWLLWPVTL_LYSPIFLIV_MGYINVFAF_MIELSLIDFY_MPASWVMRI_MTSCCSCLK_NVFAFPFTIY_QELYSPIFL_QLPQGTTLPK_QYIKWPWYI_RARSVSPKL_RLYYDSMSY_RQLLFVVEV_RTFKVSIWNL_SIIAYTMSL_SINFVRIIMR_SLIDFYLCFL_SPRWYFYYL_SSPDDQIGYY_TMADLVYAL_TSRTLSYYK_TVYSHLLLV_VEHVTFFIY_VLWAHGFEL_VTPSGTWLTY_VVYRGTTTY_VYFLQSINF_YANRNRFLY_YEQYIKWPW_YFIASFRLF_YIFFASFYY_YIIKLIFLW_YLDAYNMMI_YLYALVYFL'
p8
g6
tp9
a(S'AEIRASANL_AELEGIQY_ALRANSAVK_ATEGALNTPK_ATSRTLSYY_CPDGVKHVY_EEHVQIHTI_FAYANRNRF_FIAGLIAIV_FLLNKEMYL_FLLPSLATV_FLNRFTTTL_FLPRVFSAV_FLQSINFVR_FPQSAPHGV_FPRGQGVPI_FTYASALWEI_FVDGVPFVV_HVTFFIYNK_ILLIIMRTFK_IPRRNVATL_IPTNFTISV_ISDYDYYRY_ITLATCELY_ITLKKRWQL_KAYNVTQAF_KTFPPTEPK_KVSIWNLDY_LLYDANYFL_LSPRWYFYY_LTDEMIAQY_LWPVTLACF_LYSPIFLIV_MGYINVFAF_MIELSLIDFY_MPASWVMRI_MTSCCSCLK_NVFAFPFTIY_QELYSPIFL_QYIKWPWYI_RARSVSPKL_RLYYDSMSY_RQLLFVVEV_RTFKVSIWNL_SIIAYTMSL_SINFVRIIMR_SLIDFYLCFL_SPRWYFYYL_SSPDDQIGYY_TMADLVYAL_TSRTLSYYK_TVYSHLLLV_VEHVTFFIY_VLWAHGFEL_VTPSGTWLTY_VVYRGTTTY_VYFLQSINF_YANRNRFLY_YEQYIKWPW_YFIASFRLF_YIFFASFYY_YIIKLIFLW_YLDAYNMMI_YLYALVYFL'
p10
g3
(g5
S'\xe0\xf7\x14\x0c\xe3\xa4\xef?'
tRp11
tp12
a(S'AEIRASANL_AELEGIQY_ALRANSAVK_ATEGALNTPK_ATSRTLSYY_CPDGVKHVY_EEHVQIHTI_FAYANRNRF_FIAGLIAIV_FLLNKEMYL_FLLPSLATV_FLNRFTTTL_FLPRVFSAV_FLQSINFVR_FPQSAPHGV_FPRGQGVPI_FTYASALWEI_FVDGVPFVV_HVTFFIYNK_ILLIIMRTFK_IPRRNVATL_IPTNFTISV_ISDYDYYRY_ITLATCELY_ITLKKRWQL_KAYNVTQAF_KTFPPTEPK_KVSIWNLDY_LLYDANYFL_LSPRWYFYY_LTDEMIAQY_LWLLWPVTL_LYSPIFLIV_MGYINVFAF_MIELSLIDFY_MPASWVMRI_MTSCCSCLK_NVFAFPFTIY_QELYSPIFL_QYIKWPWYI_RARSVSPKL_RLYYDSMSY_RQLLFVVEV_RTFKVSIWNL_SIIAYTMSL_SINFVRIIMR_SLIDFYLCFL_SPRWYFYYL_SSPDDQIGYY_TMADLVYAL_TSRTLSYYK_TVYSHLLLV_VEHVTFFIY_VLWAHGFEL_VTPSGTWLTY_VVYRGTTTY_VYFLQSINF_YANRNRFLY_YEQYIKWPW_YFIASFRLF_YIFFASFYY_YIIKLIFLW_YLDAYNMMI_YLYALVYFL'
p13
g11
tp14
a(S'AEIRASANL_AELEGIQY_ALRANSAVK_ATEGALNTPK_ATSRTLSYY_CPDGVKHVY_EEHVQIHTI_FAYANRNRF_FIAGLIAIV_FLAFLLFLV_FLLNKEMYL_FLLPSLATV_FLNRFTTTL_FLPRVFSAV_FLQSINFVR_FPQSAPHGV_FPRGQGVPI_FTYASALWEI_FVDGVPFVV_HVTFFIYNK_IPRRNVATL_IPTNFTISV_ISDYDYYRY_ITLATCELY_ITLKKRWQL_KAYNVTQAF_KTFPPTEPK_KVSIWNLDY_LLYDANYFL_LSPRWYFYY_LTDEMIAQY_LWPVTLACF_LYSPIFLIV_MGYINVFAF_MIELSLIDFY_MPASWVMRI_MTSCCSCLK_NVFAFPFTIY_QELYSPIFL_QLPQGTTLPK_QYIKWPWYI_RARSVSPKL_RLYYDSMSY_RQLLFVVEV_RTFKVSIWNL_SIIAYTMSL_SINFVRIIMR_SPRWYFYYL_SSPDDQIGYY_TMADLVYAL_TSRTLSYYK_TVYSHLLLV_VEHVTFFIY_VLWAHGFEL_VTPSGTWLTY_VVYRGTTTY_VYFLQSINF_YANRNRFLY_YEQYIKWPW_YFIASFRLF_YIFFASFYY_YIIKLIFLW_YLDAYNMMI_YLYALVYFL'
p15
g3
(g5
S'\xe0\xf7\x14\x0c\xe3\xa4\xef?'
tRp16
tp17
a(S'AEIRASANL_AELEGIQY_ALRANSAVK_ATEGALNTPK_ATSRTLSYY_CPDGVKHVY_EEHVQIHTI_FAYANRNRF_FIAGLIAIV_FLAFLLFLV_FLLNKEMYL_FLLPSLATV_FLNRFTTTL_FLPRVFSAV_FLQSINFVR_FPQSAPHGV_FPRGQGVPI_FTYASALWEI_FVDGVPFVV_HVTFFIYNK_IPRRNVATL_IPTNFTISV_ISDYDYYRY_ITLATCELY_ITLKKRWQL_KAYNVTQAF_KTFPPTEPK_KVSIWNLDY_LLYDANYFL_LSPRWYFYY_LTDEMIAQY_LWLLWPVTL_LYSPIFLIV_MGYINVFAF_MIELSLIDFY_MPASWVMRI_MTSCCSCLK_NVFAFPFTIY_QELYSPIFL_QLPQGTTLPK_QYIKWPWYI_RARSVSPKL_RLYYDSMSY_RQLLFVVEV_RTFKVSIWNL_SIIAYTMSL_SINFVRIIMR_SPRWYFYYL_SSPDDQIGYY_TMADLVYAL_TSRTLSYYK_TVYSHLLLV_VEHVTFFIY_VLWAHGFEL_VTPSGTWLTY_VVYRGTTTY_VYFLQSINF_YANRNRFLY_YEQYIKWPW_YFIASFRLF_YIFFASFYY_YIIKLIFLW_YLDAYNMMI_YLYALVYFL'
p18
g16
tp19
a(S'AEIRASANL_AELEGIQY_ALRANSAVK_ATEGALNTPK_ATSRTLSYY_CPDGVKHVY_EEHVQIHTI_FAYANRNRF_FIAGLIAIV_FLAFLLFLV_FLLNKEMYL_FLLPSLATV_FLNRFTTTL_FLPRVFSAV_FLQSINFVR_FPQSAPHGV_FPRGQGVPI_FTYASALWEI_FVDGVPFVV_HVTFFIYNK_ILLIIMRTFK_IPRRNVATL_IPTNFTISV_ISDYDYYRY_ITLATCELY_ITLKKRWQL_KAYNVTQAF_KTFPPTEPK_KVSIWNLDY_LLYDANYFL_LSPRWYFYY_LTDEMIAQY_LWPVTLACF_LYSPIFLIV_MGYINVFAF_MIELSLIDFY_MPASWVMRI_MTSCCSCLK_NVFAFPFTIY_QELYSPIFL_QYIKWPWYI_RARSVSPKL_RLYYDSMSY_RQLLFVVEV_RTFKVSIWNL_SIIAYTMSL_SINFVRIIMR_SPRWYFYYL_SSPDDQIGYY_TMADLVYAL_TSRTLSYYK_TVYSHLLLV_VEHVTFFIY_VLWAHGFEL_VTPSGTWLTY_VVYRGTTTY_VYFLQSINF_YANRNRFLY_YEQYIKWPW_YFIASFRLF_YIFFASFYY_YIIKLIFLW_YLDAYNMMI_YLYALVYFL'
p20
g3
(g5
S'\xe0\xf7\x14\x0c\xe3\xa4\xef?'
tRp21
tp22
a(S'AEIRASANL_AELEGIQY_ALRANSAVK_ATEGALNTPK_ATSRTLSYY_CPDGVKHVY_EEHVQIHTI_FAYANRNRF_FIAGLIAIV_FLAFLLFLV_FLLNKEMYL_FLLPSLATV_FLNRFTTTL_FLPRVFSAV_FLQSINFVR_FPQSAPHGV_FPRGQGVPI_FTYASALWEI_FVDGVPFVV_HVTFFIYNK_ILLIIMRTFK_IPRRNVATL_IPTNFTISV_ISDYDYYRY_ITLATCELY_ITLKKRWQL_KAYNVTQAF_KTFPPTEPK_KVSIWNLDY_LLYDANYFL_LSPRWYFYY_LTDEMIAQY_LWLLWPVTL_LYSPIFLIV_MGYINVFAF_MIELSLIDFY_MPASWVMRI_MTSCCSCLK_NVFAFPFTIY_QELYSPIFL_QYIKWPWYI_RARSVSPKL_RLYYDSMSY_RQLLFVVEV_RTFKVSIWNL_SIIAYTMSL_SINFVRIIMR_SPRWYFYYL_SSPDDQIGYY_TMADLVYAL_TSRTLSYYK_TVYSHLLLV_VEHVTFFIY_VLWAHGFEL_VTPSGTWLTY_VVYRGTTTY_VYFLQSINF_YANRNRFLY_YEQYIKWPW_YFIASFRLF_YIFFASFYY_YIIKLIFLW_YLDAYNMMI_YLYALVYFL'
p23
g21
tp24
a(S'AEIRASANL_AELEGIQY_ALRANSAVK_ATSRTLSYY_CPDGVKHVY_EEHVQIHTI_FAYANRNRF_FIAGLIAIV_FLLNKEMYL_FLLPSLATV_FLNRFTTTL_FLPRVFSAV_FLQSINFVR_FPQSAPHGV_FPRGQGVPI_FTYASALWEI_FVDGVPFVV_HVTFFIYNK_ILLIIMRTFK_IPRRNVATL_IPTNFTISV_ISDYDYYRY_ITLATCELY_ITLKKRWQL_KAYNVTQAF_KTFPPTEPK_KVSIWNLDY_LLYDANYFL_LSPRWYFYY_LTDEMIAQY_LWPVTLACF_LYSPIFLIV_MGYINVFAF_MIELSLIDFY_MPASWVMRI_MTSCCSCLK_NVFAFPFTIY_QELYSPIFL_QLPQGTTLPK_QYIKWPWYI_RARSVSPKL_RLYYDSMSY_RQLLFVVEV_RTFKVSIWNL_SIIAYTMSL_SINFVRIIMR_SLIDFYLCFL_SPRWYFYYL_SSPDDQIGYY_TMADLVYAL_TSRTLSYYK_TVYSHLLLV_VEHVTFFIY_VLWAHGFEL_VTPSGTWLTY_VVYRGTTTY_VYFLQSINF_YANRNRFLY_YEQYIKWPW_YFIASFRLF_YIFFASFYY_YIIKLIFLW_YLDAYNMMI_YLYALVYFL'
p25
g3
(g5
S'\xdf\xf7\x14\x0c\xe3\xa4\xef?'
tRp26
tp27
a(S'AEIRASANL_AELEGIQY_ALRANSAVK_ATSRTLSYY_CPDGVKHVY_EEHVQIHTI_FAYANRNRF_FIAGLIAIV_FLLNKEMYL_FLLPSLATV_FLNRFTTTL_FLPRVFSAV_FLQSINFVR_FPQSAPHGV_FPRGQGVPI_FTYASALWEI_FVDGVPFVV_HVTFFIYNK_ILLIIMRTFK_IPRRNVATL_IPTNFTISV_ISDYDYYRY_ITLATCELY_ITLKKRWQL_KAYNVTQAF_KTFPPTEPK_KVSIWNLDY_LLYDANYFL_LSPRWYFYY_LTDEMIAQY_LWLLWPVTL_LYSPIFLIV_MGYINVFAF_MIELSLIDFY_MPASWVMRI_MTSCCSCLK_NVFAFPFTIY_QELYSPIFL_QLPQGTTLPK_QYIKWPWYI_RARSVSPKL_RLYYDSMSY_RQLLFVVEV_RTFKVSIWNL_SIIAYTMSL_SINFVRIIMR_SLIDFYLCFL_SPRWYFYYL_SSPDDQIGYY_TMADLVYAL_TSRTLSYYK_TVYSHLLLV_VEHVTFFIY_VLWAHGFEL_VTPSGTWLTY_VVYRGTTTY_VYFLQSINF_YANRNRFLY_YEQYIKWPW_YFIASFRLF_YIFFASFYY_YIIKLIFLW_YLDAYNMMI_YLYALVYFL'
p28
g26
tp29
a.