(lp1
(S'ATSRTLSYY_FAYANRNRF_HVTFFIYNK_ISDYDYYRY_ITLKKRWQL_MTSCCSCLK_NVFAFPFTIY_SINFVRIIMR_YEQYIKWPW_YLDAYNMMI'
p2
cnumpy.core.multiarray
scalar
p3
(cnumpy
dtype
p4
(S'f8'
I0
I1
tRp5
(I3
S'<'
NNNI-1
I-1
I0
tbS'\x8c\xed\x13\xc1\xe4\xfe\xef?'
tRp6
tp7
a(S'ATSRTLSYY_FAYANRNRF_FLQSINFVR_HVTFFIYNK_ISDYDYYRY_ITLKKRWQL_MTSCCSCLK_NVFAFPFTIY_YEQYIKWPW_YLDAYNMMI'
p8
g3
(g5
S'\x8c\xed\x13\xc1\xe4\xfe\xef?'
tRp9
tp10
a(S'AELEGIQY_ATSRTLSYY_FAYANRNRF_FLQSINFVR_HVTFFIYNK_ISDYDYYRY_ITLKKRWQL_MTSCCSCLK_NVFAFPFTIY_YLDAYNMMI'
p11
g3
(g5
S'\x8c\xed\x13\xc1\xe4\xfe\xef?'
tRp12
tp13
a(S'AELEGIQY_ATSRTLSYY_FAYANRNRF_HVTFFIYNK_ISDYDYYRY_ITLKKRWQL_MTSCCSCLK_NVFAFPFTIY_SINFVRIIMR_YLDAYNMMI'
p14
g3
(g5
S'\x8b\xed\x13\xc1\xe4\xfe\xef?'
tRp15
tp16
a(S'ATSRTLSYY_FAYANRNRF_FLQSINFVR_HVTFFIYNK_ISDYDYYRY_ITLKKRWQL_MTSCCSCLK_NVFAFPFTIY_VEHVTFFIY_YLDAYNMMI'
p17
g3
(g5
S'-Z;\xb0\xe3\xfe\xef?'
tRp18
tp19
a(S'ATSRTLSYY_FAYANRNRF_HVTFFIYNK_ISDYDYYRY_ITLKKRWQL_MTSCCSCLK_NVFAFPFTIY_SINFVRIIMR_VEHVTFFIY_YLDAYNMMI'
p20
g3
(g5
S')Z;\xb0\xe3\xfe\xef?'
tRp21
tp22
a(S'ATSRTLSYY_FAYANRNRF_HVTFFIYNK_ISDYDYYRY_ITLKKRWQL_NVFAFPFTIY_RLYYDSMSY_SINFVRIIMR_YEQYIKWPW_YLDAYNMMI'
p23
g3
(g5
S'\x9d6\\t\xd1\xfe\xef?'
tRp24
tp25
a(S'AELEGIQY_ATSRTLSYY_FAYANRNRF_HVTFFIYNK_ISDYDYYRY_ITLKKRWQL_NVFAFPFTIY_RLYYDSMSY_SINFVRIIMR_YLDAYNMMI'
p26
g3
(g5
S'\x9d6\\t\xd1\xfe\xef?'
tRp27
tp28
a(S'ATSRTLSYY_FAYANRNRF_ISDYDYYRY_ITLKKRWQL_MTSCCSCLK_NVFAFPFTIY_RLYYDSMSY_SINFVRIIMR_YEQYIKWPW_YLDAYNMMI'
p29
g3
(g5
S'\x9b6\\t\xd1\xfe\xef?'
tRp30
tp31
a(S'ATSRTLSYY_FAYANRNRF_FLQSINFVR_HVTFFIYNK_ISDYDYYRY_ITLKKRWQL_NVFAFPFTIY_RLYYDSMSY_YEQYIKWPW_YLDAYNMMI'
p32
g3
(g5
S'\x9b6\\t\xd1\xfe\xef?'
tRp33
tp34
a.