(lp1
(S'ATSRTLSYY_FAYANRNRF_HVTFFIYNK_ISDYDYYRY_ITLKKRWQL_LTDEMIAQY_MTSCCSCLK_NVFAFPFTIY_SIIAYTMSL_SINFVRIIMR_YEQYIKWPW_YIFFASFYY_YLDAYNMMI_YLYALVYFL'
p2
cnumpy.core.multiarray
scalar
p3
(cnumpy
dtype
p4
(S'f8'
I0
I1
tRp5
(I3
S'<'
NNNI-1
I-1
I0
tbS'\xf8\xc9r\xfba\xf6\xef?'
tRp6
tp7
a(S'AELEGIQY_ATSRTLSYY_FAYANRNRF_HVTFFIYNK_ISDYDYYRY_ITLKKRWQL_LTDEMIAQY_MTSCCSCLK_NVFAFPFTIY_SIIAYTMSL_SINFVRIIMR_YIFFASFYY_YLDAYNMMI_YLYALVYFL'
p8
g3
(g5
S'UX\x0f\xb5^\xf6\xef?'
tRp9
tp10
a(S'ATSRTLSYY_FAYANRNRF_FVDGVPFVV_HVTFFIYNK_ISDYDYYRY_ITLKKRWQL_MTSCCSCLK_NVFAFPFTIY_SIIAYTMSL_SINFVRIIMR_YEQYIKWPW_YIFFASFYY_YLDAYNMMI_YLYALVYFL'
p11
g3
(g5
S'\x9f\xc1\xe8%N\xf6\xef?'
tRp12
tp13
a(S'AELEGIQY_ATSRTLSYY_FAYANRNRF_FVDGVPFVV_HVTFFIYNK_ISDYDYYRY_ITLKKRWQL_MTSCCSCLK_NVFAFPFTIY_SIIAYTMSL_SINFVRIIMR_YIFFASFYY_YLDAYNMMI_YLYALVYFL'
p14
g3
(g5
S'\xabs\x08\xcaJ\xf6\xef?'
tRp15
tp16
a(S'ATSRTLSYY_FAYANRNRF_HVTFFIYNK_ISDYDYYRY_ITLKKRWQL_MTSCCSCLK_NVFAFPFTIY_SIIAYTMSL_SINFVRIIMR_YANRNRFLY_YEQYIKWPW_YIFFASFYY_YLDAYNMMI_YLYALVYFL'
p17
g3
(g5
S'\x00\xdf#\xac?\xf6\xef?'
tRp18
tp19
a(S'AELEGIQY_ATSRTLSYY_FAYANRNRF_HVTFFIYNK_ISDYDYYRY_ITLKKRWQL_MTSCCSCLK_NVFAFPFTIY_SIIAYTMSL_SINFVRIIMR_YANRNRFLY_YIFFASFYY_YLDAYNMMI_YLYALVYFL'
p20
g3
(g5
S'\t\x91CP<\xf6\xef?'
tRp21
tp22
a(S'ATSRTLSYY_FAYANRNRF_FLQSINFVR_HVTFFIYNK_ISDYDYYRY_ITLATCELY_ITLKKRWQL_LTDEMIAQY_MTSCCSCLK_NVFAFPFTIY_SIIAYTMSL_YEQYIKWPW_YLDAYNMMI_YLYALVYFL'
p23
g3
(g5
S'oC\xe6~0\xf6\xef?'
tRp24
tp25
a(S'ATSRTLSYY_FAYANRNRF_HVTFFIYNK_ISDYDYYRY_ITLATCELY_ITLKKRWQL_LTDEMIAQY_MTSCCSCLK_NVFAFPFTIY_SIIAYTMSL_SINFVRIIMR_YEQYIKWPW_YLDAYNMMI_YLYALVYFL'
p26
g3
(g5
S'\xbfz\xeb\xb5/\xf6\xef?'
tRp27
tp28
a(S'ATSRTLSYY_FAYANRNRF_FLQSINFVR_HVTFFIYNK_ISDYDYYRY_ITLKKRWQL_LTDEMIAQY_MTSCCSCLK_NVFAFPFTIY_RLYYDSMSY_SIIAYTMSL_YEQYIKWPW_YLDAYNMMI_YLYALVYFL'
p29
g3
(g5
S'WEL\x80.\xf6\xef?'
tRp30
tp31
a(S'ATSRTLSYY_FAYANRNRF_HVTFFIYNK_ISDYDYYRY_ITLKKRWQL_LTDEMIAQY_MTSCCSCLK_NVFAFPFTIY_RLYYDSMSY_SIIAYTMSL_SINFVRIIMR_YEQYIKWPW_YLDAYNMMI_YLYALVYFL'
p32
g3
(g5
S'\xa8|Q\xb7-\xf6\xef?'
tRp33
tp34
a.