(lp1
(S'ATSRTLSYY_EILDITPCSF_FAYANRNRF_FVDGVPFVV_MTSCCSCLK_NSASFSTFK_NVFAFPFTIY_RARSVSPKL_RLYYDSMSY_YEQYIKWPW'
p2
cnumpy.core.multiarray
scalar
p3
(cnumpy
dtype
p4
(S'f8'
I0
I1
tRp5
(I3
S'<'
NNNI-1
I-1
I0
tbS'\xa0\xd6\xd2[!\xff\xef?'
tRp6
tp7
a(S'AELEGIQY_ATSRTLSYY_EILDITPCSF_FAYANRNRF_FVDGVPFVV_MTSCCSCLK_NSASFSTFK_NVFAFPFTIY_RARSVSPKL_RLYYDSMSY'
p8
g3
(g5
S'\xa0\xd6\xd2[!\xff\xef?'
tRp9
tp10
a(S'AELEGIQY_ATSRTLSYY_EILDITPCSF_FAYANRNRF_FVDGVPFVV_HVTFFIYNK_MTSCCSCLK_NVFAFPFTIY_RLYYDSMSY_SSRGTSPAR'
p11
g3
(g5
S'\xa0\xd6\xd2[!\xff\xef?'
tRp12
tp13
a(S'ATSRTLSYY_EILDITPCSF_FAYANRNRF_FVDGVPFVV_HVTFFIYNK_MTSCCSCLK_NVFAFPFTIY_RLYYDSMSY_SSRGTSPAR_YEQYIKWPW'
p14
g3
(g5
S'\x9f\xd6\xd2[!\xff\xef?'
tRp15
tp16
a(S'AELEGIQY_ALRANSAVK_ATSRTLSYY_EILDITPCSF_FAYANRNRF_FVDGVPFVV_HVTFFIYNK_NSASFSTFK_NVFAFPFTIY_RLYYDSMSY'
p17
g3
(g5
S'\x9d\xd6\xd2[!\xff\xef?'
tRp18
tp19
a(S'ATSRTLSYY_EILDITPCSF_FAYANRNRF_FVDGVPFVV_HVTFFIYNK_MTSCCSCLK_NVFAFPFTIY_RLFRKSNLK_RLYYDSMSY_YEQYIKWPW'
p20
g3
(g5
S'\x9c\xd6\xd2[!\xff\xef?'
tRp21
tp22
a(S'ATSRTLSYY_EILDITPCSF_FAYANRNRF_FVDGVPFVV_HVTFFIYNK_KMQRMLLEK_MTSCCSCLK_NVFAFPFTIY_RLYYDSMSY_YEQYIKWPW'
p23
g3
(g5
S'\x9c\xd6\xd2[!\xff\xef?'
tRp24
tp25
a(S'ALRANSAVK_ATSRTLSYY_EILDITPCSF_FAYANRNRF_FVDGVPFVV_HVTFFIYNK_NSASFSTFK_NVFAFPFTIY_RLYYDSMSY_YEQYIKWPW'
p26
g3
(g5
S'\x9c\xd6\xd2[!\xff\xef?'
tRp27
tp28
a(S'AELEGIQY_ATSRTLSYY_EILDITPCSF_FAYANRNRF_FVDGVPFVV_HVTFFIYNK_NSASFSTFK_NVFAFPFTIY_RARSVSPKL_RLYYDSMSY'
p29
g3
(g5
S'\x90\xd6\xd2[!\xff\xef?'
tRp30
tp31
a(S'ATSRTLSYY_EILDITPCSF_FAYANRNRF_FVDGVPFVV_HVTFFIYNK_NSASFSTFK_NVFAFPFTIY_RARSVSPKL_RLYYDSMSY_YEQYIKWPW'
p32
g3
(g5
S'\x8d\xd6\xd2[!\xff\xef?'
tRp33
tp34
a.