(lp1
(S'AEIRASANL_AELEGIQY_ALRANSAVK_ASKIITLKK_ATSRTLSYY_CPDGVKHVY_DLFMRIFTI_EEHVQIHTI_EILDITPCSF_FAYANRNRF_FIAGLIAIV_FLLNKEMYL_FLLPSLATV_FLNRFTTTL_FLPRVFSAV_FLQSINFVR_FPNITNLCPF_FPQSAPHGV_FPRGQGVPI_FTNVYADSF_FTYASALWEI_FVDGVPFVV_HVTFFIYNK_IPRRNVATL_IPTNFTISV_ISDYDYYRY_ITLATCELY_ITLKKRWQL_KAYNVTQAF_KMQRMLLEK_KTFPPTEPK_KVSIWNLDY_LIIMRTFKV_LLYDANYFL_LSPRWYFYY_LTDEMIAQY_LYNSASFSTF_LYSPIFLIV_MGYINVFAF_MPASWVMRI_MTSCCSCLK_NSASFSTFK_NSIAIPTNF_NVFAFPFTIY_NYNYLYRLF_QELYSPIFL_QLPQGTTLPK_QPTESIVRF_QYIKWPWYI_RARSVSPKL_RISNCVADY_RLFRKSNLK_RLYYDSMSY_RQLLFVVEV_RTFKVSIWNL_SIIAYTMSL_SINFVRIIMR_SLIDFYLCFL_SPRWYFYYL_SSPDDQIGYY_SSRGTSPAR_TLKSFTVEK_TMADLVYAL_TSRTLSYYK_TVYSHLLLV_VEHVTFFIY_VLWAHGFEL_VRFPNITNL_VSIWNLDYII_VTPSGTWLTY_VVYRGTTTY_VYFLQSINF_WPVTLACFVL_YANRNRFLY_YEQYIKWPW_YFIASFRLF_YIFFASFYY_YIIKLIFLW_YLDAYNMMI_YLYALVYFL'
p2
cnumpy.core.multiarray
scalar
p3
(cnumpy
dtype
p4
(S'f8'
I0
I1
tRp5
(I3
S'<'
NNNI-1
I-1
I0
tbS'\xb0\xb1\xdc\x8cm\xa3\xef?'
tRp6
tp7
a(S'AEIRASANL_AELEGIQY_ALRANSAVK_ASKIITLKK_ATSRTLSYY_CPDGVKHVY_DLFMRIFTI_EEHVQIHTI_EILDITPCSF_FAYANRNRF_FIAGLIAIV_FLLNKEMYL_FLLPSLATV_FLNRFTTTL_FLPRVFSAV_FLQSINFVR_FPNITNLCPF_FPQSAPHGV_FPRGQGVPI_FTNVYADSF_FTYASALWEI_FVDGVPFVV_HVTFFIYNK_IPRRNVATL_IPTNFTISV_ISDYDYYRY_ITLATCELY_ITLKKRWQL_KAYNVTQAF_KMQRMLLEK_KTFPPTEPK_KVSIWNLDY_LIIMRTFKV_LLYDANYFL_LSPRWYFYY_LTDEMIAQY_LYNSASFSTF_LYSPIFLIV_MGYINVFAF_MPASWVMRI_MTSCCSCLK_NPLLYDANY_NSASFSTFK_NSIAIPTNF_NVFAFPFTIY_NYNYLYRLF_QELYSPIFL_QLPQGTTLPK_QYIKWPWYI_RARSVSPKL_RISNCVADY_RLFRKSNLK_RLYYDSMSY_RQLLFVVEV_RTFKVSIWNL_SIIAYTMSL_SINFVRIIMR_SLIDFYLCFL_SPRWYFYYL_SSPDDQIGYY_SSRGTSPAR_TLKSFTVEK_TMADLVYAL_TSRTLSYYK_TVYSHLLLV_VEHVTFFIY_VLWAHGFEL_VRFPNITNL_VSIWNLDYII_VTPSGTWLTY_VVYRGTTTY_VYFLQSINF_WPVTLACFVL_YANRNRFLY_YEQYIKWPW_YFIASFRLF_YIFFASFYY_YIIKLIFLW_YLDAYNMMI_YLYALVYFL'
p8
g3
(g5
S'\xb0\xb1\xdc\x8cm\xa3\xef?'
tRp9
tp10
a(S'AEIRASANL_AELEGIQY_ALRANSAVK_ASKIITLKK_ATSRTLSYY_CPDGVKHVY_DLFMRIFTI_EEHVQIHTI_EILDITPCSF_FAYANRNRF_FIAGLIAIV_FLLNKEMYL_FLLPSLATV_FLNRFTTTL_FLPRVFSAV_FLQSINFVR_FPNITNLCPF_FPQSAPHGV_FPRGQGVPI_FTNVYADSF_FTYASALWEI_FVDGVPFVV_HVTFFIYNK_IPRRNVATL_IPTNFTISV_ISDYDYYRY_ITLATCELY_ITLKKRWQL_KAYNVTQAF_KMQRMLLEK_KTFPPTEPK_KVSIWNLDY_LIIMRTFKV_LLYDANYFL_LNDLCFTNVY_LSPRWYFYY_LTDEMIAQY_LYNSASFSTF_LYSPIFLIV_MGYINVFAF_MPASWVMRI_MTSCCSCLK_NSASFSTFK_NSIAIPTNF_NVFAFPFTIY_NYNYLYRLF_QELYSPIFL_QLPQGTTLPK_QPTESIVRF_QYIKWPWYI_RARSVSPKL_RISNCVADY_RLFRKSNLK_RLYYDSMSY_RQLLFVVEV_RTFKVSIWNL_SIIAYTMSL_SINFVRIIMR_SLIDFYLCFL_SPRWYFYYL_SSRGTSPAR_TLKSFTVEK_TMADLVYAL_TSRTLSYYK_TVYSHLLLV_VEHVTFFIY_VLWAHGFEL_VRFPNITNL_VSIWNLDYII_VTPSGTWLTY_VVYRGTTTY_VYFLQSINF_WPVTLACFVL_YANRNRFLY_YEQYIKWPW_YFIASFRLF_YIFFASFYY_YIIKLIFLW_YLDAYNMMI_YLYALVYFL'
p11
g3
(g5
S'\xb0\xb1\xdc\x8cm\xa3\xef?'
tRp12
tp13
a(S'AEIRASANL_AELEGIQY_ALRANSAVK_ASKIITLKK_ATSRTLSYY_CPDGVKHVY_DLFMRIFTI_EEHVQIHTI_EILDITPCSF_FAYANRNRF_FIAGLIAIV_FLLNKEMYL_FLLPSLATV_FLNRFTTTL_FLPRVFSAV_FLQSINFVR_FPNITNLCPF_FPQSAPHGV_FPRGQGVPI_FTNVYADSF_FTYASALWEI_FVDGVPFVV_HVTFFIYNK_IPRRNVATL_IPTNFTISV_ISDYDYYRY_ITLATCELY_ITLKKRWQL_KAYNVTQAF_KMQRMLLEK_KTFPPTEPK_KVSIWNLDY_LIIMRTFKV_LLYDANYFL_LNDLCFTNVY_LSPRWYFYY_LTDEMIAQY_LYNSASFSTF_LYSPIFLIV_MGYINVFAF_MPASWVMRI_MTSCCSCLK_NPLLYDANY_NSASFSTFK_NSIAIPTNF_NVFAFPFTIY_NYNYLYRLF_QELYSPIFL_QLPQGTTLPK_QYIKWPWYI_RARSVSPKL_RISNCVADY_RLFRKSNLK_RLYYDSMSY_RQLLFVVEV_RTFKVSIWNL_SIIAYTMSL_SINFVRIIMR_SLIDFYLCFL_SPRWYFYYL_SSRGTSPAR_TLKSFTVEK_TMADLVYAL_TSRTLSYYK_TVYSHLLLV_VEHVTFFIY_VLWAHGFEL_VRFPNITNL_VSIWNLDYII_VTPSGTWLTY_VVYRGTTTY_VYFLQSINF_WPVTLACFVL_YANRNRFLY_YEQYIKWPW_YFIASFRLF_YIFFASFYY_YIIKLIFLW_YLDAYNMMI_YLYALVYFL'
p14
g3
(g5
S'\xb0\xb1\xdc\x8cm\xa3\xef?'
tRp15
tp16
a(S'AEIRASANL_AELEGIQY_ALRANSAVK_ASKIITLKK_ATSRTLSYY_CPDGVKHVY_DLFMRIFTI_EEHVQIHTI_EILDITPCSF_FAYANRNRF_FIAGLIAIV_FLLNKEMYL_FLLPSLATV_FLNRFTTTL_FLPRVFSAV_FLQSINFVR_FPNITNLCPF_FPQSAPHGV_FPRGQGVPI_FTNVYADSF_FTYASALWEI_FVDGVPFVV_HVTFFIYNK_ILLIIMRTFK_IPRRNVATL_IPTNFTISV_ISDYDYYRY_ITLATCELY_ITLKKRWQL_KAYNVTQAF_KMQRMLLEK_KTFPPTEPK_KVSIWNLDY_LIIMRTFKV_LLYDANYFL_LSPRWYFYY_LTDEMIAQY_LYNSASFSTF_LYSPIFLIV_MGYINVFAF_MPASWVMRI_MTSCCSCLK_NSASFSTFK_NSIAIPTNF_NVFAFPFTIY_NYNYLYRLF_QELYSPIFL_QPTESIVRF_QYIKWPWYI_RARSVSPKL_RISNCVADY_RLFRKSNLK_RLYYDSMSY_RQLLFVVEV_RTFKVSIWNL_SIIAYTMSL_SINFVRIIMR_SLIDFYLCFL_SPRWYFYYL_SSPDDQIGYY_SSRGTSPAR_TLKSFTVEK_TMADLVYAL_TSRTLSYYK_TVYSHLLLV_VEHVTFFIY_VLWAHGFEL_VRFPNITNL_VSIWNLDYII_VTPSGTWLTY_VVYRGTTTY_VYFLQSINF_WPVTLACFVL_YANRNRFLY_YEQYIKWPW_YFIASFRLF_YIFFASFYY_YIIKLIFLW_YLDAYNMMI_YLYALVYFL'
p17
g3
(g5
S'\xb0\xb1\xdc\x8cm\xa3\xef?'
tRp18
tp19
a(S'AEIRASANL_AELEGIQY_ALRANSAVK_ASKIITLKK_ATSRTLSYY_CPDGVKHVY_DLFMRIFTI_EEHVQIHTI_EILDITPCSF_FAYANRNRF_FIAGLIAIV_FLLNKEMYL_FLLPSLATV_FLNRFTTTL_FLPRVFSAV_FLQSINFVR_FPNITNLCPF_FPQSAPHGV_FPRGQGVPI_FTNVYADSF_FTYASALWEI_FVDGVPFVV_HVTFFIYNK_ILLIIMRTFK_IPRRNVATL_IPTNFTISV_ISDYDYYRY_ITLATCELY_ITLKKRWQL_KAYNVTQAF_KMQRMLLEK_KTFPPTEPK_KVSIWNLDY_LIIMRTFKV_LLYDANYFL_LSPRWYFYY_LTDEMIAQY_LYNSASFSTF_LYSPIFLIV_MGYINVFAF_MPASWVMRI_MTSCCSCLK_NPLLYDANY_NSASFSTFK_NSIAIPTNF_NVFAFPFTIY_NYNYLYRLF_QELYSPIFL_QYIKWPWYI_RARSVSPKL_RISNCVADY_RLFRKSNLK_RLYYDSMSY_RQLLFVVEV_RTFKVSIWNL_SIIAYTMSL_SINFVRIIMR_SLIDFYLCFL_SPRWYFYYL_SSPDDQIGYY_SSRGTSPAR_TLKSFTVEK_TMADLVYAL_TSRTLSYYK_TVYSHLLLV_VEHVTFFIY_VLWAHGFEL_VRFPNITNL_VSIWNLDYII_VTPSGTWLTY_VVYRGTTTY_VYFLQSINF_WPVTLACFVL_YANRNRFLY_YEQYIKWPW_YFIASFRLF_YIFFASFYY_YIIKLIFLW_YLDAYNMMI_YLYALVYFL'
p20
g3
(g5
S'\xb0\xb1\xdc\x8cm\xa3\xef?'
tRp21
tp22
a(S'AEIRASANL_AELEGIQY_ALRANSAVK_ASKIITLKK_ATEGALNTPK_ATSRTLSYY_CPDGVKHVY_DLFMRIFTI_EEHVQIHTI_EILDITPCSF_FAYANRNRF_FIAGLIAIV_FLLNKEMYL_FLLPSLATV_FLNRFTTTL_FLPRVFSAV_FLQSINFVR_FPNITNLCPF_FPQSAPHGV_FPRGQGVPI_FTNVYADSF_FTYASALWEI_FVDGVPFVV_HVTFFIYNK_IPRRNVATL_IPTNFTISV_ISDYDYYRY_ITLATCELY_ITLKKRWQL_KAYNVTQAF_KMQRMLLEK_KTFPPTEPK_KVSIWNLDY_LIIMRTFKV_LLYDANYFL_LSPRWYFYY_LTDEMIAQY_LYNSASFSTF_LYSPIFLIV_MGYINVFAF_MPASWVMRI_MTSCCSCLK_NSASFSTFK_NSIAIPTNF_NVFAFPFTIY_NYNYLYRLF_QELYSPIFL_QPTESIVRF_QYIKWPWYI_RARSVSPKL_RISNCVADY_RLFRKSNLK_RLYYDSMSY_RQLLFVVEV_RTFKVSIWNL_SIIAYTMSL_SINFVRIIMR_SLIDFYLCFL_SPRWYFYYL_SSPDDQIGYY_SSRGTSPAR_TLKSFTVEK_TMADLVYAL_TSRTLSYYK_TVYSHLLLV_VEHVTFFIY_VLWAHGFEL_VRFPNITNL_VSIWNLDYII_VTPSGTWLTY_VVYRGTTTY_VYFLQSINF_WPVTLACFVL_YANRNRFLY_YEQYIKWPW_YFIASFRLF_YIFFASFYY_YIIKLIFLW_YLDAYNMMI_YLYALVYFL'
p23
g3
(g5
S'\xb0\xb1\xdc\x8cm\xa3\xef?'
tRp24
tp25
a(S'AEIRASANL_AELEGIQY_ALRANSAVK_ASKIITLKK_ATEGALNTPK_ATSRTLSYY_CPDGVKHVY_DLFMRIFTI_EEHVQIHTI_EILDITPCSF_FAYANRNRF_FIAGLIAIV_FLLNKEMYL_FLLPSLATV_FLNRFTTTL_FLPRVFSAV_FLQSINFVR_FPNITNLCPF_FPQSAPHGV_FPRGQGVPI_FTNVYADSF_FTYASALWEI_FVDGVPFVV_HVTFFIYNK_IPRRNVATL_IPTNFTISV_ISDYDYYRY_ITLATCELY_ITLKKRWQL_KAYNVTQAF_KMQRMLLEK_KTFPPTEPK_KVSIWNLDY_LIIMRTFKV_LLYDANYFL_LSPRWYFYY_LTDEMIAQY_LYNSASFSTF_LYSPIFLIV_MGYINVFAF_MPASWVMRI_MTSCCSCLK_NPLLYDANY_NSASFSTFK_NSIAIPTNF_NVFAFPFTIY_NYNYLYRLF_QELYSPIFL_QYIKWPWYI_RARSVSPKL_RISNCVADY_RLFRKSNLK_RLYYDSMSY_RQLLFVVEV_RTFKVSIWNL_SIIAYTMSL_SINFVRIIMR_SLIDFYLCFL_SPRWYFYYL_SSPDDQIGYY_SSRGTSPAR_TLKSFTVEK_TMADLVYAL_TSRTLSYYK_TVYSHLLLV_VEHVTFFIY_VLWAHGFEL_VRFPNITNL_VSIWNLDYII_VTPSGTWLTY_VVYRGTTTY_VYFLQSINF_WPVTLACFVL_YANRNRFLY_YEQYIKWPW_YFIASFRLF_YIFFASFYY_YIIKLIFLW_YLDAYNMMI_YLYALVYFL'
p26
g3
(g5
S'\xb0\xb1\xdc\x8cm\xa3\xef?'
tRp27
tp28
a(S'AEIRASANL_AELEGIQY_ALRANSAVK_ASKIITLKK_ATEGALNTPK_ATSRTLSYY_CPDGVKHVY_DLFMRIFTI_EEHVQIHTI_EILDITPCSF_FAYANRNRF_FIAGLIAIV_FLLNKEMYL_FLLPSLATV_FLNRFTTTL_FLPRVFSAV_FLQSINFVR_FPNITNLCPF_FPQSAPHGV_FPRGQGVPI_FTNVYADSF_FTYASALWEI_FVDGVPFVV_HVTFFIYNK_IPRRNVATL_IPTNFTISV_ISDYDYYRY_ITLATCELY_ITLKKRWQL_KAYNVTQAF_KMQRMLLEK_KTFPPTEPK_KVSIWNLDY_LIIMRTFKV_LLYDANYFL_LNDLCFTNVY_LSPRWYFYY_LTDEMIAQY_LYNSASFSTF_LYSPIFLIV_MGYINVFAF_MPASWVMRI_MTSCCSCLK_NSASFSTFK_NSIAIPTNF_NVFAFPFTIY_NYNYLYRLF_QELYSPIFL_QPTESIVRF_QYIKWPWYI_RARSVSPKL_RISNCVADY_RLFRKSNLK_RLYYDSMSY_RQLLFVVEV_RTFKVSIWNL_SIIAYTMSL_SINFVRIIMR_SLIDFYLCFL_SPRWYFYYL_SSRGTSPAR_TLKSFTVEK_TMADLVYAL_TSRTLSYYK_TVYSHLLLV_VEHVTFFIY_VLWAHGFEL_VRFPNITNL_VSIWNLDYII_VTPSGTWLTY_VVYRGTTTY_VYFLQSINF_WPVTLACFVL_YANRNRFLY_YEQYIKWPW_YFIASFRLF_YIFFASFYY_YIIKLIFLW_YLDAYNMMI_YLYALVYFL'
p29
g3
(g5
S'\xb0\xb1\xdc\x8cm\xa3\xef?'
tRp30
tp31
a(S'AEIRASANL_AELEGIQY_ALRANSAVK_ASKIITLKK_ATEGALNTPK_ATSRTLSYY_CPDGVKHVY_DLFMRIFTI_EEHVQIHTI_EILDITPCSF_FAYANRNRF_FIAGLIAIV_FLLNKEMYL_FLLPSLATV_FLNRFTTTL_FLPRVFSAV_FLQSINFVR_FPNITNLCPF_FPQSAPHGV_FPRGQGVPI_FTNVYADSF_FTYASALWEI_FVDGVPFVV_HVTFFIYNK_IPRRNVATL_IPTNFTISV_ISDYDYYRY_ITLATCELY_ITLKKRWQL_KAYNVTQAF_KMQRMLLEK_KTFPPTEPK_KVSIWNLDY_LIIMRTFKV_LLYDANYFL_LNDLCFTNVY_LSPRWYFYY_LTDEMIAQY_LYNSASFSTF_LYSPIFLIV_MGYINVFAF_MPASWVMRI_MTSCCSCLK_NPLLYDANY_NSASFSTFK_NSIAIPTNF_NVFAFPFTIY_NYNYLYRLF_QELYSPIFL_QYIKWPWYI_RARSVSPKL_RISNCVADY_RLFRKSNLK_RLYYDSMSY_RQLLFVVEV_RTFKVSIWNL_SIIAYTMSL_SINFVRIIMR_SLIDFYLCFL_SPRWYFYYL_SSRGTSPAR_TLKSFTVEK_TMADLVYAL_TSRTLSYYK_TVYSHLLLV_VEHVTFFIY_VLWAHGFEL_VRFPNITNL_VSIWNLDYII_VTPSGTWLTY_VVYRGTTTY_VYFLQSINF_WPVTLACFVL_YANRNRFLY_YEQYIKWPW_YFIASFRLF_YIFFASFYY_YIIKLIFLW_YLDAYNMMI_YLYALVYFL'
p32
g3
(g5
S'\xb0\xb1\xdc\x8cm\xa3\xef?'
tRp33
tp34
a.