(lp1
(S'ATSRTLSYY_EILDITPCSF_FAYANRNRF_FLNRFTTTL_FLQSINFVR_FPRGQGVPI_FVDGVPFVV_ISDYDYYRY_MGYINVFAF_MTSCCSCLK_NSASFSTFK_NVFAFPFTIY_RARSVSPKL_RLYYDSMSY_RTFKVSIWNL_SIIAYTMSL_SINFVRIIMR_TVYSHLLLV_YEQYIKWPW_YLYALVYFL'
p2
cnumpy.core.multiarray
scalar
p3
(cnumpy
dtype
p4
(S'f8'
I0
I1
tRp5
(I3
S'<'
NNNI-1
I-1
I0
tbS'\x0b\x88\x07g\xc9\xf0\xef?'
tRp6
tp7
a(S'AELEGIQY_ATSRTLSYY_EILDITPCSF_FAYANRNRF_FLNRFTTTL_FLQSINFVR_FPRGQGVPI_FVDGVPFVV_HVTFFIYNK_ISDYDYYRY_MGYINVFAF_NSASFSTFK_NVFAFPFTIY_RARSVSPKL_RLYYDSMSY_RTFKVSIWNL_SIIAYTMSL_SINFVRIIMR_TVYSHLLLV_YLYALVYFL'
p8
g3
(g5
S'\x9f^\xab\x1b\xb4\xf0\xef?'
tRp9
tp10
a(S'AELEGIQY_ATSRTLSYY_EILDITPCSF_FAYANRNRF_FLNRFTTTL_FLQSINFVR_FPRGQGVPI_FVDGVPFVV_ISDYDYYRY_MGYINVFAF_MTSCCSCLK_NSASFSTFK_NVFAFPFTIY_RARSVSPKL_RLYYDSMSY_RTFKVSIWNL_SIIAYTMSL_SINFVRIIMR_TVYSHLLLV_YLYALVYFL'
p11
g3
(g5
S'y\x0f!\x90\xb3\xf0\xef?'
tRp12
tp13
a(S'ATSRTLSYY_EILDITPCSF_FAYANRNRF_FLNRFTTTL_FLQSINFVR_FPRGQGVPI_FVDGVPFVV_ISDYDYYRY_MGYINVFAF_MTSCCSCLK_NSASFSTFK_NVFAFPFTIY_RARSVSPKL_RLYYDSMSY_RTFKVSIWNL_SIIAYTMSL_SINFVRIIMR_TMADLVYAL_TVYSHLLLV_YEQYIKWPW'
p14
g3
(g5
S'\xed\xb3\xc8\xac\xae\xf0\xef?'
tRp15
tp16
a(S'AEIRASANL_ATSRTLSYY_EILDITPCSF_FAYANRNRF_FLNRFTTTL_FLQSINFVR_FPRGQGVPI_FVDGVPFVV_ISDYDYYRY_MGYINVFAF_MTSCCSCLK_NSASFSTFK_NVFAFPFTIY_RARSVSPKL_RLYYDSMSY_RTFKVSIWNL_SIIAYTMSL_TVYSHLLLV_YEQYIKWPW_YLYALVYFL'
p17
g3
(g5
S"\x08'\xfen\xad\xf0\xef?"
tRp18
tp19
a(S'ATSRTLSYY_EILDITPCSF_FAYANRNRF_FLNRFTTTL_FLQSINFVR_FPRGQGVPI_FVDGVPFVV_ISDYDYYRY_KAYNVTQAF_MGYINVFAF_MTSCCSCLK_NSASFSTFK_NVFAFPFTIY_RARSVSPKL_RLYYDSMSY_SIIAYTMSL_SINFVRIIMR_TVYSHLLLV_YEQYIKWPW_YLYALVYFL'
p20
g3
(g5
S'\xbd\xb9\xa3{\xac\xf0\xef?'
tRp21
tp22
a(S'ATSRTLSYY_EILDITPCSF_FAYANRNRF_FLNRFTTTL_FLQSINFVR_FPRGQGVPI_FVDGVPFVV_ISDYDYYRY_LLYDANYFL_MGYINVFAF_MTSCCSCLK_NSASFSTFK_NVFAFPFTIY_RARSVSPKL_RLYYDSMSY_RTFKVSIWNL_SIIAYTMSL_SINFVRIIMR_TVYSHLLLV_YEQYIKWPW'
p23
g3
(g5
S'73N\r\xa2\xf0\xef?'
tRp24
tp25
a(S'AEIRASANL_AELEGIQY_ATSRTLSYY_EILDITPCSF_FAYANRNRF_FLNRFTTTL_FLQSINFVR_FPRGQGVPI_FVDGVPFVV_HVTFFIYNK_ISDYDYYRY_MGYINVFAF_NSASFSTFK_NVFAFPFTIY_RARSVSPKL_RLYYDSMSY_RTFKVSIWNL_SIIAYTMSL_TVYSHLLLV_YLYALVYFL'
p26
g3
(g5
S'\xf8\x8d\xf9\xd7\xa1\xf0\xef?'
tRp27
tp28
a(S'ATSRTLSYY_EILDITPCSF_FAYANRNRF_FLNRFTTTL_FLQSINFVR_FPRGQGVPI_FTNVYADSF_FVDGVPFVV_ISDYDYYRY_MTSCCSCLK_NSASFSTFK_NVFAFPFTIY_RARSVSPKL_RLYYDSMSY_RTFKVSIWNL_SIIAYTMSL_SINFVRIIMR_TVYSHLLLV_YEQYIKWPW_YLYALVYFL'
p29
g3
(g5
S'\xad\xd0}\xf7\x9d\xf0\xef?'
tRp30
tp31
a(S'AEIRASANL_AELEGIQY_ATSRTLSYY_EILDITPCSF_FAYANRNRF_FLNRFTTTL_FPRGQGVPI_FVDGVPFVV_ISDYDYYRY_MGYINVFAF_MTSCCSCLK_NSASFSTFK_NVFAFPFTIY_RARSVSPKL_RLYYDSMSY_RTFKVSIWNL_SIIAYTMSL_SINFVRIIMR_TVYSHLLLV_YLYALVYFL'
p32
g3
(g5
S']\x1c\xc6\x1a\x9d\xf0\xef?'
tRp33
tp34
a.