(lp1
(S'ATSRTLSYY_EILDITPCSF_FAYANRNRF_FVDGVPFVV_MTSCCSCLK_NSASFSTFK_NVFAFPFTIY_RARSVSPKL_YEQYIKWPW'
p2
cnumpy.core.multiarray
scalar
p3
(cnumpy
dtype
p4
(S'f8'
I0
I1
tRp5
(I3
S'<'
NNNI-1
I-1
I0
tbS'\xf5\xc4\xbeN\xf0\xfe\xef?'
tRp6
tp7
a(S'AELEGIQY_ATSRTLSYY_EILDITPCSF_FAYANRNRF_FVDGVPFVV_MTSCCSCLK_NSASFSTFK_NVFAFPFTIY_RARSVSPKL'
p8
g3
(g5
S'\xf5\xc4\xbeN\xf0\xfe\xef?'
tRp9
tp10
a(S'ATSRTLSYY_EILDITPCSF_FAYANRNRF_FVDGVPFVV_HVTFFIYNK_MTSCCSCLK_NVFAFPFTIY_SSRGTSPAR_YEQYIKWPW'
p11
g3
(g5
S'\xe8\xc4\xbeN\xf0\xfe\xef?'
tRp12
tp13
a(S'ATSRTLSYY_EILDITPCSF_FAYANRNRF_FVDGVPFVV_HVTFFIYNK_MTSCCSCLK_NVFAFPFTIY_RLFRKSNLK_YEQYIKWPW'
p14
g3
(g5
S'\xe5\xc4\xbeN\xf0\xfe\xef?'
tRp15
tp16
a(S'ATSRTLSYY_EILDITPCSF_FAYANRNRF_FVDGVPFVV_HVTFFIYNK_KMQRMLLEK_MTSCCSCLK_NVFAFPFTIY_YEQYIKWPW'
p17
g3
(g5
S'\xe5\xc4\xbeN\xf0\xfe\xef?'
tRp18
tp19
a(S'AELEGIQY_ATSRTLSYY_EILDITPCSF_FAYANRNRF_FVDGVPFVV_HVTFFIYNK_NSASFSTFK_NVFAFPFTIY_RARSVSPKL'
p20
g3
(g5
S'\xe5\xc4\xbeN\xf0\xfe\xef?'
tRp21
tp22
a(S'AELEGIQY_ATSRTLSYY_EILDITPCSF_FAYANRNRF_FVDGVPFVV_HVTFFIYNK_MTSCCSCLK_NVFAFPFTIY_SSRGTSPAR'
p23
g3
(g5
S'\xe5\xc4\xbeN\xf0\xfe\xef?'
tRp24
tp25
a(S'ATSRTLSYY_EILDITPCSF_FAYANRNRF_FVDGVPFVV_HVTFFIYNK_NSASFSTFK_NVFAFPFTIY_RARSVSPKL_YEQYIKWPW'
p26
g3
(g5
S'\xe3\xc4\xbeN\xf0\xfe\xef?'
tRp27
tp28
a(S'ALRANSAVK_ATSRTLSYY_EILDITPCSF_FAYANRNRF_FVDGVPFVV_HVTFFIYNK_NSASFSTFK_NVFAFPFTIY_YEQYIKWPW'
p29
g3
(g5
S'\xe3\xc4\xbeN\xf0\xfe\xef?'
tRp30
tp31
a(S'AELEGIQY_ALRANSAVK_ATSRTLSYY_EILDITPCSF_FAYANRNRF_FVDGVPFVV_HVTFFIYNK_NSASFSTFK_NVFAFPFTIY'
p32
g3
(g5
S'\xe1\xc4\xbeN\xf0\xfe\xef?'
tRp33
tp34
a.