(lp1
(S'ATSRTLSYY_EILDITPCSF_NSASFSTFK'
p2
cnumpy.core.multiarray
scalar
p3
(cnumpy
dtype
p4
(S'f8'
I0
I1
tRp5
(I3
S'<'
NNNI-1
I-1
I0
tbS'[)z\xee\xa7\xff\xef?'
tRp6
tp7
a(S'ATSRTLSYY_EILDITPCSF_HVTFFIYNK'
p8
g3
(g5
S'8)z\xee\xa7\xff\xef?'
tRp9
tp10
a(S'ATSRTLSYY_NSASFSTFK_NVFAFPFTIY'
p11
g3
(g5
S'\xf9(z\xee\xa7\xff\xef?'
tRp12
tp13
a(S'ATSRTLSYY_MTSCCSCLK_NVFAFPFTIY'
p14
g3
(g5
S'\xed(z\xee\xa7\xff\xef?'
tRp15
tp16
a(S'ATSRTLSYY_HVTFFIYNK_NVFAFPFTIY'
p17
g3
(g5
S'\xe0(z\xee\xa7\xff\xef?'
tRp18
tp19
a(S'EILDITPCSF_ITLATCELY_NSASFSTFK'
p20
g3
(g5
S'\xadE\xbc\xa5\xa7\xff\xef?'
tRp21
tp22
a(S'EILDITPCSF_HVTFFIYNK_ITLATCELY'
p23
g3
(g5
S'\x91E\xbc\xa5\xa7\xff\xef?'
tRp24
tp25
a(S'EILDITPCSF_NSASFSTFK_YIFFASFYY'
p26
g3
(g5
S'|E\xbc\xa5\xa7\xff\xef?'
tRp27
tp28
a(S'MTSCCSCLK_NVFAFPFTIY_RLYYDSMSY'
p29
g3
(g5
S'oE\xbc\xa5\xa7\xff\xef?'
tRp30
tp31
a(S'ITLATCELY_NSASFSTFK_NVFAFPFTIY'
p32
g3
(g5
S'mE\xbc\xa5\xa7\xff\xef?'
tRp33
tp34
a.