(lp1
(S'AEIRASANL_AELEGIQY_ALRANSAVK_ATSRTLSYY_EEHVQIHTI_EILDITPCSF_FAYANRNRF_FLLNKEMYL_FLLPSLATV_FLNRFTTTL_FLPRVFSAV_FLQSINFVR_FPNITNLCPF_FPQSAPHGV_FPRGQGVPI_FTNVYADSF_FTYASALWEI_FVDGVPFVV_HVTFFIYNK_IPTNFTISV_ISDYDYYRY_ITLATCELY_KAYNVTQAF_KTFPPTEPK_KVSIWNLDY_LLYDANYFL_LTDEMIAQY_MGYINVFAF_MTSCCSCLK_NSASFSTFK_NVFAFPFTIY_QELYSPIFL_RARSVSPKL_RLYYDSMSY_RTFKVSIWNL_SIIAYTMSL_SINFVRIIMR_SPRWYFYYL_SQSIIAYTM_TMADLVYAL_TSRTLSYYK_TVYSHLLLV_VRFPNITNL_VYFLQSINF_YANRNRFLY_YEQYIKWPW_YFIASFRLF_YIFFASFYY_YIIKLIFLW_YLDAYNMMI_YLYALVYFL'
p2
cnumpy.core.multiarray
scalar
p3
(cnumpy
dtype
p4
(S'f8'
I0
I1
tRp5
(I3
S'<'
NNNI-1
I-1
I0
tbS'\x8c\x9a\xb3x8\xcd\xef?'
tRp6
tp7
a(S'AEIRASANL_AELEGIQY_ALRANSAVK_ATSRTLSYY_EEHVQIHTI_EILDITPCSF_FAYANRNRF_FLLNKEMYL_FLLPSLATV_FLNRFTTTL_FLPRVFSAV_FLQSINFVR_FPNITNLCPF_FPQSAPHGV_FPRGQGVPI_FTNVYADSF_FTYASALWEI_FVDGVPFVV_HVTFFIYNK_IPTNFTISV_ISDYDYYRY_ITLATCELY_KAYNVTQAF_KTFPPTEPK_KVSIWNLDY_LLYDANYFL_LTDEMIAQY_MGYINVFAF_MTSCCSCLK_NSASFSTFK_NVFAFPFTIY_QELYSPIFL_RARSVSPKL_RLYYDSMSY_RTFKVSIWNL_SIIAYTMSL_SINFVRIIMR_SPRWYFYYL_SQSIIAYTM_SYFIASFRLF_TMADLVYAL_TSRTLSYYK_TVYSHLLLV_VRFPNITNL_VYFLQSINF_YANRNRFLY_YEQYIKWPW_YIFFASFYY_YIIKLIFLW_YLDAYNMMI_YLYALVYFL'
p8
g3
(g5
S'T`6\x9a6\xcd\xef?'
tRp9
tp10
a(S'AEIRASANL_AELEGIQY_ALRANSAVK_ATSRTLSYY_EEHVQIHTI_EILDITPCSF_FAYANRNRF_FLLNKEMYL_FLLPSLATV_FLNRFTTTL_FLPRVFSAV_FLQSINFVR_FPNITNLCPF_FPQSAPHGV_FPRGQGVPI_FTNVYADSF_FTYASALWEI_FVDGVPFVV_HVTFFIYNK_IPTNFTISV_ISDYDYYRY_ITLATCELY_KAYNVTQAF_KTFPPTEPK_KVSIWNLDY_LLYDANYFL_LTDEMIAQY_MGYINVFAF_MTSCCSCLK_NSASFSTFK_NVFAFPFTIY_QELYSPIFL_RARSVSPKL_RLYYDSMSY_RQLLFVVEV_RTFKVSIWNL_SIIAYTMSL_SINFVRIIMR_SPRWYFYYL_TMADLVYAL_TSRTLSYYK_TVYSHLLLV_VRFPNITNL_VYFLQSINF_YANRNRFLY_YEQYIKWPW_YFIASFRLF_YIFFASFYY_YIIKLIFLW_YLDAYNMMI_YLYALVYFL'
p11
g3
(g5
S'<Y\x07\x8f\x10\xcd\xef?'
tRp12
tp13
a(S'AEIRASANL_AELEGIQY_ALRANSAVK_ATSRTLSYY_EEHVQIHTI_EILDITPCSF_FAYANRNRF_FLLPSLATV_FLNRFTTTL_FLPRVFSAV_FLQSINFVR_FPNITNLCPF_FPQSAPHGV_FPRGQGVPI_FTNVYADSF_FTYASALWEI_FVDGVPFVV_HVTFFIYNK_IPTNFTISV_ISDYDYYRY_ITLATCELY_KAYNVTQAF_KTFPPTEPK_KVSIWNLDY_LLYDANYFL_LTDEMIAQY_MGYINVFAF_MTSCCSCLK_NSASFSTFK_NVFAFPFTIY_QELYSPIFL_RARSVSPKL_RLYYDSMSY_RQLLFVVEV_RTFKVSIWNL_SIIAYTMSL_SINFVRIIMR_SPRWYFYYL_TMADLVYAL_TSRTLSYYK_TVYSHLLLV_VLWAHGFEL_VRFPNITNL_VYFLQSINF_YANRNRFLY_YEQYIKWPW_YFIASFRLF_YIFFASFYY_YIIKLIFLW_YLDAYNMMI_YLYALVYFL'
p14
g3
(g5
S'\xd5\x18\x08\xaf\t\xcd\xef?'
tRp15
tp16
a(S'AEIRASANL_AELEGIQY_ALRANSAVK_ATSRTLSYY_EEHVQIHTI_EILDITPCSF_FAYANRNRF_FLLNKEMYL_FLLPSLATV_FLNRFTTTL_FLPRVFSAV_FLQSINFVR_FPNITNLCPF_FPQSAPHGV_FPRGQGVPI_FTNVYADSF_FTYASALWEI_FVDGVPFVV_HVTFFIYNK_IPTNFTISV_ISDYDYYRY_ITLATCELY_KAYNVTQAF_KTFPPTEPK_LLYDANYFL_LTDEMIAQY_MGYINVFAF_MTSCCSCLK_NSASFSTFK_NVFAFPFTIY_QELYSPIFL_RARSVSPKL_RLYYDSMSY_RTFKVSIWNL_SIIAYTMSL_SINFVRIIMR_SPRWYFYYL_SQSIIAYTM_TMADLVYAL_TSRTLSYYK_TVYSHLLLV_VRFPNITNL_VVYRGTTTY_VYFLQSINF_YANRNRFLY_YEQYIKWPW_YFIASFRLF_YIFFASFYY_YIIKLIFLW_YLDAYNMMI_YLYALVYFL'
p17
g3
(g5
S's\rt\xe9\x01\xcd\xef?'
tRp18
tp19
a(S'AEIRASANL_AELEGIQY_ALRANSAVK_ATSRTLSYY_EEHVQIHTI_EILDITPCSF_FAYANRNRF_FLLNKEMYL_FLLPSLATV_FLNRFTTTL_FLPRVFSAV_FLQSINFVR_FPNITNLCPF_FPQSAPHGV_FPRGQGVPI_FTNVYADSF_FTYASALWEI_FVDGVPFVV_HVTFFIYNK_IPTNFTISV_ISDYDYYRY_ITLATCELY_KAYNVTQAF_KTFPPTEPK_LLYDANYFL_LTDEMIAQY_MGYINVFAF_MTSCCSCLK_NSASFSTFK_NVFAFPFTIY_QELYSPIFL_RARSVSPKL_RLYYDSMSY_RTFKVSIWNL_SIIAYTMSL_SINFVRIIMR_SPRWYFYYL_SQSIIAYTM_SYFIASFRLF_TMADLVYAL_TSRTLSYYK_TVYSHLLLV_VRFPNITNL_VVYRGTTTY_VYFLQSINF_YANRNRFLY_YEQYIKWPW_YIFFASFYY_YIIKLIFLW_YLDAYNMMI_YLYALVYFL'
p20
g3
(g5
S'<\xd3\xf6\n\x00\xcd\xef?'
tRp21
tp22
a(S'AEIRASANL_AELEGIQY_ALRANSAVK_ATSRTLSYY_EEHVQIHTI_EILDITPCSF_FAYANRNRF_FLLNKEMYL_FLLPSLATV_FLNRFTTTL_FLPRVFSAV_FLQSINFVR_FPNITNLCPF_FPQSAPHGV_FPRGQGVPI_FTNVYADSF_FTYASALWEI_FVDGVPFVV_HVTFFIYNK_IPTNFTISV_ISDYDYYRY_ITLATCELY_KAYNVTQAF_KTFPPTEPK_LLYDANYFL_LTDEMIAQY_MGYINVFAF_MTSCCSCLK_NSASFSTFK_NVFAFPFTIY_QELYSPIFL_RARSVSPKL_RISNCVADY_RLYYDSMSY_RTFKVSIWNL_SIIAYTMSL_SINFVRIIMR_SPRWYFYYL_SQSIIAYTM_TMADLVYAL_TSRTLSYYK_TVYSHLLLV_VRFPNITNL_VYFLQSINF_YANRNRFLY_YEQYIKWPW_YFIASFRLF_YIFFASFYY_YIIKLIFLW_YLDAYNMMI_YLYALVYFL'
p23
g3
(g5
S'\x93\x11\xf6\xd9\xf1\xcc\xef?'
tRp24
tp25
a(S'AEIRASANL_AELEGIQY_ALRANSAVK_ATSRTLSYY_EEHVQIHTI_EILDITPCSF_FAYANRNRF_FLLNKEMYL_FLLPSLATV_FLNRFTTTL_FLPRVFSAV_FLQSINFVR_FPNITNLCPF_FPQSAPHGV_FPRGQGVPI_FTNVYADSF_FTYASALWEI_FVDGVPFVV_HVTFFIYNK_IPTNFTISV_ISDYDYYRY_ITLATCELY_KAYNVTQAF_KTFPPTEPK_LLYDANYFL_LTDEMIAQY_MGYINVFAF_MTSCCSCLK_NSASFSTFK_NVFAFPFTIY_QELYSPIFL_RARSVSPKL_RISNCVADY_RLYYDSMSY_RTFKVSIWNL_SIIAYTMSL_SINFVRIIMR_SPRWYFYYL_SQSIIAYTM_SYFIASFRLF_TMADLVYAL_TSRTLSYYK_TVYSHLLLV_VRFPNITNL_VYFLQSINF_YANRNRFLY_YEQYIKWPW_YIFFASFYY_YIIKLIFLW_YLDAYNMMI_YLYALVYFL'
p26
g3
(g5
S'\xcb\xfd\xe0\xe3\xef\xcc\xef?'
tRp27
tp28
a(S'AEIRASANL_AELEGIQY_ALRANSAVK_ATSRTLSYY_EEHVQIHTI_EILDITPCSF_FAYANRNRF_FLLNKEMYL_FLLPSLATV_FLNRFTTTL_FLPRVFSAV_FLQSINFVR_FPNITNLCPF_FPQSAPHGV_FPRGQGVPI_FTNVYADSF_FTYASALWEI_FVDGVPFVV_HVTFFIYNK_IPTNFTISV_ISDYDYYRY_ITLATCELY_KAYNVTQAF_KTFPPTEPK_LLYDANYFL_LTDEMIAQY_MGYINVFAF_MTSCCSCLK_NSASFSTFK_NVFAFPFTIY_QELYSPIFL_RARSVSPKL_RLYYDSMSY_RQLLFVVEV_RTFKVSIWNL_SIIAYTMSL_SINFVRIIMR_SPRWYFYYL_TMADLVYAL_TSRTLSYYK_TVYSHLLLV_VRFPNITNL_VVYRGTTTY_VYFLQSINF_YANRNRFLY_YEQYIKWPW_YFIASFRLF_YIFFASFYY_YIIKLIFLW_YLDAYNMMI_YLYALVYFL'
p29
g3
(g5
S'U\xe8\xf4H\xdb\xcc\xef?'
tRp30
tp31
a(S'AEIRASANL_AELEGIQY_ALRANSAVK_ATSRTLSYY_EEHVQIHTI_EILDITPCSF_FAYANRNRF_FLLPSLATV_FLNRFTTTL_FLPRVFSAV_FLQSINFVR_FPNITNLCPF_FPQSAPHGV_FPRGQGVPI_FTNVYADSF_FTYASALWEI_FVDGVPFVV_HVTFFIYNK_IPTNFTISV_ISDYDYYRY_ITLATCELY_KAYNVTQAF_KTFPPTEPK_LLYDANYFL_LTDEMIAQY_MGYINVFAF_MTSCCSCLK_NSASFSTFK_NVFAFPFTIY_QELYSPIFL_RARSVSPKL_RLYYDSMSY_RQLLFVVEV_RTFKVSIWNL_SIIAYTMSL_SINFVRIIMR_SPRWYFYYL_TMADLVYAL_TSRTLSYYK_TVYSHLLLV_VLWAHGFEL_VRFPNITNL_VVYRGTTTY_VYFLQSINF_YANRNRFLY_YEQYIKWPW_YFIASFRLF_YIFFASFYY_YIIKLIFLW_YLDAYNMMI_YLYALVYFL'
p32
g3
(g5
S'\xf9\xa7\xf5h\xd4\xcc\xef?'
tRp33
tp34
a.