(lp1
(S'ATSRTLSYY_FAYANRNRF_FVDGVPFVV_HVTFFIYNK_NVFAFPFTIY_RARSVSPKL'
p2
cnumpy.core.multiarray
scalar
p3
(cnumpy
dtype
p4
(S'f8'
I0
I1
tRp5
(I3
S'<'
NNNI-1
I-1
I0
tbS'|\xa629\xd3\xfd\xef?'
tRp6
tp7
a(S'ATSRTLSYY_FAYANRNRF_FVDGVPFVV_MTSCCSCLK_NVFAFPFTIY_SSRGTSPAR'
p8
g3
(g5
S'{\xa629\xd3\xfd\xef?'
tRp9
tp10
a(S'ATSRTLSYY_FAYANRNRF_FVDGVPFVV_MTSCCSCLK_NVFAFPFTIY_RLFRKSNLK'
p11
g3
(g5
S'x\xa629\xd3\xfd\xef?'
tRp12
tp13
a(S'ATSRTLSYY_FAYANRNRF_FVDGVPFVV_KMQRMLLEK_MTSCCSCLK_NVFAFPFTIY'
p14
g3
(g5
S'x\xa629\xd3\xfd\xef?'
tRp15
tp16
a(S'ALRANSAVK_ATSRTLSYY_FAYANRNRF_FVDGVPFVV_HVTFFIYNK_NVFAFPFTIY'
p17
g3
(g5
S'x\xa629\xd3\xfd\xef?'
tRp18
tp19
a(S'ATSRTLSYY_FAYANRNRF_FVDGVPFVV_MTSCCSCLK_NVFAFPFTIY_RARSVSPKL'
p20
g3
(g5
S'u\xa629\xd3\xfd\xef?'
tRp21
tp22
a(S'ATSRTLSYY_FAYANRNRF_FVDGVPFVV_HVTFFIYNK_NVFAFPFTIY_SSRGTSPAR'
p23
g3
(g5
S's\xa629\xd3\xfd\xef?'
tRp24
tp25
a(S'ASKIITLKK_ATSRTLSYY_FAYANRNRF_FVDGVPFVV_MTSCCSCLK_NVFAFPFTIY'
p26
g3
(g5
S's\xa629\xd3\xfd\xef?'
tRp27
tp28
a(S'ATSRTLSYY_FAYANRNRF_FVDGVPFVV_HVTFFIYNK_NVFAFPFTIY_RLFRKSNLK'
p29
g3
(g5
S'p\xa629\xd3\xfd\xef?'
tRp30
tp31
a(S'ATSRTLSYY_FAYANRNRF_FVDGVPFVV_HVTFFIYNK_KMQRMLLEK_NVFAFPFTIY'
p32
g3
(g5
S'p\xa629\xd3\xfd\xef?'
tRp33
tp34
a.