(lp1
(S'AEIRASANL_ATSRTLSYY_EILDITPCSF_FAYANRNRF_FLNRFTTTL_FLQSINFVR_FPRGQGVPI_FTYASALWEI_FVDGVPFVV_ISDYDYYRY_KTFPPTEPK_MGYINVFAF_MTSCCSCLK_NSASFSTFK_NVFAFPFTIY_RARSVSPKL_RLYYDSMSY_RTFKVSIWNL_SIIAYTMSL_SINFVRIIMR_TMADLVYAL_TVYSHLLLV_YEQYIKWPW_YLDAYNMMI_YLYALVYFL'
p2
cnumpy.core.multiarray
scalar
p3
(cnumpy
dtype
p4
(S'f8'
I0
I1
tRp5
(I3
S'<'
NNNI-1
I-1
I0
tbS'\xd8\xe7\x7f7y\xd2\xef?'
tRp6
tp7
a(S'AEIRASANL_AELEGIQY_ATSRTLSYY_EILDITPCSF_FAYANRNRF_FLNRFTTTL_FLQSINFVR_FPRGQGVPI_FTYASALWEI_FVDGVPFVV_HVTFFIYNK_ISDYDYYRY_KTFPPTEPK_MGYINVFAF_NSASFSTFK_NVFAFPFTIY_RARSVSPKL_RLYYDSMSY_RTFKVSIWNL_SIIAYTMSL_SINFVRIIMR_TMADLVYAL_TVYSHLLLV_YLDAYNMMI_YLYALVYFL'
p8
g3
(g5
S'$\x0b\xae\x7fe\xd2\xef?'
tRp9
tp10
a(S'AEIRASANL_AELEGIQY_ATSRTLSYY_EILDITPCSF_FAYANRNRF_FLNRFTTTL_FLQSINFVR_FPRGQGVPI_FTYASALWEI_FVDGVPFVV_ISDYDYYRY_KTFPPTEPK_MGYINVFAF_MTSCCSCLK_NSASFSTFK_NVFAFPFTIY_RARSVSPKL_RLYYDSMSY_RTFKVSIWNL_SIIAYTMSL_SINFVRIIMR_TMADLVYAL_TVYSHLLLV_YLDAYNMMI_YLYALVYFL'
p11
g3
(g5
S'\xbd&3\x87_\xd2\xef?'
tRp12
tp13
a(S'AEIRASANL_ATSRTLSYY_EILDITPCSF_FAYANRNRF_FLNRFTTTL_FLQSINFVR_FPRGQGVPI_FTYASALWEI_FVDGVPFVV_ISDYDYYRY_KTFPPTEPK_LLYDANYFL_MGYINVFAF_MTSCCSCLK_NSASFSTFK_NVFAFPFTIY_RARSVSPKL_RLYYDSMSY_RTFKVSIWNL_SIIAYTMSL_SINFVRIIMR_TVYSHLLLV_YEQYIKWPW_YLDAYNMMI_YLYALVYFL'
p14
g3
(g5
S'\x93P\xd4:\\\xd2\xef?'
tRp15
tp16
a(S'AEIRASANL_ATSRTLSYY_EILDITPCSF_FAYANRNRF_FLNRFTTTL_FLQSINFVR_FPRGQGVPI_FTYASALWEI_FVDGVPFVV_ISDYDYYRY_MGYINVFAF_MTSCCSCLK_NSASFSTFK_NVFAFPFTIY_RARSVSPKL_RLYYDSMSY_RTFKVSIWNL_SIIAYTMSL_SINFVRIIMR_TMADLVYAL_TSRTLSYYK_TVYSHLLLV_YEQYIKWPW_YLDAYNMMI_YLYALVYFL'
p17
g3
(g5
S'\xcc\x99\xf4lU\xd2\xef?'
tRp18
tp19
a(S'AEIRASANL_AELEGIQY_ATSRTLSYY_EILDITPCSF_FAYANRNRF_FLNRFTTTL_FLQSINFVR_FPRGQGVPI_FTYASALWEI_FVDGVPFVV_HVTFFIYNK_ISDYDYYRY_KTFPPTEPK_LLYDANYFL_MGYINVFAF_NSASFSTFK_NVFAFPFTIY_RARSVSPKL_RLYYDSMSY_RTFKVSIWNL_SIIAYTMSL_SINFVRIIMR_TVYSHLLLV_YLDAYNMMI_YLYALVYFL'
p20
g3
(g5
S'Q\xff_]H\xd2\xef?'
tRp21
tp22
a(S'AEIRASANL_ATSRTLSYY_EILDITPCSF_FAYANRNRF_FLNRFTTTL_FLPRVFSAV_FLQSINFVR_FPRGQGVPI_FTYASALWEI_FVDGVPFVV_ISDYDYYRY_KTFPPTEPK_MGYINVFAF_MTSCCSCLK_NSASFSTFK_NVFAFPFTIY_RARSVSPKL_RLYYDSMSY_RTFKVSIWNL_SIIAYTMSL_SINFVRIIMR_TVYSHLLLV_YEQYIKWPW_YLDAYNMMI_YLYALVYFL'
p23
g3
(g5
S'\xa8Z.\xe8F\xd2\xef?'
tRp24
tp25
a(S'AEIRASANL_AELEGIQY_ATSRTLSYY_EILDITPCSF_FAYANRNRF_FLNRFTTTL_FLQSINFVR_FPRGQGVPI_FTYASALWEI_FVDGVPFVV_ISDYDYYRY_KTFPPTEPK_LLYDANYFL_MGYINVFAF_MTSCCSCLK_NSASFSTFK_NVFAFPFTIY_RARSVSPKL_RLYYDSMSY_RTFKVSIWNL_SIIAYTMSL_SINFVRIIMR_TVYSHLLLV_YLDAYNMMI_YLYALVYFL'
p26
g3
(g5
S'\xec\x1a\xe5dB\xd2\xef?'
tRp27
tp28
a(S'AEIRASANL_AELEGIQY_ATSRTLSYY_EILDITPCSF_FAYANRNRF_FLNRFTTTL_FLQSINFVR_FPRGQGVPI_FTYASALWEI_FVDGVPFVV_HVTFFIYNK_ISDYDYYRY_MGYINVFAF_NSASFSTFK_NVFAFPFTIY_RARSVSPKL_RLYYDSMSY_RTFKVSIWNL_SIIAYTMSL_SINFVRIIMR_TMADLVYAL_TSRTLSYYK_TVYSHLLLV_YLDAYNMMI_YLYALVYFL'
p29
g3
(g5
S'\x1b\xbd"\xb5A\xd2\xef?'
tRp30
tp31
a(S'AEIRASANL_AELEGIQY_ATSRTLSYY_EILDITPCSF_FAYANRNRF_FLNRFTTTL_FLQSINFVR_FPRGQGVPI_FTYASALWEI_FVDGVPFVV_ISDYDYYRY_MGYINVFAF_MTSCCSCLK_NSASFSTFK_NVFAFPFTIY_RARSVSPKL_RLYYDSMSY_RTFKVSIWNL_SIIAYTMSL_SINFVRIIMR_TMADLVYAL_TSRTLSYYK_TVYSHLLLV_YLDAYNMMI_YLYALVYFL'
p32
g3
(g5
S'\xb3\xd8\xa7\xbc;\xd2\xef?'
tRp33
tp34
a.