(lp1
(S'AEIRASANL_AELEGIQY_ALRANSAVK_ATSRTLSYY_EEHVQIHTI_EILDITPCSF_FAYANRNRF_FLNRFTTTL_FLPRVFSAV_FLQSINFVR_FPQSAPHGV_FPRGQGVPI_FTNVYADSF_FTYASALWEI_FVDGVPFVV_HVTFFIYNK_IPTNFTISV_ISDYDYYRY_KAYNVTQAF_KTFPPTEPK_LLYDANYFL_LTDEMIAQY_MGYINVFAF_MTSCCSCLK_NSASFSTFK_NVFAFPFTIY_QELYSPIFL_RARSVSPKL_RLYYDSMSY_RTFKVSIWNL_SIIAYTMSL_SINFVRIIMR_SPRWYFYYL_SQSIIAYTM_TMADLVYAL_TSRTLSYYK_TVYSHLLLV_VRFPNITNL_VYFLQSINF_YANRNRFLY_YEQYIKWPW_YFIASFRLF_YIFFASFYY_YLDAYNMMI_YLYALVYFL'
p2
cnumpy.core.multiarray
scalar
p3
(cnumpy
dtype
p4
(S'f8'
I0
I1
tRp5
(I3
S'<'
NNNI-1
I-1
I0
tbS'\x93\xdb\xa4\x04^\xe4\xef?'
tRp6
tp7
a(S'AEIRASANL_AELEGIQY_ALRANSAVK_ATSRTLSYY_EEHVQIHTI_EILDITPCSF_FAYANRNRF_FLNRFTTTL_FLPRVFSAV_FLQSINFVR_FPQSAPHGV_FPRGQGVPI_FTNVYADSF_FTYASALWEI_FVDGVPFVV_HVTFFIYNK_IPTNFTISV_ISDYDYYRY_KAYNVTQAF_KTFPPTEPK_LLYDANYFL_LTDEMIAQY_LYSPIFLIV_MGYINVFAF_MTSCCSCLK_NSASFSTFK_NVFAFPFTIY_QELYSPIFL_RARSVSPKL_RLYYDSMSY_RTFKVSIWNL_SIIAYTMSL_SINFVRIIMR_SPRWYFYYL_TMADLVYAL_TSRTLSYYK_TVYSHLLLV_VRFPNITNL_VYFLQSINF_YANRNRFLY_YEQYIKWPW_YFIASFRLF_YIFFASFYY_YLDAYNMMI_YLYALVYFL'
p8
g3
(g5
S'\xfb<\xfat]\xe4\xef?'
tRp9
tp10
a(S'AEIRASANL_AELEGIQY_ALRANSAVK_ATSRTLSYY_EEHVQIHTI_EILDITPCSF_FAYANRNRF_FLNRFTTTL_FLPRVFSAV_FLQSINFVR_FPNITNLCPF_FPQSAPHGV_FPRGQGVPI_FTNVYADSF_FTYASALWEI_FVDGVPFVV_HVTFFIYNK_IPTNFTISV_ISDYDYYRY_KAYNVTQAF_KTFPPTEPK_LLYDANYFL_LTDEMIAQY_MGYINVFAF_MTSCCSCLK_NSASFSTFK_NVFAFPFTIY_QELYSPIFL_RARSVSPKL_RLYYDSMSY_RTFKVSIWNL_SIIAYTMSL_SINFVRIIMR_SPRWYFYYL_TMADLVYAL_TSRTLSYYK_TVYSHLLLV_VRFPNITNL_VYFLQSINF_YANRNRFLY_YEQYIKWPW_YFIASFRLF_YIFFASFYY_YLDAYNMMI_YLYALVYFL'
p11
g3
(g5
S'\x8f\x95a:]\xe4\xef?'
tRp12
tp13
a(S'AEIRASANL_AELEGIQY_ALRANSAVK_ATSRTLSYY_EEHVQIHTI_EILDITPCSF_FAYANRNRF_FLNRFTTTL_FLPRVFSAV_FLQSINFVR_FPQSAPHGV_FPRGQGVPI_FTNVYADSF_FTYASALWEI_FVDGVPFVV_HVTFFIYNK_IPTNFTISV_ISDYDYYRY_KAYNVTQAF_KTFPPTEPK_LLYDANYFL_LTDEMIAQY_MGYINVFAF_MTSCCSCLK_NSASFSTFK_NVFAFPFTIY_QELYSPIFL_QYIKWPWYI_RARSVSPKL_RLYYDSMSY_RTFKVSIWNL_SIIAYTMSL_SINFVRIIMR_SPRWYFYYL_TMADLVYAL_TSRTLSYYK_TVYSHLLLV_VRFPNITNL_VYFLQSINF_YANRNRFLY_YEQYIKWPW_YFIASFRLF_YIFFASFYY_YLDAYNMMI_YLYALVYFL'
p14
g3
(g5
S'\xe0\xceu*\\\xe4\xef?'
tRp15
tp16
a(S'AEIRASANL_AELEGIQY_ALRANSAVK_ATSRTLSYY_EEHVQIHTI_EILDITPCSF_FAYANRNRF_FLNRFTTTL_FLPRVFSAV_FLQSINFVR_FPQSAPHGV_FPRGQGVPI_FTNVYADSF_FTYASALWEI_FVDGVPFVV_HVTFFIYNK_IPTNFTISV_ISDYDYYRY_KAYNVTQAF_KTFPPTEPK_LLYDANYFL_LTDEMIAQY_MGYINVFAF_MTSCCSCLK_NSASFSTFK_NVFAFPFTIY_QELYSPIFL_RARSVSPKL_RLYYDSMSY_RTFKVSIWNL_SIIAYTMSL_SINFVRIIMR_SPRWYFYYL_SQSIIAYTM_SYFIASFRLF_TMADLVYAL_TSRTLSYYK_TVYSHLLLV_VRFPNITNL_VYFLQSINF_YANRNRFLY_YEQYIKWPW_YIFFASFYY_YLDAYNMMI_YLYALVYFL'
p17
g3
(g5
S"[\xa1'&\\\xe4\xef?"
tRp18
tp19
a(S'AEIRASANL_AELEGIQY_ALRANSAVK_ATSRTLSYY_EEHVQIHTI_EILDITPCSF_FAYANRNRF_FLNRFTTTL_FLPRVFSAV_FLQSINFVR_FPQSAPHGV_FPRGQGVPI_FTNVYADSF_FTYASALWEI_FVDGVPFVV_HVTFFIYNK_IPTNFTISV_ISDYDYYRY_KAYNVTQAF_KTFPPTEPK_LLYDANYFL_LTDEMIAQY_LYSPIFLIV_MGYINVFAF_MTSCCSCLK_NSASFSTFK_NVFAFPFTIY_QELYSPIFL_RARSVSPKL_RLYYDSMSY_RTFKVSIWNL_SIIAYTMSL_SINFVRIIMR_SPRWYFYYL_SYFIASFRLF_TMADLVYAL_TSRTLSYYK_TVYSHLLLV_VRFPNITNL_VYFLQSINF_YANRNRFLY_YEQYIKWPW_YIFFASFYY_YLDAYNMMI_YLYALVYFL'
p20
g3
(g5
S'k\x88g\xba[\xe4\xef?'
tRp21
tp22
a(S'AEIRASANL_AELEGIQY_ALRANSAVK_ATSRTLSYY_EEHVQIHTI_EILDITPCSF_FAYANRNRF_FLNRFTTTL_FLPRVFSAV_FLQSINFVR_FPNITNLCPF_FPQSAPHGV_FPRGQGVPI_FTNVYADSF_FTYASALWEI_FVDGVPFVV_HVTFFIYNK_IPTNFTISV_ISDYDYYRY_KAYNVTQAF_KTFPPTEPK_LLYDANYFL_LTDEMIAQY_MGYINVFAF_MTSCCSCLK_NSASFSTFK_NVFAFPFTIY_QELYSPIFL_RARSVSPKL_RLYYDSMSY_RTFKVSIWNL_SIIAYTMSL_SINFVRIIMR_SPRWYFYYL_SYFIASFRLF_TMADLVYAL_TSRTLSYYK_TVYSHLLLV_VRFPNITNL_VYFLQSINF_YANRNRFLY_YEQYIKWPW_YIFFASFYY_YLDAYNMMI_YLYALVYFL'
p23
g3
(g5
S'\xfd\xe0\xce\x7f[\xe4\xef?'
tRp24
tp25
a(S'AEIRASANL_AELEGIQY_ALRANSAVK_ATSRTLSYY_EEHVQIHTI_EILDITPCSF_FAYANRNRF_FLNRFTTTL_FLPRVFSAV_FLQSINFVR_FPQSAPHGV_FPRGQGVPI_FTNVYADSF_FTYASALWEI_FVDGVPFVV_HVTFFIYNK_IPTNFTISV_ISDYDYYRY_KAYNVTQAF_KTFPPTEPK_LLYDANYFL_LTDEMIAQY_MGYINVFAF_MTSCCSCLK_NSASFSTFK_NVFAFPFTIY_QELYSPIFL_QYIKWPWYI_RARSVSPKL_RLYYDSMSY_RTFKVSIWNL_SIIAYTMSL_SINFVRIIMR_SPRWYFYYL_SYFIASFRLF_TMADLVYAL_TSRTLSYYK_TVYSHLLLV_VRFPNITNL_VYFLQSINF_YANRNRFLY_YEQYIKWPW_YIFFASFYY_YLDAYNMMI_YLYALVYFL'
p26
g3
(g5
S'P\x1a\xe3oZ\xe4\xef?'
tRp27
tp28
a(S'AEIRASANL_AELEGIQY_ALRANSAVK_ATSRTLSYY_EEHVQIHTI_EILDITPCSF_FAYANRNRF_FLNRFTTTL_FLPRVFSAV_FLQSINFVR_FPQSAPHGV_FPRGQGVPI_FTNVYADSF_FTYASALWEI_FVDGVPFVV_HVTFFIYNK_IPTNFTISV_ISDYDYYRY_KAYNVTQAF_KTFPPTEPK_LLYDANYFL_LTDEMIAQY_MGYINVFAF_MTSCCSCLK_NSASFSTFK_NVFAFPFTIY_QELYSPIFL_RARSVSPKL_RLYYDSMSY_RQLLFVVEV_RTFKVSIWNL_SIIAYTMSL_SINFVRIIMR_SPRWYFYYL_TMADLVYAL_TSRTLSYYK_TVYSHLLLV_VRFPNITNL_VYFLQSINF_YANRNRFLY_YEQYIKWPW_YFIASFRLF_YIFFASFYY_YLDAYNMMI_YLYALVYFL'
p29
g3
(g5
S'!\xa5^\xe6U\xe4\xef?'
tRp30
tp31
a(S'AEIRASANL_AELEGIQY_ALRANSAVK_ATSRTLSYY_EEHVQIHTI_EILDITPCSF_FAYANRNRF_FLNRFTTTL_FLPRVFSAV_FLQSINFVR_FPQSAPHGV_FPRGQGVPI_FTNVYADSF_FTYASALWEI_FVDGVPFVV_HVTFFIYNK_IPTNFTISV_ISDYDYYRY_KAYNVTQAF_KTFPPTEPK_LLYDANYFL_LTDEMIAQY_MGYINVFAF_MTSCCSCLK_NSASFSTFK_NVFAFPFTIY_QELYSPIFL_RARSVSPKL_RLYYDSMSY_RQLLFVVEV_RTFKVSIWNL_SIIAYTMSL_SINFVRIIMR_SPRWYFYYL_SYFIASFRLF_TMADLVYAL_TSRTLSYYK_TVYSHLLLV_VRFPNITNL_VYFLQSINF_YANRNRFLY_YEQYIKWPW_YIFFASFYY_YLDAYNMMI_YLYALVYFL'
p32
g3
(g5
S'\x90\xf0\xcb+T\xe4\xef?'
tRp33
tp34
a.