(lp1
(S'NSASFSTFK_NVFAFPFTIY'
p2
cnumpy.core.multiarray
scalar
p3
(cnumpy
dtype
p4
(S'f8'
I0
I1
tRp5
(I3
S'<'
NNNI-1
I-1
I0
tbS'u\xd7\x1e\x00t\xff\xef?'
tRp6
tp7
a(S'HVTFFIYNK_NVFAFPFTIY'
p8
g3
(g5
S'p\xd7\x1e\x00t\xff\xef?'
tRp9
tp10
a(S'MTSCCSCLK_NVFAFPFTIY'
p11
g3
(g5
S'd\xd7\x1e\x00t\xff\xef?'
tRp12
tp13
a(S'EILDITPCSF_NSASFSTFK'
p14
g3
(g5
S'\xe5\x0f\xe5\x96p\xff\xef?'
tRp15
tp16
a(S'EILDITPCSF_HVTFFIYNK'
p17
g3
(g5
S'\xd8\x0f\xe5\x96p\xff\xef?'
tRp18
tp19
a(S'EILDITPCSF_MTSCCSCLK'
p20
g3
(g5
S'\xbc\xd9n\xaeo\xff\xef?'
tRp21
tp22
a(S'ATSRTLSYY_NSASFSTFK'
p23
g3
(g5
S'I\xb7\xd1\xae>\xff\xef?'
tRp24
tp25
a(S'ATSRTLSYY_HVTFFIYNK'
p26
g3
(g5
S'%\xb7\xd1\xae>\xff\xef?'
tRp27
tp28
a(S'ITLATCELY_NSASFSTFK'
p29
g3
(g5
S'Yh\xcbK>\xff\xef?'
tRp30
tp31
a(S'HVTFFIYNK_ITLATCELY'
p32
g3
(g5
S'Eh\xcbK>\xff\xef?'
tRp33
tp34
a.