(lp1
(S'AELEGIQY_ATSRTLSYY_EILDITPCSF_FAYANRNRF_FVDGVPFVV_ISDYDYYRY_KAYNVTQAF_MTSCCSCLK_NSASFSTFK_NVFAFPFTIY_RARSVSPKL_RLYYDSMSY_SIIAYTMSL_SINFVRIIMR'
p2
cnumpy.core.multiarray
scalar
p3
(cnumpy
dtype
p4
(S'f8'
I0
I1
tRp5
(I3
S'<'
NNNI-1
I-1
I0
tbS'\x183\t\x93\x8e\xff\xef?'
tRp6
tp7
a(S'AELEGIQY_ATSRTLSYY_EILDITPCSF_FAYANRNRF_FLQSINFVR_FVDGVPFVV_HVTFFIYNK_ISDYDYYRY_KAYNVTQAF_NSASFSTFK_NVFAFPFTIY_RARSVSPKL_RLYYDSMSY_SIIAYTMSL'
p8
g3
(g5
S'\x183\t\x93\x8e\xff\xef?'
tRp9
tp10
a(S'AELEGIQY_ATSRTLSYY_EILDITPCSF_FAYANRNRF_FLQSINFVR_FVDGVPFVV_ISDYDYYRY_KAYNVTQAF_MTSCCSCLK_NSASFSTFK_NVFAFPFTIY_RARSVSPKL_RLYYDSMSY_SIIAYTMSL'
p11
g3
(g5
S'\x173\t\x93\x8e\xff\xef?'
tRp12
tp13
a(S'ATSRTLSYY_EILDITPCSF_FAYANRNRF_FLQSINFVR_FVDGVPFVV_ISDYDYYRY_KAYNVTQAF_MTSCCSCLK_NSASFSTFK_NVFAFPFTIY_RARSVSPKL_RLYYDSMSY_SIIAYTMSL_YEQYIKWPW'
p14
g3
(g5
S'\x153\t\x93\x8e\xff\xef?'
tRp15
tp16
a(S'AELEGIQY_ATSRTLSYY_EILDITPCSF_FAYANRNRF_FVDGVPFVV_ISDYDYYRY_MTSCCSCLK_NSASFSTFK_NVFAFPFTIY_RARSVSPKL_RLYYDSMSY_RTFKVSIWNL_SIIAYTMSL_SINFVRIIMR'
p17
g3
(g5
S'\x153\t\x93\x8e\xff\xef?'
tRp18
tp19
a(S'AELEGIQY_ATSRTLSYY_EILDITPCSF_FAYANRNRF_FLQSINFVR_FVDGVPFVV_HVTFFIYNK_ISDYDYYRY_NSASFSTFK_NVFAFPFTIY_RARSVSPKL_RLYYDSMSY_RTFKVSIWNL_SIIAYTMSL'
p20
g3
(g5
S'\x153\t\x93\x8e\xff\xef?'
tRp21
tp22
a(S'ALRANSAVK_ATSRTLSYY_EILDITPCSF_FAYANRNRF_FLQSINFVR_FVDGVPFVV_HVTFFIYNK_ISDYDYYRY_KAYNVTQAF_NSASFSTFK_NVFAFPFTIY_RLYYDSMSY_SIIAYTMSL_YEQYIKWPW'
p23
g3
(g5
S'\x143\t\x93\x8e\xff\xef?'
tRp24
tp25
a(S'AELEGIQY_ATSRTLSYY_EILDITPCSF_FAYANRNRF_FLQSINFVR_FVDGVPFVV_ISDYDYYRY_MTSCCSCLK_NSASFSTFK_NVFAFPFTIY_RARSVSPKL_RLYYDSMSY_RTFKVSIWNL_SIIAYTMSL'
p26
g3
(g5
S'\x143\t\x93\x8e\xff\xef?'
tRp27
tp28
a(S'ATSRTLSYY_EILDITPCSF_FAYANRNRF_FLQSINFVR_FVDGVPFVV_ISDYDYYRY_MTSCCSCLK_NSASFSTFK_NVFAFPFTIY_RARSVSPKL_RLYYDSMSY_RTFKVSIWNL_SIIAYTMSL_YEQYIKWPW'
p29
g3
(g5
S'\x133\t\x93\x8e\xff\xef?'
tRp30
tp31
a(S'ATSRTLSYY_EILDITPCSF_FAYANRNRF_FLQSINFVR_FVDGVPFVV_HVTFFIYNK_ISDYDYYRY_KAYNVTQAF_MTSCCSCLK_NVFAFPFTIY_RLYYDSMSY_SIIAYTMSL_SSRGTSPAR_YEQYIKWPW'
p32
g3
(g5
S'\x133\t\x93\x8e\xff\xef?'
tRp33
tp34
a.