(lp1
(S'AEIRASANL_ATSRTLSYY_EILDITPCSF_FAYANRNRF_FLNRFTTTL_FLQSINFVR_FPRGQGVPI_FTYASALWEI_FVDGVPFVV_ISDYDYYRY_KTFPPTEPK_LLYDANYFL_MGYINVFAF_MTSCCSCLK_NSASFSTFK_NVFAFPFTIY_RARSVSPKL_RLYYDSMSY_RTFKVSIWNL_SIIAYTMSL_SINFVRIIMR_TMADLVYAL_TVYSHLLLV_VRFPNITNL_YEQYIKWPW_YLDAYNMMI_YLYALVYFL'
p2
cnumpy.core.multiarray
scalar
p3
(cnumpy
dtype
p4
(S'f8'
I0
I1
tRp5
(I3
S'<'
NNNI-1
I-1
I0
tbS'\xa3\xbb\xb3\xb1\x11\xb6\xef?'
tRp6
tp7
a(S'AEIRASANL_ATSRTLSYY_EILDITPCSF_FAYANRNRF_FLNRFTTTL_FLQSINFVR_FPRGQGVPI_FTYASALWEI_FVDGVPFVV_ISDYDYYRY_KTFPPTEPK_MGYINVFAF_MTSCCSCLK_NSASFSTFK_NVFAFPFTIY_RARSVSPKL_RLYYDSMSY_RTFKVSIWNL_SIIAYTMSL_SINFVRIIMR_TMADLVYAL_TVYSHLLLV_VLWAHGFEL_VRFPNITNL_YEQYIKWPW_YLDAYNMMI_YLYALVYFL'
p8
g3
(g5
S'\xd1Gb=\xfa\xb5\xef?'
tRp9
tp10
a(S'AEIRASANL_ATSRTLSYY_EILDITPCSF_FAYANRNRF_FLNRFTTTL_FLQSINFVR_FPRGQGVPI_FTYASALWEI_FVDGVPFVV_ISDYDYYRY_KTFPPTEPK_LLYDANYFL_MGYINVFAF_MTSCCSCLK_NSASFSTFK_NVFAFPFTIY_RARSVSPKL_RLYYDSMSY_RTFKVSIWNL_SIIAYTMSL_SINFVRIIMR_TVYSHLLLV_VLWAHGFEL_VRFPNITNL_YEQYIKWPW_YLDAYNMMI_YLYALVYFL'
p11
g3
(g5
S'C\xeb\xaa\x92\xeb\xb5\xef?'
tRp12
tp13
a(S'AEIRASANL_ATSRTLSYY_EILDITPCSF_FAYANRNRF_FLNRFTTTL_FLPRVFSAV_FLQSINFVR_FPRGQGVPI_FTYASALWEI_FVDGVPFVV_ISDYDYYRY_KTFPPTEPK_MGYINVFAF_MTSCCSCLK_NSASFSTFK_NVFAFPFTIY_RARSVSPKL_RLYYDSMSY_RTFKVSIWNL_SIIAYTMSL_SINFVRIIMR_TMADLVYAL_TVYSHLLLV_VRFPNITNL_YEQYIKWPW_YLDAYNMMI_YLYALVYFL'
p14
g3
(g5
S'\xf42"Z\xea\xb5\xef?'
tRp15
tp16
a(S'AEIRASANL_AELEGIQY_ATSRTLSYY_EILDITPCSF_FAYANRNRF_FLNRFTTTL_FLQSINFVR_FPRGQGVPI_FTYASALWEI_FVDGVPFVV_HVTFFIYNK_ISDYDYYRY_KTFPPTEPK_LLYDANYFL_MGYINVFAF_NSASFSTFK_NVFAFPFTIY_RARSVSPKL_RLYYDSMSY_RTFKVSIWNL_SIIAYTMSL_SINFVRIIMR_TMADLVYAL_TVYSHLLLV_VRFPNITNL_YLDAYNMMI_YLYALVYFL'
p17
g3
(g5
S'\xf9\xb6\xb7\xbb\xdc\xb5\xef?'
tRp18
tp19
a(S'AEIRASANL_ATSRTLSYY_EILDITPCSF_FAYANRNRF_FLNRFTTTL_FLPRVFSAV_FLQSINFVR_FPRGQGVPI_FTYASALWEI_FVDGVPFVV_ISDYDYYRY_KTFPPTEPK_LLYDANYFL_MGYINVFAF_MTSCCSCLK_NSASFSTFK_NVFAFPFTIY_RARSVSPKL_RLYYDSMSY_RTFKVSIWNL_SIIAYTMSL_SINFVRIIMR_TVYSHLLLV_VRFPNITNL_YEQYIKWPW_YLDAYNMMI_YLYALVYFL'
p20
g3
(g5
S'\xa7/\xc4\xa4\xdb\xb5\xef?'
tRp21
tp22
a(S'AEIRASANL_ATSRTLSYY_EILDITPCSF_FAYANRNRF_FLNRFTTTL_FLQSINFVR_FPRGQGVPI_FTYASALWEI_FVDGVPFVV_ISDYDYYRY_LLYDANYFL_MGYINVFAF_MTSCCSCLK_NSASFSTFK_NVFAFPFTIY_RARSVSPKL_RLYYDSMSY_RTFKVSIWNL_SIIAYTMSL_SINFVRIIMR_TMADLVYAL_TSRTLSYYK_TVYSHLLLV_VRFPNITNL_YEQYIKWPW_YLDAYNMMI_YLYALVYFL'
p23
g3
(g5
S'(\xf2;\x13\xdb\xb5\xef?'
tRp24
tp25
a(S'AEIRASANL_AELEGIQY_ATSRTLSYY_EILDITPCSF_FAYANRNRF_FLNRFTTTL_FLQSINFVR_FPRGQGVPI_FTYASALWEI_FVDGVPFVV_ISDYDYYRY_KTFPPTEPK_LLYDANYFL_MGYINVFAF_MTSCCSCLK_NSASFSTFK_NVFAFPFTIY_RARSVSPKL_RLYYDSMSY_RTFKVSIWNL_SIIAYTMSL_SINFVRIIMR_TMADLVYAL_TVYSHLLLV_VRFPNITNL_YLDAYNMMI_YLYALVYFL'
p26
g3
(g5
S'\x03\x03^?\xd6\xb5\xef?'
tRp27
tp28
a(S'AEIRASANL_ATSRTLSYY_EILDITPCSF_FAYANRNRF_FLNRFTTTL_FLQSINFVR_FPRGQGVPI_FTYASALWEI_FVDGVPFVV_ISDYDYYRY_MGYINVFAF_MTSCCSCLK_NSASFSTFK_NVFAFPFTIY_RARSVSPKL_RLYYDSMSY_RTFKVSIWNL_SIIAYTMSL_SINFVRIIMR_TMADLVYAL_TSRTLSYYK_TVYSHLLLV_VLWAHGFEL_VRFPNITNL_YEQYIKWPW_YLDAYNMMI_YLYALVYFL'
p29
g3
(g5
S'\x1b\xa6G\xb4\xc3\xb5\xef?'
tRp30
tp31
a(S'AEIRASANL_ATSRTLSYY_EILDITPCSF_FAYANRNRF_FLNRFTTTL_FLPRVFSAV_FLQSINFVR_FPRGQGVPI_FTYASALWEI_FVDGVPFVV_ISDYDYYRY_KTFPPTEPK_MGYINVFAF_MTSCCSCLK_NSASFSTFK_NVFAFPFTIY_RARSVSPKL_RLYYDSMSY_RTFKVSIWNL_SIIAYTMSL_SINFVRIIMR_TVYSHLLLV_VLWAHGFEL_VRFPNITNL_YEQYIKWPW_YLDAYNMMI_YLYALVYFL'
p32
g3
(g5
S'\xcb\x0f\xaa\xaf\xc3\xb5\xef?'
tRp33
tp34
a.