(lp1
(S'ATSRTLSYY_EILDITPCSF_FAYANRNRF_FLQSINFVR_FVDGVPFVV_ISDYDYYRY_MTSCCSCLK_NSASFSTFK_NVFAFPFTIY_RARSVSPKL_RLYYDSMSY_RTFKVSIWNL_SIIAYTMSL_TVYSHLLLV_YEQYIKWPW'
p2
cnumpy.core.multiarray
scalar
p3
(cnumpy
dtype
p4
(S'f8'
I0
I1
tRp5
(I3
S'<'
NNNI-1
I-1
I0
tbS'\xc3\xbb\x1bR\xca\xfc\xef?'
tRp6
tp7
a(S'ATSRTLSYY_EILDITPCSF_FAYANRNRF_FLQSINFVR_FVDGVPFVV_ISDYDYYRY_KAYNVTQAF_MTSCCSCLK_NSASFSTFK_NVFAFPFTIY_RARSVSPKL_RLYYDSMSY_SIIAYTMSL_TVYSHLLLV_YEQYIKWPW'
p8
g3
(g5
S'\xd8\x04\xcc4\xc8\xfc\xef?'
tRp9
tp10
a(S'AELEGIQY_ATSRTLSYY_EILDITPCSF_FAYANRNRF_FVDGVPFVV_ISDYDYYRY_MTSCCSCLK_NSASFSTFK_NVFAFPFTIY_RARSVSPKL_RLYYDSMSY_RTFKVSIWNL_SIIAYTMSL_SINFVRIIMR_TVYSHLLLV'
p11
g3
(g5
S'\x98\xfb\xb5\x04\xc5\xfc\xef?'
tRp12
tp13
a(S'AELEGIQY_ATSRTLSYY_EILDITPCSF_FAYANRNRF_FLQSINFVR_FVDGVPFVV_HVTFFIYNK_ISDYDYYRY_NSASFSTFK_NVFAFPFTIY_RARSVSPKL_RLYYDSMSY_RTFKVSIWNL_SIIAYTMSL_TVYSHLLLV'
p14
g3
(g5
S'\x95\xfb\xb5\x04\xc5\xfc\xef?'
tRp15
tp16
a(S'AELEGIQY_ATSRTLSYY_EILDITPCSF_FAYANRNRF_FLQSINFVR_FVDGVPFVV_ISDYDYYRY_MTSCCSCLK_NSASFSTFK_NVFAFPFTIY_RARSVSPKL_RLYYDSMSY_RTFKVSIWNL_SIIAYTMSL_TVYSHLLLV'
p17
g3
(g5
S'\x94\xfb\xb5\x04\xc5\xfc\xef?'
tRp18
tp19
a(S'AELEGIQY_ATSRTLSYY_EILDITPCSF_FAYANRNRF_FLQSINFVR_FVDGVPFVV_ISDYDYYRY_KAYNVTQAF_MTSCCSCLK_NSASFSTFK_NVFAFPFTIY_RARSVSPKL_RLYYDSMSY_SIIAYTMSL_TVYSHLLLV'
p20
g3
(g5
S'\xacDf\xe7\xc2\xfc\xef?'
tRp21
tp22
a(S'AELEGIQY_ATSRTLSYY_EILDITPCSF_FAYANRNRF_FVDGVPFVV_ISDYDYYRY_KAYNVTQAF_MTSCCSCLK_NSASFSTFK_NVFAFPFTIY_RARSVSPKL_RLYYDSMSY_SIIAYTMSL_SINFVRIIMR_TVYSHLLLV'
p23
g3
(g5
S'\xa8Df\xe7\xc2\xfc\xef?'
tRp24
tp25
a(S'AELEGIQY_ATSRTLSYY_EILDITPCSF_FAYANRNRF_FLQSINFVR_FVDGVPFVV_HVTFFIYNK_ISDYDYYRY_KAYNVTQAF_NSASFSTFK_NVFAFPFTIY_RARSVSPKL_RLYYDSMSY_SIIAYTMSL_TVYSHLLLV'
p26
g3
(g5
S'\xa8Df\xe7\xc2\xfc\xef?'
tRp27
tp28
a(S'ATSRTLSYY_EILDITPCSF_FAYANRNRF_FLQSINFVR_FVDGVPFVV_HVTFFIYNK_ISDYDYYRY_KAYNVTQAF_MTSCCSCLK_NVFAFPFTIY_RLYYDSMSY_SIIAYTMSL_SSRGTSPAR_TVYSHLLLV_YEQYIKWPW'
p29
g3
(g5
S'\xaf>g-\xab\xfc\xef?'
tRp30
tp31
a(S'ALRANSAVK_ATSRTLSYY_EILDITPCSF_FAYANRNRF_FLQSINFVR_FVDGVPFVV_HVTFFIYNK_ISDYDYYRY_KAYNVTQAF_NSASFSTFK_NVFAFPFTIY_RLYYDSMSY_SIIAYTMSL_TVYSHLLLV_YEQYIKWPW'
p32
g3
(g5
S'\xaf>g-\xab\xfc\xef?'
tRp33
tp34
a.