(lp1
(S'ATSRTLSYY_EILDITPCSF_FAYANRNRF_FLQSINFVR_FPRGQGVPI_FVDGVPFVV_ISDYDYYRY_MTSCCSCLK_NSASFSTFK_NVFAFPFTIY_RARSVSPKL_RLYYDSMSY_RTFKVSIWNL_SIIAYTMSL_TVYSHLLLV_YEQYIKWPW'
p2
cnumpy.core.multiarray
scalar
p3
(cnumpy
dtype
p4
(S'f8'
I0
I1
tRp5
(I3
S'<'
NNNI-1
I-1
I0
tbS'h\x03\xcf<y\xfd\xef?'
tRp6
tp7
a(S'ATSRTLSYY_EILDITPCSF_FAYANRNRF_FLQSINFVR_FPRGQGVPI_FVDGVPFVV_ISDYDYYRY_KAYNVTQAF_MTSCCSCLK_NSASFSTFK_NVFAFPFTIY_RARSVSPKL_RLYYDSMSY_SIIAYTMSL_TVYSHLLLV_YEQYIKWPW'
p8
g3
(g5
S'\x89|\x8b.w\xfd\xef?'
tRp9
tp10
a(S'AELEGIQY_ATSRTLSYY_EILDITPCSF_FAYANRNRF_FPRGQGVPI_FVDGVPFVV_ISDYDYYRY_MTSCCSCLK_NSASFSTFK_NVFAFPFTIY_RARSVSPKL_RLYYDSMSY_RTFKVSIWNL_SIIAYTMSL_SINFVRIIMR_TVYSHLLLV'
p11
g3
(g5
S'\x90\xfe\x99*t\xfd\xef?'
tRp12
tp13
a(S'AELEGIQY_ATSRTLSYY_EILDITPCSF_FAYANRNRF_FLQSINFVR_FPRGQGVPI_FVDGVPFVV_HVTFFIYNK_ISDYDYYRY_NSASFSTFK_NVFAFPFTIY_RARSVSPKL_RLYYDSMSY_RTFKVSIWNL_SIIAYTMSL_TVYSHLLLV'
p14
g3
(g5
S'\x8f\xfe\x99*t\xfd\xef?'
tRp15
tp16
a(S'AELEGIQY_ATSRTLSYY_EILDITPCSF_FAYANRNRF_FLQSINFVR_FPRGQGVPI_FVDGVPFVV_ISDYDYYRY_MTSCCSCLK_NSASFSTFK_NVFAFPFTIY_RARSVSPKL_RLYYDSMSY_RTFKVSIWNL_SIIAYTMSL_TVYSHLLLV'
p17
g3
(g5
S'\x8d\xfe\x99*t\xfd\xef?'
tRp18
tp19
a(S'AELEGIQY_ATSRTLSYY_EILDITPCSF_FAYANRNRF_FLQSINFVR_FPRGQGVPI_FVDGVPFVV_ISDYDYYRY_KAYNVTQAF_MTSCCSCLK_NSASFSTFK_NVFAFPFTIY_RARSVSPKL_RLYYDSMSY_SIIAYTMSL_TVYSHLLLV'
p20
g3
(g5
S'\xb3wV\x1cr\xfd\xef?'
tRp21
tp22
a(S'AELEGIQY_ATSRTLSYY_EILDITPCSF_FAYANRNRF_FPRGQGVPI_FVDGVPFVV_ISDYDYYRY_KAYNVTQAF_MTSCCSCLK_NSASFSTFK_NVFAFPFTIY_RARSVSPKL_RLYYDSMSY_SIIAYTMSL_SINFVRIIMR_TVYSHLLLV'
p23
g3
(g5
S'\xadwV\x1cr\xfd\xef?'
tRp24
tp25
a(S'AELEGIQY_ATSRTLSYY_EILDITPCSF_FAYANRNRF_FLQSINFVR_FPRGQGVPI_FVDGVPFVV_HVTFFIYNK_ISDYDYYRY_KAYNVTQAF_NSASFSTFK_NVFAFPFTIY_RARSVSPKL_RLYYDSMSY_SIIAYTMSL_TVYSHLLLV'
p26
g3
(g5
S'\xacwV\x1cr\xfd\xef?'
tRp27
tp28
a(S'ATSRTLSYY_EILDITPCSF_FAYANRNRF_FLQSINFVR_FVDGVPFVV_ISDYDYYRY_MTSCCSCLK_NSASFSTFK_NVFAFPFTIY_RARSVSPKL_RLFRKSNLK_RLYYDSMSY_RTFKVSIWNL_SIIAYTMSL_TVYSHLLLV_YEQYIKWPW'
p29
g3
(g5
S'\xbd$H\xa6m\xfd\xef?'
tRp30
tp31
a(S'ATSRTLSYY_EILDITPCSF_FAYANRNRF_FLQSINFVR_FVDGVPFVV_ISDYDYYRY_KMQRMLLEK_MTSCCSCLK_NSASFSTFK_NVFAFPFTIY_RARSVSPKL_RLYYDSMSY_RTFKVSIWNL_SIIAYTMSL_TVYSHLLLV_YEQYIKWPW'
p32
g3
(g5
S'\xbd$H\xa6m\xfd\xef?'
tRp33
tp34
a.