(lp1
(S'ATSRTLSYY_EILDITPCSF_FAYANRNRF_FLNRFTTTL_FLQSINFVR_FPRGQGVPI_FVDGVPFVV_ISDYDYYRY_MTSCCSCLK_NSASFSTFK_NVFAFPFTIY_RARSVSPKL_RLYYDSMSY_RTFKVSIWNL_SIIAYTMSL_TVYSHLLLV_YEQYIKWPW_YLYALVYFL'
p2
cnumpy.core.multiarray
scalar
p3
(cnumpy
dtype
p4
(S'f8'
I0
I1
tRp5
(I3
S'<'
NNNI-1
I-1
I0
tbS'\xc5O\x1d\xba\xb0\xea\xef?'
tRp6
tp7
a(S'ATSRTLSYY_EILDITPCSF_FAYANRNRF_FLNRFTTTL_FLQSINFVR_FPRGQGVPI_FVDGVPFVV_ISDYDYYRY_KAYNVTQAF_MTSCCSCLK_NSASFSTFK_NVFAFPFTIY_RARSVSPKL_RLYYDSMSY_SIIAYTMSL_TVYSHLLLV_YEQYIKWPW_YLYALVYFL'
p8
g3
(g5
S'p?\xbe\x1f\x8d\xea\xef?'
tRp9
tp10
a(S'AELEGIQY_ATSRTLSYY_EILDITPCSF_FAYANRNRF_FLNRFTTTL_FLQSINFVR_FPRGQGVPI_FVDGVPFVV_HVTFFIYNK_ISDYDYYRY_NSASFSTFK_NVFAFPFTIY_RARSVSPKL_RLYYDSMSY_RTFKVSIWNL_SIIAYTMSL_TVYSHLLLV_YLYALVYFL'
p11
g3
(g5
S'\xb3OU\xcb\x8c\xea\xef?'
tRp12
tp13
a(S'AELEGIQY_ATSRTLSYY_EILDITPCSF_FAYANRNRF_FLNRFTTTL_FPRGQGVPI_FVDGVPFVV_ISDYDYYRY_MTSCCSCLK_NSASFSTFK_NVFAFPFTIY_RARSVSPKL_RLYYDSMSY_RTFKVSIWNL_SIIAYTMSL_SINFVRIIMR_TVYSHLLLV_YLYALVYFL'
p14
g3
(g5
S'\x18\xde!\x0e\x88\xea\xef?'
tRp15
tp16
a(S'AELEGIQY_ATSRTLSYY_EILDITPCSF_FAYANRNRF_FLNRFTTTL_FLQSINFVR_FPRGQGVPI_FVDGVPFVV_ISDYDYYRY_MTSCCSCLK_NSASFSTFK_NVFAFPFTIY_RARSVSPKL_RLYYDSMSY_RTFKVSIWNL_SIIAYTMSL_TVYSHLLLV_YLYALVYFL'
p17
g3
(g5
S'\xd3;\rO\x85\xea\xef?'
tRp18
tp19
a(S'ATSRTLSYY_EILDITPCSF_FAYANRNRF_FLNRFTTTL_FLQSINFVR_FPRGQGVPI_FVDGVPFVV_ISDYDYYRY_LLYDANYFL_MTSCCSCLK_NSASFSTFK_NVFAFPFTIY_RARSVSPKL_RLYYDSMSY_RTFKVSIWNL_SIIAYTMSL_TVYSHLLLV_YEQYIKWPW'
p20
g3
(g5
S'\xddt4qm\xea\xef?'
tRp21
tp22
a(S'AELEGIQY_ATSRTLSYY_EILDITPCSF_FAYANRNRF_FLNRFTTTL_FLQSINFVR_FPRGQGVPI_FVDGVPFVV_HVTFFIYNK_ISDYDYYRY_KAYNVTQAF_NSASFSTFK_NVFAFPFTIY_RARSVSPKL_RLYYDSMSY_SIIAYTMSL_TVYSHLLLV_YLYALVYFL'
p23
g3
(g5
S'm\x01L\x9cg\xea\xef?'
tRp24
tp25
a(S'ATSRTLSYY_EILDITPCSF_FAYANRNRF_FLNRFTTTL_FLQSINFVR_FPRGQGVPI_FVDGVPFVV_ISDYDYYRY_MTSCCSCLK_NSASFSTFK_NVFAFPFTIY_RARSVSPKL_RLYYDSMSY_RTFKVSIWNL_SIIAYTMSL_TMADLVYAL_TVYSHLLLV_YEQYIKWPW'
p26
g3
(g5
S'\x1d\xef\x1c\xe6d\xea\xef?'
tRp27
tp28
a(S'AELEGIQY_ATSRTLSYY_EILDITPCSF_FAYANRNRF_FLNRFTTTL_FPRGQGVPI_FVDGVPFVV_ISDYDYYRY_KAYNVTQAF_MTSCCSCLK_NSASFSTFK_NVFAFPFTIY_RARSVSPKL_RLYYDSMSY_SIIAYTMSL_SINFVRIIMR_TVYSHLLLV_YLYALVYFL'
p29
g3
(g5
S'\xd3\x8f\x18\xdfb\xea\xef?'
tRp30
tp31
a(S'AELEGIQY_ATSRTLSYY_EILDITPCSF_FAYANRNRF_FLNRFTTTL_FLQSINFVR_FPRGQGVPI_FVDGVPFVV_ISDYDYYRY_KAYNVTQAF_MTSCCSCLK_NSASFSTFK_NVFAFPFTIY_RARSVSPKL_RLYYDSMSY_SIIAYTMSL_TVYSHLLLV_YLYALVYFL'
p32
g3
(g5
S'\x90\xed\x03 `\xea\xef?'
tRp33
tp34
a.