(lp1
(S'ATSRTLSYY_EILDITPCSF_FAYANRNRF_FVDGVPFVV_MTSCCSCLK_NVFAFPFTIY_RARSVSPKL_YEQYIKWPW'
p2
cnumpy.core.multiarray
scalar
p3
(cnumpy
dtype
p4
(S'f8'
I0
I1
tRp5
(I3
S'<'
NNNI-1
I-1
I0
tbS'L\x95\xf5\x08\x9c\xfe\xef?'
tRp6
tp7
a(S'AELEGIQY_ATSRTLSYY_EILDITPCSF_FAYANRNRF_FVDGVPFVV_MTSCCSCLK_NVFAFPFTIY_RARSVSPKL'
p8
g3
(g5
S'L\x95\xf5\x08\x9c\xfe\xef?'
tRp9
tp10
a(S'ALRANSAVK_ATSRTLSYY_EILDITPCSF_FAYANRNRF_FVDGVPFVV_HVTFFIYNK_NVFAFPFTIY_YEQYIKWPW'
p11
g3
(g5
S'C\x95\xf5\x08\x9c\xfe\xef?'
tRp12
tp13
a(S'AELEGIQY_ALRANSAVK_ATSRTLSYY_EILDITPCSF_FAYANRNRF_FVDGVPFVV_HVTFFIYNK_NVFAFPFTIY'
p14
g3
(g5
S'C\x95\xf5\x08\x9c\xfe\xef?'
tRp15
tp16
a(S'AELEGIQY_ATSRTLSYY_EILDITPCSF_FAYANRNRF_FVDGVPFVV_HVTFFIYNK_NVFAFPFTIY_RARSVSPKL'
p17
g3
(g5
S'A\x95\xf5\x08\x9c\xfe\xef?'
tRp18
tp19
a(S'ATSRTLSYY_EILDITPCSF_FAYANRNRF_FVDGVPFVV_HVTFFIYNK_NVFAFPFTIY_RARSVSPKL_YEQYIKWPW'
p20
g3
(g5
S'?\x95\xf5\x08\x9c\xfe\xef?'
tRp21
tp22
a(S'AELEGIQY_ATSRTLSYY_EILDITPCSF_FAYANRNRF_FVDGVPFVV_MTSCCSCLK_NVFAFPFTIY_SSRGTSPAR'
p23
g3
(g5
S'-\x95\xf5\x08\x9c\xfe\xef?'
tRp24
tp25
a(S'ATSRTLSYY_EILDITPCSF_FAYANRNRF_FVDGVPFVV_MTSCCSCLK_NVFAFPFTIY_SSRGTSPAR_YEQYIKWPW'
p26
g3
(g5
S',\x95\xf5\x08\x9c\xfe\xef?'
tRp27
tp28
a(S'ATSRTLSYY_EILDITPCSF_FAYANRNRF_FVDGVPFVV_MTSCCSCLK_NVFAFPFTIY_RLFRKSNLK_YEQYIKWPW'
p29
g3
(g5
S'+\x95\xf5\x08\x9c\xfe\xef?'
tRp30
tp31
a(S'ATSRTLSYY_EILDITPCSF_FAYANRNRF_FVDGVPFVV_KMQRMLLEK_MTSCCSCLK_NVFAFPFTIY_YEQYIKWPW'
p32
g3
(g5
S'+\x95\xf5\x08\x9c\xfe\xef?'
tRp33
tp34
a.