(lp1
(S'AEIRASANL_ATSRTLSYY_EILDITPCSF_FAYANRNRF_FLNRFTTTL_FLQSINFVR_FPRGQGVPI_FTYASALWEI_FVDGVPFVV_ISDYDYYRY_KTFPPTEPK_LLYDANYFL_MGYINVFAF_MTSCCSCLK_NSASFSTFK_NVFAFPFTIY_RARSVSPKL_RLYYDSMSY_RTFKVSIWNL_SIIAYTMSL_SINFVRIIMR_TMADLVYAL_TSRTLSYYK_TVYSHLLLV_VRFPNITNL_YANRNRFLY_YEQYIKWPW_YLDAYNMMI_YLYALVYFL'
p2
cnumpy.core.multiarray
scalar
p3
(cnumpy
dtype
p4
(S'f8'
I0
I1
tRp5
(I3
S'<'
NNNI-1
I-1
I0
tbS'\x9bV]b\xaa\xca\xef?'
tRp6
tp7
a(S'AEIRASANL_ATSRTLSYY_EILDITPCSF_FAYANRNRF_FLNRFTTTL_FLQSINFVR_FPQSAPHGV_FPRGQGVPI_FTYASALWEI_FVDGVPFVV_ISDYDYYRY_KTFPPTEPK_LLYDANYFL_MGYINVFAF_MTSCCSCLK_NSASFSTFK_NVFAFPFTIY_RARSVSPKL_RLYYDSMSY_RTFKVSIWNL_SIIAYTMSL_SINFVRIIMR_TMADLVYAL_TVYSHLLLV_VRFPNITNL_YANRNRFLY_YEQYIKWPW_YLDAYNMMI_YLYALVYFL'
p8
g3
(g5
S' \n|\x18\x97\xca\xef?'
tRp9
tp10
a(S'AEIRASANL_ATSRTLSYY_EILDITPCSF_FAYANRNRF_FLNRFTTTL_FLQSINFVR_FPQSAPHGV_FPRGQGVPI_FTYASALWEI_FVDGVPFVV_ISDYDYYRY_KTFPPTEPK_MGYINVFAF_MTSCCSCLK_NSASFSTFK_NVFAFPFTIY_RARSVSPKL_RLYYDSMSY_RTFKVSIWNL_SIIAYTMSL_SINFVRIIMR_TMADLVYAL_TVYSHLLLV_VLWAHGFEL_VRFPNITNL_YANRNRFLY_YEQYIKWPW_YLDAYNMMI_YLYALVYFL'
p11
g3
(g5
S'/\x95\xd0Xw\xca\xef?'
tRp12
tp13
a(S'AEIRASANL_ATSRTLSYY_EILDITPCSF_FAYANRNRF_FLNRFTTTL_FLPRVFSAV_FLQSINFVR_FPQSAPHGV_FPRGQGVPI_FTYASALWEI_FVDGVPFVV_ISDYDYYRY_KTFPPTEPK_MGYINVFAF_MTSCCSCLK_NSASFSTFK_NVFAFPFTIY_RARSVSPKL_RLYYDSMSY_RTFKVSIWNL_SIIAYTMSL_SINFVRIIMR_TMADLVYAL_TVYSHLLLV_VRFPNITNL_YANRNRFLY_YEQYIKWPW_YLDAYNMMI_YLYALVYFL'
p14
g3
(g5
S'e\xb0c\x8dq\xca\xef?'
tRp15
tp16
a(S'AEIRASANL_AELEGIQY_ATSRTLSYY_EILDITPCSF_FAYANRNRF_FLNRFTTTL_FLQSINFVR_FPQSAPHGV_FPRGQGVPI_FTYASALWEI_FVDGVPFVV_HVTFFIYNK_ISDYDYYRY_KTFPPTEPK_LLYDANYFL_MGYINVFAF_NSASFSTFK_NVFAFPFTIY_RARSVSPKL_RLYYDSMSY_RTFKVSIWNL_SIIAYTMSL_SINFVRIIMR_TMADLVYAL_TVYSHLLLV_VRFPNITNL_YANRNRFLY_YLDAYNMMI_YLYALVYFL'
p17
g3
(g5
S'4\x7f\xddFq\xca\xef?'
tRp18
tp19
a(S'AEIRASANL_AELEGIQY_ATSRTLSYY_EILDITPCSF_FAYANRNRF_FLNRFTTTL_FLQSINFVR_FPQSAPHGV_FPRGQGVPI_FTYASALWEI_FVDGVPFVV_ISDYDYYRY_KTFPPTEPK_LLYDANYFL_MGYINVFAF_MTSCCSCLK_NSASFSTFK_NVFAFPFTIY_RARSVSPKL_RLYYDSMSY_RTFKVSIWNL_SIIAYTMSL_SINFVRIIMR_TMADLVYAL_TVYSHLLLV_VRFPNITNL_YANRNRFLY_YLDAYNMMI_YLYALVYFL'
p20
g3
(g5
S'\xed\x85\xea\nk\xca\xef?'
tRp21
tp22
a(S'AEIRASANL_ATSRTLSYY_EILDITPCSF_FAYANRNRF_FLNRFTTTL_FLQSINFVR_FPQSAPHGV_FPRGQGVPI_FTYASALWEI_FVDGVPFVV_ISDYDYYRY_KTFPPTEPK_LLYDANYFL_MGYINVFAF_MTSCCSCLK_NSASFSTFK_NVFAFPFTIY_RARSVSPKL_RLYYDSMSY_RTFKVSIWNL_SIIAYTMSL_SINFVRIIMR_TVYSHLLLV_VLWAHGFEL_VRFPNITNL_YANRNRFLY_YEQYIKWPW_YLDAYNMMI_YLYALVYFL'
p23
g3
(g5
S'\x9b\x98\xf9\xb4i\xca\xef?'
tRp24
tp25
a(S'AEIRASANL_ATSRTLSYY_EILDITPCSF_FAYANRNRF_FLNRFTTTL_FLQSINFVR_FPQSAPHGV_FPRGQGVPI_FTYASALWEI_FVDGVPFVV_ISDYDYYRY_LLYDANYFL_MGYINVFAF_MTSCCSCLK_NSASFSTFK_NVFAFPFTIY_RARSVSPKL_RLYYDSMSY_RTFKVSIWNL_SIIAYTMSL_SINFVRIIMR_TMADLVYAL_TSRTLSYYK_TVYSHLLLV_VRFPNITNL_YANRNRFLY_YEQYIKWPW_YLDAYNMMI_YLYALVYFL'
p26
g3
(g5
S'\x88\xfc\x7f\x9dh\xca\xef?'
tRp27
tp28
a(S'AEIRASANL_ATSRTLSYY_EILDITPCSF_FAYANRNRF_FLNRFTTTL_FLPRVFSAV_FLQSINFVR_FPQSAPHGV_FPRGQGVPI_FTYASALWEI_FVDGVPFVV_ISDYDYYRY_KTFPPTEPK_LLYDANYFL_MGYINVFAF_MTSCCSCLK_NSASFSTFK_NVFAFPFTIY_RARSVSPKL_RLYYDSMSY_RTFKVSIWNL_SIIAYTMSL_SINFVRIIMR_TVYSHLLLV_VRFPNITNL_YANRNRFLY_YEQYIKWPW_YLDAYNMMI_YLYALVYFL'
p29
g3
(g5
S'\x11\r\xe6\xdec\xca\xef?'
tRp30
tp31
a(S'AEIRASANL_ATSRTLSYY_EILDITPCSF_FAYANRNRF_FLNRFTTTL_FLQSINFVR_FPQSAPHGV_FPRGQGVPI_FTYASALWEI_FVDGVPFVV_ISDYDYYRY_MGYINVFAF_MTSCCSCLK_NSASFSTFK_NVFAFPFTIY_RARSVSPKL_RLYYDSMSY_RTFKVSIWNL_SIIAYTMSL_SINFVRIIMR_TMADLVYAL_TSRTLSYYK_TVYSHLLLV_VLWAHGFEL_VRFPNITNL_YANRNRFLY_YEQYIKWPW_YLDAYNMMI_YLYALVYFL'
p32
g3
(g5
S'\\\xaf1\xf3H\xca\xef?'
tRp33
tp34
a.