(lp1
(S'ATSRTLSYY_EILDITPCSF_FAYANRNRF_FLQSINFVR_FVDGVPFVV_HVTFFIYNK_ISDYDYYRY_MTSCCSCLK_NVFAFPFTIY_RLYYDSMSY_SSRGTSPAR_YEQYIKWPW'
p2
cnumpy.core.multiarray
scalar
p3
(cnumpy
dtype
p4
(S'f8'
I0
I1
tRp5
(I3
S'<'
NNNI-1
I-1
I0
tbS'\xbc\xf9\xaa\xd7h\xff\xef?'
tRp6
tp7
a(S'ATSRTLSYY_EILDITPCSF_FAYANRNRF_FLQSINFVR_FVDGVPFVV_HVTFFIYNK_ISDYDYYRY_MTSCCSCLK_NVFAFPFTIY_RLFRKSNLK_RLYYDSMSY_YEQYIKWPW'
p8
g3
(g5
S'\xbb\xf9\xaa\xd7h\xff\xef?'
tRp9
tp10
a(S'ATSRTLSYY_EILDITPCSF_FAYANRNRF_FLQSINFVR_FVDGVPFVV_HVTFFIYNK_ISDYDYYRY_KMQRMLLEK_MTSCCSCLK_NVFAFPFTIY_RLYYDSMSY_YEQYIKWPW'
p11
g3
(g5
S'\xbb\xf9\xaa\xd7h\xff\xef?'
tRp12
tp13
a(S'ALRANSAVK_ATSRTLSYY_EILDITPCSF_FAYANRNRF_FLQSINFVR_FVDGVPFVV_HVTFFIYNK_ISDYDYYRY_NSASFSTFK_NVFAFPFTIY_RLYYDSMSY_YEQYIKWPW'
p14
g3
(g5
S'\xbb\xf9\xaa\xd7h\xff\xef?'
tRp15
tp16
a(S'AELEGIQY_ATSRTLSYY_EILDITPCSF_FAYANRNRF_FLQSINFVR_FVDGVPFVV_HVTFFIYNK_ISDYDYYRY_MTSCCSCLK_NVFAFPFTIY_RLYYDSMSY_SSRGTSPAR'
p17
g3
(g5
S'\xbb\xf9\xaa\xd7h\xff\xef?'
tRp18
tp19
a(S'AELEGIQY_ALRANSAVK_ATSRTLSYY_EILDITPCSF_FAYANRNRF_FLQSINFVR_FVDGVPFVV_HVTFFIYNK_ISDYDYYRY_NSASFSTFK_NVFAFPFTIY_RLYYDSMSY'
p20
g3
(g5
S'\xbb\xf9\xaa\xd7h\xff\xef?'
tRp21
tp22
a(S'AELEGIQY_ATSRTLSYY_EILDITPCSF_FAYANRNRF_FLQSINFVR_FVDGVPFVV_ISDYDYYRY_MTSCCSCLK_NSASFSTFK_NVFAFPFTIY_RARSVSPKL_RLYYDSMSY'
p23
g3
(g5
S'\xad\xf9\xaa\xd7h\xff\xef?'
tRp24
tp25
a(S'ATSRTLSYY_EILDITPCSF_FAYANRNRF_FLQSINFVR_FVDGVPFVV_ISDYDYYRY_MTSCCSCLK_NSASFSTFK_NVFAFPFTIY_RARSVSPKL_RLYYDSMSY_YEQYIKWPW'
p26
g3
(g5
S'\xac\xf9\xaa\xd7h\xff\xef?'
tRp27
tp28
a(S'AELEGIQY_ATSRTLSYY_EILDITPCSF_FAYANRNRF_FVDGVPFVV_ISDYDYYRY_MTSCCSCLK_NSASFSTFK_NVFAFPFTIY_RARSVSPKL_RLYYDSMSY_SINFVRIIMR'
p29
g3
(g5
S'\xa7\xf9\xaa\xd7h\xff\xef?'
tRp30
tp31
a(S'AELEGIQY_ATSRTLSYY_EILDITPCSF_FAYANRNRF_FLQSINFVR_FVDGVPFVV_HVTFFIYNK_ISDYDYYRY_NSASFSTFK_NVFAFPFTIY_RARSVSPKL_RLYYDSMSY'
p32
g3
(g5
S'\xa5\xf9\xaa\xd7h\xff\xef?'
tRp33
tp34
a.