(lp1
(S'AEIRASANL_ATSRTLSYY_EILDITPCSF_FAYANRNRF_FLNRFTTTL_FLQSINFVR_FPRGQGVPI_FTNVYADSF_FVDGVPFVV_ISDYDYYRY_MTSCCSCLK_NSASFSTFK_NVFAFPFTIY_RARSVSPKL_RLYYDSMSY_RTFKVSIWNL_SIIAYTMSL_SINFVRIIMR_TVYSHLLLV_YEQYIKWPW_YFIASFRLF_YLYALVYFL'
p2
cnumpy.core.multiarray
scalar
p3
(cnumpy
dtype
p4
(S'f8'
I0
I1
tRp5
(I3
S'<'
NNNI-1
I-1
I0
tbS'\xdc;e3\xc1\xf4\xef?'
tRp6
tp7
a(S'AEIRASANL_ATSRTLSYY_EILDITPCSF_FAYANRNRF_FLNRFTTTL_FLQSINFVR_FPRGQGVPI_FTNVYADSF_FVDGVPFVV_ISDYDYYRY_MTSCCSCLK_NSASFSTFK_NVFAFPFTIY_RARSVSPKL_RLYYDSMSY_RTFKVSIWNL_SIIAYTMSL_SINFVRIIMR_TVYSHLLLV_VYFLQSINF_YEQYIKWPW_YLYALVYFL'
p8
g3
(g5
S'\xf3\xb4!%\xbf\xf4\xef?'
tRp9
tp10
a(S'AEIRASANL_ATSRTLSYY_EILDITPCSF_FAYANRNRF_FLNRFTTTL_FLQSINFVR_FPRGQGVPI_FTNVYADSF_FVDGVPFVV_ISDYDYYRY_MTSCCSCLK_NSASFSTFK_NVFAFPFTIY_RARSVSPKL_RLYYDSMSY_RTFKVSIWNL_SIIAYTMSL_SINFVRIIMR_SYFIASFRLF_TVYSHLLLV_YEQYIKWPW_YLYALVYFL'
p11
g3
(g5
S'\xef\xb4!%\xbf\xf4\xef?'
tRp12
tp13
a(S'AEIRASANL_ATSRTLSYY_EILDITPCSF_FAYANRNRF_FLNRFTTTL_FLQSINFVR_FPRGQGVPI_FTNVYADSF_FVDGVPFVV_ISDYDYYRY_MTSCCSCLK_NSASFSTFK_NVFAFPFTIY_QYIKWPWYI_RARSVSPKL_RLYYDSMSY_RTFKVSIWNL_SIIAYTMSL_SINFVRIIMR_TVYSHLLLV_YEQYIKWPW_YLYALVYFL'
p14
g3
(g5
S'dx\x8e\xf1\xba\xf4\xef?'
tRp15
tp16
a(S'AEIRASANL_ATSRTLSYY_EILDITPCSF_FAYANRNRF_FLNRFTTTL_FLQSINFVR_FPRGQGVPI_FTYASALWEI_FVDGVPFVV_ISDYDYYRY_MGYINVFAF_MTSCCSCLK_NSASFSTFK_NVFAFPFTIY_RARSVSPKL_RLYYDSMSY_RTFKVSIWNL_SIIAYTMSL_SINFVRIIMR_TMADLVYAL_TVYSHLLLV_YEQYIKWPW'
p17
g3
(g5
S'\xd4\xb0bk\xa3\xf4\xef?'
tRp18
tp19
a(S'AEIRASANL_ATSRTLSYY_EILDITPCSF_FAYANRNRF_FLNRFTTTL_FLQSINFVR_FPRGQGVPI_FTYASALWEI_FVDGVPFVV_ISDYDYYRY_LLYDANYFL_MGYINVFAF_MTSCCSCLK_NSASFSTFK_NVFAFPFTIY_RARSVSPKL_RLYYDSMSY_RTFKVSIWNL_SIIAYTMSL_SINFVRIIMR_TVYSHLLLV_YEQYIKWPW'
p20
g3
(g5
S'\x88e\xf0\x90\x9f\xf4\xef?'
tRp21
tp22
a(S'AEIRASANL_ATSRTLSYY_EILDITPCSF_FAYANRNRF_FLNRFTTTL_FLQSINFVR_FPRGQGVPI_FTYASALWEI_FVDGVPFVV_ISDYDYYRY_MGYINVFAF_MTSCCSCLK_NSASFSTFK_NVFAFPFTIY_RARSVSPKL_RLYYDSMSY_RTFKVSIWNL_SIIAYTMSL_SINFVRIIMR_TVYSHLLLV_YEQYIKWPW_YLYALVYFL'
p23
g3
(g5
S'\xeb6az\x9f\xf4\xef?'
tRp24
tp25
a(S'AEIRASANL_ATSRTLSYY_EILDITPCSF_FAYANRNRF_FLNRFTTTL_FLQSINFVR_FPRGQGVPI_FTNVYADSF_FVDGVPFVV_ISDYDYYRY_LYSPIFLIV_MTSCCSCLK_NSASFSTFK_NVFAFPFTIY_RARSVSPKL_RLYYDSMSY_RTFKVSIWNL_SIIAYTMSL_SINFVRIIMR_TVYSHLLLV_YEQYIKWPW_YLYALVYFL'
p26
g3
(g5
S'\xd1\xd6^\xe7\x97\xf4\xef?'
tRp27
tp28
a(S'AEIRASANL_AELEGIQY_ATSRTLSYY_EILDITPCSF_FAYANRNRF_FLNRFTTTL_FLQSINFVR_FPRGQGVPI_FTYASALWEI_FVDGVPFVV_HVTFFIYNK_ISDYDYYRY_MGYINVFAF_NSASFSTFK_NVFAFPFTIY_RARSVSPKL_RLYYDSMSY_RTFKVSIWNL_SIIAYTMSL_SINFVRIIMR_TVYSHLLLV_YLYALVYFL'
p29
g3
(g5
S'\xb0\x9ft\x81\x93\xf4\xef?'
tRp30
tp31
a(S'AEIRASANL_AELEGIQY_ATSRTLSYY_EILDITPCSF_FAYANRNRF_FLNRFTTTL_FLQSINFVR_FPRGQGVPI_FTYASALWEI_FVDGVPFVV_ISDYDYYRY_MGYINVFAF_MTSCCSCLK_NSASFSTFK_NVFAFPFTIY_RARSVSPKL_RLYYDSMSY_RTFKVSIWNL_SIIAYTMSL_SINFVRIIMR_TVYSHLLLV_YLYALVYFL'
p32
g3
(g5
S'\x91P\xea\xf5\x92\xf4\xef?'
tRp33
tp34
a.