(lp1
(S'AEIRASANL_ATSRTLSYY_EILDITPCSF_FAYANRNRF_FLNRFTTTL_FLQSINFVR_FPRGQGVPI_FVDGVPFVV_ISDYDYYRY_MGYINVFAF_MTSCCSCLK_NSASFSTFK_NVFAFPFTIY_RARSVSPKL_RLYYDSMSY_RTFKVSIWNL_SIIAYTMSL_SINFVRIIMR_TVYSHLLLV_YEQYIKWPW_YLYALVYFL'
p2
cnumpy.core.multiarray
scalar
p3
(cnumpy
dtype
p4
(S'f8'
I0
I1
tRp5
(I3
S'<'
NNNI-1
I-1
I0
tbS'9N\x0b\x81]\xf3\xef?'
tRp6
tp7
a(S'AEIRASANL_AELEGIQY_ATSRTLSYY_EILDITPCSF_FAYANRNRF_FLNRFTTTL_FLQSINFVR_FPRGQGVPI_FVDGVPFVV_HVTFFIYNK_ISDYDYYRY_MGYINVFAF_NSASFSTFK_NVFAFPFTIY_RARSVSPKL_RLYYDSMSY_RTFKVSIWNL_SIIAYTMSL_SINFVRIIMR_TVYSHLLLV_YLYALVYFL'
p8
g3
(g5
S'\xf1\xca\xca\x87M\xf3\xef?'
tRp9
tp10
a(S'AEIRASANL_AELEGIQY_ATSRTLSYY_EILDITPCSF_FAYANRNRF_FLNRFTTTL_FLQSINFVR_FPRGQGVPI_FVDGVPFVV_ISDYDYYRY_MGYINVFAF_MTSCCSCLK_NSASFSTFK_NVFAFPFTIY_RARSVSPKL_RLYYDSMSY_RTFKVSIWNL_SIIAYTMSL_SINFVRIIMR_TVYSHLLLV_YLYALVYFL'
p11
g3
(g5
S'\xd1{@\xfcL\xf3\xef?'
tRp12
tp13
a(S'AEIRASANL_ATSRTLSYY_EILDITPCSF_FAYANRNRF_FLNRFTTTL_FLQSINFVR_FPRGQGVPI_FVDGVPFVV_ISDYDYYRY_MGYINVFAF_MTSCCSCLK_NSASFSTFK_NVFAFPFTIY_RARSVSPKL_RLYYDSMSY_RTFKVSIWNL_SIIAYTMSL_SINFVRIIMR_TMADLVYAL_TVYSHLLLV_YEQYIKWPW'
p14
g3
(g5
S'\x14#\xb4\xa1:\xf3\xef?'
tRp15
tp16
a(S'AEIRASANL_ATSRTLSYY_EILDITPCSF_FAYANRNRF_FLNRFTTTL_FLQSINFVR_FPRGQGVPI_FVDGVPFVV_ISDYDYYRY_LLYDANYFL_MGYINVFAF_MTSCCSCLK_NSASFSTFK_NVFAFPFTIY_RARSVSPKL_RLYYDSMSY_RTFKVSIWNL_SIIAYTMSL_SINFVRIIMR_TVYSHLLLV_YEQYIKWPW'
p17
g3
(g5
S"\\\xf9Q'6\xf3\xef?"
tRp18
tp19
a(S'ATSRTLSYY_EEHVQIHTI_EILDITPCSF_FAYANRNRF_FLNRFTTTL_FLQSINFVR_FPRGQGVPI_FVDGVPFVV_ISDYDYYRY_MGYINVFAF_MTSCCSCLK_NSASFSTFK_NVFAFPFTIY_RARSVSPKL_RLYYDSMSY_RTFKVSIWNL_SIIAYTMSL_SINFVRIIMR_TVYSHLLLV_YEQYIKWPW_YLYALVYFL'
p20
g3
(g5
S'\\\xa6b\xff)\xf3\xef?'
tRp21
tp22
a(S'AEIRASANL_ATSRTLSYY_EILDITPCSF_FAYANRNRF_FLNRFTTTL_FLQSINFVR_FPRGQGVPI_FVDGVPFVV_ISDYDYYRY_KAYNVTQAF_MGYINVFAF_MTSCCSCLK_NSASFSTFK_NVFAFPFTIY_RARSVSPKL_RLYYDSMSY_SIIAYTMSL_SINFVRIIMR_TVYSHLLLV_YEQYIKWPW_YLYALVYFL'
p23
g3
(g5
S"\x9d\x83v\x10'\xf3\xef?"
tRp24
tp25
a(S'AELEGIQY_ATSRTLSYY_EEHVQIHTI_EILDITPCSF_FAYANRNRF_FLNRFTTTL_FLQSINFVR_FPRGQGVPI_FVDGVPFVV_HVTFFIYNK_ISDYDYYRY_MGYINVFAF_NSASFSTFK_NVFAFPFTIY_RARSVSPKL_RLYYDSMSY_RTFKVSIWNL_SIIAYTMSL_SINFVRIIMR_TVYSHLLLV_YLYALVYFL'
p26
g3
(g5
S'\xad[b\x9a\x15\xf3\xef?'
tRp27
tp28
a(S'AELEGIQY_ATSRTLSYY_EEHVQIHTI_EILDITPCSF_FAYANRNRF_FLNRFTTTL_FLQSINFVR_FPRGQGVPI_FVDGVPFVV_ISDYDYYRY_MGYINVFAF_MTSCCSCLK_NSASFSTFK_NVFAFPFTIY_RARSVSPKL_RLYYDSMSY_RTFKVSIWNL_SIIAYTMSL_SINFVRIIMR_TVYSHLLLV_YLYALVYFL'
p29
g3
(g5
S'\x8d\x0c\xd8\x0e\x15\xf3\xef?'
tRp30
tp31
a(S'AEIRASANL_ATSRTLSYY_EILDITPCSF_FAYANRNRF_FLNRFTTTL_FLQSINFVR_FPRGQGVPI_FTNVYADSF_FVDGVPFVV_ISDYDYYRY_MTSCCSCLK_NSASFSTFK_NVFAFPFTIY_RARSVSPKL_RLYYDSMSY_RTFKVSIWNL_SIIAYTMSL_SINFVRIIMR_TVYSHLLLV_YEQYIKWPW_YLYALVYFL'
p32
g3
(g5
S'\x13\x10\xd4P\x0e\xf3\xef?'
tRp33
tp34
a.