(lp1
(S'AEIRASANL_AELEGIQY_ALRANSAVK_ATSRTLSYY_CPDGVKHVY_EEHVQIHTI_EILDITPCSF_FAYANRNRF_FIAGLIAIV_FLLNKEMYL_FLLPSLATV_FLNRFTTTL_FLPRVFSAV_FLQSINFVR_FPNITNLCPF_FPQSAPHGV_FPRGQGVPI_FTNVYADSF_FTYASALWEI_FVDGVPFVV_HVTFFIYNK_IPRRNVATL_IPTNFTISV_ISDYDYYRY_ITLATCELY_ITLKKRWQL_KAYNVTQAF_KTFPPTEPK_KVSIWNLDY_LIIMRTFKV_LLYDANYFL_LSPRWYFYY_LTDEMIAQY_LWPVTLACF_LYSPIFLIV_MGYINVFAF_MTSCCSCLK_NSASFSTFK_NVFAFPFTIY_QELYSPIFL_QYIKWPWYI_RARSVSPKL_RISNCVADY_RLFRKSNLK_RLYYDSMSY_RQLLFVVEV_RTFKVSIWNL_SIIAYTMSL_SINFVRIIMR_SPRWYFYYL_TMADLVYAL_TSRTLSYYK_TVYSHLLLV_VEHVTFFIY_VLWAHGFEL_VRFPNITNL_VSIWNLDYII_VTPSGTWLTY_VVYRGTTTY_VYFLQSINF_WPVTLACFVL_YANRNRFLY_YEQYIKWPW_YFIASFRLF_YIFFASFYY_YIIKLIFLW_YLDAYNMMI_YLYALVYFL'
p2
cnumpy.core.multiarray
scalar
p3
(cnumpy
dtype
p4
(S'f8'
I0
I1
tRp5
(I3
S'<'
NNNI-1
I-1
I0
tbS'\xd9a.\xe9\x90\xa6\xef?'
tRp6
tp7
a(S'AEIRASANL_AELEGIQY_ALRANSAVK_ATSRTLSYY_CPDGVKHVY_EEHVQIHTI_EILDITPCSF_FAYANRNRF_FIAGLIAIV_FLLNKEMYL_FLLPSLATV_FLNRFTTTL_FLPRVFSAV_FLQSINFVR_FPNITNLCPF_FPQSAPHGV_FPRGQGVPI_FTNVYADSF_FTYASALWEI_FVDGVPFVV_HVTFFIYNK_IPRRNVATL_IPTNFTISV_ISDYDYYRY_ITLATCELY_ITLKKRWQL_KAYNVTQAF_KTFPPTEPK_KVSIWNLDY_LIIMRTFKV_LLYDANYFL_LSPRWYFYY_LTDEMIAQY_LWLLWPVTL_LYSPIFLIV_MGYINVFAF_MTSCCSCLK_NSASFSTFK_NVFAFPFTIY_QELYSPIFL_QYIKWPWYI_RARSVSPKL_RISNCVADY_RLFRKSNLK_RLYYDSMSY_RQLLFVVEV_RTFKVSIWNL_SIIAYTMSL_SINFVRIIMR_SPRWYFYYL_TMADLVYAL_TSRTLSYYK_TVYSHLLLV_VEHVTFFIY_VLWAHGFEL_VRFPNITNL_VSIWNLDYII_VTPSGTWLTY_VVYRGTTTY_VYFLQSINF_WPVTLACFVL_YANRNRFLY_YEQYIKWPW_YFIASFRLF_YIFFASFYY_YIIKLIFLW_YLDAYNMMI_YLYALVYFL'
p8
g6
tp9
a(S'AEIRASANL_AELEGIQY_ALRANSAVK_ATSRTLSYY_CPDGVKHVY_EEHVQIHTI_EILDITPCSF_FAYANRNRF_FIAGLIAIV_FLLNKEMYL_FLLPSLATV_FLNRFTTTL_FLPRVFSAV_FLQSINFVR_FPNITNLCPF_FPQSAPHGV_FPRGQGVPI_FTNVYADSF_FTYASALWEI_FVDGVPFVV_HVTFFIYNK_IPRRNVATL_IPTNFTISV_ISDYDYYRY_ITLATCELY_ITLKKRWQL_KAYNVTQAF_KMQRMLLEK_KTFPPTEPK_KVSIWNLDY_LIIMRTFKV_LLYDANYFL_LSPRWYFYY_LTDEMIAQY_LWPVTLACF_LYSPIFLIV_MGYINVFAF_MTSCCSCLK_NSASFSTFK_NVFAFPFTIY_QELYSPIFL_QYIKWPWYI_RARSVSPKL_RISNCVADY_RLYYDSMSY_RQLLFVVEV_RTFKVSIWNL_SIIAYTMSL_SINFVRIIMR_SPRWYFYYL_TMADLVYAL_TSRTLSYYK_TVYSHLLLV_VEHVTFFIY_VLWAHGFEL_VRFPNITNL_VSIWNLDYII_VTPSGTWLTY_VVYRGTTTY_VYFLQSINF_WPVTLACFVL_YANRNRFLY_YEQYIKWPW_YFIASFRLF_YIFFASFYY_YIIKLIFLW_YLDAYNMMI_YLYALVYFL'
p10
g3
(g5
S'\xd9a.\xe9\x90\xa6\xef?'
tRp11
tp12
a(S'AEIRASANL_AELEGIQY_ALRANSAVK_ATSRTLSYY_CPDGVKHVY_EEHVQIHTI_EILDITPCSF_FAYANRNRF_FIAGLIAIV_FLLNKEMYL_FLLPSLATV_FLNRFTTTL_FLPRVFSAV_FLQSINFVR_FPNITNLCPF_FPQSAPHGV_FPRGQGVPI_FTNVYADSF_FTYASALWEI_FVDGVPFVV_HVTFFIYNK_IPRRNVATL_IPTNFTISV_ISDYDYYRY_ITLATCELY_ITLKKRWQL_KAYNVTQAF_KMQRMLLEK_KTFPPTEPK_KVSIWNLDY_LIIMRTFKV_LLYDANYFL_LSPRWYFYY_LTDEMIAQY_LWLLWPVTL_LYSPIFLIV_MGYINVFAF_MTSCCSCLK_NSASFSTFK_NVFAFPFTIY_QELYSPIFL_QYIKWPWYI_RARSVSPKL_RISNCVADY_RLYYDSMSY_RQLLFVVEV_RTFKVSIWNL_SIIAYTMSL_SINFVRIIMR_SPRWYFYYL_TMADLVYAL_TSRTLSYYK_TVYSHLLLV_VEHVTFFIY_VLWAHGFEL_VRFPNITNL_VSIWNLDYII_VTPSGTWLTY_VVYRGTTTY_VYFLQSINF_WPVTLACFVL_YANRNRFLY_YEQYIKWPW_YFIASFRLF_YIFFASFYY_YIIKLIFLW_YLDAYNMMI_YLYALVYFL'
p13
g11
tp14
a(S'AEIRASANL_AELEGIQY_ALRANSAVK_ATSRTLSYY_CPDGVKHVY_EEHVQIHTI_EILDITPCSF_FAYANRNRF_FIAGLIAIV_FLLNKEMYL_FLLPSLATV_FLNRFTTTL_FLPRVFSAV_FLQSINFVR_FPNITNLCPF_FPQSAPHGV_FPRGQGVPI_FTNVYADSF_FTYASALWEI_FVDGVPFVV_HVTFFIYNK_IPRRNVATL_IPTNFTISV_ISDYDYYRY_ITLATCELY_ITLKKRWQL_KAYNVTQAF_KTFPPTEPK_KVSIWNLDY_LIIMRTFKV_LLYDANYFL_LSPRWYFYY_LTDEMIAQY_LYNSASFSTF_LYSPIFLIV_MGYINVFAF_MTSCCSCLK_NSASFSTFK_NVFAFPFTIY_QELYSPIFL_QYIKWPWYI_RARSVSPKL_RISNCVADY_RLFRKSNLK_RLYYDSMSY_RQLLFVVEV_RTFKVSIWNL_SIIAYTMSL_SINFVRIIMR_SPRWYFYYL_TMADLVYAL_TSRTLSYYK_TVYSHLLLV_VEHVTFFIY_VLWAHGFEL_VRFPNITNL_VSIWNLDYII_VTPSGTWLTY_VVYRGTTTY_VYFLQSINF_WPVTLACFVL_YANRNRFLY_YEQYIKWPW_YFIASFRLF_YIFFASFYY_YIIKLIFLW_YLDAYNMMI_YLYALVYFL'
p15
g3
(g5
S'9\xea\xd5\xfc\x8f\xa6\xef?'
tRp16
tp17
a(S'AEIRASANL_AELEGIQY_ALRANSAVK_ATSRTLSYY_CPDGVKHVY_EEHVQIHTI_EILDITPCSF_FAYANRNRF_FIAGLIAIV_FLLNKEMYL_FLLPSLATV_FLNRFTTTL_FLPRVFSAV_FLQSINFVR_FPNITNLCPF_FPQSAPHGV_FPRGQGVPI_FTNVYADSF_FTYASALWEI_FVDGVPFVV_HVTFFIYNK_IPRRNVATL_IPTNFTISV_ISDYDYYRY_ITLATCELY_ITLKKRWQL_KAYNVTQAF_KMQRMLLEK_KTFPPTEPK_KVSIWNLDY_LIIMRTFKV_LLYDANYFL_LSPRWYFYY_LTDEMIAQY_LYNSASFSTF_LYSPIFLIV_MGYINVFAF_MTSCCSCLK_NSASFSTFK_NVFAFPFTIY_QELYSPIFL_QYIKWPWYI_RARSVSPKL_RISNCVADY_RLYYDSMSY_RQLLFVVEV_RTFKVSIWNL_SIIAYTMSL_SINFVRIIMR_SPRWYFYYL_TMADLVYAL_TSRTLSYYK_TVYSHLLLV_VEHVTFFIY_VLWAHGFEL_VRFPNITNL_VSIWNLDYII_VTPSGTWLTY_VVYRGTTTY_VYFLQSINF_WPVTLACFVL_YANRNRFLY_YEQYIKWPW_YFIASFRLF_YIFFASFYY_YIIKLIFLW_YLDAYNMMI_YLYALVYFL'
p18
g3
(g5
S'9\xea\xd5\xfc\x8f\xa6\xef?'
tRp19
tp20
a(S'AEIRASANL_AELEGIQY_ALRANSAVK_ATSRTLSYY_CPDGVKHVY_EEHVQIHTI_EILDITPCSF_FAYANRNRF_FIAGLIAIV_FLLNKEMYL_FLLPSLATV_FLNRFTTTL_FLPRVFSAV_FLQSINFVR_FPNITNLCPF_FPQSAPHGV_FPRGQGVPI_FTNVYADSF_FTYASALWEI_FVDGVPFVV_HVTFFIYNK_IPRRNVATL_IPTNFTISV_ISDYDYYRY_ITLATCELY_ITLKKRWQL_KAYNVTQAF_KTFPPTEPK_KVSIWNLDY_LIIMRTFKV_LLYDANYFL_LTDEMIAQY_LWPVTLACF_LYSPIFLIV_MGYINVFAF_MTSCCSCLK_NSASFSTFK_NVFAFPFTIY_QELYSPIFL_QYIKWPWYI_RARSVSPKL_RISNCVADY_RLFRKSNLK_RLYYDSMSY_RQLLFVVEV_RTFKVSIWNL_SIIAYTMSL_SINFVRIIMR_SPRWYFYYL_SSPDDQIGYY_TMADLVYAL_TSRTLSYYK_TVYSHLLLV_VEHVTFFIY_VLWAHGFEL_VRFPNITNL_VSIWNLDYII_VTPSGTWLTY_VVYRGTTTY_VYFLQSINF_WPVTLACFVL_YANRNRFLY_YEQYIKWPW_YFIASFRLF_YIFFASFYY_YIIKLIFLW_YLDAYNMMI_YLYALVYFL'
p21
g3
(g5
S'T\xdd\xa7=\x8f\xa6\xef?'
tRp22
tp23
a(S'AEIRASANL_AELEGIQY_ALRANSAVK_ATSRTLSYY_CPDGVKHVY_EEHVQIHTI_EILDITPCSF_FAYANRNRF_FIAGLIAIV_FLLNKEMYL_FLLPSLATV_FLNRFTTTL_FLPRVFSAV_FLQSINFVR_FPNITNLCPF_FPQSAPHGV_FPRGQGVPI_FTNVYADSF_FTYASALWEI_FVDGVPFVV_HVTFFIYNK_IPRRNVATL_IPTNFTISV_ISDYDYYRY_ITLATCELY_ITLKKRWQL_KAYNVTQAF_KTFPPTEPK_KVSIWNLDY_LIIMRTFKV_LLYDANYFL_LTDEMIAQY_LWPVTLACF_LYSPIFLIV_MGYINVFAF_MIELSLIDFY_MTSCCSCLK_NSASFSTFK_NVFAFPFTIY_QELYSPIFL_QYIKWPWYI_RARSVSPKL_RISNCVADY_RLFRKSNLK_RLYYDSMSY_RQLLFVVEV_RTFKVSIWNL_SIIAYTMSL_SINFVRIIMR_SPRWYFYYL_TMADLVYAL_TSRTLSYYK_TVYSHLLLV_VEHVTFFIY_VLWAHGFEL_VRFPNITNL_VSIWNLDYII_VTPSGTWLTY_VVYRGTTTY_VYFLQSINF_WPVTLACFVL_YANRNRFLY_YEQYIKWPW_YFIASFRLF_YIFFASFYY_YIIKLIFLW_YLDAYNMMI_YLYALVYFL'
p24
g3
(g5
S'T\xdd\xa7=\x8f\xa6\xef?'
tRp25
tp26
a(S'AEIRASANL_AELEGIQY_ALRANSAVK_ATSRTLSYY_CPDGVKHVY_EEHVQIHTI_EILDITPCSF_FAYANRNRF_FIAGLIAIV_FLLNKEMYL_FLLPSLATV_FLNRFTTTL_FLPRVFSAV_FLQSINFVR_FPNITNLCPF_FPQSAPHGV_FPRGQGVPI_FTNVYADSF_FTYASALWEI_FVDGVPFVV_HVTFFIYNK_IPRRNVATL_IPTNFTISV_ISDYDYYRY_ITLATCELY_ITLKKRWQL_KAYNVTQAF_KTFPPTEPK_KVSIWNLDY_LIIMRTFKV_LLYDANYFL_LTDEMIAQY_LWLLWPVTL_LYSPIFLIV_MGYINVFAF_MTSCCSCLK_NSASFSTFK_NVFAFPFTIY_QELYSPIFL_QYIKWPWYI_RARSVSPKL_RISNCVADY_RLFRKSNLK_RLYYDSMSY_RQLLFVVEV_RTFKVSIWNL_SIIAYTMSL_SINFVRIIMR_SPRWYFYYL_SSPDDQIGYY_TMADLVYAL_TSRTLSYYK_TVYSHLLLV_VEHVTFFIY_VLWAHGFEL_VRFPNITNL_VSIWNLDYII_VTPSGTWLTY_VVYRGTTTY_VYFLQSINF_WPVTLACFVL_YANRNRFLY_YEQYIKWPW_YFIASFRLF_YIFFASFYY_YIIKLIFLW_YLDAYNMMI_YLYALVYFL'
p27
g22
tp28
a(S'AEIRASANL_AELEGIQY_ALRANSAVK_ATSRTLSYY_CPDGVKHVY_EEHVQIHTI_EILDITPCSF_FAYANRNRF_FIAGLIAIV_FLLNKEMYL_FLLPSLATV_FLNRFTTTL_FLPRVFSAV_FLQSINFVR_FPNITNLCPF_FPQSAPHGV_FPRGQGVPI_FTNVYADSF_FTYASALWEI_FVDGVPFVV_HVTFFIYNK_IPRRNVATL_IPTNFTISV_ISDYDYYRY_ITLATCELY_ITLKKRWQL_KAYNVTQAF_KTFPPTEPK_KVSIWNLDY_LIIMRTFKV_LLYDANYFL_LTDEMIAQY_LWLLWPVTL_LYSPIFLIV_MGYINVFAF_MIELSLIDFY_MTSCCSCLK_NSASFSTFK_NVFAFPFTIY_QELYSPIFL_QYIKWPWYI_RARSVSPKL_RISNCVADY_RLFRKSNLK_RLYYDSMSY_RQLLFVVEV_RTFKVSIWNL_SIIAYTMSL_SINFVRIIMR_SPRWYFYYL_TMADLVYAL_TSRTLSYYK_TVYSHLLLV_VEHVTFFIY_VLWAHGFEL_VRFPNITNL_VSIWNLDYII_VTPSGTWLTY_VVYRGTTTY_VYFLQSINF_WPVTLACFVL_YANRNRFLY_YEQYIKWPW_YFIASFRLF_YIFFASFYY_YIIKLIFLW_YLDAYNMMI_YLYALVYFL'
p29
g25
tp30
a.