(lp1
(S'ATSRTLSYY_FAYANRNRF_HVTFFIYNK_NVFAFPFTIY'
p2
cnumpy.core.multiarray
scalar
p3
(cnumpy
dtype
p4
(S'f8'
I0
I1
tRp5
(I3
S'<'
NNNI-1
I-1
I0
tbS'\x8bh3wM\xfc\xef?'
tRp6
tp7
a(S'ATSRTLSYY_FAYANRNRF_MTSCCSCLK_NVFAFPFTIY'
p8
g3
(g5
S'p2\xbd\x8eL\xfc\xef?'
tRp9
tp10
a(S'ATSRTLSYY_FAYANRNRF_NSASFSTFK_NVFAFPFTIY'
p11
g3
(g5
S'\xe0\xc7\x06\xedJ\xfc\xef?'
tRp12
tp13
a(S'FAYANRNRF_MTSCCSCLK_NVFAFPFTIY_RLYYDSMSY'
p14
g3
(g5
S'?\xc5\xc3TG\xfc\xef?'
tRp15
tp16
a(S'FAYANRNRF_ITLATCELY_NSASFSTFK_NVFAFPFTIY'
p17
g3
(g5
S'3\x93\x88\xcc\xd9\xfb\xef?'
tRp18
tp19
a(S'ATSRTLSYY_EILDITPCSF_FAYANRNRF_HVTFFIYNK'
p20
g3
(g5
S'\x13\xf0%6\x9d\xfb\xef?'
tRp21
tp22
a(S'ATSRTLSYY_EILDITPCSF_FAYANRNRF_NSASFSTFK'
p23
g3
(g5
S'IO\xf9\xab\x9a\xfb\xef?'
tRp24
tp25
a(S'EILDITPCSF_FAYANRNRF_HVTFFIYNK_ITLATCELY'
p26
g3
(g5
S'\xbc02\x7f\x9a\xfb\xef?'
tRp27
tp28
a(S'EILDITPCSF_FAYANRNRF_NSASFSTFK_YIFFASFYY'
p29
g3
(g5
S"[\x1a'\xb3\x96\xfb\xef?"
tRp30
tp31
a(S'EILDITPCSF_FAYANRNRF_ITLATCELY_NSASFSTFK'
p32
g3
(g5
S'\xc7\xe1\xde\xbc)\xfb\xef?'
tRp33
tp34
a.