(lp1
(S'IITLKKRWQLALSKGVHFV_RWYFYYLGTGPEAGLPYGA_TRGVYYPDKVFRSSVLHST_VKDCVVLHSYFTSDYYQLY_VTQQLIRAAEIRASANLAA'
p2
cnumpy.core.multiarray
scalar
p3
(cnumpy
dtype
p4
(S'f8'
I0
I1
tRp5
(I3
S'<'
NNNI-1
I-1
I0
tbS'\xbf\xb2\xd95<x\xee?'
tRp6
tp7
a(S'IITLKKRWQLALSKGVHFV_RWYFYYLGTGPEAGLPYGA_SYFTSDYYQLYSTQLSTDT_TRGVYYPDKVFRSSVLHST_VTQQLIRAAEIRASANLAA'
p8
g3
(g5
S'\xebQ\t=\xfcp\xee?'
tRp9
tp10
a(S'GAGAALQIPFAMQMAYRFN_IITLKKRWQLALSKGVHFV_RWYFYYLGTGPEAGLPYGA_TRGVYYPDKVFRSSVLHST_VTQQLIRAAEIRASANLAA'
p11
g3
(g5
S'\xddQ\t=\xfcp\xee?'
tRp12
tp13
a(S'IITLKKRWQLALSKGVHFV_NGGDAALALLLLDRLNQLE_RWYFYYLGTGPEAGLPYGA_VKDCVVLHSYFTSDYYQLY_VTQQLIRAAEIRASANLAA'
p14
g3
(g5
S'\r\xb0\xdf\xd5\x0cm\xee?'
tRp15
tp16
a(S'IITLKKRWQLALSKGVHFV_KVFRSSVLHSTQDLFLPFF_NGGDAALALLLLDRLNQLE_RWYFYYLGTGPEAGLPYGA_VTQQLIRAAEIRASANLAA'
p17
g3
(g5
S'\xf7\xaf\xdf\xd5\x0cm\xee?'
tRp18
tp19
a(S'IITLKKRWQLALSKGVHFV_PKEITVATSRTLSYYKLGA_RWYFYYLGTGPEAGLPYGA_VKDCVVLHSYFTSDYYQLY_VTQQLIRAAEIRASANLAA'
p20
g3
(g5
S'\x17E1\xa6\xdfl\xee?'
tRp21
tp22
a(S'IITLKKRWQLALSKGVHFV_RWYFYYLGTGPEAGLPYGA_VEAEVQIDRLITGRLQSLQ_VKDCVVLHSYFTSDYYQLY_VTQQLIRAAEIRASANLAA'
p23
g3
(g5
S'\x11E1\xa6\xdfl\xee?'
tRp24
tp25
a(S'GAISSVLNDILSRLDKVEA_IITLKKRWQLALSKGVHFV_RWYFYYLGTGPEAGLPYGA_VKDCVVLHSYFTSDYYQLY_VTQQLIRAAEIRASANLAA'
p26
g3
(g5
S'\xe3D1\xa6\xdfl\xee?'
tRp27
tp28
a(S'IITLKKRWQLALSKGVHFV_RWYFYYLGTGPEAGLPYGA_TYTGAIKLDDKDPNFKDQV_VKDCVVLHSYFTSDYYQLY_VTQQLIRAAEIRASANLAA'
p29
g3
(g5
S'\xdbD1\xa6\xdfl\xee?'
tRp30
tp31
a(S'IITLKKRWQLALSKGVHFV_RWYFYYLGTGPEAGLPYGA_TAPAICHDGKAHFPREGVF_VKDCVVLHSYFTSDYYQLY_VTQQLIRAAEIRASANLAA'
p32
g3
(g5
S'\xdbD1\xa6\xdfl\xee?'
tRp33
tp34
a.