(lp1
(S'IITLKKRWQLALSKGVHFV_NGGDAALALLLLDRLNQLE'
p2
cnumpy.core.multiarray
scalar
p3
(cnumpy
dtype
p4
(S'f8'
I0
I1
tRp5
(I3
S'<'
NNNI-1
I-1
I0
tbS'\xd7\x16&\x1d\xee\xc4\xec?'
tRp6
tp7
a(S'GAGAALQIPFAMQMAYRFN_TITSGWTFGAGAALQIPFA'
p8
g3
(g5
S'\\\\}&\x1f\x9e\xec?'
tRp9
tp10
a(S'IITLKKRWQLALSKGVHFV_VKDCVVLHSYFTSDYYQLY'
p11
g3
(g5
S'\x05\x9d/\xc7p\x9c\xec?'
tRp12
tp13
a(S'LPIGINITRFQTLLALHRS_TITSGWTFGAGAALQIPFA'
p14
g3
(g5
S"\xa3'\xde\xddo\x91\xec?"
tRp15
tp16
a(S'GAGAALQIPFAMQMAYRFN_IITLKKRWQLALSKGVHFV'
p17
g3
(g5
S'\xa8\x01\xc3\x11\x80w\xec?'
tRp18
tp19
a(S'IITLKKRWQLALSKGVHFV_TRGVYYPDKVFRSSVLHST'
p20
g3
(g5
S'\xb5h:\xdd\xe5u\xec?'
tRp21
tp22
a(S'IITLKKRWQLALSKGVHFV_SYFTSDYYQLYSTQLSTDT'
p23
g3
(g5
S'\x93\xb8:f\xe1u\xec?'
tRp24
tp25
a(S'TITSGWTFGAGAALQIPFA_VEAEVQIDRLITGRLQSLQ'
p26
g3
(g5
S'\x10\xb0AW\xca!\xec?'
tRp27
tp28
a(S'IITLKKRWQLALSKGVHFV_PKEITVATSRTLSYYKLGA'
p29
g3
(g5
S'L\x81\xf4\xe2[\x1c\xec?'
tRp30
tp31
a(S'IITLKKRWQLALSKGVHFV_VEAEVQIDRLITGRLQSLQ'
p32
g3
(g5
S'\x01\x81\xf4\xe2[\x1c\xec?'
tRp33
tp34
a.