(lp1
(S'AVFQSASKIITLKKRWQLA_DQVILLNKHIDAYKTFPPT_ENQKLIANQFNSAIGKIQD_FNPETNILLNVPLHGTILT_GAGAALQIPFAMQMAYRFN_GAISSVLNDILSRLDKVEA_HQPYVVDDPCPIHFYSKWYI_IITLKKRWQLALSKGVHFV_KVFRSSVLHSTQDLFLPFF_LICAQKFNGLTVLPPLLTD_LPIGINITRFQTLLALHRS_MDLFMRIFTIGTVTLKQGE_NATRFASVYAWNRKRISNC_NGGDAALALLLLDRLNQLE_PKEITVATSRTLSYYKLGA_PSDFVRATATIPIQASLPF_PSKRSFIEDLLFNKVTLAD_RWYFYYLGTGPEAGLPYGA_SRTLSYYKLGASQRVAGDS_SYFTSDYYQLYSTQLSTDT_TAPAICHDGKAHFPREGVF_TITSGWTFGAGAALQIPFA_TRGVYYPDKVFRSSVLHST_TYTGAIKLDDKDPNFKDQV_VEAEVQIDRLITGRLQSLQ_VKDCVVLHSYFTSDYYQLY_VRDLPQGFSALEPLVDLPI_VTQQLIRAAEIRASANLAA'
p2
cnumpy.core.multiarray
scalar
p3
(cnumpy
dtype
p4
(S'f8'
I0
I1
tRp5
(I3
S'<'
NNNI-1
I-1
I0
tbS'%\x9c\x03\\\xdf9\xeb?'
tRp6
tp7
a(S'DQVILLNKHIDAYKTFPPT_ENQKLIANQFNSAIGKIQD_FNPETNILLNVPLHGTILT_GAGAALQIPFAMQMAYRFN_GAISSVLNDILSRLDKVEA_HQPYVVDDPCPIHFYSKWYI_IITLKKRWQLALSKGVHFV_KVFRSSVLHSTQDLFLPFF_LICAQKFNGLTVLPPLLTD_LPIGINITRFQTLLALHRS_MDLFMRIFTIGTVTLKQGE_NATRFASVYAWNRKRISNC_NGGDAALALLLLDRLNQLE_PKEITVATSRTLSYYKLGA_PSDFVRATATIPIQASLPF_PSKRSFIEDLLFNKVTLAD_QTNSPRRARSVASQSIIAY_RWYFYYLGTGPEAGLPYGA_SRTLSYYKLGASQRVAGDS_SYFTSDYYQLYSTQLSTDT_TAPAICHDGKAHFPREGVF_TITSGWTFGAGAALQIPFA_TRGVYYPDKVFRSSVLHST_TYTGAIKLDDKDPNFKDQV_VEAEVQIDRLITGRLQSLQ_VKDCVVLHSYFTSDYYQLY_VRDLPQGFSALEPLVDLPI_VTQQLIRAAEIRASANLAA'
p8
g3
(g5
S'\xfc\x9fyw:4\xeb?'
tRp9
tp10
a(S'AVFQSASKIITLKKRWQLA_DQVILLNKHIDAYKTFPPT_ENQKLIANQFNSAIGKIQD_FNPETNILLNVPLHGTILT_GAGAALQIPFAMQMAYRFN_GAISSVLNDILSRLDKVEA_HQPYVVDDPCPIHFYSKWYI_IITLKKRWQLALSKGVHFV_KVFRSSVLHSTQDLFLPFF_LPIGINITRFQTLLALHRS_MDLFMRIFTIGTVTLKQGE_NATRFASVYAWNRKRISNC_NGGDAALALLLLDRLNQLE_PKEITVATSRTLSYYKLGA_PSDFVRATATIPIQASLPF_PSKRSFIEDLLFNKVTLAD_RWYFYYLGTGPEAGLPYGA_SRTLSYYKLGASQRVAGDS_SYFTSDYYQLYSTQLSTDT_TAPAICHDGKAHFPREGVF_TITSGWTFGAGAALQIPFA_TRGVYYPDKVFRSSVLHST_TYTGAIKLDDKDPNFKDQV_VEAEVQIDRLITGRLQSLQ_VKDCVVLHSYFTSDYYQLY_VKQLSSNFGAISSVLNDIL_VRDLPQGFSALEPLVDLPI_VTQQLIRAAEIRASANLAA'
p11
g3
(g5
S'\xcd\xe0\n\xa1\xb2\x1c\xeb?'
tRp12
tp13
a(S'DQVILLNKHIDAYKTFPPT_ENQKLIANQFNSAIGKIQD_FNPETNILLNVPLHGTILT_GAGAALQIPFAMQMAYRFN_GAISSVLNDILSRLDKVEA_HQPYVVDDPCPIHFYSKWYI_IITLKKRWQLALSKGVHFV_KVFRSSVLHSTQDLFLPFF_LPIGINITRFQTLLALHRS_MDLFMRIFTIGTVTLKQGE_NATRFASVYAWNRKRISNC_NGGDAALALLLLDRLNQLE_PKEITVATSRTLSYYKLGA_PSDFVRATATIPIQASLPF_PSKRSFIEDLLFNKVTLAD_QTNSPRRARSVASQSIIAY_RWYFYYLGTGPEAGLPYGA_SRTLSYYKLGASQRVAGDS_SYFTSDYYQLYSTQLSTDT_TAPAICHDGKAHFPREGVF_TITSGWTFGAGAALQIPFA_TRGVYYPDKVFRSSVLHST_TYTGAIKLDDKDPNFKDQV_VEAEVQIDRLITGRLQSLQ_VKDCVVLHSYFTSDYYQLY_VKQLSSNFGAISSVLNDIL_VRDLPQGFSALEPLVDLPI_VTQQLIRAAEIRASANLAA'
p14
g3
(g5
S'\xa3\x94\xf5\x16\xf1\x16\xeb?'
tRp15
tp16
a(S'AVFQSASKIITLKKRWQLA_DQVILLNKHIDAYKTFPPT_ENQKLIANQFNSAIGKIQD_FNPETNILLNVPLHGTILT_GAGAALQIPFAMQMAYRFN_GAISSVLNDILSRLDKVEA_HQPYVVDDPCPIHFYSKWYI_IITLKKRWQLALSKGVHFV_KVFRSSVLHSTQDLFLPFF_LPIGINITRFQTLLALHRS_MDLFMRIFTIGTVTLKQGE_NATRFASVYAWNRKRISNC_NGGDAALALLLLDRLNQLE_PKEITVATSRTLSYYKLGA_PSDFVRATATIPIQASLPF_PSKRSFIEDLLFNKVTLAD_QTNSPRRARSVASQSIIAY_RWYFYYLGTGPEAGLPYGA_SRTLSYYKLGASQRVAGDS_SYFTSDYYQLYSTQLSTDT_TAPAICHDGKAHFPREGVF_TITSGWTFGAGAALQIPFA_TRGVYYPDKVFRSSVLHST_TYTGAIKLDDKDPNFKDQV_VEAEVQIDRLITGRLQSLQ_VKDCVVLHSYFTSDYYQLY_VRDLPQGFSALEPLVDLPI_VTQQLIRAAEIRASANLAA'
p17
g3
(g5
S'\x98\x90\xe4\x90\xe7\x0f\xeb?'
tRp18
tp19
a(S'AVFQSASKIITLKKRWQLA_DQVILLNKHIDAYKTFPPT_ENQKLIANQFNSAIGKIQD_FCTQLNRALTGIAVEQDKN_FNPETNILLNVPLHGTILT_GAGAALQIPFAMQMAYRFN_GAISSVLNDILSRLDKVEA_HQPYVVDDPCPIHFYSKWYI_IITLKKRWQLALSKGVHFV_KVFRSSVLHSTQDLFLPFF_LPIGINITRFQTLLALHRS_MDLFMRIFTIGTVTLKQGE_NATRFASVYAWNRKRISNC_NGGDAALALLLLDRLNQLE_PKEITVATSRTLSYYKLGA_PSDFVRATATIPIQASLPF_PSKRSFIEDLLFNKVTLAD_RWYFYYLGTGPEAGLPYGA_SRTLSYYKLGASQRVAGDS_SYFTSDYYQLYSTQLSTDT_TAPAICHDGKAHFPREGVF_TITSGWTFGAGAALQIPFA_TRGVYYPDKVFRSSVLHST_TYTGAIKLDDKDPNFKDQV_VEAEVQIDRLITGRLQSLQ_VKDCVVLHSYFTSDYYQLY_VRDLPQGFSALEPLVDLPI_VTQQLIRAAEIRASANLAA'
p20
g3
(g5
S'`N\xf5\\\xcd\x0f\xeb?'
tRp21
tp22
a(S'DQVILLNKHIDAYKTFPPT_ENQKLIANQFNSAIGKIQD_FCTQLNRALTGIAVEQDKN_FNPETNILLNVPLHGTILT_GAGAALQIPFAMQMAYRFN_GAISSVLNDILSRLDKVEA_HQPYVVDDPCPIHFYSKWYI_IITLKKRWQLALSKGVHFV_KVFRSSVLHSTQDLFLPFF_LPIGINITRFQTLLALHRS_MDLFMRIFTIGTVTLKQGE_NATRFASVYAWNRKRISNC_NGGDAALALLLLDRLNQLE_PKEITVATSRTLSYYKLGA_PSDFVRATATIPIQASLPF_PSKRSFIEDLLFNKVTLAD_QTNSPRRARSVASQSIIAY_RWYFYYLGTGPEAGLPYGA_SRTLSYYKLGASQRVAGDS_SYFTSDYYQLYSTQLSTDT_TAPAICHDGKAHFPREGVF_TITSGWTFGAGAALQIPFA_TRGVYYPDKVFRSSVLHST_TYTGAIKLDDKDPNFKDQV_VEAEVQIDRLITGRLQSLQ_VKDCVVLHSYFTSDYYQLY_VRDLPQGFSALEPLVDLPI_VTQQLIRAAEIRASANLAA'
p23
g3
(g5
S'\xe50\x9ap\xa4\n\xeb?'
tRp24
tp25
a(S'AEIRASANLAATKMSECVL_AVFQSASKIITLKKRWQLA_DQVILLNKHIDAYKTFPPT_ENQKLIANQFNSAIGKIQD_FNPETNILLNVPLHGTILT_GAGAALQIPFAMQMAYRFN_GAISSVLNDILSRLDKVEA_HQPYVVDDPCPIHFYSKWYI_IITLKKRWQLALSKGVHFV_KVFRSSVLHSTQDLFLPFF_LPIGINITRFQTLLALHRS_MDLFMRIFTIGTVTLKQGE_NATRFASVYAWNRKRISNC_NGGDAALALLLLDRLNQLE_PKEITVATSRTLSYYKLGA_PSDFVRATATIPIQASLPF_PSKRSFIEDLLFNKVTLAD_RWYFYYLGTGPEAGLPYGA_SRTLSYYKLGASQRVAGDS_SYFTSDYYQLYSTQLSTDT_TAPAICHDGKAHFPREGVF_TITSGWTFGAGAALQIPFA_TRGVYYPDKVFRSSVLHST_TYTGAIKLDDKDPNFKDQV_VEAEVQIDRLITGRLQSLQ_VKDCVVLHSYFTSDYYQLY_VRDLPQGFSALEPLVDLPI_VTQQLIRAAEIRASANLAA'
p26
g3
(g5
S'\x93\xb40\x01\x08\x08\xeb?'
tRp27
tp28
a(S'AVFQSASKIITLKKRWQLA_DQVILLNKHIDAYKTFPPT_ENQKLIANQFNSAIGKIQD_FNPETNILLNVPLHGTILT_GAGAALQIPFAMQMAYRFN_GAISSVLNDILSRLDKVEA_HQPYVVDDPCPIHFYSKWYI_IITLKKRWQLALSKGVHFV_KVFRSSVLHSTQDLFLPFF_LPIGINITRFQTLLALHRS_MDLFMRIFTIGTVTLKQGE_NATRFASVYAWNRKRISNC_NGGDAALALLLLDRLNQLE_PKEITVATSRTLSYYKLGA_PSDFVRATATIPIQASLPF_PSKRSFIEDLLFNKVTLAD_RWYFYYLGTGPEAGLPYGA_SNCVADYSVLYNSASFSTF_SRTLSYYKLGASQRVAGDS_SYFTSDYYQLYSTQLSTDT_TAPAICHDGKAHFPREGVF_TITSGWTFGAGAALQIPFA_TRGVYYPDKVFRSSVLHST_TYTGAIKLDDKDPNFKDQV_VEAEVQIDRLITGRLQSLQ_VKDCVVLHSYFTSDYYQLY_VRDLPQGFSALEPLVDLPI_VTQQLIRAAEIRASANLAA'
p29
g3
(g5
S'\xfdf\xedR\xb0\x07\xeb?'
tRp30
tp31
a(S'AVFQSASKIITLKKRWQLA_DQVILLNKHIDAYKTFPPT_ENQKLIANQFNSAIGKIQD_FNPETNILLNVPLHGTILT_GAGAALQIPFAMQMAYRFN_GAISSVLNDILSRLDKVEA_HQPYVVDDPCPIHFYSKWYI_IITLKKRWQLALSKGVHFV_KVFRSSVLHSTQDLFLPFF_LPIGINITRFQTLLALHRS_MDLFMRIFTIGTVTLKQGE_NATRFASVYAWNRKRISNC_NGGDAALALLLLDRLNQLE_PKEITVATSRTLSYYKLGA_PSDFVRATATIPIQASLPF_PSKRSFIEDLLFNKVTLAD_RWYFYYLGTGPEAGLPYGA_SELVIGAVILRGHLRIAGH_SRTLSYYKLGASQRVAGDS_SYFTSDYYQLYSTQLSTDT_TAPAICHDGKAHFPREGVF_TITSGWTFGAGAALQIPFA_TRGVYYPDKVFRSSVLHST_TYTGAIKLDDKDPNFKDQV_VEAEVQIDRLITGRLQSLQ_VKDCVVLHSYFTSDYYQLY_VRDLPQGFSALEPLVDLPI_VTQQLIRAAEIRASANLAA'
p32
g3
(g5
S'@\x0f\xe0:f\x07\xeb?'
tRp33
tp34
a.