(lp1
(S'LPIGINITRFQTLLALHRS'
p2
cnumpy.core.multiarray
scalar
p3
(cnumpy
dtype
p4
(S'f8'
I0
I1
tRp5
(I3
S'<'
NNNI-1
I-1
I0
tbS'\xeb\xaf\xa4\x13s\xa5\xea?'
tRp6
tp7
a(S'IITLKKRWQLALSKGVHFV'
p8
g3
(g5
S'\xbb\xa3\xe3T\xc8\r\xea?'
tRp9
tp10
a(S'GAGAALQIPFAMQMAYRFN'
p11
g3
(g5
S'\x04\xafMf0\xdc\xe9?'
tRp12
tp13
a(S'TRGVYYPDKVFRSSVLHST'
p14
g3
(g5
S'\xe8\t\xefE\xe9y\xe9?'
tRp15
tp16
a(S'YNYLYRLFRKSNLKPFERD'
p17
g3
(g5
S'[\x96\xd4T\xaf\xce\xe8?'
tRp18
tp19
a(S'VEAEVQIDRLITGRLQSLQ'
p20
g3
(g5
S'\x1f\rZ\x0fO\xbc\xe8?'
tRp21
tp22
a(S'PKEITVATSRTLSYYKLGA'
p23
g3
(g5
S'k\xaa2a\xfc\xb0\xe8?'
tRp24
tp25
a(S'GNFKNLREFVFKNIDGYFK'
p26
g3
(g5
S'Uw9z\x83\x96\xe8?'
tRp27
tp28
a(S'LICAQKFNGLTVLPPLLTD'
p29
g3
(g5
S'\xec.\xa8^\xf0k\xe8?'
tRp30
tp31
a(S'LDSKVGGNYNYLYRLFRKS'
p32
g3
(g5
S'\xb1\x9d\xe39Ji\xe8?'
tRp33
tp34
a.