(lp1
(S'ENQKLIANQFNSAIGKIQD_GAGAALQIPFAMQMAYRFN_IITLKKRWQLALSKGVHFV_NGGDAALALLLLDRLNQLE_PKEITVATSRTLSYYKLGA_PSDFVRATATIPIQASLPF_PSKRSFIEDLLFNKVTLAD_RWYFYYLGTGPEAGLPYGA_SRTLSYYKLGASQRVAGDS_TAPAICHDGKAHFPREGVF_TITSGWTFGAGAALQIPFA_TRGVYYPDKVFRSSVLHST_TYTGAIKLDDKDPNFKDQV_VKDCVVLHSYFTSDYYQLY_VTQQLIRAAEIRASANLAA'
p2
cnumpy.core.multiarray
scalar
p3
(cnumpy
dtype
p4
(S'f8'
I0
I1
tRp5
(I3
S'<'
NNNI-1
I-1
I0
tbS'\x8d\xcdb\xbd\x02c\xeb?'
tRp6
tp7
a(S'ENQKLIANQFNSAIGKIQD_GAGAALQIPFAMQMAYRFN_HQPYVVDDPCPIHFYSKWYI_IITLKKRWQLALSKGVHFV_NGGDAALALLLLDRLNQLE_PKEITVATSRTLSYYKLGA_PSDFVRATATIPIQASLPF_PSKRSFIEDLLFNKVTLAD_RWYFYYLGTGPEAGLPYGA_SRTLSYYKLGASQRVAGDS_TITSGWTFGAGAALQIPFA_TRGVYYPDKVFRSSVLHST_TYTGAIKLDDKDPNFKDQV_VKDCVVLHSYFTSDYYQLY_VTQQLIRAAEIRASANLAA'
p8
g3
(g5
S'\x8d\xcdb\xbd\x02c\xeb?'
tRp9
tp10
a(S'ENQKLIANQFNSAIGKIQD_GAGAALQIPFAMQMAYRFN_HQPYVVDDPCPIHFYSKWYI_IITLKKRWQLALSKGVHFV_NGGDAALALLLLDRLNQLE_PKEITVATSRTLSYYKLGA_PSDFVRATATIPIQASLPF_PSKRSFIEDLLFNKVTLAD_RWYFYYLGTGPEAGLPYGA_SRTLSYYKLGASQRVAGDS_TAPAICHDGKAHFPREGVF_TITSGWTFGAGAALQIPFA_TRGVYYPDKVFRSSVLHST_VKDCVVLHSYFTSDYYQLY_VTQQLIRAAEIRASANLAA'
p11
g3
(g5
S'\x8d\xcdb\xbd\x02c\xeb?'
tRp12
tp13
a(S'ENQKLIANQFNSAIGKIQD_GAGAALQIPFAMQMAYRFN_GAISSVLNDILSRLDKVEA_IITLKKRWQLALSKGVHFV_NGGDAALALLLLDRLNQLE_PKEITVATSRTLSYYKLGA_PSDFVRATATIPIQASLPF_PSKRSFIEDLLFNKVTLAD_RWYFYYLGTGPEAGLPYGA_SRTLSYYKLGASQRVAGDS_TITSGWTFGAGAALQIPFA_TRGVYYPDKVFRSSVLHST_VEAEVQIDRLITGRLQSLQ_VKDCVVLHSYFTSDYYQLY_VTQQLIRAAEIRASANLAA'
p14
g3
(g5
S'\x87\xcdb\xbd\x02c\xeb?'
tRp15
tp16
a(S'ENQKLIANQFNSAIGKIQD_GAGAALQIPFAMQMAYRFN_GAISSVLNDILSRLDKVEA_IITLKKRWQLALSKGVHFV_NGGDAALALLLLDRLNQLE_PKEITVATSRTLSYYKLGA_PSDFVRATATIPIQASLPF_PSKRSFIEDLLFNKVTLAD_RWYFYYLGTGPEAGLPYGA_SRTLSYYKLGASQRVAGDS_TITSGWTFGAGAALQIPFA_TRGVYYPDKVFRSSVLHST_TYTGAIKLDDKDPNFKDQV_VKDCVVLHSYFTSDYYQLY_VTQQLIRAAEIRASANLAA'
p17
g3
(g5
S'\x85\xcdb\xbd\x02c\xeb?'
tRp18
tp19
a(S'ENQKLIANQFNSAIGKIQD_GAGAALQIPFAMQMAYRFN_GAISSVLNDILSRLDKVEA_IITLKKRWQLALSKGVHFV_NGGDAALALLLLDRLNQLE_PKEITVATSRTLSYYKLGA_PSDFVRATATIPIQASLPF_PSKRSFIEDLLFNKVTLAD_RWYFYYLGTGPEAGLPYGA_SRTLSYYKLGASQRVAGDS_TAPAICHDGKAHFPREGVF_TITSGWTFGAGAALQIPFA_TRGVYYPDKVFRSSVLHST_VKDCVVLHSYFTSDYYQLY_VTQQLIRAAEIRASANLAA'
p20
g3
(g5
S'\x85\xcdb\xbd\x02c\xeb?'
tRp21
tp22
a(S'ENQKLIANQFNSAIGKIQD_GAGAALQIPFAMQMAYRFN_GAISSVLNDILSRLDKVEA_HQPYVVDDPCPIHFYSKWYI_IITLKKRWQLALSKGVHFV_NGGDAALALLLLDRLNQLE_PKEITVATSRTLSYYKLGA_PSDFVRATATIPIQASLPF_PSKRSFIEDLLFNKVTLAD_RWYFYYLGTGPEAGLPYGA_SRTLSYYKLGASQRVAGDS_TITSGWTFGAGAALQIPFA_TRGVYYPDKVFRSSVLHST_VKDCVVLHSYFTSDYYQLY_VTQQLIRAAEIRASANLAA'
p23
g3
(g5
S'\x83\xcdb\xbd\x02c\xeb?'
tRp24
tp25
a(S'ENQKLIANQFNSAIGKIQD_GAGAALQIPFAMQMAYRFN_IITLKKRWQLALSKGVHFV_NGGDAALALLLLDRLNQLE_PKEITVATSRTLSYYKLGA_PSDFVRATATIPIQASLPF_PSKRSFIEDLLFNKVTLAD_RWYFYYLGTGPEAGLPYGA_SRTLSYYKLGASQRVAGDS_TITSGWTFGAGAALQIPFA_TRGVYYPDKVFRSSVLHST_TYTGAIKLDDKDPNFKDQV_VEAEVQIDRLITGRLQSLQ_VKDCVVLHSYFTSDYYQLY_VTQQLIRAAEIRASANLAA'
p26
g3
(g5
S'\x80\xcdb\xbd\x02c\xeb?'
tRp27
tp28
a(S'ENQKLIANQFNSAIGKIQD_GAGAALQIPFAMQMAYRFN_IITLKKRWQLALSKGVHFV_NGGDAALALLLLDRLNQLE_PKEITVATSRTLSYYKLGA_PSDFVRATATIPIQASLPF_PSKRSFIEDLLFNKVTLAD_RWYFYYLGTGPEAGLPYGA_SRTLSYYKLGASQRVAGDS_TAPAICHDGKAHFPREGVF_TITSGWTFGAGAALQIPFA_TRGVYYPDKVFRSSVLHST_VEAEVQIDRLITGRLQSLQ_VKDCVVLHSYFTSDYYQLY_VTQQLIRAAEIRASANLAA'
p29
g3
(g5
S'\x80\xcdb\xbd\x02c\xeb?'
tRp30
tp31
a(S'ENQKLIANQFNSAIGKIQD_GAGAALQIPFAMQMAYRFN_HQPYVVDDPCPIHFYSKWYI_IITLKKRWQLALSKGVHFV_NGGDAALALLLLDRLNQLE_PKEITVATSRTLSYYKLGA_PSDFVRATATIPIQASLPF_PSKRSFIEDLLFNKVTLAD_RWYFYYLGTGPEAGLPYGA_SRTLSYYKLGASQRVAGDS_TITSGWTFGAGAALQIPFA_TRGVYYPDKVFRSSVLHST_VEAEVQIDRLITGRLQSLQ_VKDCVVLHSYFTSDYYQLY_VTQQLIRAAEIRASANLAA'
p32
g3
(g5
S'\x7f\xcdb\xbd\x02c\xeb?'
tRp33
tp34
a.