(lp1
(S'IITLKKRWQLALSKGVHFV_NGGDAALALLLLDRLNQLE_RWYFYYLGTGPEAGLPYGA_TITSGWTFGAGAALQIPFA_TRGVYYPDKVFRSSVLHST_VKDCVVLHSYFTSDYYQLY_VTQQLIRAAEIRASANLAA'
p2
cnumpy.core.multiarray
scalar
p3
(cnumpy
dtype
p4
(S'f8'
I0
I1
tRp5
(I3
S'<'
NNNI-1
I-1
I0
tbS'\\EU\xd2hQ\xed?'
tRp6
tp7
a(S'GAGAALQIPFAMQMAYRFN_IITLKKRWQLALSKGVHFV_NGGDAALALLLLDRLNQLE_RWYFYYLGTGPEAGLPYGA_TITSGWTFGAGAALQIPFA_TRGVYYPDKVFRSSVLHST_VTQQLIRAAEIRASANLAA'
p8
g3
(g5
S'\r+\x9b`\xc3K\xed?'
tRp9
tp10
a(S'IITLKKRWQLALSKGVHFV_NGGDAALALLLLDRLNQLE_RWYFYYLGTGPEAGLPYGA_SYFTSDYYQLYSTQLSTDT_TITSGWTFGAGAALQIPFA_TRGVYYPDKVFRSSVLHST_VTQQLIRAAEIRASANLAA'
p11
g3
(g5
S'\xa9\xa4\xe2\x81aJ\xed?'
tRp12
tp13
a(S'IITLKKRWQLALSKGVHFV_NGGDAALALLLLDRLNQLE_RWYFYYLGTGPEAGLPYGA_TITSGWTFGAGAALQIPFA_TYTGAIKLDDKDPNFKDQV_VKDCVVLHSYFTSDYYQLY_VTQQLIRAAEIRASANLAA'
p14
g3
(g5
S'\xad\xf4\x03I=A\xed?'
tRp15
tp16
a(S'IITLKKRWQLALSKGVHFV_NGGDAALALLLLDRLNQLE_RWYFYYLGTGPEAGLPYGA_TAPAICHDGKAHFPREGVF_TITSGWTFGAGAALQIPFA_VKDCVVLHSYFTSDYYQLY_VTQQLIRAAEIRASANLAA'
p17
g15
tp18
a(S'HQPYVVDDPCPIHFYSKWYI_IITLKKRWQLALSKGVHFV_NGGDAALALLLLDRLNQLE_RWYFYYLGTGPEAGLPYGA_TITSGWTFGAGAALQIPFA_VKDCVVLHSYFTSDYYQLY_VTQQLIRAAEIRASANLAA'
p19
g3
(g5
S'\xa9\xf4\x03I=A\xed?'
tRp20
tp21
a(S'GAISSVLNDILSRLDKVEA_IITLKKRWQLALSKGVHFV_NGGDAALALLLLDRLNQLE_RWYFYYLGTGPEAGLPYGA_TITSGWTFGAGAALQIPFA_VKDCVVLHSYFTSDYYQLY_VTQQLIRAAEIRASANLAA'
p22
g3
(g5
S'\xa5\xf4\x03I=A\xed?'
tRp23
tp24
a(S'IITLKKRWQLALSKGVHFV_NGGDAALALLLLDRLNQLE_RWYFYYLGTGPEAGLPYGA_TITSGWTFGAGAALQIPFA_VEAEVQIDRLITGRLQSLQ_VKDCVVLHSYFTSDYYQLY_VTQQLIRAAEIRASANLAA'
p25
g3
(g5
S'\x9f\xf4\x03I=A\xed?'
tRp26
tp27
a(S'IITLKKRWQLALSKGVHFV_NGGDAALALLLLDRLNQLE_PKEITVATSRTLSYYKLGA_RWYFYYLGTGPEAGLPYGA_TITSGWTFGAGAALQIPFA_VKDCVVLHSYFTSDYYQLY_VTQQLIRAAEIRASANLAA'
p28
g3
(g5
S'\x9b\xf4\x03I=A\xed?'
tRp29
tp30
a(S'IITLKKRWQLALSKGVHFV_KVFRSSVLHSTQDLFLPFF_NGGDAALALLLLDRLNQLE_RWYFYYLGTGPEAGLPYGA_TITSGWTFGAGAALQIPFA_TRGVYYPDKVFRSSVLHST_VTQQLIRAAEIRASANLAA'
p31
g3
(g5
S'\xabQ\xd7\xb9?4\xed?'
tRp32
tp33
a.