(lp1
(S'IITLKKRWQLALSKGVHFV_NGGDAALALLLLDRLNQLE_PSDFVRATATIPIQASLPF_RWYFYYLGTGPEAGLPYGA_TITSGWTFGAGAALQIPFA_TRGVYYPDKVFRSSVLHST_VKDCVVLHSYFTSDYYQLY_VTQQLIRAAEIRASANLAA'
p2
cnumpy.core.multiarray
scalar
p3
(cnumpy
dtype
p4
(S'f8'
I0
I1
tRp5
(I3
S'<'
NNNI-1
I-1
I0
tbS'\xbb\xc8\xd1\xfd\xbf\xe6\xeb?'
tRp6
tp7
a(S'GAGAALQIPFAMQMAYRFN_IITLKKRWQLALSKGVHFV_NGGDAALALLLLDRLNQLE_PSDFVRATATIPIQASLPF_RWYFYYLGTGPEAGLPYGA_TITSGWTFGAGAALQIPFA_TRGVYYPDKVFRSSVLHST_VTQQLIRAAEIRASANLAA'
p8
g3
(g5
S'%\xd6\\PR\xd1\xeb?'
tRp9
tp10
a(S'IITLKKRWQLALSKGVHFV_NGGDAALALLLLDRLNQLE_PSDFVRATATIPIQASLPF_RWYFYYLGTGPEAGLPYGA_SYFTSDYYQLYSTQLSTDT_TITSGWTFGAGAALQIPFA_TRGVYYPDKVFRSSVLHST_VTQQLIRAAEIRASANLAA'
p11
g3
(g5
S'+\xecO\xb7:\xd1\xeb?'
tRp12
tp13
a(S'IITLKKRWQLALSKGVHFV_NGGDAALALLLLDRLNQLE_RWYFYYLGTGPEAGLPYGA_SRTLSYYKLGASQRVAGDS_TITSGWTFGAGAALQIPFA_TRGVYYPDKVFRSSVLHST_VKDCVVLHSYFTSDYYQLY_VTQQLIRAAEIRASANLAA'
p14
g3
(g5
S'\x95\x81\xa0dq\xcb\xeb?'
tRp15
tp16
a(S'GAGAALQIPFAMQMAYRFN_IITLKKRWQLALSKGVHFV_NGGDAALALLLLDRLNQLE_RWYFYYLGTGPEAGLPYGA_SRTLSYYKLGASQRVAGDS_TITSGWTFGAGAALQIPFA_TRGVYYPDKVFRSSVLHST_VTQQLIRAAEIRASANLAA'
p17
g3
(g5
S'\xe88\xd0a\x93\xb5\xeb?'
tRp18
tp19
a(S'IITLKKRWQLALSKGVHFV_NGGDAALALLLLDRLNQLE_RWYFYYLGTGPEAGLPYGA_SRTLSYYKLGASQRVAGDS_SYFTSDYYQLYSTQLSTDT_TITSGWTFGAGAALQIPFA_TRGVYYPDKVFRSSVLHST_VTQQLIRAAEIRASANLAA'
p20
g3
(g5
S'\xed\xe5gg\x18\xb5\xeb?'
tRp21
tp22
a(S'IITLKKRWQLALSKGVHFV_NGGDAALALLLLDRLNQLE_PSDFVRATATIPIQASLPF_RWYFYYLGTGPEAGLPYGA_TITSGWTFGAGAALQIPFA_VEAEVQIDRLITGRLQSLQ_VKDCVVLHSYFTSDYYQLY_VTQQLIRAAEIRASANLAA'
p23
g3
(g5
S'\xc3\xf4\xd6]S\xa4\xeb?'
tRp24
tp25
a(S'IITLKKRWQLALSKGVHFV_NGGDAALALLLLDRLNQLE_RWYFYYLGTGPEAGLPYGA_SRTLSYYKLGASQRVAGDS_TITSGWTFGAGAALQIPFA_VEAEVQIDRLITGRLQSLQ_VKDCVVLHSYFTSDYYQLY_VTQQLIRAAEIRASANLAA'
p26
g3
(g5
S'X\x82Q\xab\xce\x9a\xeb?'
tRp27
tp28
a(S'IITLKKRWQLALSKGVHFV_NGGDAALALLLLDRLNQLE_RWYFYYLGTGPEAGLPYGA_TITSGWTFGAGAALQIPFA_TRGVYYPDKVFRSSVLHST_TYTGAIKLDDKDPNFKDQV_VKDCVVLHSYFTSDYYQLY_VTQQLIRAAEIRASANLAA'
p29
g3
(g5
S'%L\xd9d\x17\x8c\xeb?'
tRp30
tp31
a(S'IITLKKRWQLALSKGVHFV_NGGDAALALLLLDRLNQLE_RWYFYYLGTGPEAGLPYGA_TAPAICHDGKAHFPREGVF_TITSGWTFGAGAALQIPFA_TRGVYYPDKVFRSSVLHST_VKDCVVLHSYFTSDYYQLY_VTQQLIRAAEIRASANLAA'
p32
g30
tp33
a.