(lp1
(S'IITLKKRWQLALSKGVHFV_NGGDAALALLLLDRLNQLE_RWYFYYLGTGPEAGLPYGA_TITSGWTFGAGAALQIPFA_VKDCVVLHSYFTSDYYQLY_VTQQLIRAAEIRASANLAA'
p2
cnumpy.core.multiarray
scalar
p3
(cnumpy
dtype
p4
(S'f8'
I0
I1
tRp5
(I3
S'<'
NNNI-1
I-1
I0
tbS'\x0cn\xf3\x94\xc3\xb7\xec?'
tRp6
tp7
a(S'IITLKKRWQLALSKGVHFV_RWYFYYLGTGPEAGLPYGA_TITSGWTFGAGAALQIPFA_TRGVYYPDKVFRSSVLHST_VKDCVVLHSYFTSDYYQLY_VTQQLIRAAEIRASANLAA'
p8
g3
(g5
S'\x90Z\x12f \xae\xec?'
tRp9
tp10
a(S'GAGAALQIPFAMQMAYRFN_IITLKKRWQLALSKGVHFV_RWYFYYLGTGPEAGLPYGA_TITSGWTFGAGAALQIPFA_TRGVYYPDKVFRSSVLHST_VTQQLIRAAEIRASANLAA'
p11
g3
(g5
S'\x83\x89\x94\xa3\xa4\x9e\xec?'
tRp12
tp13
a(S'IITLKKRWQLALSKGVHFV_RWYFYYLGTGPEAGLPYGA_SYFTSDYYQLYSTQLSTDT_TITSGWTFGAGAALQIPFA_TRGVYYPDKVFRSSVLHST_VTQQLIRAAEIRASANLAA'
p14
g3
(g5
S'KG@\x17\x9b\x9d\xec?'
tRp15
tp16
a(S'IITLKKRWQLALSKGVHFV_KVFRSSVLHSTQDLFLPFF_NGGDAALALLLLDRLNQLE_RWYFYYLGTGPEAGLPYGA_TITSGWTFGAGAALQIPFA_VTQQLIRAAEIRASANLAA'
p17
g3
(g5
S'\xe8uq\xa3\x11{\xec?'
tRp18
tp19
a(S'IITLKKRWQLALSKGVHFV_RWYFYYLGTGPEAGLPYGA_TITSGWTFGAGAALQIPFA_VEAEVQIDRLITGRLQSLQ_VKDCVVLHSYFTSDYYQLY_VTQQLIRAAEIRASANLAA'
p20
g3
(g5
S'\xf8\xa7\xa1\xf2\x8ez\xec?'
tRp21
tp22
a(S'IITLKKRWQLALSKGVHFV_NGGDAALALLLLDRLNQLE_PSDFVRATATIPIQASLPF_RWYFYYLGTGPEAGLPYGA_VKDCVVLHSYFTSDYYQLY_VTQQLIRAAEIRASANLAA'
p23
g3
(g5
S'1\x0f\xe0\t\xf4u\xec?'
tRp24
tp25
a(S'IITLKKRWQLALSKGVHFV_PSDFVRATATIPIQASLPF_RWYFYYLGTGPEAGLPYGA_TRGVYYPDKVFRSSVLHST_VKDCVVLHSYFTSDYYQLY_VTQQLIRAAEIRASANLAA'
p26
g3
(g5
S'\xb8\xe7\xa1\x1a<l\xec?'
tRp27
tp28
a(S'GAGAALQIPFAMQMAYRFN_IITLKKRWQLALSKGVHFV_PSDFVRATATIPIQASLPF_RWYFYYLGTGPEAGLPYGA_TRGVYYPDKVFRSSVLHST_VTQQLIRAAEIRASANLAA'
p29
g3
(g5
S'\x00\xecF\x98\x96V\xec?'
tRp30
tp31
a(S'IITLKKRWQLALSKGVHFV_PSDFVRATATIPIQASLPF_RWYFYYLGTGPEAGLPYGA_SYFTSDYYQLYSTQLSTDT_TRGVYYPDKVFRSSVLHST_VTQQLIRAAEIRASANLAA'
p32
g3
(g5
S'5DU;\xbbU\xec?'
tRp33
tp34
a.