(lp1
(S'ENQKLIANQFNSAIGKIQD_IITLKKRWQLALSKGVHFV_NGGDAALALLLLDRLNQLE_PKEITVATSRTLSYYKLGA_PSDFVRATATIPIQASLPF_PSKRSFIEDLLFNKVTLAD_RWYFYYLGTGPEAGLPYGA_SRTLSYYKLGASQRVAGDS_TAPAICHDGKAHFPREGVF_TITSGWTFGAGAALQIPFA_TRGVYYPDKVFRSSVLHST_TYTGAIKLDDKDPNFKDQV_VKDCVVLHSYFTSDYYQLY_VTQQLIRAAEIRASANLAA'
p2
cnumpy.core.multiarray
scalar
p3
(cnumpy
dtype
p4
(S'f8'
I0
I1
tRp5
(I3
S'<'
NNNI-1
I-1
I0
tbS'\xcc\xeeo\x84\xf3\x0e\xeb?'
tRp6
tp7
a(S'ENQKLIANQFNSAIGKIQD_HQPYVVDDPCPIHFYSKWYI_IITLKKRWQLALSKGVHFV_NGGDAALALLLLDRLNQLE_PKEITVATSRTLSYYKLGA_PSDFVRATATIPIQASLPF_PSKRSFIEDLLFNKVTLAD_RWYFYYLGTGPEAGLPYGA_SRTLSYYKLGASQRVAGDS_TITSGWTFGAGAALQIPFA_TRGVYYPDKVFRSSVLHST_TYTGAIKLDDKDPNFKDQV_VKDCVVLHSYFTSDYYQLY_VTQQLIRAAEIRASANLAA'
p8
g3
(g5
S'\xcb\xeeo\x84\xf3\x0e\xeb?'
tRp9
tp10
a(S'ENQKLIANQFNSAIGKIQD_HQPYVVDDPCPIHFYSKWYI_IITLKKRWQLALSKGVHFV_NGGDAALALLLLDRLNQLE_PKEITVATSRTLSYYKLGA_PSDFVRATATIPIQASLPF_PSKRSFIEDLLFNKVTLAD_RWYFYYLGTGPEAGLPYGA_SRTLSYYKLGASQRVAGDS_TAPAICHDGKAHFPREGVF_TITSGWTFGAGAALQIPFA_TRGVYYPDKVFRSSVLHST_VKDCVVLHSYFTSDYYQLY_VTQQLIRAAEIRASANLAA'
p11
g3
(g5
S'\xcb\xeeo\x84\xf3\x0e\xeb?'
tRp12
tp13
a(S'ENQKLIANQFNSAIGKIQD_GAISSVLNDILSRLDKVEA_HQPYVVDDPCPIHFYSKWYI_IITLKKRWQLALSKGVHFV_NGGDAALALLLLDRLNQLE_PKEITVATSRTLSYYKLGA_PSDFVRATATIPIQASLPF_PSKRSFIEDLLFNKVTLAD_RWYFYYLGTGPEAGLPYGA_SRTLSYYKLGASQRVAGDS_TITSGWTFGAGAALQIPFA_TRGVYYPDKVFRSSVLHST_VKDCVVLHSYFTSDYYQLY_VTQQLIRAAEIRASANLAA'
p14
g3
(g5
S'\xc9\xeeo\x84\xf3\x0e\xeb?'
tRp15
tp16
a(S'ENQKLIANQFNSAIGKIQD_GAISSVLNDILSRLDKVEA_IITLKKRWQLALSKGVHFV_NGGDAALALLLLDRLNQLE_PKEITVATSRTLSYYKLGA_PSDFVRATATIPIQASLPF_PSKRSFIEDLLFNKVTLAD_RWYFYYLGTGPEAGLPYGA_SRTLSYYKLGASQRVAGDS_TITSGWTFGAGAALQIPFA_TRGVYYPDKVFRSSVLHST_TYTGAIKLDDKDPNFKDQV_VKDCVVLHSYFTSDYYQLY_VTQQLIRAAEIRASANLAA'
p17
g3
(g5
S'\xc8\xeeo\x84\xf3\x0e\xeb?'
tRp18
tp19
a(S'ENQKLIANQFNSAIGKIQD_GAISSVLNDILSRLDKVEA_IITLKKRWQLALSKGVHFV_NGGDAALALLLLDRLNQLE_PKEITVATSRTLSYYKLGA_PSDFVRATATIPIQASLPF_PSKRSFIEDLLFNKVTLAD_RWYFYYLGTGPEAGLPYGA_SRTLSYYKLGASQRVAGDS_TAPAICHDGKAHFPREGVF_TITSGWTFGAGAALQIPFA_TRGVYYPDKVFRSSVLHST_VKDCVVLHSYFTSDYYQLY_VTQQLIRAAEIRASANLAA'
p20
g3
(g5
S'\xc8\xeeo\x84\xf3\x0e\xeb?'
tRp21
tp22
a(S'ENQKLIANQFNSAIGKIQD_GAISSVLNDILSRLDKVEA_IITLKKRWQLALSKGVHFV_NGGDAALALLLLDRLNQLE_PKEITVATSRTLSYYKLGA_PSDFVRATATIPIQASLPF_PSKRSFIEDLLFNKVTLAD_RWYFYYLGTGPEAGLPYGA_SRTLSYYKLGASQRVAGDS_TITSGWTFGAGAALQIPFA_TRGVYYPDKVFRSSVLHST_VEAEVQIDRLITGRLQSLQ_VKDCVVLHSYFTSDYYQLY_VTQQLIRAAEIRASANLAA'
p23
g3
(g5
S'\xbd\xeeo\x84\xf3\x0e\xeb?'
tRp24
tp25
a(S'ENQKLIANQFNSAIGKIQD_IITLKKRWQLALSKGVHFV_NGGDAALALLLLDRLNQLE_PKEITVATSRTLSYYKLGA_PSDFVRATATIPIQASLPF_PSKRSFIEDLLFNKVTLAD_RWYFYYLGTGPEAGLPYGA_SRTLSYYKLGASQRVAGDS_TITSGWTFGAGAALQIPFA_TRGVYYPDKVFRSSVLHST_TYTGAIKLDDKDPNFKDQV_VEAEVQIDRLITGRLQSLQ_VKDCVVLHSYFTSDYYQLY_VTQQLIRAAEIRASANLAA'
p26
g3
(g5
S'\xbb\xeeo\x84\xf3\x0e\xeb?'
tRp27
tp28
a(S'ENQKLIANQFNSAIGKIQD_IITLKKRWQLALSKGVHFV_NGGDAALALLLLDRLNQLE_PKEITVATSRTLSYYKLGA_PSDFVRATATIPIQASLPF_PSKRSFIEDLLFNKVTLAD_RWYFYYLGTGPEAGLPYGA_SRTLSYYKLGASQRVAGDS_TAPAICHDGKAHFPREGVF_TITSGWTFGAGAALQIPFA_TRGVYYPDKVFRSSVLHST_VEAEVQIDRLITGRLQSLQ_VKDCVVLHSYFTSDYYQLY_VTQQLIRAAEIRASANLAA'
p29
g3
(g5
S'\xbb\xeeo\x84\xf3\x0e\xeb?'
tRp30
tp31
a(S'ENQKLIANQFNSAIGKIQD_HQPYVVDDPCPIHFYSKWYI_IITLKKRWQLALSKGVHFV_NGGDAALALLLLDRLNQLE_PKEITVATSRTLSYYKLGA_PSDFVRATATIPIQASLPF_PSKRSFIEDLLFNKVTLAD_RWYFYYLGTGPEAGLPYGA_SRTLSYYKLGASQRVAGDS_TITSGWTFGAGAALQIPFA_TRGVYYPDKVFRSSVLHST_VEAEVQIDRLITGRLQSLQ_VKDCVVLHSYFTSDYYQLY_VTQQLIRAAEIRASANLAA'
p32
g3
(g5
S'\xb7\xeeo\x84\xf3\x0e\xeb?'
tRp33
tp34
a.