(lp1
(S'GAISSVLNDILSRLDKVEA_IITLKKRWQLALSKGVHFV_NGGDAALALLLLDRLNQLE_PSDFVRATATIPIQASLPF_RWYFYYLGTGPEAGLPYGA_TITSGWTFGAGAALQIPFA_TRGVYYPDKVFRSSVLHST_VKDCVVLHSYFTSDYYQLY_VTQQLIRAAEIRASANLAA'
p2
cnumpy.core.multiarray
scalar
p3
(cnumpy
dtype
p4
(S'f8'
I0
I1
tRp5
(I3
S'<'
NNNI-1
I-1
I0
tbS'ud\x8e\x17cl\xec?'
tRp6
tp7
a(S'HQPYVVDDPCPIHFYSKWYI_IITLKKRWQLALSKGVHFV_NGGDAALALLLLDRLNQLE_PSDFVRATATIPIQASLPF_RWYFYYLGTGPEAGLPYGA_TITSGWTFGAGAALQIPFA_TRGVYYPDKVFRSSVLHST_VKDCVVLHSYFTSDYYQLY_VTQQLIRAAEIRASANLAA'
p8
g3
(g5
S'td\x8e\x17cl\xec?'
tRp9
tp10
a(S'IITLKKRWQLALSKGVHFV_NGGDAALALLLLDRLNQLE_PSDFVRATATIPIQASLPF_RWYFYYLGTGPEAGLPYGA_TITSGWTFGAGAALQIPFA_TRGVYYPDKVFRSSVLHST_TYTGAIKLDDKDPNFKDQV_VKDCVVLHSYFTSDYYQLY_VTQQLIRAAEIRASANLAA'
p11
g3
(g5
S'sd\x8e\x17cl\xec?'
tRp12
tp13
a(S'IITLKKRWQLALSKGVHFV_NGGDAALALLLLDRLNQLE_PSDFVRATATIPIQASLPF_RWYFYYLGTGPEAGLPYGA_TAPAICHDGKAHFPREGVF_TITSGWTFGAGAALQIPFA_TRGVYYPDKVFRSSVLHST_VKDCVVLHSYFTSDYYQLY_VTQQLIRAAEIRASANLAA'
p14
g12
tp15
a(S'IITLKKRWQLALSKGVHFV_NGGDAALALLLLDRLNQLE_PKEITVATSRTLSYYKLGA_PSDFVRATATIPIQASLPF_RWYFYYLGTGPEAGLPYGA_TITSGWTFGAGAALQIPFA_TRGVYYPDKVFRSSVLHST_VKDCVVLHSYFTSDYYQLY_VTQQLIRAAEIRASANLAA'
p16
g3
(g5
S'dd\x8e\x17cl\xec?'
tRp17
tp18
a(S'IITLKKRWQLALSKGVHFV_NGGDAALALLLLDRLNQLE_PSDFVRATATIPIQASLPF_RWYFYYLGTGPEAGLPYGA_TITSGWTFGAGAALQIPFA_TRGVYYPDKVFRSSVLHST_VEAEVQIDRLITGRLQSLQ_VKDCVVLHSYFTSDYYQLY_VTQQLIRAAEIRASANLAA'
p19
g3
(g5
S'cd\x8e\x17cl\xec?'
tRp20
tp21
a(S'GAGAALQIPFAMQMAYRFN_HQPYVVDDPCPIHFYSKWYI_IITLKKRWQLALSKGVHFV_NGGDAALALLLLDRLNQLE_PSDFVRATATIPIQASLPF_RWYFYYLGTGPEAGLPYGA_TITSGWTFGAGAALQIPFA_TRGVYYPDKVFRSSVLHST_VTQQLIRAAEIRASANLAA'
p22
g3
(g5
S'\xf3\xee\xd40\xc2^\xec?'
tRp23
tp24
a(S'GAGAALQIPFAMQMAYRFN_IITLKKRWQLALSKGVHFV_NGGDAALALLLLDRLNQLE_PSDFVRATATIPIQASLPF_RWYFYYLGTGPEAGLPYGA_TITSGWTFGAGAALQIPFA_TRGVYYPDKVFRSSVLHST_TYTGAIKLDDKDPNFKDQV_VTQQLIRAAEIRASANLAA'
p25
g3
(g5
S'\xf1\xee\xd40\xc2^\xec?'
tRp26
tp27
a(S'GAGAALQIPFAMQMAYRFN_IITLKKRWQLALSKGVHFV_NGGDAALALLLLDRLNQLE_PSDFVRATATIPIQASLPF_RWYFYYLGTGPEAGLPYGA_TAPAICHDGKAHFPREGVF_TITSGWTFGAGAALQIPFA_TRGVYYPDKVFRSSVLHST_VTQQLIRAAEIRASANLAA'
p28
g26
tp29
a(S'GAGAALQIPFAMQMAYRFN_GAISSVLNDILSRLDKVEA_IITLKKRWQLALSKGVHFV_NGGDAALALLLLDRLNQLE_PSDFVRATATIPIQASLPF_RWYFYYLGTGPEAGLPYGA_TITSGWTFGAGAALQIPFA_TRGVYYPDKVFRSSVLHST_VTQQLIRAAEIRASANLAA'
p30
g3
(g5
S'\xeb\xee\xd40\xc2^\xec?'
tRp31
tp32
a.