(lp1
(S'TITSGWTFGAGAALQIPFA_TRGVYYPDKVFRSSVLHST'
p2
cnumpy.core.multiarray
scalar
p3
(cnumpy
dtype
p4
(S'f8'
I0
I1
tRp5
(I3
S'<'
NNNI-1
I-1
I0
tbS'\x0c\xb7\xfe\x81\xea\x9b\xed?'
tRp6
tp7
a(S'TITSGWTFGAGAALQIPFA_TYTGAIKLDDKDPNFKDQV'
p8
g3
(g5
S'\\\xc5\xa2\xe1e\x8d\xed?'
tRp9
tp10
a(S'TAPAICHDGKAHFPREGVF_TITSGWTFGAGAALQIPFA'
p11
g9
tp12
a(S'HQPYVVDDPCPIHFYSKWYI_TITSGWTFGAGAALQIPFA'
p13
g3
(g5
S'\\\xc5\xa2\xe1e\x8d\xed?'
tRp14
tp15
a(S'GAISSVLNDILSRLDKVEA_TITSGWTFGAGAALQIPFA'
p16
g3
(g5
S'K\xc5\xa2\xe1e\x8d\xed?'
tRp17
tp18
a(S'PKEITVATSRTLSYYKLGA_TITSGWTFGAGAALQIPFA'
p19
g3
(g5
S'H\xc5\xa2\xe1e\x8d\xed?'
tRp20
tp21
a(S'TITSGWTFGAGAALQIPFA_VEAEVQIDRLITGRLQSLQ'
p22
g3
(g5
S'E\xc5\xa2\xe1e\x8d\xed?'
tRp23
tp24
a(S'NGGDAALALLLLDRLNQLE_TITSGWTFGAGAALQIPFA'
p25
g3
(g5
S'8\xc5\xa2\xe1e\x8d\xed?'
tRp26
tp27
a(S'RWYFYYLGTGPEAGLPYGA_TITSGWTFGAGAALQIPFA'
p28
g3
(g5
S'\xed\x8bgp\x10`\xed?'
tRp29
tp30
a(S'KVFRSSVLHSTQDLFLPFF_TITSGWTFGAGAALQIPFA'
p31
g3
(g5
S'\xd9D\xe1%oP\xed?'
tRp32
tp33
a.