(lp1
(S'IITLKKRWQLALSKGVHFV_KVFRSSVLHSTQDLFLPFF_RWYFYYLGTGPEAGLPYGA_TITSGWTFGAGAALQIPFA_TRGVYYPDKVFRSSVLHST_TYTGAIKLDDKDPNFKDQV_VTQQLIRAAEIRASANLAA'
p2
cnumpy.core.multiarray
scalar
p3
(cnumpy
dtype
p4
(S'f8'
I0
I1
tRp5
(I3
S'<'
NNNI-1
I-1
I0
tbS'9\xd6\xce/\xd8\x9f\xed?'
tRp6
tp7
a(S'IITLKKRWQLALSKGVHFV_KVFRSSVLHSTQDLFLPFF_RWYFYYLGTGPEAGLPYGA_TAPAICHDGKAHFPREGVF_TITSGWTFGAGAALQIPFA_TRGVYYPDKVFRSSVLHST_VTQQLIRAAEIRASANLAA'
p8
g6
tp9
a(S'HQPYVVDDPCPIHFYSKWYI_IITLKKRWQLALSKGVHFV_KVFRSSVLHSTQDLFLPFF_RWYFYYLGTGPEAGLPYGA_TITSGWTFGAGAALQIPFA_TRGVYYPDKVFRSSVLHST_VTQQLIRAAEIRASANLAA'
p10
g3
(g5
S'7\xd6\xce/\xd8\x9f\xed?'
tRp11
tp12
a(S'GAISSVLNDILSRLDKVEA_IITLKKRWQLALSKGVHFV_KVFRSSVLHSTQDLFLPFF_RWYFYYLGTGPEAGLPYGA_TITSGWTFGAGAALQIPFA_TRGVYYPDKVFRSSVLHST_VTQQLIRAAEIRASANLAA'
p13
g3
(g5
S'3\xd6\xce/\xd8\x9f\xed?'
tRp14
tp15
a(S'IITLKKRWQLALSKGVHFV_PKEITVATSRTLSYYKLGA_RWYFYYLGTGPEAGLPYGA_TITSGWTFGAGAALQIPFA_TRGVYYPDKVFRSSVLHST_VKDCVVLHSYFTSDYYQLY_VTQQLIRAAEIRASANLAA'
p16
g3
(g5
S'0\xd6\xce/\xd8\x9f\xed?'
tRp17
tp18
a(S'IITLKKRWQLALSKGVHFV_NGGDAALALLLLDRLNQLE_RWYFYYLGTGPEAGLPYGA_TITSGWTFGAGAALQIPFA_TRGVYYPDKVFRSSVLHST_VKDCVVLHSYFTSDYYQLY_VTQQLIRAAEIRASANLAA'
p19
g3
(g5
S'0\xd6\xce/\xd8\x9f\xed?'
tRp20
tp21
a(S'IITLKKRWQLALSKGVHFV_KVFRSSVLHSTQDLFLPFF_PKEITVATSRTLSYYKLGA_RWYFYYLGTGPEAGLPYGA_TITSGWTFGAGAALQIPFA_TRGVYYPDKVFRSSVLHST_VTQQLIRAAEIRASANLAA'
p22
g3
(g5
S'0\xd6\xce/\xd8\x9f\xed?'
tRp23
tp24
a(S'GAISSVLNDILSRLDKVEA_IITLKKRWQLALSKGVHFV_RWYFYYLGTGPEAGLPYGA_TITSGWTFGAGAALQIPFA_TRGVYYPDKVFRSSVLHST_VKDCVVLHSYFTSDYYQLY_VTQQLIRAAEIRASANLAA'
p25
g3
(g5
S'/\xd6\xce/\xd8\x9f\xed?'
tRp26
tp27
a(S'IITLKKRWQLALSKGVHFV_KVFRSSVLHSTQDLFLPFF_RWYFYYLGTGPEAGLPYGA_TITSGWTFGAGAALQIPFA_TRGVYYPDKVFRSSVLHST_VEAEVQIDRLITGRLQSLQ_VTQQLIRAAEIRASANLAA'
p28
g3
(g5
S'-\xd6\xce/\xd8\x9f\xed?'
tRp29
tp30
a(S'IITLKKRWQLALSKGVHFV_KVFRSSVLHSTQDLFLPFF_NGGDAALALLLLDRLNQLE_RWYFYYLGTGPEAGLPYGA_TITSGWTFGAGAALQIPFA_TRGVYYPDKVFRSSVLHST_VTQQLIRAAEIRASANLAA'
p31
g3
(g5
S'-\xd6\xce/\xd8\x9f\xed?'
tRp32
tp33
a.