(lp1
(S'KVFRSSVLHSTQDLFLPFF_RWYFYYLGTGPEAGLPYGA_TITSGWTFGAGAALQIPFA_TRGVYYPDKVFRSSVLHST'
p2
cnumpy.core.multiarray
scalar
p3
(cnumpy
dtype
p4
(S'f8'
I0
I1
tRp5
(I3
S'<'
NNNI-1
I-1
I0
tbS'y\xcb\xa8\xd3\xc1P\xee?'
tRp6
tp7
a(S'RWYFYYLGTGPEAGLPYGA_TITSGWTFGAGAALQIPFA_TRGVYYPDKVFRSSVLHST_VKDCVVLHSYFTSDYYQLY'
p8
g3
(g5
S'h\xcb\xa8\xd3\xc1P\xee?'
tRp9
tp10
a(S'RWYFYYLGTGPEAGLPYGA_TITSGWTFGAGAALQIPFA_TRGVYYPDKVFRSSVLHST_VRDLPQGFSALEPLVDLPI'
p11
g3
(g5
S'\x84\x19\x80\x8c\x19I\xee?'
tRp12
tp13
a(S'RWYFYYLGTGPEAGLPYGA_SYFTSDYYQLYSTQLSTDT_TITSGWTFGAGAALQIPFA_TRGVYYPDKVFRSSVLHST'
p14
g3
(g5
S'x\x19\x80\x8c\x19I\xee?'
tRp15
tp16
a(S'GAGAALQIPFAMQMAYRFN_RWYFYYLGTGPEAGLPYGA_TITSGWTFGAGAALQIPFA_TRGVYYPDKVFRSSVLHST'
p17
g3
(g5
S's\x19\x80\x8c\x19I\xee?'
tRp18
tp19
a(S'KVFRSSVLHSTQDLFLPFF_RWYFYYLGTGPEAGLPYGA_TITSGWTFGAGAALQIPFA_TYTGAIKLDDKDPNFKDQV'
p20
g3
(g5
S'\xf3\xfal\x81\x94E\xee?'
tRp21
tp22
a(S'KVFRSSVLHSTQDLFLPFF_RWYFYYLGTGPEAGLPYGA_TAPAICHDGKAHFPREGVF_TITSGWTFGAGAALQIPFA'
p23
g3
(g5
S'\xf3\xfal\x81\x94E\xee?'
tRp24
tp25
a(S'HQPYVVDDPCPIHFYSKWYI_KVFRSSVLHSTQDLFLPFF_RWYFYYLGTGPEAGLPYGA_TITSGWTFGAGAALQIPFA'
p26
g3
(g5
S'\xf3\xfal\x81\x94E\xee?'
tRp27
tp28
a(S'KVFRSSVLHSTQDLFLPFF_RWYFYYLGTGPEAGLPYGA_TITSGWTFGAGAALQIPFA_VEAEVQIDRLITGRLQSLQ'
p29
g3
(g5
S'\xed\xfal\x81\x94E\xee?'
tRp30
tp31
a(S'GAISSVLNDILSRLDKVEA_KVFRSSVLHSTQDLFLPFF_RWYFYYLGTGPEAGLPYGA_TITSGWTFGAGAALQIPFA'
p32
g3
(g5
S'\xec\xfal\x81\x94E\xee?'
tRp33
tp34
a.