(lp1
(S'TITSGWTFGAGAALQIPFA'
p2
cnumpy.core.multiarray
scalar
p3
(cnumpy
dtype
p4
(S'f8'
I0
I1
tRp5
(I3
S'<'
NNNI-1
I-1
I0
tbS'\xf1\x8b\xb8\xfb\x17\xe9\xec?'
tRp6
tp7
a(S'PSDFVRATATIPIQASLPF'
p8
g3
(g5
S';\x99W\xfc\xbew\xec?'
tRp9
tp10
a(S'SRTLSYYKLGASQRVAGDS'
p11
g3
(g5
S'\x85\xb3K\xbfd.\xec?'
tRp12
tp13
a(S'IITLKKRWQLALSKGVHFV'
p14
g3
(g5
S'}\xb3K\xbfd.\xec?'
tRp15
tp16
a(S'VTQQLIRAAEIRASANLAA'
p17
g3
(g5
S'\x0b\xb8I\xf9\xa0&\xec?'
tRp18
tp19
a(S'TRGVYYPDKVFRSSVLHST'
p20
g3
(g5
S'/\xa6#V.\xf3\xeb?'
tRp21
tp22
a(S'TYTGAIKLDDKDPNFKDQV'
p23
g3
(g5
S'y\x1a\xff\xed\xf0\xde\xeb?'
tRp24
tp25
a(S'TAPAICHDGKAHFPREGVF'
p26
g24
tp27
a(S'HQPYVVDDPCPIHFYSKWYI'
p28
g3
(g5
S'w\x1a\xff\xed\xf0\xde\xeb?'
tRp29
tp30
a(S'PKEITVATSRTLSYYKLGA'
p31
g3
(g5
S'u\x1a\xff\xed\xf0\xde\xeb?'
tRp32
tp33
a.