(lp1
(S'IITLKKRWQLALSKGVHFV_KVFRSSVLHSTQDLFLPFF_NGGDAALALLLLDRLNQLE_PSDFVRATATIPIQASLPF_QTNSPRRARSVASQSIIAY_RWYFYYLGTGPEAGLPYGA_SRTLSYYKLGASQRVAGDS_TAPAICHDGKAHFPREGVF_TITSGWTFGAGAALQIPFA_TRGVYYPDKVFRSSVLHST_TYTGAIKLDDKDPNFKDQV_VTQQLIRAAEIRASANLAA'
p2
cnumpy.core.multiarray
scalar
p3
(cnumpy
dtype
p4
(S'f8'
I0
I1
tRp5
(I3
S'<'
NNNI-1
I-1
I0
tbS'\xa4\x1c\xde\xa8\xcc\xa9\xec?'
tRp6
tp7
a(S'HQPYVVDDPCPIHFYSKWYI_IITLKKRWQLALSKGVHFV_KVFRSSVLHSTQDLFLPFF_NGGDAALALLLLDRLNQLE_PSDFVRATATIPIQASLPF_QTNSPRRARSVASQSIIAY_RWYFYYLGTGPEAGLPYGA_SRTLSYYKLGASQRVAGDS_TITSGWTFGAGAALQIPFA_TRGVYYPDKVFRSSVLHST_TYTGAIKLDDKDPNFKDQV_VTQQLIRAAEIRASANLAA'
p8
g3
(g5
S'\xa3\x1c\xde\xa8\xcc\xa9\xec?'
tRp9
tp10
a(S'HQPYVVDDPCPIHFYSKWYI_IITLKKRWQLALSKGVHFV_KVFRSSVLHSTQDLFLPFF_NGGDAALALLLLDRLNQLE_PSDFVRATATIPIQASLPF_QTNSPRRARSVASQSIIAY_RWYFYYLGTGPEAGLPYGA_SRTLSYYKLGASQRVAGDS_TAPAICHDGKAHFPREGVF_TITSGWTFGAGAALQIPFA_TRGVYYPDKVFRSSVLHST_VTQQLIRAAEIRASANLAA'
p11
g3
(g5
S'\xa3\x1c\xde\xa8\xcc\xa9\xec?'
tRp12
tp13
a(S'HQPYVVDDPCPIHFYSKWYI_IITLKKRWQLALSKGVHFV_KVFRSSVLHSTQDLFLPFF_MDLFMRIFTIGTVTLKQGE_NGGDAALALLLLDRLNQLE_PSDFVRATATIPIQASLPF_RWYFYYLGTGPEAGLPYGA_SRTLSYYKLGASQRVAGDS_TITSGWTFGAGAALQIPFA_TRGVYYPDKVFRSSVLHST_TYTGAIKLDDKDPNFKDQV_VTQQLIRAAEIRASANLAA'
p14
g3
(g5
S'\xa1\x1c\xde\xa8\xcc\xa9\xec?'
tRp15
tp16
a(S'HQPYVVDDPCPIHFYSKWYI_IITLKKRWQLALSKGVHFV_KVFRSSVLHSTQDLFLPFF_MDLFMRIFTIGTVTLKQGE_NGGDAALALLLLDRLNQLE_PSDFVRATATIPIQASLPF_RWYFYYLGTGPEAGLPYGA_SRTLSYYKLGASQRVAGDS_TAPAICHDGKAHFPREGVF_TITSGWTFGAGAALQIPFA_TRGVYYPDKVFRSSVLHST_VTQQLIRAAEIRASANLAA'
p17
g3
(g5
S'\xa1\x1c\xde\xa8\xcc\xa9\xec?'
tRp18
tp19
a(S'IITLKKRWQLALSKGVHFV_KVFRSSVLHSTQDLFLPFF_MDLFMRIFTIGTVTLKQGE_NGGDAALALLLLDRLNQLE_PSDFVRATATIPIQASLPF_RWYFYYLGTGPEAGLPYGA_SRTLSYYKLGASQRVAGDS_TAPAICHDGKAHFPREGVF_TITSGWTFGAGAALQIPFA_TRGVYYPDKVFRSSVLHST_TYTGAIKLDDKDPNFKDQV_VTQQLIRAAEIRASANLAA'
p20
g3
(g5
S'\xa0\x1c\xde\xa8\xcc\xa9\xec?'
tRp21
tp22
a(S'GAISSVLNDILSRLDKVEA_IITLKKRWQLALSKGVHFV_KVFRSSVLHSTQDLFLPFF_NGGDAALALLLLDRLNQLE_PSDFVRATATIPIQASLPF_QTNSPRRARSVASQSIIAY_RWYFYYLGTGPEAGLPYGA_SRTLSYYKLGASQRVAGDS_TITSGWTFGAGAALQIPFA_TRGVYYPDKVFRSSVLHST_VEAEVQIDRLITGRLQSLQ_VTQQLIRAAEIRASANLAA'
p23
g3
(g5
S'\x9b\x1c\xde\xa8\xcc\xa9\xec?'
tRp24
tp25
a(S'GAISSVLNDILSRLDKVEA_IITLKKRWQLALSKGVHFV_KVFRSSVLHSTQDLFLPFF_MDLFMRIFTIGTVTLKQGE_NGGDAALALLLLDRLNQLE_PSDFVRATATIPIQASLPF_RWYFYYLGTGPEAGLPYGA_SRTLSYYKLGASQRVAGDS_TITSGWTFGAGAALQIPFA_TRGVYYPDKVFRSSVLHST_VEAEVQIDRLITGRLQSLQ_VTQQLIRAAEIRASANLAA'
p26
g3
(g5
S'\x9b\x1c\xde\xa8\xcc\xa9\xec?'
tRp27
tp28
a(S'GAISSVLNDILSRLDKVEA_IITLKKRWQLALSKGVHFV_KVFRSSVLHSTQDLFLPFF_MDLFMRIFTIGTVTLKQGE_NGGDAALALLLLDRLNQLE_PSDFVRATATIPIQASLPF_RWYFYYLGTGPEAGLPYGA_SRTLSYYKLGASQRVAGDS_TITSGWTFGAGAALQIPFA_TRGVYYPDKVFRSSVLHST_TYTGAIKLDDKDPNFKDQV_VTQQLIRAAEIRASANLAA'
p29
g3
(g5
S'\x98\x1c\xde\xa8\xcc\xa9\xec?'
tRp30
tp31
a(S'GAISSVLNDILSRLDKVEA_IITLKKRWQLALSKGVHFV_KVFRSSVLHSTQDLFLPFF_NGGDAALALLLLDRLNQLE_PSDFVRATATIPIQASLPF_QTNSPRRARSVASQSIIAY_RWYFYYLGTGPEAGLPYGA_SRTLSYYKLGASQRVAGDS_TITSGWTFGAGAALQIPFA_TRGVYYPDKVFRSSVLHST_TYTGAIKLDDKDPNFKDQV_VTQQLIRAAEIRASANLAA'
p32
g3
(g5
S'\x97\x1c\xde\xa8\xcc\xa9\xec?'
tRp33
tp34
a.