(lp1
(S'KVFRSSVLHSTQDLFLPFF_RWYFYYLGTGPEAGLPYGA_TITSGWTFGAGAALQIPFA_TRGVYYPDKVFRSSVLHST_VTQQLIRAAEIRASANLAA'
p2
cnumpy.core.multiarray
scalar
p3
(cnumpy
dtype
p4
(S'f8'
I0
I1
tRp5
(I3
S'<'
NNNI-1
I-1
I0
tbS'`]J\xedq\x81\xee?'
tRp6
tp7
a(S'RWYFYYLGTGPEAGLPYGA_TITSGWTFGAGAALQIPFA_TRGVYYPDKVFRSSVLHST_VKDCVVLHSYFTSDYYQLY_VTQQLIRAAEIRASANLAA'
p8
g3
(g5
S'Y]J\xedq\x81\xee?'
tRp9
tp10
a(S'RWYFYYLGTGPEAGLPYGA_TITSGWTFGAGAALQIPFA_TRGVYYPDKVFRSSVLHST_VRDLPQGFSALEPLVDLPI_VTQQLIRAAEIRASANLAA'
p11
g3
(g5
S'\x034\x81w\x7fz\xee?'
tRp12
tp13
a(S'RWYFYYLGTGPEAGLPYGA_SYFTSDYYQLYSTQLSTDT_TITSGWTFGAGAALQIPFA_TRGVYYPDKVFRSSVLHST_VTQQLIRAAEIRASANLAA'
p14
g3
(g5
S'\xf33\x81w\x7fz\xee?'
tRp15
tp16
a(S'GAGAALQIPFAMQMAYRFN_RWYFYYLGTGPEAGLPYGA_TITSGWTFGAGAALQIPFA_TRGVYYPDKVFRSSVLHST_VTQQLIRAAEIRASANLAA'
p17
g3
(g5
S'\xf03\x81w\x7fz\xee?'
tRp18
tp19
a(S'KVFRSSVLHSTQDLFLPFF_RWYFYYLGTGPEAGLPYGA_TITSGWTFGAGAALQIPFA_TYTGAIKLDDKDPNFKDQV_VTQQLIRAAEIRASANLAA'
p20
g3
(g5
S'\xb52\xca\xf4\x83v\xee?'
tRp21
tp22
a(S'KVFRSSVLHSTQDLFLPFF_RWYFYYLGTGPEAGLPYGA_TAPAICHDGKAHFPREGVF_TITSGWTFGAGAALQIPFA_VTQQLIRAAEIRASANLAA'
p23
g3
(g5
S'\xb52\xca\xf4\x83v\xee?'
tRp24
tp25
a(S'HQPYVVDDPCPIHFYSKWYI_KVFRSSVLHSTQDLFLPFF_RWYFYYLGTGPEAGLPYGA_TITSGWTFGAGAALQIPFA_VTQQLIRAAEIRASANLAA'
p26
g3
(g5
S'\xb52\xca\xf4\x83v\xee?'
tRp27
tp28
a(S'GAISSVLNDILSRLDKVEA_KVFRSSVLHSTQDLFLPFF_RWYFYYLGTGPEAGLPYGA_TITSGWTFGAGAALQIPFA_VTQQLIRAAEIRASANLAA'
p29
g3
(g5
S'\xb42\xca\xf4\x83v\xee?'
tRp30
tp31
a(S'KVFRSSVLHSTQDLFLPFF_RWYFYYLGTGPEAGLPYGA_TITSGWTFGAGAALQIPFA_VEAEVQIDRLITGRLQSLQ_VTQQLIRAAEIRASANLAA'
p32
g3
(g5
S'\xaf2\xca\xf4\x83v\xee?'
tRp33
tp34
a.