(lp1
(S'AVFQSASKIITLKKRWQLA_DQVILLNKHIDAYKTFPPT_ENQKLIANQFNSAIGKIQD_FCTQLNRALTGIAVEQDKN_FNPETNILLNVPLHGTILT_GAGAALQIPFAMQMAYRFN_GAISSVLNDILSRLDKVEA_HQPYVVDDPCPIHFYSKWYI_IITLKKRWQLALSKGVHFV_KVFRSSVLHSTQDLFLPFF_LPIGINITRFQTLLALHRS_MDLFMRIFTIGTVTLKQGE_NGGDAALALLLLDRLNQLE_PKEITVATSRTLSYYKLGA_PSDFVRATATIPIQASLPF_PSKRSFIEDLLFNKVTLAD_QTNSPRRARSVASQSIIAY_RWYFYYLGTGPEAGLPYGA_SRTLSYYKLGASQRVAGDS_SYFTSDYYQLYSTQLSTDT_TAPAICHDGKAHFPREGVF_TITSGWTFGAGAALQIPFA_TRGVYYPDKVFRSSVLHST_TYTGAIKLDDKDPNFKDQV_VEAEVQIDRLITGRLQSLQ_VKDCVVLHSYFTSDYYQLY_VRDLPQGFSALEPLVDLPI_VTQQLIRAAEIRASANLAA'
p2
cnumpy.core.multiarray
scalar
p3
(cnumpy
dtype
p4
(S'f8'
I0
I1
tRp5
(I3
S'<'
NNNI-1
I-1
I0
tbS'\x88jK\xbc}c\xeb?'
tRp6
tp7
a(S'AVFQSASKIITLKKRWQLA_DGVKHVYQLRARSVSPKLFI_DQVILLNKHIDAYKTFPPT_ENQKLIANQFNSAIGKIQD_FCTQLNRALTGIAVEQDKN_FNPETNILLNVPLHGTILT_GAGAALQIPFAMQMAYRFN_GAISSVLNDILSRLDKVEA_HQPYVVDDPCPIHFYSKWYI_IITLKKRWQLALSKGVHFV_KVFRSSVLHSTQDLFLPFF_MDLFMRIFTIGTVTLKQGE_NGGDAALALLLLDRLNQLE_PKEITVATSRTLSYYKLGA_PSDFVRATATIPIQASLPF_PSKRSFIEDLLFNKVTLAD_QTNSPRRARSVASQSIIAY_RWYFYYLGTGPEAGLPYGA_SRTLSYYKLGASQRVAGDS_SYFTSDYYQLYSTQLSTDT_TAPAICHDGKAHFPREGVF_TITSGWTFGAGAALQIPFA_TRGVYYPDKVFRSSVLHST_TYTGAIKLDDKDPNFKDQV_VEAEVQIDRLITGRLQSLQ_VKDCVVLHSYFTSDYYQLY_VRDLPQGFSALEPLVDLPI_VTQQLIRAAEIRASANLAA'
p8
g3
(g5
S'\xdc?\xd15\xecZ\xeb?'
tRp9
tp10
a(S'AEIRASANLAATKMSECVL_DQVILLNKHIDAYKTFPPT_ENQKLIANQFNSAIGKIQD_FCTQLNRALTGIAVEQDKN_FNPETNILLNVPLHGTILT_GAGAALQIPFAMQMAYRFN_GAISSVLNDILSRLDKVEA_HQPYVVDDPCPIHFYSKWYI_IITLKKRWQLALSKGVHFV_KVFRSSVLHSTQDLFLPFF_LPIGINITRFQTLLALHRS_MDLFMRIFTIGTVTLKQGE_NGGDAALALLLLDRLNQLE_PKEITVATSRTLSYYKLGA_PSDFVRATATIPIQASLPF_PSKRSFIEDLLFNKVTLAD_QTNSPRRARSVASQSIIAY_RWYFYYLGTGPEAGLPYGA_SRTLSYYKLGASQRVAGDS_SYFTSDYYQLYSTQLSTDT_TAPAICHDGKAHFPREGVF_TITSGWTFGAGAALQIPFA_TRGVYYPDKVFRSSVLHST_TYTGAIKLDDKDPNFKDQV_VEAEVQIDRLITGRLQSLQ_VKDCVVLHSYFTSDYYQLY_VRDLPQGFSALEPLVDLPI_VTQQLIRAAEIRASANLAA'
p11
g3
(g5
S'<\x80\xfd \xa2V\xeb?'
tRp12
tp13
a(S'DQVILLNKHIDAYKTFPPT_ENQKLIANQFNSAIGKIQD_FCTQLNRALTGIAVEQDKN_FNPETNILLNVPLHGTILT_GAGAALQIPFAMQMAYRFN_GAISSVLNDILSRLDKVEA_HQPYVVDDPCPIHFYSKWYI_IITLKKRWQLALSKGVHFV_KVFRSSVLHSTQDLFLPFF_LPIGINITRFQTLLALHRS_MDLFMRIFTIGTVTLKQGE_NGGDAALALLLLDRLNQLE_PKEITVATSRTLSYYKLGA_PSDFVRATATIPIQASLPF_PSKRSFIEDLLFNKVTLAD_QTNSPRRARSVASQSIIAY_RQKKQQTVTLLPAADLDDF_RWYFYYLGTGPEAGLPYGA_SRTLSYYKLGASQRVAGDS_SYFTSDYYQLYSTQLSTDT_TAPAICHDGKAHFPREGVF_TITSGWTFGAGAALQIPFA_TRGVYYPDKVFRSSVLHST_TYTGAIKLDDKDPNFKDQV_VEAEVQIDRLITGRLQSLQ_VKDCVVLHSYFTSDYYQLY_VRDLPQGFSALEPLVDLPI_VTQQLIRAAEIRASANLAA'
p14
g3
(g5
S'/3Q\xa4EV\xeb?'
tRp15
tp16
a(S'DQVILLNKHIDAYKTFPPT_ENQKLIANQFNSAIGKIQD_FCTQLNRALTGIAVEQDKN_FNPETNILLNVPLHGTILT_GAGAALQIPFAMQMAYRFN_GAISSVLNDILSRLDKVEA_HQPYVVDDPCPIHFYSKWYI_IITLKKRWQLALSKGVHFV_KVFRSSVLHSTQDLFLPFF_LPIGINITRFQTLLALHRS_MDLFMRIFTIGTVTLKQGE_NGGDAALALLLLDRLNQLE_PKEITVATSRTLSYYKLGA_PSDFVRATATIPIQASLPF_PSKRSFIEDLLFNKVTLAD_QTNSPRRARSVASQSIIAY_RFQTLLALHRSYLTPGDSS_RWYFYYLGTGPEAGLPYGA_SRTLSYYKLGASQRVAGDS_SYFTSDYYQLYSTQLSTDT_TAPAICHDGKAHFPREGVF_TITSGWTFGAGAALQIPFA_TRGVYYPDKVFRSSVLHST_TYTGAIKLDDKDPNFKDQV_VEAEVQIDRLITGRLQSLQ_VKDCVVLHSYFTSDYYQLY_VRDLPQGFSALEPLVDLPI_VTQQLIRAAEIRASANLAA'
p17
g3
(g5
S'-3Q\xa4EV\xeb?'
tRp18
tp19
a(S'DQVILLNKHIDAYKTFPPT_ENQKLIANQFNSAIGKIQD_FCTQLNRALTGIAVEQDKN_FNPETNILLNVPLHGTILT_GAGAALQIPFAMQMAYRFN_GAISSVLNDILSRLDKVEA_HQPYVVDDPCPIHFYSKWYI_IITLKKRWQLALSKGVHFV_KVFRSSVLHSTQDLFLPFF_LPIGINITRFQTLLALHRS_MDLFMRIFTIGTVTLKQGE_NGGDAALALLLLDRLNQLE_PKEITVATSRTLSYYKLGA_PSDFVRATATIPIQASLPF_PSKRSFIEDLLFNKVTLAD_QTNSPRRARSVASQSIIAY_RWYFYYLGTGPEAGLPYGA_SRTLSYYKLGASQRVAGDS_SYFTSDYYQLYSTQLSTDT_TAPAICHDGKAHFPREGVF_TITSGWTFGAGAALQIPFA_TRGVYYPDKVFRSSVLHST_TYTGAIKLDDKDPNFKDQV_VEAEVQIDRLITGRLQSLQ_VKDCVVLHSYFTSDYYQLY_VRDLPQGFSALEPLVDLPI_VTQQLIRAAEIRASANLAA_YGANKDGIIWVATEGALNT'
p20
g3
(g5
S',3Q\xa4EV\xeb?'
tRp21
tp22
a(S'DQVILLNKHIDAYKTFPPT_ENQKLIANQFNSAIGKIQD_FCTQLNRALTGIAVEQDKN_FNPETNILLNVPLHGTILT_GAGAALQIPFAMQMAYRFN_GAISSVLNDILSRLDKVEA_HQPYVVDDPCPIHFYSKWYI_IITLKKRWQLALSKGVHFV_KVFRSSVLHSTQDLFLPFF_LPIGINITRFQTLLALHRS_MDLFMRIFTIGTVTLKQGE_NGGDAALALLLLDRLNQLE_PKEITVATSRTLSYYKLGA_PSDFVRATATIPIQASLPF_PSKRSFIEDLLFNKVTLAD_QTNSPRRARSVASQSIIAY_RWYFYYLGTGPEAGLPYGA_SRTLSYYKLGASQRVAGDS_STGSNVFQTRAGCLIGAEH_SYFTSDYYQLYSTQLSTDT_TAPAICHDGKAHFPREGVF_TITSGWTFGAGAALQIPFA_TRGVYYPDKVFRSSVLHST_TYTGAIKLDDKDPNFKDQV_VEAEVQIDRLITGRLQSLQ_VKDCVVLHSYFTSDYYQLY_VRDLPQGFSALEPLVDLPI_VTQQLIRAAEIRASANLAA'
p23
g3
(g5
S',3Q\xa4EV\xeb?'
tRp24
tp25
a(S'DQVILLNKHIDAYKTFPPT_ENQKLIANQFNSAIGKIQD_FCTQLNRALTGIAVEQDKN_FNPETNILLNVPLHGTILT_GAGAALQIPFAMQMAYRFN_GAISSVLNDILSRLDKVEA_HQPYVVDDPCPIHFYSKWYI_IITLKKRWQLALSKGVHFV_KVFRSSVLHSTQDLFLPFF_LPIGINITRFQTLLALHRS_MDLFMRIFTIGTVTLKQGE_NGGDAALALLLLDRLNQLE_PKEITVATSRTLSYYKLGA_PSDFVRATATIPIQASLPF_PSKRSFIEDLLFNKVTLAD_QTNSPRRARSVASQSIIAY_RWYFYYLGTGPEAGLPYGA_SELVIGAVILRGHLRIAGH_SRTLSYYKLGASQRVAGDS_SYFTSDYYQLYSTQLSTDT_TAPAICHDGKAHFPREGVF_TITSGWTFGAGAALQIPFA_TRGVYYPDKVFRSSVLHST_TYTGAIKLDDKDPNFKDQV_VEAEVQIDRLITGRLQSLQ_VKDCVVLHSYFTSDYYQLY_VRDLPQGFSALEPLVDLPI_VTQQLIRAAEIRASANLAA'
p26
g3
(g5
S',3Q\xa4EV\xeb?'
tRp27
tp28
a(S'DQVILLNKHIDAYKTFPPT_ENQKLIANQFNSAIGKIQD_FCTQLNRALTGIAVEQDKN_FNPETNILLNVPLHGTILT_GAGAALQIPFAMQMAYRFN_GAISSVLNDILSRLDKVEA_HQPYVVDDPCPIHFYSKWYI_IITLKKRWQLALSKGVHFV_KVFRSSVLHSTQDLFLPFF_LICAQKFNGLTVLPPLLTD_LPIGINITRFQTLLALHRS_MDLFMRIFTIGTVTLKQGE_NGGDAALALLLLDRLNQLE_PKEITVATSRTLSYYKLGA_PSDFVRATATIPIQASLPF_PSKRSFIEDLLFNKVTLAD_QTNSPRRARSVASQSIIAY_RWYFYYLGTGPEAGLPYGA_SRTLSYYKLGASQRVAGDS_SYFTSDYYQLYSTQLSTDT_TAPAICHDGKAHFPREGVF_TITSGWTFGAGAALQIPFA_TRGVYYPDKVFRSSVLHST_TYTGAIKLDDKDPNFKDQV_VEAEVQIDRLITGRLQSLQ_VKDCVVLHSYFTSDYYQLY_VRDLPQGFSALEPLVDLPI_VTQQLIRAAEIRASANLAA'
p29
g3
(g5
S',3Q\xa4EV\xeb?'
tRp30
tp31
a(S'DQVILLNKHIDAYKTFPPT_ENQKLIANQFNSAIGKIQD_FCTQLNRALTGIAVEQDKN_FNPETNILLNVPLHGTILT_GAGAALQIPFAMQMAYRFN_GAISSVLNDILSRLDKVEA_HQPYVVDDPCPIHFYSKWYI_IITLKKRWQLALSKGVHFV_IQDSLSSTASALGKLQDVV_KVFRSSVLHSTQDLFLPFF_LPIGINITRFQTLLALHRS_MDLFMRIFTIGTVTLKQGE_NGGDAALALLLLDRLNQLE_PKEITVATSRTLSYYKLGA_PSDFVRATATIPIQASLPF_PSKRSFIEDLLFNKVTLAD_QTNSPRRARSVASQSIIAY_RWYFYYLGTGPEAGLPYGA_SRTLSYYKLGASQRVAGDS_SYFTSDYYQLYSTQLSTDT_TAPAICHDGKAHFPREGVF_TITSGWTFGAGAALQIPFA_TRGVYYPDKVFRSSVLHST_TYTGAIKLDDKDPNFKDQV_VEAEVQIDRLITGRLQSLQ_VKDCVVLHSYFTSDYYQLY_VRDLPQGFSALEPLVDLPI_VTQQLIRAAEIRASANLAA'
p32
g3
(g5
S',3Q\xa4EV\xeb?'
tRp33
tp34
a.