(lp1
(S'FCTQLNRALTGIAVEQDKN_KVFRSSVLHSTQDLFLPFF_TRGVYYPDKVFRSSVLHST_VKDCVVLHSYFTSDYYQLY_VTQQLIRAAEIRASANLAA'
p2
cnumpy.core.multiarray
scalar
p3
(cnumpy
dtype
p4
(S'f8'
I0
I1
tRp5
(I3
S'<'
NNNI-1
I-1
I0
tbS'[\xa8\xd3\x9a\xbc\x14\xee?'
tRp6
tp7
a(S'FCTQLNRALTGIAVEQDKN_KVFRSSVLHSTQDLFLPFF_VKDCVVLHSYFTSDYYQLY_VTQQLIRAAEIRASANLAA_YNYLYRLFRKSNLKPFERD'
p8
g3
(g5
S'\xd3\xb8\xd4\x8d\x87\x12\xee?'
tRp9
tp10
a(S'FCTQLNRALTGIAVEQDKN_GAGAALQIPFAMQMAYRFN_KVFRSSVLHSTQDLFLPFF_TRGVYYPDKVFRSSVLHST_VTQQLIRAAEIRASANLAA'
p11
g3
(g5
S'H\xf8\xfat\xd8\x10\xee?'
tRp12
tp13
a(S'FCTQLNRALTGIAVEQDKN_GAGAALQIPFAMQMAYRFN_TRGVYYPDKVFRSSVLHST_VKDCVVLHSYFTSDYYQLY_VTQQLIRAAEIRASANLAA'
p14
g3
(g5
S'\xb5\xe9\xff(\xaf\x10\xee?'
tRp15
tp16
a(S'FCTQLNRALTGIAVEQDKN_KVFRSSVLHSTQDLFLPFF_SYFTSDYYQLYSTQLSTDT_TRGVYYPDKVFRSSVLHST_VTQQLIRAAEIRASANLAA'
p17
g3
(g5
S'\xc0\xf3O\xd6\x81\x0f\xee?'
tRp18
tp19
a(S'FCTQLNRALTGIAVEQDKN_SYFTSDYYQLYSTQLSTDT_TRGVYYPDKVFRSSVLHST_VKDCVVLHSYFTSDYYQLY_VTQQLIRAAEIRASANLAA'
p20
g3
(g5
S'1\xe5T\x8aX\x0f\xee?'
tRp21
tp22
a(S'FCTQLNRALTGIAVEQDKN_TRGVYYPDKVFRSSVLHST_VKDCVVLHSYFTSDYYQLY_VRDLPQGFSALEPLVDLPI_VTQQLIRAAEIRASANLAA'
p23
g3
(g5
S'-\xe5T\x8aX\x0f\xee?'
tRp24
tp25
a(S'FCTQLNRALTGIAVEQDKN_GAGAALQIPFAMQMAYRFN_KVFRSSVLHSTQDLFLPFF_VTQQLIRAAEIRASANLAA_YNYLYRLFRKSNLKPFERD'
p26
g3
(g5
S'y.\xa6\n\xab\x0c\xee?'
tRp27
tp28
a(S'FCTQLNRALTGIAVEQDKN_GAGAALQIPFAMQMAYRFN_VKDCVVLHSYFTSDYYQLY_VTQQLIRAAEIRASANLAA_YNYLYRLFRKSNLKPFERD'
p29
g3
(g5
S'oZ\xe8\x85~\x0c\xee?'
tRp30
tp31
a(S'FCTQLNRALTGIAVEQDKN_KVFRSSVLHSTQDLFLPFF_VKDCVVLHSYFTSDYYQLY_VTQQLIRAAEIRASANLAA_YLYALVYFLQSINFVRIIM'
p32
g3
(g5
S'\x85\x01Q\xb7\xbd\x0b\xee?'
tRp33
tp34
a.