(lp1
(S'VKDCVVLHSYFTSDYYQLY'
p2
cnumpy.core.multiarray
scalar
p3
(cnumpy
dtype
p4
(S'f8'
I0
I1
tRp5
(I3
S'<'
NNNI-1
I-1
I0
tbS'\x95\x14\xc0\x8a\xcb9\xee?'
tRp6
tp7
a(S'KVFRSSVLHSTQDLFLPFF'
p8
g3
(g5
S'\x87\x14\xc0\x8a\xcb9\xee?'
tRp9
tp10
a(S'GAGAALQIPFAMQMAYRFN'
p11
g3
(g5
S'\x17\xb2\xa3\x81d/\xee?'
tRp12
tp13
a(S'SYFTSDYYQLYSTQLSTDT'
p14
g3
(g5
S'\xa00\x94W\xe8-\xee?'
tRp15
tp16
a(S'VRDLPQGFSALEPLVDLPI'
p17
g3
(g5
S'\x930\x94W\xe8-\xee?'
tRp18
tp19
a(S'VTQQLIRAAEIRASANLAA'
p20
g3
(g5
S'\xc4J\xae\x01(!\xee?'
tRp21
tp22
a(S'FCTQLNRALTGIAVEQDKN'
p23
g3
(g5
S'\r6\xd0\xc6\xc8\x0b\xee?'
tRp24
tp25
a(S'TRGVYYPDKVFRSSVLHST'
p26
g3
(g5
S'\xa3\x12\x99\x83H\xf8\xed?'
tRp27
tp28
a(S'PSKRSFIEDLLFNKVTLAD'
p29
g3
(g5
S'w\x96l\xae\xd7\xf6\xed?'
tRp30
tp31
a(S'FEYVSQPFLMDLEGKQGNF'
p32
g3
(g5
S'`\x12`\x8f\xa3\xf6\xed?'
tRp33
tp34
a.