(lp1
(S'FCTQLNRALTGIAVEQDKN_KVFRSSVLHSTQDLFLPFF_VTQQLIRAAEIRASANLAA'
p2
cnumpy.core.multiarray
scalar
p3
(cnumpy
dtype
p4
(S'f8'
I0
I1
tRp5
(I3
S'<'
NNNI-1
I-1
I0
tbS'w\x1e\x7f\xa9\xcc\x87\xee?'
tRp6
tp7
a(S'FCTQLNRALTGIAVEQDKN_VKDCVVLHSYFTSDYYQLY_VTQQLIRAAEIRASANLAA'
p8
g3
(g5
S's\x1e\x7f\xa9\xcc\x87\xee?'
tRp9
tp10
a(S'FCTQLNRALTGIAVEQDKN_VRDLPQGFSALEPLVDLPI_VTQQLIRAAEIRASANLAA'
p11
g3
(g5
S'\x14vuI\x87\x80\xee?'
tRp12
tp13
a(S'FCTQLNRALTGIAVEQDKN_SYFTSDYYQLYSTQLSTDT_VTQQLIRAAEIRASANLAA'
p14
g3
(g5
S'\x0bvuI\x87\x80\xee?'
tRp15
tp16
a(S'FCTQLNRALTGIAVEQDKN_GAGAALQIPFAMQMAYRFN_VTQQLIRAAEIRASANLAA'
p17
g3
(g5
S'\tvuI\x87\x80\xee?'
tRp18
tp19
a(S'TRGVYYPDKVFRSSVLHST_VKDCVVLHSYFTSDYYQLY_VTQQLIRAAEIRASANLAA'
p20
g3
(g5
S'X\xedm\xf4\xeex\xee?'
tRp21
tp22
a(S'KVFRSSVLHSTQDLFLPFF_TRGVYYPDKVFRSSVLHST_VTQQLIRAAEIRASANLAA'
p23
g3
(g5
S'K\xedm\xf4\xeex\xee?'
tRp24
tp25
a(S'VKDCVVLHSYFTSDYYQLY_VTQQLIRAAEIRASANLAA_YLYALVYFLQSINFVRIIM'
p26
g3
(g5
S'\xc9\xa6\x06\xb0\xffr\xee?'
tRp27
tp28
a(S'KVFRSSVLHSTQDLFLPFF_VTQQLIRAAEIRASANLAA_YLYALVYFLQSINFVRIIM'
p29
g3
(g5
S'\xc5\xa6\x06\xb0\xffr\xee?'
tRp30
tp31
a(S'SYFTSDYYQLYSTQLSTDT_TRGVYYPDKVFRSSVLHST_VTQQLIRAAEIRASANLAA'
p32
g3
(g5
S'DT\xd6 \xb6p\xee?'
tRp33
tp34
a.