(lp1
(S'FCTQLNRALTGIAVEQDKN_GAGAALQIPFAMQMAYRFN_KVFRSSVLHSTQDLFLPFF_LPIGINITRFQTLLALHRS_TRGVYYPDKVFRSSVLHST_VTQQLIRAAEIRASANLAA'
p2
cnumpy.core.multiarray
scalar
p3
(cnumpy
dtype
p4
(S'f8'
I0
I1
tRp5
(I3
S'<'
NNNI-1
I-1
I0
tbS"'/dQ\xa2>\xee?"
tRp6
tp7
a(S'FCTQLNRALTGIAVEQDKN_GAGAALQIPFAMQMAYRFN_LPIGINITRFQTLLALHRS_TRGVYYPDKVFRSSVLHST_VKDCVVLHSYFTSDYYQLY_VTQQLIRAAEIRASANLAA'
p8
g3
(g5
S'\x9b i\x05y>\xee?'
tRp9
tp10
a(S'FCTQLNRALTGIAVEQDKN_GAGAALQIPFAMQMAYRFN_KVFRSSVLHSTQDLFLPFF_LPIGINITRFQTLLALHRS_VTQQLIRAAEIRASANLAA_YNYLYRLFRKSNLKPFERD'
p11
g3
(g5
S'i\xcd\xe1\x8ex>\xee?'
tRp12
tp13
a(S'FCTQLNRALTGIAVEQDKN_GAGAALQIPFAMQMAYRFN_LPIGINITRFQTLLALHRS_VKDCVVLHSYFTSDYYQLY_VTQQLIRAAEIRASANLAA_YNYLYRLFRKSNLKPFERD'
p14
g3
(g5
S'a\xf9#\nL>\xee?'
tRp15
tp16
a(S'FCTQLNRALTGIAVEQDKN_IITLKKRWQLALSKGVHFV_KVFRSSVLHSTQDLFLPFF_TRGVYYPDKVFRSSVLHST_VKDCVVLHSYFTSDYYQLY_VTQQLIRAAEIRASANLAA'
p17
g3
(g5
S'\xab\xb8\r\xa8z=\xee?'
tRp18
tp19
a(S'FCTQLNRALTGIAVEQDKN_KVFRSSVLHSTQDLFLPFF_QTNSPRRARSVASQSIIAY_TRGVYYPDKVFRSSVLHST_VKDCVVLHSYFTSDYYQLY_VTQQLIRAAEIRASANLAA'
p20
g3
(g5
S'\xa8*\xb9\xb2K=\xee?'
tRp21
tp22
a(S'FCTQLNRALTGIAVEQDKN_KVFRSSVLHSTQDLFLPFF_NATRFASVYAWNRKRISNC_TRGVYYPDKVFRSSVLHST_VKDCVVLHSYFTSDYYQLY_VTQQLIRAAEIRASANLAA'
p23
g3
(g5
S'\xa5*\xb9\xb2K=\xee?'
tRp24
tp25
a(S'FCTQLNRALTGIAVEQDKN_KVFRSSVLHSTQDLFLPFF_PSDFVRATATIPIQASLPF_TRGVYYPDKVFRSSVLHST_VKDCVVLHSYFTSDYYQLY_VTQQLIRAAEIRASANLAA'
p26
g3
(g5
S'\xa3*\xb9\xb2K=\xee?'
tRp27
tp28
a(S'FCTQLNRALTGIAVEQDKN_KVFRSSVLHSTQDLFLPFF_MDLFMRIFTIGTVTLKQGE_TRGVYYPDKVFRSSVLHST_VKDCVVLHSYFTSDYYQLY_VTQQLIRAAEIRASANLAA'
p29
g3
(g5
S'\xa3*\xb9\xb2K=\xee?'
tRp30
tp31
a(S'FCTQLNRALTGIAVEQDKN_KVFRSSVLHSTQDLFLPFF_LPIGINITRFQTLLALHRS_TRGVYYPDKVFRSSVLHST_VKDCVVLHSYFTSDYYQLY_VTQQLIRAAEIRASANLAA'
p32
g3
(g5
S'\x9d*\xb9\xb2K=\xee?'
tRp33
tp34
a.