(lp1
(S'FCTQLNRALTGIAVEQDKN_TRGVYYPDKVFRSSVLHST_VKDCVVLHSYFTSDYYQLY_VTQQLIRAAEIRASANLAA'
p2
cnumpy.core.multiarray
scalar
p3
(cnumpy
dtype
p4
(S'f8'
I0
I1
tRp5
(I3
S'<'
NNNI-1
I-1
I0
tbS'\xe5z\xcf+y\x92\xee?'
tRp6
tp7
a(S'FCTQLNRALTGIAVEQDKN_KVFRSSVLHSTQDLFLPFF_TRGVYYPDKVFRSSVLHST_VTQQLIRAAEIRASANLAA'
p8
g3
(g5
S'\xd5z\xcf+y\x92\xee?'
tRp9
tp10
a(S'FCTQLNRALTGIAVEQDKN_VKDCVVLHSYFTSDYYQLY_VTQQLIRAAEIRASANLAA_YLYALVYFLQSINFVRIIM'
p11
g3
(g5
S'\xe0/\xdc\xc3q\x8d\xee?'
tRp12
tp13
a(S'FCTQLNRALTGIAVEQDKN_KVFRSSVLHSTQDLFLPFF_VTQQLIRAAEIRASANLAA_YLYALVYFLQSINFVRIIM'
p14
g3
(g5
S'\xd9/\xdc\xc3q\x8d\xee?'
tRp15
tp16
a(S'FCTQLNRALTGIAVEQDKN_SYFTSDYYQLYSTQLSTDT_TRGVYYPDKVFRSSVLHST_VTQQLIRAAEIRASANLAA'
p17
g3
(g5
S'L\xc6Kg>\x8d\xee?'
tRp18
tp19
a(S'FCTQLNRALTGIAVEQDKN_GAGAALQIPFAMQMAYRFN_TRGVYYPDKVFRSSVLHST_VTQQLIRAAEIRASANLAA'
p20
g3
(g5
S'G\xc6Kg>\x8d\xee?'
tRp21
tp22
a(S'FCTQLNRALTGIAVEQDKN_TRGVYYPDKVFRSSVLHST_VRDLPQGFSALEPLVDLPI_VTQQLIRAAEIRASANLAA'
p23
g3
(g5
S'1\xc6Kg>\x8d\xee?'
tRp24
tp25
a(S'FCTQLNRALTGIAVEQDKN_VKDCVVLHSYFTSDYYQLY_VTQQLIRAAEIRASANLAA_YNYLYRLFRKSNLKPFERD'
p26
g3
(g5
S'\x91\xae\xef5\xc2\x89\xee?'
tRp27
tp28
a(S'FCTQLNRALTGIAVEQDKN_KVFRSSVLHSTQDLFLPFF_VTQQLIRAAEIRASANLAA_YNYLYRLFRKSNLKPFERD'
p29
g3
(g5
S'\x91\xae\xef5\xc2\x89\xee?'
tRp30
tp31
a(S'FCTQLNRALTGIAVEQDKN_PSKRSFIEDLLFNKVTLAD_SYFTSDYYQLYSTQLSTDT_VTQQLIRAAEIRASANLAA'
p32
g3
(g5
S'\xd8\x86\x8av\x03\x89\xee?'
tRp33
tp34
a.