(lp1
(S'KVFRSSVLHSTQDLFLPFF_VTQQLIRAAEIRASANLAA'
p2
cnumpy.core.multiarray
scalar
p3
(cnumpy
dtype
p4
(S'f8'
I0
I1
tRp5
(I3
S'<'
NNNI-1
I-1
I0
tbS'\xc56\x9e\\\xeel\xee?'
tRp6
tp7
a(S'VKDCVVLHSYFTSDYYQLY_VTQQLIRAAEIRASANLAA'
p8
g3
(g5
S'\xc16\x9e\\\xeel\xee?'
tRp9
tp10
a(S'VRDLPQGFSALEPLVDLPI_VTQQLIRAAEIRASANLAA'
p11
g3
(g5
S'\x88\x10\xe6\xa3\x18b\xee?'
tRp12
tp13
a(S'SYFTSDYYQLYSTQLSTDT_VTQQLIRAAEIRASANLAA'
p14
g3
(g5
S'\x83\x10\xe6\xa3\x18b\xee?'
tRp15
tp16
a(S'GAGAALQIPFAMQMAYRFN_VTQQLIRAAEIRASANLAA'
p17
g3
(g5
S'x\x10\xe6\xa3\x18b\xee?'
tRp18
tp19
a(S'FCTQLNRALTGIAVEQDKN_VKDCVVLHSYFTSDYYQLY'
p20
g3
(g5
S'\xcf\xb7\xc6\x10\x9dV\xee?'
tRp21
tp22
a(S'FCTQLNRALTGIAVEQDKN_KVFRSSVLHSTQDLFLPFF'
p23
g3
(g5
S'\xc9\xb7\xc6\x10\x9dV\xee?'
tRp24
tp25
a(S'FCTQLNRALTGIAVEQDKN_GAGAALQIPFAMQMAYRFN'
p26
g3
(g5
S'X\xf0\xa0\x8a\xf0O\xee?'
tRp27
tp28
a(S'FCTQLNRALTGIAVEQDKN_SYFTSDYYQLYSTQLSTDT'
p29
g3
(g5
S'\xe0\xf5%\xd8|N\xee?'
tRp30
tp31
a(S'FCTQLNRALTGIAVEQDKN_VRDLPQGFSALEPLVDLPI'
p32
g3
(g5
S'\xdf\xf5%\xd8|N\xee?'
tRp33
tp34
a.