(lp1
(S'ENQKLIANQFNSAIGKIQD_FCTQLNRALTGIAVEQDKN_FEYVSQPFLMDLEGKQGNF_GAGAALQIPFAMQMAYRFN_GAISSVLNDILSRLDKVEA_HQPYVVDDPCPIHFYSKWYI_IITLKKRWQLALSKGVHFV_KVFRSSVLHSTQDLFLPFF_LPIGINITRFQTLLALHRS_NATRFASVYAWNRKRISNC_PKEITVATSRTLSYYKLGA_PSDFVRATATIPIQASLPF_PSKRSFIEDLLFNKVTLAD_SRTLSYYKLGASQRVAGDS_SYFTSDYYQLYSTQLSTDT_TAPAICHDGKAHFPREGVF_TITSGWTFGAGAALQIPFA_TRGVYYPDKVFRSSVLHST_VEAEVQIDRLITGRLQSLQ_VKDCVVLHSYFTSDYYQLY_VRDLPQGFSALEPLVDLPI_VTQQLIRAAEIRASANLAA_YNYLYRLFRKSNLKPFERD'
p2
cnumpy.core.multiarray
scalar
p3
(cnumpy
dtype
p4
(S'f8'
I0
I1
tRp5
(I3
S'<'
NNNI-1
I-1
I0
tbS'\xa0L\x18\xf3\xd1\xa4\xeb?'
tRp6
tp7
a(S'ENQKLIANQFNSAIGKIQD_FCTQLNRALTGIAVEQDKN_GAGAALQIPFAMQMAYRFN_GAISSVLNDILSRLDKVEA_HQPYVVDDPCPIHFYSKWYI_IITLKKRWQLALSKGVHFV_KVFRSSVLHSTQDLFLPFF_LPIGINITRFQTLLALHRS_NATRFASVYAWNRKRISNC_PKEITVATSRTLSYYKLGA_PSDFVRATATIPIQASLPF_PSKRSFIEDLLFNKVTLAD_SRTLSYYKLGASQRVAGDS_SYFTSDYYQLYSTQLSTDT_TAPAICHDGKAHFPREGVF_TITSGWTFGAGAALQIPFA_TRGVYYPDKVFRSSVLHST_VEAEVQIDRLITGRLQSLQ_VKDCVVLHSYFTSDYYQLY_VRDLPQGFSALEPLVDLPI_VTQQLIRAAEIRASANLAA_YNYLYRLFRKSNLKPFERD_YSSANNCTFEYVSQPFLMD'
p8
g3
(g5
S'\xbb\x16\xa8ff\xa4\xeb?'
tRp9
tp10
a(S'CEFQFCNDPFLGVYYHKNN_ENQKLIANQFNSAIGKIQD_FCTQLNRALTGIAVEQDKN_GAGAALQIPFAMQMAYRFN_GAISSVLNDILSRLDKVEA_HQPYVVDDPCPIHFYSKWYI_IITLKKRWQLALSKGVHFV_KVFRSSVLHSTQDLFLPFF_LPIGINITRFQTLLALHRS_NATRFASVYAWNRKRISNC_PKEITVATSRTLSYYKLGA_PSDFVRATATIPIQASLPF_PSKRSFIEDLLFNKVTLAD_SRTLSYYKLGASQRVAGDS_SYFTSDYYQLYSTQLSTDT_TAPAICHDGKAHFPREGVF_TITSGWTFGAGAALQIPFA_TRGVYYPDKVFRSSVLHST_VEAEVQIDRLITGRLQSLQ_VKDCVVLHSYFTSDYYQLY_VRDLPQGFSALEPLVDLPI_VTQQLIRAAEIRASANLAA_YNYLYRLFRKSNLKPFERD'
p11
g9
tp12
a(S'ENQKLIANQFNSAIGKIQD_FCTQLNRALTGIAVEQDKN_GAGAALQIPFAMQMAYRFN_GAISSVLNDILSRLDKVEA_GNFKNLREFVFKNIDGYFK_HQPYVVDDPCPIHFYSKWYI_IITLKKRWQLALSKGVHFV_KVFRSSVLHSTQDLFLPFF_LPIGINITRFQTLLALHRS_NATRFASVYAWNRKRISNC_PKEITVATSRTLSYYKLGA_PSDFVRATATIPIQASLPF_PSKRSFIEDLLFNKVTLAD_SRTLSYYKLGASQRVAGDS_SYFTSDYYQLYSTQLSTDT_TAPAICHDGKAHFPREGVF_TITSGWTFGAGAALQIPFA_TRGVYYPDKVFRSSVLHST_VEAEVQIDRLITGRLQSLQ_VKDCVVLHSYFTSDYYQLY_VRDLPQGFSALEPLVDLPI_VTQQLIRAAEIRASANLAA_YNYLYRLFRKSNLKPFERD'
p13
g3
(g5
S'[6\xf9\xf00\xa2\xeb?'
tRp14
tp15
a(S'ENQKLIANQFNSAIGKIQD_FCTQLNRALTGIAVEQDKN_GAGAALQIPFAMQMAYRFN_GAISSVLNDILSRLDKVEA_HQPYVVDDPCPIHFYSKWYI_IITLKKRWQLALSKGVHFV_KVFRSSVLHSTQDLFLPFF_LPIGINITRFQTLLALHRS_NATRFASVYAWNRKRISNC_PKEITVATSRTLSYYKLGA_PSDFVRATATIPIQASLPF_PSKRSFIEDLLFNKVTLAD_SNCVADYSVLYNSASFSTF_SRTLSYYKLGASQRVAGDS_SYFTSDYYQLYSTQLSTDT_TAPAICHDGKAHFPREGVF_TITSGWTFGAGAALQIPFA_TRGVYYPDKVFRSSVLHST_VEAEVQIDRLITGRLQSLQ_VKDCVVLHSYFTSDYYQLY_VRDLPQGFSALEPLVDLPI_VTQQLIRAAEIRASANLAA_YNYLYRLFRKSNLKPFERD'
p16
g3
(g5
S'\xa8\x00\x01\x97\n\xa2\xeb?'
tRp17
tp18
a(S'AYANRNRFLYIIKLIFLWL_ENQKLIANQFNSAIGKIQD_FCTQLNRALTGIAVEQDKN_GAGAALQIPFAMQMAYRFN_GAISSVLNDILSRLDKVEA_HQPYVVDDPCPIHFYSKWYI_IITLKKRWQLALSKGVHFV_KVFRSSVLHSTQDLFLPFF_LPIGINITRFQTLLALHRS_NATRFASVYAWNRKRISNC_PKEITVATSRTLSYYKLGA_PSDFVRATATIPIQASLPF_PSKRSFIEDLLFNKVTLAD_SRTLSYYKLGASQRVAGDS_SYFTSDYYQLYSTQLSTDT_TAPAICHDGKAHFPREGVF_TITSGWTFGAGAALQIPFA_TRGVYYPDKVFRSSVLHST_VEAEVQIDRLITGRLQSLQ_VKDCVVLHSYFTSDYYQLY_VRDLPQGFSALEPLVDLPI_VTQQLIRAAEIRASANLAA_YNYLYRLFRKSNLKPFERD'
p19
g3
(g5
S'\x97\xdb\xeeZ\xf8\xa1\xeb?'
tRp20
tp21
a(S'ENQKLIANQFNSAIGKIQD_FCTQLNRALTGIAVEQDKN_GAGAALQIPFAMQMAYRFN_GAISSVLNDILSRLDKVEA_HQPYVVDDPCPIHFYSKWYI_IITLKKRWQLALSKGVHFV_KVFRSSVLHSTQDLFLPFF_LICAQKFNGLTVLPPLLTD_LPIGINITRFQTLLALHRS_NATRFASVYAWNRKRISNC_PKEITVATSRTLSYYKLGA_PSDFVRATATIPIQASLPF_PSKRSFIEDLLFNKVTLAD_SRTLSYYKLGASQRVAGDS_SYFTSDYYQLYSTQLSTDT_TAPAICHDGKAHFPREGVF_TITSGWTFGAGAALQIPFA_TRGVYYPDKVFRSSVLHST_VEAEVQIDRLITGRLQSLQ_VKDCVVLHSYFTSDYYQLY_VRDLPQGFSALEPLVDLPI_VTQQLIRAAEIRASANLAA_YNYLYRLFRKSNLKPFERD'
p22
g3
(g5
S'\x95\xdb\xeeZ\xf8\xa1\xeb?'
tRp23
tp24
a(S'ENQKLIANQFNSAIGKIQD_FCTQLNRALTGIAVEQDKN_GAGAALQIPFAMQMAYRFN_GAISSVLNDILSRLDKVEA_HQPYVVDDPCPIHFYSKWYI_IITLKKRWQLALSKGVHFV_KVFRSSVLHSTQDLFLPFF_LPIGINITRFQTLLALHRS_NATRFASVYAWNRKRISNC_PKEITVATSRTLSYYKLGA_PSDFVRATATIPIQASLPF_PSKRSFIEDLLFNKVTLAD_SRTLSYYKLGASQRVAGDS_SYFTSDYYQLYSTQLSTDT_TAPAICHDGKAHFPREGVF_TITSGWTFGAGAALQIPFA_TRGVYYPDKVFRSSVLHST_VEAEVQIDRLITGRLQSLQ_VFLHVTYVPAQEKNFTTAP_VKDCVVLHSYFTSDYYQLY_VRDLPQGFSALEPLVDLPI_VTQQLIRAAEIRASANLAA_YNYLYRLFRKSNLKPFERD'
p25
g3
(g5
S'\x93\xdb\xeeZ\xf8\xa1\xeb?'
tRp26
tp27
a(S'ENQKLIANQFNSAIGKIQD_FCTQLNRALTGIAVEQDKN_GAGAALQIPFAMQMAYRFN_GAISSVLNDILSRLDKVEA_HQPYVVDDPCPIHFYSKWYI_IITLKKRWQLALSKGVHFV_KVFRSSVLHSTQDLFLPFF_LFLPFFSNVTWFHAIHVSG_LPIGINITRFQTLLALHRS_NATRFASVYAWNRKRISNC_PKEITVATSRTLSYYKLGA_PSDFVRATATIPIQASLPF_PSKRSFIEDLLFNKVTLAD_SRTLSYYKLGASQRVAGDS_SYFTSDYYQLYSTQLSTDT_TAPAICHDGKAHFPREGVF_TITSGWTFGAGAALQIPFA_TRGVYYPDKVFRSSVLHST_VEAEVQIDRLITGRLQSLQ_VKDCVVLHSYFTSDYYQLY_VRDLPQGFSALEPLVDLPI_VTQQLIRAAEIRASANLAA_YNYLYRLFRKSNLKPFERD'
p28
g3
(g5
S'\x93\xdb\xeeZ\xf8\xa1\xeb?'
tRp29
tp30
a(S'DFGGFNFSQILPDPSKPSK_ENQKLIANQFNSAIGKIQD_FCTQLNRALTGIAVEQDKN_GAGAALQIPFAMQMAYRFN_GAISSVLNDILSRLDKVEA_HQPYVVDDPCPIHFYSKWYI_IITLKKRWQLALSKGVHFV_KVFRSSVLHSTQDLFLPFF_LPIGINITRFQTLLALHRS_NATRFASVYAWNRKRISNC_PKEITVATSRTLSYYKLGA_PSDFVRATATIPIQASLPF_PSKRSFIEDLLFNKVTLAD_SRTLSYYKLGASQRVAGDS_SYFTSDYYQLYSTQLSTDT_TAPAICHDGKAHFPREGVF_TITSGWTFGAGAALQIPFA_TRGVYYPDKVFRSSVLHST_VEAEVQIDRLITGRLQSLQ_VKDCVVLHSYFTSDYYQLY_VRDLPQGFSALEPLVDLPI_VTQQLIRAAEIRASANLAA_YNYLYRLFRKSNLKPFERD'
p31
g26
tp32
a.