(lp1
(S'FLNRFTTTL_KTFPPTEPK_MGYINVFAF_TVYSHLLLV_YANRNRFLY_YLQPRTFLL'
p2
cnumpy.core.multiarray
scalar
p3
(cnumpy
dtype
p4
(S'f8'
I0
I1
tRp5
(I3
S'<'
NNNI-1
I-1
I0
tbS'\x9c\x1a2Hm\x08\xef?'
tRp6
tp7
a(S'FLNRFTTTL_MGYINVFAF_TSRTLSYYK_TVYSHLLLV_YANRNRFLY_YLQPRTFLL'
p8
g3
(g5
S'?G\xfb\xf5\xf9\x00\xef?'
tRp9
tp10
a(S'ATSRTLSYY_FAYANRNRF_FLNRFTTTL_KTFPPTEPK_MGYINVFAF_YLQPRTFLL'
p11
g3
(g5
S'\xab\x8c\xe4\x08\x0b\xfa\xee?'
tRp12
tp13
a(S'FAYANRNRF_FLNRFTTTL_KTFPPTEPK_MGYINVFAF_YANRNRFLY_YLQPRTFLL'
p14
g3
(g5
S'\xa8\x0f-t\x11\xf5\xee?'
tRp15
tp16
a(S'FAYANRNRF_FLNRFTTTL_MGYINVFAF_TSRTLSYYK_YANRNRFLY_YLQPRTFLL'
p17
g3
(g5
S'\xdd\xc9\xde!u\xec\xee?'
tRp18
tp19
a(S'FLNRFTTTL_FVDGVPFVV_KTFPPTEPK_MGYINVFAF_YANRNRFLY_YLQPRTFLL'
p20
g3
(g5
S'\x7fd\xaa \xbf\xe7\xee?'
tRp21
tp22
a(S'KTFPPTEPK_MGYINVFAF_VRFPNITNL_YANRNRFLY_YLQPRTFLL_YLYALVYFL'
p23
g3
(g5
S'\x14\x95\x0e\xc3J\xe7\xee?'
tRp24
tp25
a(S'ATSRTLSYY_FLNRFTTTL_KTFPPTEPK_MGYINVFAF_YANRNRFLY_YLQPRTFLL'
p26
g3
(g5
S' \xd1\x12\xac4\xe7\xee?'
tRp27
tp28
a(S'FVDGVPFVV_KTFPPTEPK_MGYINVFAF_VRFPNITNL_YANRNRFLY_YLQPRTFLL'
p29
g3
(g5
S'\xdfM\xc6\xdaZ\xe6\xee?'
tRp30
tp31
a(S'FAYANRNRF_FLNRFTTTL_FVDGVPFVV_KTFPPTEPK_MGYINVFAF_YLQPRTFLL'
p32
g3
(g5
S'k\x14\xe8\x88c\xe5\xee?'
tRp33
tp34
a.