(lp1
(S'ATSRTLSYY_FAYANRNRF_FLNRFTTTL_FPQSAPHGV_KTFPPTEPK_MGYINVFAF_SIIAYTMSL_TVYSHLLLV_YANRNRFLY_YFIASFRLF_YLQPRTFLL_YLYALVYFL'
p2
cnumpy.core.multiarray
scalar
p3
(cnumpy
dtype
p4
(S'f8'
I0
I1
tRp5
(I3
S'<'
NNNI-1
I-1
I0
tbS'iHG|\xbc\xdd\xee?'
tRp6
tp7
a(S'ATSRTLSYY_FAYANRNRF_FLNRFTTTL_FPQSAPHGV_KTFPPTEPK_MGYINVFAF_SIIAYTMSL_SYFIASFRLF_TVYSHLLLV_YANRNRFLY_YLQPRTFLL_YLYALVYFL'
p8
g3
(g5
S'\xcdC!\x9b\x82\xda\xee?'
tRp9
tp10
a(S'ATSRTLSYY_FAYANRNRF_FLNRFTTTL_FPQSAPHGV_KTFPPTEPK_MGYINVFAF_SIIAYTMSL_TVYSHLLLV_VYFLQSINF_YANRNRFLY_YLQPRTFLL_YLYALVYFL'
p11
g3
(g5
S'-r\xf0+~\xda\xee?'
tRp12
tp13
a(S'ATSRTLSYY_FAYANRNRF_FLNRFTTTL_FPQSAPHGV_KTFPPTEPK_LYSPIFLIV_MGYINVFAF_SIIAYTMSL_TVYSHLLLV_YANRNRFLY_YLQPRTFLL_YLYALVYFL'
p14
g3
(g5
S'E\x1a}\xf81\xd8\xee?'
tRp15
tp16
a(S'ATSRTLSYY_FAYANRNRF_FLNRFTTTL_FPQSAPHGV_KTFPPTEPK_MGYINVFAF_QYIKWPWYI_SIIAYTMSL_TVYSHLLLV_YANRNRFLY_YLQPRTFLL_YLYALVYFL'
p17
g3
(g5
S'\x04\x1e\xc9\xcf\x0e\xd2\xee?'
tRp18
tp19
a(S'ATSRTLSYY_FAYANRNRF_FLNRFTTTL_FPQSAPHGV_KTFPPTEPK_MGYINVFAF_SIIAYTMSL_TSRTLSYYK_TVYSHLLLV_YANRNRFLY_YLQPRTFLL_YLYALVYFL'
p20
g3
(g5
S'\xe9I\x05,\xba\xd1\xee?'
tRp21
tp22
a(S'ATSRTLSYY_FAYANRNRF_FLNRFTTTL_FPQSAPHGV_FVDGVPFVV_KTFPPTEPK_MGYINVFAF_TVYSHLLLV_YANRNRFLY_YFIASFRLF_YLQPRTFLL_YLYALVYFL'
p23
g3
(g5
S'\xeb\x18\xdc\xdc[\xcc\xee?'
tRp24
tp25
a(S'ATSRTLSYY_FAYANRNRF_FLNRFTTTL_FPQSAPHGV_FVDGVPFVV_KTFPPTEPK_MGYINVFAF_YANRNRFLY_YFIASFRLF_YIFFASFYY_YLQPRTFLL_YLYALVYFL'
p26
g3
(g5
S'\x15&U\xe5\xc0\xc9\xee?'
tRp27
tp28
a(S'ATSRTLSYY_FAYANRNRF_FLNRFTTTL_FPQSAPHGV_FVDGVPFVV_KTFPPTEPK_MGYINVFAF_SYFIASFRLF_TVYSHLLLV_YANRNRFLY_YLQPRTFLL_YLYALVYFL'
p29
g3
(g5
S'C\xf6\xc3I8\xc9\xee?'
tRp30
tp31
a(S'ATSRTLSYY_FAYANRNRF_FLNRFTTTL_FPQSAPHGV_FVDGVPFVV_KTFPPTEPK_MGYINVFAF_TVYSHLLLV_VYFLQSINF_YANRNRFLY_YLQPRTFLL_YLYALVYFL'
p32
g3
(g5
S'\xef\x03\xb1\x074\xc9\xee?'
tRp33
tp34
a.