(lp1
(S'ATSRTLSYY_FAYANRNRF_FLNRFTTTL_FLQSINFVR_FVDGVPFVV_KTFPPTEPK_MGYINVFAF_SPRWYFYYL_YLQPRTFLL_YLYALVYFL'
p2
cnumpy.core.multiarray
scalar
p3
(cnumpy
dtype
p4
(S'f8'
I0
I1
tRp5
(I3
S'<'
NNNI-1
I-1
I0
tbS'{W\x05A\xa10\xef?'
tRp6
tp7
a(S'AEIRASANL_ATSRTLSYY_FAYANRNRF_FLNRFTTTL_FPQSAPHGV_FVDGVPFVV_KTFPPTEPK_MGYINVFAF_YLQPRTFLL_YLYALVYFL'
p8
g3
(g5
S'`\x11\xa9\xad\x800\xef?'
tRp9
tp10
a(S'FAYANRNRF_FLNRFTTTL_FPQSAPHGV_FVDGVPFVV_KTFPPTEPK_MGYINVFAF_YANRNRFLY_YIFFASFYY_YLQPRTFLL_YLYALVYFL'
p11
g3
(g5
S'\xad\x98<\xeeW0\xef?'
tRp12
tp13
a(S'ATSRTLSYY_FAYANRNRF_FLNRFTTTL_FVDGVPFVV_KTFPPTEPK_MGYINVFAF_SINFVRIIMR_SPRWYFYYL_YLQPRTFLL_YLYALVYFL'
p14
g3
(g5
S'\xec\xe6\x00-\x190\xef?'
tRp15
tp16
a(S'ATSRTLSYY_FAYANRNRF_FLNRFTTTL_FLQSINFVR_FPQSAPHGV_FVDGVPFVV_KTFPPTEPK_MGYINVFAF_YLQPRTFLL_YLYALVYFL'
p17
g3
(g5
S'\xfb=k\xcc\x8e/\xef?'
tRp18
tp19
a(S'ATSRTLSYY_FAYANRNRF_FLNRFTTTL_FPQSAPHGV_FVDGVPFVV_KTFPPTEPK_MGYINVFAF_SINFVRIIMR_YLQPRTFLL_YLYALVYFL'
p20
g3
(g5
S'\x8b\xd0\xa7\xbb\x06/\xef?'
tRp21
tp22
a(S'ATSRTLSYY_FAYANRNRF_FLNRFTTTL_FPQSAPHGV_FVDGVPFVV_KTFPPTEPK_MGYINVFAF_SPRWYFYYL_YLQPRTFLL_YLYALVYFL'
p23
g3
(g5
S"'T\x1f}\xe4-\xef?"
tRp24
tp25
a(S'ATSRTLSYY_FAYANRNRF_FLNRFTTTL_FPQSAPHGV_KTFPPTEPK_MGYINVFAF_TVYSHLLLV_YANRNRFLY_YLQPRTFLL_YLYALVYFL'
p26
g3
(g5
S'\x0b\xc1\xe9\x86L-\xef?'
tRp27
tp28
a(S'ATSRTLSYY_FLNRFTTTL_FLQSINFVR_FPQSAPHGV_KTFPPTEPK_MGYINVFAF_TVYSHLLLV_YANRNRFLY_YLQPRTFLL_YLYALVYFL'
p29
g3
(g5
S'\xbc\x15`\xb1.-\xef?'
tRp30
tp31
a(S'ATSRTLSYY_FLNRFTTTL_FPQSAPHGV_KTFPPTEPK_MGYINVFAF_SINFVRIIMR_TVYSHLLLV_YANRNRFLY_YLQPRTFLL_YLYALVYFL'
p32
g3
(g5
S'L\xb5X"\xb5,\xef?'
tRp33
tp34
a.