(lp1
(S'AEIRASANL_AELEGIQY_ALRANSAVK_ATSRTLSYY_EEHVQIHTI_FAYANRNRF_FEYVSQPFL_FLLNKEMYL_FLLPSLATV_FLNRFTTTL_FLPRVFSAV_FLQSINFVR_FPNITNLCPF_FPQSAPHGV_FPRGQGVPI_FTNVYADSF_FTYASALWEI_FVDGVPFVV_HVTFFIYNK_IPIQASLPF_IPTNFTISV_ISDYDYYRY_ITLATCELY_ITLKKRWQL_KTFPPTEPK_KVSIWNLDY_LLYDANYFL_LTDEMIAQY_LYSPIFLIV_MGYINVFAF_MPASWVMRI_MTSCCSCLK_NSASFSTFK_NVFAFPFTIY_QELYSPIFL_QYIKWPWYI_RARSVSPKL_RLFRKSNLK_RLYYDSMSY_RQLLFVVEV_RTFKVSIWNL_SIIAYTMSL_SINFVRIIMR_SPRWYFYYL_TMADLVYAL_TSRTLSYYK_TVYSHLLLV_VRFPNITNL_VTPSGTWLTY_VYFLQSINF_WTAGAAAYY_YANRNRFLY_YEQYIKWPW_YFIASFRLF_YIFFASFYY_YLDAYNMMI_YLQPRTFLL_YLYALVYFL'
p2
cnumpy.core.multiarray
scalar
p3
(cnumpy
dtype
p4
(S'f8'
I0
I1
tRp5
(I3
S'<'
NNNI-1
I-1
I0
tbS'U\x1a\x03\x94\x1c\xaa\xef?'
tRp6
tp7
a(S'AEIRASANL_AELEGIQY_ALRANSAVK_ATSRTLSYY_EEHVQIHTI_FAYANRNRF_FEYVSQPFL_FLLNKEMYL_FLLPSLATV_FLNRFTTTL_FLPRVFSAV_FLQSINFVR_FPNITNLCPF_FPQSAPHGV_FPRGQGVPI_FTNVYADSF_FTYASALWEI_FVDGVPFVV_HVTFFIYNK_IPIQASLPF_IPTNFTISV_ISDYDYYRY_ITLATCELY_ITLKKRWQL_KMQRMLLEK_KTFPPTEPK_KVSIWNLDY_LLYDANYFL_LTDEMIAQY_LYSPIFLIV_MGYINVFAF_MPASWVMRI_MTSCCSCLK_NSASFSTFK_NVFAFPFTIY_QELYSPIFL_QYIKWPWYI_RARSVSPKL_RLYYDSMSY_RQLLFVVEV_RTFKVSIWNL_SIIAYTMSL_SINFVRIIMR_SPRWYFYYL_TMADLVYAL_TSRTLSYYK_TVYSHLLLV_VRFPNITNL_VTPSGTWLTY_VYFLQSINF_WTAGAAAYY_YANRNRFLY_YEQYIKWPW_YFIASFRLF_YIFFASFYY_YLDAYNMMI_YLQPRTFLL_YLYALVYFL'
p8
g3
(g5
S'U\x1a\x03\x94\x1c\xaa\xef?'
tRp9
tp10
a(S'AEIRASANL_ALRANSAVK_ATSRTLSYY_EEHVQIHTI_FAYANRNRF_FEYVSQPFL_FLLNKEMYL_FLLPSLATV_FLNRFTTTL_FLPRVFSAV_FLQSINFVR_FPNITNLCPF_FPQSAPHGV_FPRGQGVPI_FTNVYADSF_FTYASALWEI_FVDGVPFVV_HVTFFIYNK_IPIQASLPF_IPTNFTISV_ISDYDYYRY_ITLATCELY_ITLKKRWQL_KTFPPTEPK_KVSIWNLDY_LLYDANYFL_LTDEMIAQY_LYSPIFLIV_MGYINVFAF_MPASWVMRI_MTSCCSCLK_NSASFSTFK_NVFAFPFTIY_QELYSPIFL_QYIKWPWYI_RARSVSPKL_RLFRKSNLK_RLYYDSMSY_RQLLFVVEV_RTFKVSIWNL_SIIAYTMSL_SINFVRIIMR_SPRWYFYYL_TMADLVYAL_TSRTLSYYK_TVYSHLLLV_VEHVTFFIY_VRFPNITNL_VTPSGTWLTY_VYFLQSINF_WTAGAAAYY_YANRNRFLY_YEQYIKWPW_YFIASFRLF_YIFFASFYY_YLDAYNMMI_YLQPRTFLL_YLYALVYFL'
p11
g3
(g5
S'H\x9c\x04\x81\x15\xaa\xef?'
tRp12
tp13
a(S'AEIRASANL_ALRANSAVK_ATSRTLSYY_EEHVQIHTI_FAYANRNRF_FEYVSQPFL_FLLNKEMYL_FLLPSLATV_FLNRFTTTL_FLPRVFSAV_FLQSINFVR_FPNITNLCPF_FPQSAPHGV_FPRGQGVPI_FTNVYADSF_FTYASALWEI_FVDGVPFVV_HVTFFIYNK_IPIQASLPF_IPTNFTISV_ISDYDYYRY_ITLATCELY_ITLKKRWQL_KMQRMLLEK_KTFPPTEPK_KVSIWNLDY_LLYDANYFL_LTDEMIAQY_LYSPIFLIV_MGYINVFAF_MPASWVMRI_MTSCCSCLK_NSASFSTFK_NVFAFPFTIY_QELYSPIFL_QYIKWPWYI_RARSVSPKL_RLYYDSMSY_RQLLFVVEV_RTFKVSIWNL_SIIAYTMSL_SINFVRIIMR_SPRWYFYYL_TMADLVYAL_TSRTLSYYK_TVYSHLLLV_VEHVTFFIY_VRFPNITNL_VTPSGTWLTY_VYFLQSINF_WTAGAAAYY_YANRNRFLY_YEQYIKWPW_YFIASFRLF_YIFFASFYY_YLDAYNMMI_YLQPRTFLL_YLYALVYFL'
p14
g3
(g5
S'H\x9c\x04\x81\x15\xaa\xef?'
tRp15
tp16
a(S'AEIRASANL_ALRANSAVK_ATSRTLSYY_EEHVQIHTI_FAYANRNRF_FEYVSQPFL_FLLNKEMYL_FLLPSLATV_FLNRFTTTL_FLPRVFSAV_FLQSINFVR_FPNITNLCPF_FPQSAPHGV_FPRGQGVPI_FTNVYADSF_FTYASALWEI_FVDGVPFVV_HVTFFIYNK_IPIQASLPF_IPTNFTISV_ISDYDYYRY_ITLATCELY_ITLKKRWQL_KTFPPTEPK_KVSIWNLDY_LLYDANYFL_LSPRWYFYY_LTDEMIAQY_LYSPIFLIV_MGYINVFAF_MPASWVMRI_MTSCCSCLK_NSASFSTFK_NVFAFPFTIY_QELYSPIFL_QYIKWPWYI_RARSVSPKL_RLFRKSNLK_RLYYDSMSY_RQLLFVVEV_RTFKVSIWNL_SIIAYTMSL_SINFVRIIMR_SPRWYFYYL_TMADLVYAL_TSRTLSYYK_TVYSHLLLV_VEHVTFFIY_VRFPNITNL_VYFLQSINF_WTAGAAAYY_YANRNRFLY_YEQYIKWPW_YFIASFRLF_YIFFASFYY_YLDAYNMMI_YLQPRTFLL_YLYALVYFL'
p17
g3
(g5
S'\xd7q\x1b\xcf\x0f\xaa\xef?'
tRp18
tp19
a(S'AEIRASANL_ALRANSAVK_ATSRTLSYY_EEHVQIHTI_FAYANRNRF_FEYVSQPFL_FLLNKEMYL_FLLPSLATV_FLNRFTTTL_FLPRVFSAV_FLQSINFVR_FPNITNLCPF_FPQSAPHGV_FPRGQGVPI_FTNVYADSF_FTYASALWEI_FVDGVPFVV_HVTFFIYNK_IPIQASLPF_IPTNFTISV_ISDYDYYRY_ITLATCELY_ITLKKRWQL_KMQRMLLEK_KTFPPTEPK_KVSIWNLDY_LLYDANYFL_LSPRWYFYY_LTDEMIAQY_LYSPIFLIV_MGYINVFAF_MPASWVMRI_MTSCCSCLK_NSASFSTFK_NVFAFPFTIY_QELYSPIFL_QYIKWPWYI_RARSVSPKL_RLYYDSMSY_RQLLFVVEV_RTFKVSIWNL_SIIAYTMSL_SINFVRIIMR_SPRWYFYYL_TMADLVYAL_TSRTLSYYK_TVYSHLLLV_VEHVTFFIY_VRFPNITNL_VYFLQSINF_WTAGAAAYY_YANRNRFLY_YEQYIKWPW_YFIASFRLF_YIFFASFYY_YLDAYNMMI_YLQPRTFLL_YLYALVYFL'
p20
g3
(g5
S'\xd7q\x1b\xcf\x0f\xaa\xef?'
tRp21
tp22
a(S'AEIRASANL_ALRANSAVK_ATSRTLSYY_EEHVQIHTI_FAYANRNRF_FEYVSQPFL_FLLNKEMYL_FLLPSLATV_FLNRFTTTL_FLPRVFSAV_FLQSINFVR_FPNITNLCPF_FPQSAPHGV_FPRGQGVPI_FTNVYADSF_FTYASALWEI_FVDGVPFVV_HVTFFIYNK_IPIQASLPF_IPTNFTISV_ISDYDYYRY_ITLATCELY_ITLKKRWQL_KTFPPTEPK_KVSIWNLDY_LLYDANYFL_LTDEMIAQY_LYSPIFLIV_MGYINVFAF_MPASWVMRI_MTSCCSCLK_NSASFSTFK_NVFAFPFTIY_QELYSPIFL_QYIKWPWYI_RARSVSPKL_RLFRKSNLK_RLYYDSMSY_RQLLFVVEV_RTFKVSIWNL_SIIAYTMSL_SINFVRIIMR_SPRWYFYYL_SSPDDQIGYY_TMADLVYAL_TSRTLSYYK_TVYSHLLLV_VEHVTFFIY_VRFPNITNL_VYFLQSINF_WTAGAAAYY_YANRNRFLY_YEQYIKWPW_YFIASFRLF_YIFFASFYY_YLDAYNMMI_YLQPRTFLL_YLYALVYFL'
p23
g3
(g5
S'\xe4\xcf+k\r\xaa\xef?'
tRp24
tp25
a(S'AEIRASANL_ALRANSAVK_ATSRTLSYY_EEHVQIHTI_FAYANRNRF_FEYVSQPFL_FLLNKEMYL_FLLPSLATV_FLNRFTTTL_FLPRVFSAV_FLQSINFVR_FPNITNLCPF_FPQSAPHGV_FPRGQGVPI_FTNVYADSF_FTYASALWEI_FVDGVPFVV_HVTFFIYNK_IPIQASLPF_IPTNFTISV_ISDYDYYRY_ITLATCELY_ITLKKRWQL_KMQRMLLEK_KTFPPTEPK_KVSIWNLDY_LLYDANYFL_LNDLCFTNVY_LTDEMIAQY_LYSPIFLIV_MGYINVFAF_MPASWVMRI_MTSCCSCLK_NSASFSTFK_NVFAFPFTIY_QELYSPIFL_QYIKWPWYI_RARSVSPKL_RLYYDSMSY_RQLLFVVEV_RTFKVSIWNL_SIIAYTMSL_SINFVRIIMR_SPRWYFYYL_TMADLVYAL_TSRTLSYYK_TVYSHLLLV_VEHVTFFIY_VRFPNITNL_VYFLQSINF_WTAGAAAYY_YANRNRFLY_YEQYIKWPW_YFIASFRLF_YIFFASFYY_YLDAYNMMI_YLQPRTFLL_YLYALVYFL'
p26
g3
(g5
S'\xe4\xcf+k\r\xaa\xef?'
tRp27
tp28
a(S'AEIRASANL_ALRANSAVK_ATSRTLSYY_EEHVQIHTI_FAYANRNRF_FEYVSQPFL_FLLNKEMYL_FLLPSLATV_FLNRFTTTL_FLPRVFSAV_FLQSINFVR_FPNITNLCPF_FPQSAPHGV_FPRGQGVPI_FTNVYADSF_FTYASALWEI_FVDGVPFVV_HVTFFIYNK_IPIQASLPF_IPTNFTISV_ISDYDYYRY_ITLATCELY_ITLKKRWQL_KTFPPTEPK_KVSIWNLDY_LLYDANYFL_LTDEMIAQY_LYSPIFLIV_MGYINVFAF_MIELSLIDFY_MPASWVMRI_MTSCCSCLK_NSASFSTFK_NVFAFPFTIY_QELYSPIFL_QYIKWPWYI_RARSVSPKL_RLFRKSNLK_RLYYDSMSY_RQLLFVVEV_RTFKVSIWNL_SIIAYTMSL_SINFVRIIMR_SPRWYFYYL_TMADLVYAL_TSRTLSYYK_TVYSHLLLV_VEHVTFFIY_VRFPNITNL_VYFLQSINF_WTAGAAAYY_YANRNRFLY_YEQYIKWPW_YFIASFRLF_YIFFASFYY_YLDAYNMMI_YLQPRTFLL_YLYALVYFL'
p29
g3
(g5
S'\xe3\xcf+k\r\xaa\xef?'
tRp30
tp31
a(S'AEIRASANL_ALRANSAVK_ATSRTLSYY_EEHVQIHTI_FAYANRNRF_FEYVSQPFL_FLLNKEMYL_FLLPSLATV_FLNRFTTTL_FLPRVFSAV_FLQSINFVR_FPNITNLCPF_FPQSAPHGV_FPRGQGVPI_FTNVYADSF_FTYASALWEI_FVDGVPFVV_HVTFFIYNK_IPIQASLPF_IPTNFTISV_ISDYDYYRY_ITLATCELY_ITLKKRWQL_KMQRMLLEK_KTFPPTEPK_KVSIWNLDY_LLYDANYFL_LTDEMIAQY_LYSPIFLIV_MGYINVFAF_MIELSLIDFY_MPASWVMRI_MTSCCSCLK_NSASFSTFK_NVFAFPFTIY_QELYSPIFL_QYIKWPWYI_RARSVSPKL_RLYYDSMSY_RQLLFVVEV_RTFKVSIWNL_SIIAYTMSL_SINFVRIIMR_SPRWYFYYL_TMADLVYAL_TSRTLSYYK_TVYSHLLLV_VEHVTFFIY_VRFPNITNL_VYFLQSINF_WTAGAAAYY_YANRNRFLY_YEQYIKWPW_YFIASFRLF_YIFFASFYY_YLDAYNMMI_YLQPRTFLL_YLYALVYFL'
p32
g3
(g5
S'\xe3\xcf+k\r\xaa\xef?'
tRp33
tp34
a.