(lp1
(S'MGYINVFAF_YLQPRTFLL'
p2
cnumpy.core.multiarray
scalar
p3
(cnumpy
dtype
p4
(S'f8'
I0
I1
tRp5
(I3
S'<'
NNNI-1
I-1
I0
tbS'I\x0bO\xaf\x06\xa4\xef?'
tRp6
tp7
a(S'YANRNRFLY_YLQPRTFLL'
p8
g3
(g5
S'\x1c\x03\xf6@\x01\x90\xef?'
tRp9
tp10
a(S'LPFNDGVYF_YLQPRTFLL'
p11
g3
(g5
S'@\x04\xfb\xb1t\x7f\xef?'
tRp12
tp13
a(S'FTNVYADSF_YLQPRTFLL'
p14
g3
(g5
S'\xd0\x05/\x01\x9dr\xef?'
tRp15
tp16
a(S'YINVFAFPF_YLQPRTFLL'
p17
g3
(g5
S'\x03\x7f\x0c!7e\xef?'
tRp18
tp19
a(S'FAYANRNRF_YLQPRTFLL'
p20
g3
(g5
S'\xc5M\xf2\xcdJ]\xef?'
tRp21
tp22
a(S'YFIASFRLF_YLQPRTFLL'
p23
g3
(g5
S"'^,;\x07K\xef?"
tRp24
tp25
a(S'ITLATCELY_YLQPRTFLL'
p26
g3
(g5
S'\xe8DE\xff\xc1G\xef?'
tRp27
tp28
a(S'NSIAIPTNF_YLQPRTFLL'
p29
g3
(g5
S'\xc4\xf23\xbb\xcc>\xef?'
tRp30
tp31
a(S'LPFFSNVTW_YLQPRTFLL'
p32
g3
(g5
S'\xdd\xb1n\x86\xdf/\xef?'
tRp33
tp34
a.