(lp1
(S'AEIRASANL_ATSRTLSYY_EEHVQIHTI_FAYANRNRF_FLNRFTTTL_FLQSINFVR_FPQSAPHGV_FPRGQGVPI_FTNVYADSF_FVDGVPFVV_KTFPPTEPK_MGYINVFAF_MPASWVMRI_RARSVSPKL_SIIAYTMSL_SPRWYFYYL_TMADLVYAL_TSRTLSYYK_TVYSHLLLV_VRFPNITNL_YANRNRFLY_YEQYIKWPW_YFIASFRLF_YIFFASFYY_YLDAYNMMI_YLQPRTFLL_YLYALVYFL'
p2
cnumpy.core.multiarray
scalar
p3
(cnumpy
dtype
p4
(S'f8'
I0
I1
tRp5
(I3
S'<'
NNNI-1
I-1
I0
tbS'\xffH\x01\x9b\xcf\x94\xef?'
tRp6
tp7
a(S'AEIRASANL_ATSRTLSYY_EEHVQIHTI_FAYANRNRF_FLNRFTTTL_FLQSINFVR_FPQSAPHGV_FPRGQGVPI_FTNVYADSF_FVDGVPFVV_KTFPPTEPK_LLYDANYFL_MGYINVFAF_MPASWVMRI_RARSVSPKL_SIIAYTMSL_SPRWYFYYL_TSRTLSYYK_TVYSHLLLV_VRFPNITNL_YANRNRFLY_YEQYIKWPW_YFIASFRLF_YIFFASFYY_YLDAYNMMI_YLQPRTFLL_YLYALVYFL'
p8
g3
(g5
S'\x94\x1b\x07M\x7f\x94\xef?'
tRp9
tp10
a(S'AEIRASANL_ATSRTLSYY_EEHVQIHTI_FAYANRNRF_FLNRFTTTL_FPQSAPHGV_FPRGQGVPI_FTNVYADSF_FVDGVPFVV_KTFPPTEPK_MGYINVFAF_MPASWVMRI_RARSVSPKL_SIIAYTMSL_SINFVRIIMR_SPRWYFYYL_TMADLVYAL_TSRTLSYYK_TVYSHLLLV_VRFPNITNL_YANRNRFLY_YEQYIKWPW_YFIASFRLF_YIFFASFYY_YLDAYNMMI_YLQPRTFLL_YLYALVYFL'
p11
g3
(g5
S'\xdb\x11u\xe3Z\x94\xef?'
tRp12
tp13
a(S'AEIRASANL_ATSRTLSYY_EEHVQIHTI_FAYANRNRF_FLNRFTTTL_FLQSINFVR_FPQSAPHGV_FPRGQGVPI_FTNVYADSF_FVDGVPFVV_IPIQASLPF_KTFPPTEPK_MGYINVFAF_RARSVSPKL_SIIAYTMSL_SPRWYFYYL_TMADLVYAL_TSRTLSYYK_TVYSHLLLV_VRFPNITNL_YANRNRFLY_YEQYIKWPW_YFIASFRLF_YIFFASFYY_YLDAYNMMI_YLQPRTFLL_YLYALVYFL'
p14
g3
(g5
S'\x88\x82|[\xa8\x93\xef?'
tRp15
tp16
a(S'AEIRASANL_ATSRTLSYY_EEHVQIHTI_FAYANRNRF_FLNRFTTTL_FLQSINFVR_FPQSAPHGV_FPRGQGVPI_FTNVYADSF_FVDGVPFVV_IPIQASLPF_KTFPPTEPK_LLYDANYFL_MGYINVFAF_RARSVSPKL_SIIAYTMSL_SPRWYFYYL_TSRTLSYYK_TVYSHLLLV_VRFPNITNL_YANRNRFLY_YEQYIKWPW_YFIASFRLF_YIFFASFYY_YLDAYNMMI_YLQPRTFLL_YLYALVYFL'
p17
g3
(g5
S'\xb8>\xd24Z\x93\xef?'
tRp18
tp19
a(S'AEIRASANL_ATSRTLSYY_EEHVQIHTI_FAYANRNRF_FLNRFTTTL_FPQSAPHGV_FPRGQGVPI_FTNVYADSF_FVDGVPFVV_IPIQASLPF_KTFPPTEPK_MGYINVFAF_RARSVSPKL_SIIAYTMSL_SINFVRIIMR_SPRWYFYYL_TMADLVYAL_TSRTLSYYK_TVYSHLLLV_VRFPNITNL_YANRNRFLY_YEQYIKWPW_YFIASFRLF_YIFFASFYY_YLDAYNMMI_YLQPRTFLL_YLYALVYFL'
p20
g3
(g5
S'`sdj4\x93\xef?'
tRp21
tp22
a(S'AEIRASANL_ATSRTLSYY_EEHVQIHTI_FAYANRNRF_FLNRFTTTL_FLQSINFVR_FPQSAPHGV_FPRGQGVPI_FTNVYADSF_FVDGVPFVV_KTFPPTEPK_MGYINVFAF_RARSVSPKL_SIIAYTMSL_SPRWYFYYL_TMADLVYAL_TSRTLSYYK_TVYSHLLLV_VRFPNITNL_VYFLQSINF_YANRNRFLY_YEQYIKWPW_YFIASFRLF_YIFFASFYY_YLDAYNMMI_YLQPRTFLL_YLYALVYFL'
p23
g3
(g5
S'\x83\xe2A\x18*\x93\xef?'
tRp24
tp25
a(S'AEIRASANL_ATSRTLSYY_EEHVQIHTI_FAYANRNRF_FLNRFTTTL_FLQSINFVR_FPPTSFGPL_FPQSAPHGV_FPRGQGVPI_FTNVYADSF_FVDGVPFVV_KTFPPTEPK_MGYINVFAF_RARSVSPKL_SIIAYTMSL_SPRWYFYYL_TMADLVYAL_TSRTLSYYK_TVYSHLLLV_VRFPNITNL_YANRNRFLY_YEQYIKWPW_YFIASFRLF_YIFFASFYY_YLDAYNMMI_YLQPRTFLL_YLYALVYFL'
p26
g3
(g5
S'\x93s h\x06\x93\xef?'
tRp27
tp28
a(S'AEIRASANL_ATSRTLSYY_EEHVQIHTI_FAYANRNRF_FLNRFTTTL_FLQSINFVR_FPQSAPHGV_FPRGQGVPI_FTNVYADSF_FTYASALWEI_FVDGVPFVV_KTFPPTEPK_MGYINVFAF_RARSVSPKL_SIIAYTMSL_SPRWYFYYL_TMADLVYAL_TSRTLSYYK_TVYSHLLLV_VRFPNITNL_YANRNRFLY_YEQYIKWPW_YFIASFRLF_YIFFASFYY_YLDAYNMMI_YLQPRTFLL_YLYALVYFL'
p29
g3
(g5
S'm\xd6\x119\xff\x92\xef?'
tRp30
tp31
a(S'AEIRASANL_ATSRTLSYY_EEHVQIHTI_FAYANRNRF_FLNRFTTTL_FLQSINFVR_FPQSAPHGV_FPRGQGVPI_FTNVYADSF_FVDGVPFVV_KTFPPTEPK_LLYDANYFL_MGYINVFAF_RARSVSPKL_SIIAYTMSL_SPRWYFYYL_TSRTLSYYK_TVYSHLLLV_VRFPNITNL_VYFLQSINF_YANRNRFLY_YEQYIKWPW_YFIASFRLF_YIFFASFYY_YLDAYNMMI_YLQPRTFLL_YLYALVYFL'
p32
g3
(g5
S'\x00\xd0\xc8i\xee\x92\xef?'
tRp33
tp34
a.