(lp1
(S'ATSRTLSYY_FAYANRNRF_FLNRFTTTL_FVDGVPFVV_KTFPPTEPK_MGYINVFAF_SINFVRIIMR_SPRWYFYYL_YANRNRFLY_YLQPRTFLL_YLYALVYFL'
p2
cnumpy.core.multiarray
scalar
p3
(cnumpy
dtype
p4
(S'f8'
I0
I1
tRp5
(I3
S'<'
NNNI-1
I-1
I0
tbS'\x18R\x89\xd3\xb3z\xee?'
tRp6
tp7
a(S'ATSRTLSYY_FAYANRNRF_FLNRFTTTL_FPQSAPHGV_KTFPPTEPK_MGYINVFAF_SIIAYTMSL_TVYSHLLLV_YANRNRFLY_YLQPRTFLL_YLYALVYFL'
p8
g3
(g5
S'\xa3\xd2\xce\xc0Gz\xee?'
tRp9
tp10
a(S'ATSRTLSYY_FAYANRNRF_FLNRFTTTL_FPQSAPHGV_FVDGVPFVV_KTFPPTEPK_MGYINVFAF_SPRWYFYYL_YANRNRFLY_YLQPRTFLL_YLYALVYFL'
p11
g3
(g5
S'\xf7kJ\x14@y\xee?'
tRp12
tp13
a(S'ATSRTLSYY_FAYANRNRF_FLNRFTTTL_FLQSINFVR_FVDGVPFVV_KTFPPTEPK_MGYINVFAF_SPRWYFYYL_YANRNRFLY_YLQPRTFLL_YLYALVYFL'
p14
g3
(g5
S'A\x11\x0c\tOw\xee?'
tRp15
tp16
a(S'ATSRTLSYY_FAYANRNRF_FLNRFTTTL_FPQSAPHGV_FVDGVPFVV_KTFPPTEPK_MGYINVFAF_YANRNRFLY_YIFFASFYY_YLQPRTFLL_YLYALVYFL'
p17
g3
(g5
S'\xc0F\xd6E\xe5v\xee?'
tRp18
tp19
a(S'ATSRTLSYY_FAYANRNRF_FLNRFTTTL_FPQSAPHGV_KTFPPTEPK_MGYINVFAF_TVYSHLLLV_YANRNRFLY_YFIASFRLF_YLQPRTFLL_YLYALVYFL'
p20
g3
(g5
S'oaw\x1c\xf6t\xee?'
tRp21
tp22
a(S'FAYANRNRF_FLNRFTTTL_FPQSAPHGV_FVDGVPFVV_KTFPPTEPK_MGYINVFAF_SPRWYFYYL_YANRNRFLY_YIFFASFYY_YLQPRTFLL_YLYALVYFL'
p23
g3
(g5
S'\xa3\xc6Q:\xcar\xee?'
tRp24
tp25
a(S'ATSRTLSYY_FAYANRNRF_FLNRFTTTL_FPQSAPHGV_FVDGVPFVV_KTFPPTEPK_MGYINVFAF_TVYSHLLLV_YANRNRFLY_YLQPRTFLL_YLYALVYFL'
p26
g3
(g5
S'\xecwk\xb84r\xee?'
tRp27
tp28
a(S'ATSRTLSYY_FAYANRNRF_FLNRFTTTL_FPQSAPHGV_KTFPPTEPK_MGYINVFAF_SPRWYFYYL_TVYSHLLLV_YANRNRFLY_YLQPRTFLL_YLYALVYFL'
p29
g3
(g5
S'\xabp)\xf8\xd3q\xee?'
tRp30
tp31
a(S'ATSRTLSYY_FAYANRNRF_FLNRFTTTL_FVDGVPFVV_KTFPPTEPK_MGYINVFAF_SINFVRIIMR_SPRWYFYYL_YFIASFRLF_YLQPRTFLL_YLYALVYFL'
p32
g3
(g5
S'\xc56\x1b?Co\xee?'
tRp33
tp34
a.