(lp1
(S'ATSRTLSYY_FAYANRNRF_FLNRFTTTL_FPQSAPHGV_FVDGVPFVV_KTFPPTEPK_MGYINVFAF_YLQPRTFLL_YLYALVYFL'
p2
cnumpy.core.multiarray
scalar
p3
(cnumpy
dtype
p4
(S'f8'
I0
I1
tRp5
(I3
S'<'
NNNI-1
I-1
I0
tbS'\xd8Ha\x88\xa3\xf8\xee?'
tRp6
tp7
a(S'ATSRTLSYY_FAYANRNRF_FLNRFTTTL_FVDGVPFVV_KTFPPTEPK_MGYINVFAF_SPRWYFYYL_YLQPRTFLL_YLYALVYFL'
p8
g3
(g5
S'/\xd7*\xce\xd6\xf3\xee?'
tRp9
tp10
a(S'ATSRTLSYY_FAYANRNRF_FLNRFTTTL_FVDGVPFVV_KTFPPTEPK_MGYINVFAF_TSRTLSYYK_YLQPRTFLL_YLYALVYFL'
p11
g3
(g5
S'g\xf8\x08\xd1\x9e\xf1\xee?'
tRp12
tp13
a(S'ATSRTLSYY_FLNRFTTTL_KTFPPTEPK_MGYINVFAF_TSRTLSYYK_TVYSHLLLV_YANRNRFLY_YLQPRTFLL_YLYALVYFL'
p14
g3
(g5
S'o\xce.cr\xf1\xee?'
tRp15
tp16
a(S'ATSRTLSYY_FAYANRNRF_FLNRFTTTL_KTFPPTEPK_MGYINVFAF_TVYSHLLLV_YANRNRFLY_YLQPRTFLL_YLYALVYFL'
p17
g3
(g5
S'8\x0c\x92p\\\xee\xee?'
tRp18
tp19
a(S'FAYANRNRF_FLNRFTTTL_FVDGVPFVV_KTFPPTEPK_MGYINVFAF_YANRNRFLY_YIFFASFYY_YLQPRTFLL_YLYALVYFL'
p20
g3
(g5
S'\x7f\xfdG\xbe\xd7\xed\xee?'
tRp21
tp22
a(S'ATSRTLSYY_FLNRFTTTL_FPQSAPHGV_KTFPPTEPK_MGYINVFAF_TVYSHLLLV_YANRNRFLY_YLQPRTFLL_YLYALVYFL'
p23
g3
(g5
S'\xc5\x12\x03\xb2\xb3\xec\xee?'
tRp24
tp25
a(S'ATSRTLSYY_FAYANRNRF_FLNRFTTTL_FPRGQGVPI_FVDGVPFVV_KTFPPTEPK_MGYINVFAF_YLQPRTFLL_YLYALVYFL'
p26
g3
(g5
S'E\xa1$\xb0\xb2\xec\xee?'
tRp27
tp28
a(S'ATSRTLSYY_FAYANRNRF_FLNRFTTTL_FVDGVPFVV_IPRRNVATL_KTFPPTEPK_MGYINVFAF_YLQPRTFLL_YLYALVYFL'
p29
g3
(g5
S'\x8c\x82\xb6\x10?\xec\xee?'
tRp30
tp31
a(S'ATSRTLSYY_FAYANRNRF_FLNRFTTTL_FVDGVPFVV_KTFPPTEPK_MGYINVFAF_YANRNRFLY_YLQPRTFLL_YLYALVYFL'
p32
g3
(g5
S'\x1b\xf9\xbf\x8b\xc8\xeb\xee?'
tRp33
tp34
a.