(lp1
(S'ATSRTLSYY_FAYANRNRF_FLNRFTTTL_FVDGVPFVV_KTFPPTEPK_MGYINVFAF_YLQPRTFLL_YLYALVYFL'
p2
cnumpy.core.multiarray
scalar
p3
(cnumpy
dtype
p4
(S'f8'
I0
I1
tRp5
(I3
S'<'
NNNI-1
I-1
I0
tbS'<\xa3\xaa\x8d\t\xa0\xee?'
tRp6
tp7
a(S'ATSRTLSYY_FAYANRNRF_FLNRFTTTL_KTFPPTEPK_MGYINVFAF_YANRNRFLY_YLQPRTFLL_YLYALVYFL'
p8
g3
(g5
S'\x93\xe0\xc5<\xa3\x9f\xee?'
tRp9
tp10
a(S'ATSRTLSYY_FLNRFTTTL_KTFPPTEPK_MGYINVFAF_TVYSHLLLV_YANRNRFLY_YLQPRTFLL_YLYALVYFL'
p11
g3
(g5
S'@[\xa6"\xa0\x9c\xee?'
tRp12
tp13
a(S'ATSRTLSYY_FAYANRNRF_FLNRFTTTL_KTFPPTEPK_MGYINVFAF_SPRWYFYYL_YLQPRTFLL_YLYALVYFL'
p14
g3
(g5
S'eW\xbb\xbdw\x92\xee?'
tRp15
tp16
a(S'ATSRTLSYY_FLNRFTTTL_MGYINVFAF_TSRTLSYYK_TVYSHLLLV_YANRNRFLY_YLQPRTFLL_YLYALVYFL'
p17
g3
(g5
S'A]w[U\x91\xee?'
tRp18
tp19
a(S'FAYANRNRF_FLNRFTTTL_FVDGVPFVV_KTFPPTEPK_MGYINVFAF_YANRNRFLY_YIFFASFYY_YLQPRTFLL'
p20
g3
(g5
S'{\xf6\x1f\xb6#\x8d\xee?'
tRp21
tp22
a(S'ATSRTLSYY_FAYANRNRF_FLNRFTTTL_FPQSAPHGV_FVDGVPFVV_KTFPPTEPK_MGYINVFAF_YLQPRTFLL'
p23
g3
(g5
S'3\xa9\xd5\xa3\xbe\x8c\xee?'
tRp24
tp25
a(S'ATSRTLSYY_FAYANRNRF_FLNRFTTTL_KTFPPTEPK_MGYINVFAF_TVYSHLLLV_YANRNRFLY_YLQPRTFLL'
p26
g3
(g5
S'\xfd\x90\x18+\xba\x8a\xee?'
tRp27
tp28
a(S'ATSRTLSYY_FAYANRNRF_FLNRFTTTL_FVDGVPFVV_KTFPPTEPK_MGYINVFAF_SPRWYFYYL_YLQPRTFLL'
p29
g3
(g5
S'p\xd1\xcf\xf8m\x8a\xee?'
tRp30
tp31
a(S'ATSRTLSYY_FAYANRNRF_FLNRFTTTL_FVDGVPFVV_KTFPPTEPK_MGYINVFAF_YANRNRFLY_YLQPRTFLL'
p32
g3
(g5
S'\xb96\x16+\x06\x8a\xee?'
tRp33
tp34
a.