(lp1
(S'AEIRASANL_ATSRTLSYY_FAYANRNRF_FLNRFTTTL_FLQSINFVR_FPQSAPHGV_FPRGQGVPI_FVDGVPFVV_HVTFFIYNK_KTFPPTEPK_MGYINVFAF_SIIAYTMSL_SPRWYFYYL_TMADLVYAL_TSRTLSYYK_TVYSHLLLV_YANRNRFLY_YEQYIKWPW_YFIASFRLF_YLQPRTFLL_YLYALVYFL'
p2
cnumpy.core.multiarray
scalar
p3
(cnumpy
dtype
p4
(S'f8'
I0
I1
tRp5
(I3
S'<'
NNNI-1
I-1
I0
tbS';\x7fC\xf5\xa5\x86\xef?'
tRp6
tp7
a(S'AEIRASANL_ATSRTLSYY_FAYANRNRF_FLNRFTTTL_FLQSINFVR_FPQSAPHGV_FPRGQGVPI_FVDGVPFVV_KTFPPTEPK_MGYINVFAF_SIIAYTMSL_SPRWYFYYL_TMADLVYAL_TSRTLSYYK_TVYSHLLLV_YANRNRFLY_YEQYIKWPW_YFIASFRLF_YIFFASFYY_YLQPRTFLL_YLYALVYFL'
p8
g3
(g5
S'\x00\x8a\xbd\x16w\x86\xef?'
tRp9
tp10
a(S'AEIRASANL_ATSRTLSYY_FAYANRNRF_FLNRFTTTL_FPQSAPHGV_FPRGQGVPI_FVDGVPFVV_HVTFFIYNK_KTFPPTEPK_MGYINVFAF_SIIAYTMSL_SINFVRIIMR_SPRWYFYYL_TMADLVYAL_TSRTLSYYK_TVYSHLLLV_YANRNRFLY_YEQYIKWPW_YFIASFRLF_YLQPRTFLL_YLYALVYFL'
p11
g3
(g5
S'\xfd\xb2\xf8Ln\x86\xef?'
tRp12
tp13
a(S'AEIRASANL_ATSRTLSYY_FAYANRNRF_FLNRFTTTL_FLQSINFVR_FPQSAPHGV_FPRGQGVPI_FVDGVPFVV_KTFPPTEPK_MGYINVFAF_MTSCCSCLK_SIIAYTMSL_SPRWYFYYL_TMADLVYAL_TSRTLSYYK_TVYSHLLLV_YANRNRFLY_YEQYIKWPW_YFIASFRLF_YLQPRTFLL_YLYALVYFL'
p14
g3
(g5
S'\xa3 \x91\x88j\x86\xef?'
tRp15
tp16
a(S'AEIRASANL_ATSRTLSYY_FAYANRNRF_FLNRFTTTL_FLQSINFVR_FPQSAPHGV_FPRGQGVPI_FVDGVPFVV_HVTFFIYNK_KTFPPTEPK_LLYDANYFL_MGYINVFAF_SIIAYTMSL_SPRWYFYYL_TSRTLSYYK_TVYSHLLLV_YANRNRFLY_YEQYIKWPW_YFIASFRLF_YLQPRTFLL_YLYALVYFL'
p17
g3
(g5
S'\xb3\xc0\xfe\xd2O\x86\xef?'
tRp18
tp19
a(S'AEIRASANL_ATSRTLSYY_FAYANRNRF_FLNRFTTTL_FPQSAPHGV_FPRGQGVPI_FVDGVPFVV_KTFPPTEPK_MGYINVFAF_SIIAYTMSL_SINFVRIIMR_SPRWYFYYL_TMADLVYAL_TSRTLSYYK_TVYSHLLLV_YANRNRFLY_YEQYIKWPW_YFIASFRLF_YIFFASFYY_YLQPRTFLL_YLYALVYFL'
p20
g3
(g5
S'@\x9eY^7\x86\xef?'
tRp21
tp22
a(S'AEIRASANL_ATSRTLSYY_FAYANRNRF_FLNRFTTTL_FPQSAPHGV_FPRGQGVPI_FVDGVPFVV_KTFPPTEPK_MGYINVFAF_MTSCCSCLK_SIIAYTMSL_SINFVRIIMR_SPRWYFYYL_TMADLVYAL_TSRTLSYYK_TVYSHLLLV_YANRNRFLY_YEQYIKWPW_YFIASFRLF_YLQPRTFLL_YLYALVYFL'
p23
g3
(g5
S'I\xa2+a.\x86\xef?'
tRp24
tp25
a(S'AEIRASANL_ATSRTLSYY_FAYANRNRF_FLNRFTTTL_FLQSINFVR_FPQSAPHGV_FPRGQGVPI_FVDGVPFVV_KTFPPTEPK_LLYDANYFL_MGYINVFAF_SIIAYTMSL_SPRWYFYYL_TSRTLSYYK_TVYSHLLLV_YANRNRFLY_YEQYIKWPW_YFIASFRLF_YIFFASFYY_YLQPRTFLL_YLYALVYFL'
p26
g3
(g5
S'\x83\xa3\x91\xdb-\x86\xef?'
tRp27
tp28
a(S'AEIRASANL_ATSRTLSYY_FAYANRNRF_FLNRFTTTL_FPQSAPHGV_FPRGQGVPI_FVDGVPFVV_HVTFFIYNK_KTFPPTEPK_LLYDANYFL_MGYINVFAF_SIIAYTMSL_SINFVRIIMR_SPRWYFYYL_TSRTLSYYK_TVYSHLLLV_YANRNRFLY_YEQYIKWPW_YFIASFRLF_YLQPRTFLL_YLYALVYFL'
p29
g3
(g5
S'\xcb\x80\xc7 \x18\x86\xef?'
tRp30
tp31
a(S'AEIRASANL_ATSRTLSYY_FAYANRNRF_FLNRFTTTL_FLQSINFVR_FPQSAPHGV_FPRGQGVPI_FVDGVPFVV_KTFPPTEPK_LLYDANYFL_MGYINVFAF_MTSCCSCLK_SIIAYTMSL_SPRWYFYYL_TSRTLSYYK_TVYSHLLLV_YANRNRFLY_YEQYIKWPW_YFIASFRLF_YLQPRTFLL_YLYALVYFL'
p32
g3
(g5
S'\xbc\xf0t\xb0\x14\x86\xef?'
tRp33
tp34
a.