(lp1
(S'ATSRTLSYY_FLNRFTTTL_KTFPPTEPK_MGYINVFAF_TVYSHLLLV_YANRNRFLY_YLQPRTFLL'
p2
cnumpy.core.multiarray
scalar
p3
(cnumpy
dtype
p4
(S'f8'
I0
I1
tRp5
(I3
S'<'
NNNI-1
I-1
I0
tbS'[\xecgB\xdb&\xee?'
tRp6
tp7
a(S'ATSRTLSYY_FAYANRNRF_FLNRFTTTL_FVDGVPFVV_KTFPPTEPK_MGYINVFAF_YLQPRTFLL'
p8
g3
(g5
S'\xa0\xd9\xa8eT#\xee?'
tRp9
tp10
a(S'ATSRTLSYY_FLNRFTTTL_KTFPPTEPK_MGYINVFAF_YANRNRFLY_YLQPRTFLL_YLYALVYFL'
p11
g3
(g5
S'\r2\xe3o\x9a\x1a\xee?'
tRp12
tp13
a(S'ATSRTLSYY_FLNRFTTTL_MGYINVFAF_TSRTLSYYK_TVYSHLLLV_YANRNRFLY_YLQPRTFLL'
p14
g3
(g5
S' \x89\xd7\x06-\x19\xee?'
tRp15
tp16
a(S'ATSRTLSYY_FAYANRNRF_FLNRFTTTL_KTFPPTEPK_MGYINVFAF_YLQPRTFLL_YLYALVYFL'
p17
g3
(g5
S'\xc1e\xf1\xc5n\x15\xee?'
tRp18
tp19
a(S'ATSRTLSYY_FLNRFTTTL_FVDGVPFVV_KTFPPTEPK_MGYINVFAF_YANRNRFLY_YLQPRTFLL'
p20
g3
(g5
S"\xad%\x85\xd8'\x07\xee?"
tRp21
tp22
a(S'FAYANRNRF_FLNRFTTTL_FVDGVPFVV_KTFPPTEPK_MGYINVFAF_YANRNRFLY_YLQPRTFLL'
p23
g3
(g5
S'I4\xc3KX\x06\xee?'
tRp24
tp25
a(S'FLNRFTTTL_FVDGVPFVV_KTFPPTEPK_MGYINVFAF_YANRNRFLY_YIFFASFYY_YLQPRTFLL'
p26
g3
(g5
S'\xaf`\xcd\xd9+\x06\xee?'
tRp27
tp28
a(S'ATSRTLSYY_FAYANRNRF_FLNRFTTTL_KTFPPTEPK_MGYINVFAF_SIIAYTMSL_YLQPRTFLL'
p29
g3
(g5
S';/!2\xf8\x01\xee?'
tRp30
tp31
a(S'FLNRFTTTL_KTFPPTEPK_MGYINVFAF_TVYSHLLLV_YANRNRFLY_YIFFASFYY_YLQPRTFLL'
p32
g3
(g5
S'p\xed\x8a\xc9\xc6\x01\xee?'
tRp33
tp34
a.