(lp1
(S'AEIRASANL_ALRANSAVK_ATSRTLSYY_EEHVQIHTI_FAYANRNRF_FEYVSQPFL_FLLPSLATV_FLNRFTTTL_FLPRVFSAV_FLQSINFVR_FPQSAPHGV_FPRGQGVPI_FTNVYADSF_FTYASALWEI_FVDGVPFVV_HVTFFIYNK_IPIQASLPF_IPTNFTISV_ISDYDYYRY_ITLATCELY_ITLKKRWQL_KTFPPTEPK_LLYDANYFL_LTDEMIAQY_LYSPIFLIV_MGYINVFAF_MPASWVMRI_MTSCCSCLK_NSASFSTFK_NVFAFPFTIY_QELYSPIFL_QYIKWPWYI_RARSVSPKL_RLFRKSNLK_RLYYDSMSY_RQLLFVVEV_RTFKVSIWNL_SIIAYTMSL_SINFVRIIMR_SPRWYFYYL_TMADLVYAL_TSRTLSYYK_TVYSHLLLV_VEHVTFFIY_VRFPNITNL_VYFLQSINF_WTAGAAAYY_YANRNRFLY_YEQYIKWPW_YFIASFRLF_YIFFASFYY_YLDAYNMMI_YLQPRTFLL_YLYALVYFL'
p2
cnumpy.core.multiarray
scalar
p3
(cnumpy
dtype
p4
(S'f8'
I0
I1
tRp5
(I3
S'<'
NNNI-1
I-1
I0
tbS'\xc4\x8da\xa5\x01\xc1\xef?'
tRp6
tp7
a(S'AEIRASANL_ALRANSAVK_ATSRTLSYY_EEHVQIHTI_FAYANRNRF_FEYVSQPFL_FLLPSLATV_FLNRFTTTL_FLPRVFSAV_FLQSINFVR_FPQSAPHGV_FPRGQGVPI_FTNVYADSF_FTYASALWEI_FVDGVPFVV_HVTFFIYNK_IPIQASLPF_IPTNFTISV_ISDYDYYRY_ITLATCELY_ITLKKRWQL_KMQRMLLEK_KTFPPTEPK_LLYDANYFL_LTDEMIAQY_LYSPIFLIV_MGYINVFAF_MPASWVMRI_MTSCCSCLK_NSASFSTFK_NVFAFPFTIY_QELYSPIFL_QYIKWPWYI_RARSVSPKL_RLYYDSMSY_RQLLFVVEV_RTFKVSIWNL_SIIAYTMSL_SINFVRIIMR_SPRWYFYYL_TMADLVYAL_TSRTLSYYK_TVYSHLLLV_VEHVTFFIY_VRFPNITNL_VYFLQSINF_WTAGAAAYY_YANRNRFLY_YEQYIKWPW_YFIASFRLF_YIFFASFYY_YLDAYNMMI_YLQPRTFLL_YLYALVYFL'
p8
g3
(g5
S'\xc4\x8da\xa5\x01\xc1\xef?'
tRp9
tp10
a(S'AEIRASANL_AELEGIQY_ALRANSAVK_ATSRTLSYY_EEHVQIHTI_FAYANRNRF_FEYVSQPFL_FLLPSLATV_FLNRFTTTL_FLPRVFSAV_FLQSINFVR_FPQSAPHGV_FPRGQGVPI_FTNVYADSF_FTYASALWEI_FVDGVPFVV_HVTFFIYNK_IPIQASLPF_IPTNFTISV_ISDYDYYRY_ITLATCELY_ITLKKRWQL_KTFPPTEPK_LLYDANYFL_LTDEMIAQY_LYSPIFLIV_MGYINVFAF_MPASWVMRI_MTSCCSCLK_NSASFSTFK_NVFAFPFTIY_QELYSPIFL_QYIKWPWYI_RARSVSPKL_RLFRKSNLK_RLYYDSMSY_RQLLFVVEV_RTFKVSIWNL_SIIAYTMSL_SINFVRIIMR_SPRWYFYYL_TMADLVYAL_TSRTLSYYK_TVYSHLLLV_VRFPNITNL_VYFLQSINF_WTAGAAAYY_YANRNRFLY_YEQYIKWPW_YFIASFRLF_YIFFASFYY_YLDAYNMMI_YLQPRTFLL_YLYALVYFL'
p11
g3
(g5
S'\xac\xc2\xdce\xfb\xc0\xef?'
tRp12
tp13
a(S'AEIRASANL_AELEGIQY_ALRANSAVK_ATSRTLSYY_EEHVQIHTI_FAYANRNRF_FEYVSQPFL_FLLPSLATV_FLNRFTTTL_FLPRVFSAV_FLQSINFVR_FPQSAPHGV_FPRGQGVPI_FTNVYADSF_FTYASALWEI_FVDGVPFVV_HVTFFIYNK_IPIQASLPF_IPTNFTISV_ISDYDYYRY_ITLATCELY_ITLKKRWQL_KMQRMLLEK_KTFPPTEPK_LLYDANYFL_LTDEMIAQY_LYSPIFLIV_MGYINVFAF_MPASWVMRI_MTSCCSCLK_NSASFSTFK_NVFAFPFTIY_QELYSPIFL_QYIKWPWYI_RARSVSPKL_RLYYDSMSY_RQLLFVVEV_RTFKVSIWNL_SIIAYTMSL_SINFVRIIMR_SPRWYFYYL_TMADLVYAL_TSRTLSYYK_TVYSHLLLV_VRFPNITNL_VYFLQSINF_WTAGAAAYY_YANRNRFLY_YEQYIKWPW_YFIASFRLF_YIFFASFYY_YLDAYNMMI_YLQPRTFLL_YLYALVYFL'
p14
g3
(g5
S'\xac\xc2\xdce\xfb\xc0\xef?'
tRp15
tp16
a(S'AEIRASANL_ALRANSAVK_ATSRTLSYY_EEHVQIHTI_FAYANRNRF_FEYVSQPFL_FLLNKEMYL_FLLPSLATV_FLNRFTTTL_FLQSINFVR_FPQSAPHGV_FPRGQGVPI_FTNVYADSF_FTYASALWEI_FVDGVPFVV_HVTFFIYNK_IPIQASLPF_IPTNFTISV_ISDYDYYRY_ITLATCELY_ITLKKRWQL_KTFPPTEPK_LLYDANYFL_LTDEMIAQY_LYSPIFLIV_MGYINVFAF_MPASWVMRI_MTSCCSCLK_NSASFSTFK_NVFAFPFTIY_QELYSPIFL_QYIKWPWYI_RARSVSPKL_RLFRKSNLK_RLYYDSMSY_RTFKVSIWNL_SIIAYTMSL_SINFVRIIMR_SPRWYFYYL_TMADLVYAL_TSRTLSYYK_TVYSHLLLV_VEHVTFFIY_VRFPNITNL_VTPSGTWLTY_VYFLQSINF_WTAGAAAYY_YANRNRFLY_YEQYIKWPW_YFIASFRLF_YIFFASFYY_YLDAYNMMI_YLQPRTFLL_YLYALVYFL'
p17
g3
(g5
S'\x0b\xd5\x1c\xcd<\xc0\xef?'
tRp18
tp19
a(S'AEIRASANL_ALRANSAVK_ATSRTLSYY_EEHVQIHTI_FAYANRNRF_FEYVSQPFL_FLLNKEMYL_FLLPSLATV_FLNRFTTTL_FLQSINFVR_FPQSAPHGV_FPRGQGVPI_FTNVYADSF_FTYASALWEI_FVDGVPFVV_HVTFFIYNK_IPIQASLPF_IPTNFTISV_ISDYDYYRY_ITLATCELY_ITLKKRWQL_KMQRMLLEK_KTFPPTEPK_LLYDANYFL_LTDEMIAQY_LYSPIFLIV_MGYINVFAF_MPASWVMRI_MTSCCSCLK_NSASFSTFK_NVFAFPFTIY_QELYSPIFL_QYIKWPWYI_RARSVSPKL_RLYYDSMSY_RTFKVSIWNL_SIIAYTMSL_SINFVRIIMR_SPRWYFYYL_TMADLVYAL_TSRTLSYYK_TVYSHLLLV_VEHVTFFIY_VRFPNITNL_VTPSGTWLTY_VYFLQSINF_WTAGAAAYY_YANRNRFLY_YEQYIKWPW_YFIASFRLF_YIFFASFYY_YLDAYNMMI_YLQPRTFLL_YLYALVYFL'
p20
g3
(g5
S'\x0b\xd5\x1c\xcd<\xc0\xef?'
tRp21
tp22
a(S'AEIRASANL_ALRANSAVK_ATSRTLSYY_EEHVQIHTI_FAYANRNRF_FEYVSQPFL_FLLNKEMYL_FLLPSLATV_FLNRFTTTL_FLQSINFVR_FPQSAPHGV_FPRGQGVPI_FTNVYADSF_FTYASALWEI_FVDGVPFVV_HVTFFIYNK_IPIQASLPF_IPTNFTISV_ISDYDYYRY_ITLATCELY_ITLKKRWQL_KTFPPTEPK_LLYDANYFL_LSPRWYFYY_LTDEMIAQY_LYSPIFLIV_MGYINVFAF_MPASWVMRI_MTSCCSCLK_NSASFSTFK_NVFAFPFTIY_QELYSPIFL_QYIKWPWYI_RARSVSPKL_RLFRKSNLK_RLYYDSMSY_RTFKVSIWNL_SIIAYTMSL_SINFVRIIMR_SPRWYFYYL_TMADLVYAL_TSRTLSYYK_TVYSHLLLV_VEHVTFFIY_VRFPNITNL_VYFLQSINF_WTAGAAAYY_YANRNRFLY_YEQYIKWPW_YFIASFRLF_YIFFASFYY_YLDAYNMMI_YLQPRTFLL_YLYALVYFL'
p23
g3
(g5
S'\xa1\xaa3\x1b7\xc0\xef?'
tRp24
tp25
a(S'AEIRASANL_ALRANSAVK_ATSRTLSYY_EEHVQIHTI_FAYANRNRF_FEYVSQPFL_FLLNKEMYL_FLLPSLATV_FLNRFTTTL_FLQSINFVR_FPQSAPHGV_FPRGQGVPI_FTNVYADSF_FTYASALWEI_FVDGVPFVV_HVTFFIYNK_IPIQASLPF_IPTNFTISV_ISDYDYYRY_ITLATCELY_ITLKKRWQL_KMQRMLLEK_KTFPPTEPK_LLYDANYFL_LSPRWYFYY_LTDEMIAQY_LYSPIFLIV_MGYINVFAF_MPASWVMRI_MTSCCSCLK_NSASFSTFK_NVFAFPFTIY_QELYSPIFL_QYIKWPWYI_RARSVSPKL_RLYYDSMSY_RTFKVSIWNL_SIIAYTMSL_SINFVRIIMR_SPRWYFYYL_TMADLVYAL_TSRTLSYYK_TVYSHLLLV_VEHVTFFIY_VRFPNITNL_VYFLQSINF_WTAGAAAYY_YANRNRFLY_YEQYIKWPW_YFIASFRLF_YIFFASFYY_YLDAYNMMI_YLQPRTFLL_YLYALVYFL'
p26
g3
(g5
S'\xa1\xaa3\x1b7\xc0\xef?'
tRp27
tp28
a(S'AEIRASANL_AELEGIQY_ALRANSAVK_ATSRTLSYY_EEHVQIHTI_FAYANRNRF_FEYVSQPFL_FLLNKEMYL_FLLPSLATV_FLNRFTTTL_FLQSINFVR_FPQSAPHGV_FPRGQGVPI_FTNVYADSF_FTYASALWEI_FVDGVPFVV_HVTFFIYNK_IPIQASLPF_IPTNFTISV_ISDYDYYRY_ITLATCELY_ITLKKRWQL_KTFPPTEPK_LLYDANYFL_LTDEMIAQY_LYSPIFLIV_MGYINVFAF_MPASWVMRI_MTSCCSCLK_NSASFSTFK_NVFAFPFTIY_QELYSPIFL_QYIKWPWYI_RARSVSPKL_RLFRKSNLK_RLYYDSMSY_RTFKVSIWNL_SIIAYTMSL_SINFVRIIMR_SPRWYFYYL_TMADLVYAL_TSRTLSYYK_TVYSHLLLV_VRFPNITNL_VTPSGTWLTY_VYFLQSINF_WTAGAAAYY_YANRNRFLY_YEQYIKWPW_YFIASFRLF_YIFFASFYY_YLDAYNMMI_YLQPRTFLL_YLYALVYFL'
p29
g3
(g5
S'w\xd8\xf5\x1e5\xc0\xef?'
tRp30
tp31
a(S'AEIRASANL_AELEGIQY_ALRANSAVK_ATSRTLSYY_EEHVQIHTI_FAYANRNRF_FEYVSQPFL_FLLNKEMYL_FLLPSLATV_FLNRFTTTL_FLQSINFVR_FPQSAPHGV_FPRGQGVPI_FTNVYADSF_FTYASALWEI_FVDGVPFVV_HVTFFIYNK_IPIQASLPF_IPTNFTISV_ISDYDYYRY_ITLATCELY_ITLKKRWQL_KMQRMLLEK_KTFPPTEPK_LLYDANYFL_LTDEMIAQY_LYSPIFLIV_MGYINVFAF_MPASWVMRI_MTSCCSCLK_NSASFSTFK_NVFAFPFTIY_QELYSPIFL_QYIKWPWYI_RARSVSPKL_RLYYDSMSY_RTFKVSIWNL_SIIAYTMSL_SINFVRIIMR_SPRWYFYYL_TMADLVYAL_TSRTLSYYK_TVYSHLLLV_VRFPNITNL_VTPSGTWLTY_VYFLQSINF_WTAGAAAYY_YANRNRFLY_YEQYIKWPW_YFIASFRLF_YIFFASFYY_YLDAYNMMI_YLQPRTFLL_YLYALVYFL'
p32
g3
(g5
S'w\xd8\xf5\x1e5\xc0\xef?'
tRp33
tp34
a.