(lp1
(S'FLNRFTTTL_KTFPPTEPK_MGYINVFAF_YANRNRFLY_YLQPRTFLL'
p2
cnumpy.core.multiarray
scalar
p3
(cnumpy
dtype
p4
(S'f8'
I0
I1
tRp5
(I3
S'<'
NNNI-1
I-1
I0
tbS'3\xec\xc5\xb0\x1e|\xee?'
tRp6
tp7
a(S'FLNRFTTTL_MGYINVFAF_TSRTLSYYK_YANRNRFLY_YLQPRTFLL'
p8
g3
(g5
S'O\xd9\x05\xdaDq\xee?'
tRp9
tp10
a(S'FVDGVPFVV_KTFPPTEPK_MGYINVFAF_YANRNRFLY_YLQPRTFLL'
p11
g3
(g5
S'\xdb\x80\x05c\n]\xee?'
tRp12
tp13
a(S'KTFPPTEPK_MGYINVFAF_TVYSHLLLV_YANRNRFLY_YLQPRTFLL'
p14
g3
(g5
S',\x0f@\x86\xf2\\\xee?'
tRp15
tp16
a(S'FAYANRNRF_FVDGVPFVV_KTFPPTEPK_MGYINVFAF_YLQPRTFLL'
p17
g3
(g5
S'\xcb\xa4\x142\x9eR\xee?'
tRp18
tp19
a(S'FVDGVPFVV_MGYINVFAF_TSRTLSYYK_YANRNRFLY_YLQPRTFLL'
p20
g3
(g5
S'\xb8\x1d>1\xf9L\xee?'
tRp21
tp22
a(S'KTFPPTEPK_MGYINVFAF_YANRNRFLY_YLQPRTFLL_YLYALVYFL'
p23
g3
(g5
S'k\x0fd\x9f_J\xee?'
tRp24
tp25
a(S'MGYINVFAF_TSRTLSYYK_TVYSHLLLV_YANRNRFLY_YLQPRTFLL'
p26
g3
(g5
S'o\x9b\xc3Z\x13I\xee?'
tRp27
tp28
a(S'FAYANRNRF_FVDGVPFVV_MGYINVFAF_TSRTLSYYK_YLQPRTFLL'
p29
g3
(g5
S'\xb8\xa2v\x9d\x14C\xee?'
tRp30
tp31
a(S'FAYANRNRF_FLNRFTTTL_KTFPPTEPK_MGYINVFAF_YLQPRTFLL'
p32
g3
(g5
S'\xd5\x0e^\xbd\xb49\xee?'
tRp33
tp34
a.