(lp1
(S'AEIRASANL_ALRANSAVK_ATSRTLSYY_EEHVQIHTI_FAYANRNRF_FEYVSQPFL_FLLPSLATV_FLNRFTTTL_FLQSINFVR_FPQSAPHGV_FPRGQGVPI_FTNVYADSF_FTYASALWEI_FVDGVPFVV_HVTFFIYNK_IPTNFTISV_ISDYDYYRY_ITLATCELY_KTFPPTEPK_LLYDANYFL_LTDEMIAQY_LYSPIFLIV_MGYINVFAF_MPASWVMRI_MTSCCSCLK_NVFAFPFTIY_RARSVSPKL_RLFRKSNLK_RLYYDSMSY_RTFKVSIWNL_SIIAYTMSL_SINFVRIIMR_SPRWYFYYL_TMADLVYAL_TSRTLSYYK_TVYSHLLLV_VEHVTFFIY_VRFPNITNL_VYFLQSINF_WTAGAAAYY_YANRNRFLY_YEQYIKWPW_YFIASFRLF_YIFFASFYY_YLDAYNMMI_YLQPRTFLL_YLYALVYFL'
p2
cnumpy.core.multiarray
scalar
p3
(cnumpy
dtype
p4
(S'f8'
I0
I1
tRp5
(I3
S'<'
NNNI-1
I-1
I0
tbS'\x88\xdbW\xe1_\xcc\xef?'
tRp6
tp7
a(S'AEIRASANL_ALRANSAVK_ATSRTLSYY_EEHVQIHTI_FAYANRNRF_FEYVSQPFL_FLLPSLATV_FLNRFTTTL_FLQSINFVR_FPQSAPHGV_FPRGQGVPI_FTNVYADSF_FTYASALWEI_FVDGVPFVV_HVTFFIYNK_IPTNFTISV_ISDYDYYRY_ITLATCELY_KTFPPTEPK_LLYDANYFL_LTDEMIAQY_LYSPIFLIV_MGYINVFAF_MPASWVMRI_MTSCCSCLK_NVFAFPFTIY_QELYSPIFL_RARSVSPKL_RLFRKSNLK_RLYYDSMSY_RTFKVSIWNL_SIIAYTMSL_SINFVRIIMR_SPRWYFYYL_TMADLVYAL_TSRTLSYYK_TVYSHLLLV_VRFPNITNL_VYFLQSINF_WTAGAAAYY_YANRNRFLY_YEQYIKWPW_YFIASFRLF_YIFFASFYY_YLDAYNMMI_YLQPRTFLL_YLYALVYFL'
p8
g3
(g5
S'}\xec\xc3\x81?\xcc\xef?'
tRp9
tp10
a(S'AEIRASANL_ALRANSAVK_ATSRTLSYY_EEHVQIHTI_FAYANRNRF_FEYVSQPFL_FLLPSLATV_FLNRFTTTL_FLQSINFVR_FPQSAPHGV_FPRGQGVPI_FTNVYADSF_FTYASALWEI_FVDGVPFVV_HVTFFIYNK_IPTNFTISV_ISDYDYYRY_ITLATCELY_KMQRMLLEK_KTFPPTEPK_LLYDANYFL_LTDEMIAQY_LYSPIFLIV_MGYINVFAF_MPASWVMRI_MTSCCSCLK_NVFAFPFTIY_QELYSPIFL_RARSVSPKL_RLYYDSMSY_RTFKVSIWNL_SIIAYTMSL_SINFVRIIMR_SPRWYFYYL_TMADLVYAL_TSRTLSYYK_TVYSHLLLV_VRFPNITNL_VYFLQSINF_WTAGAAAYY_YANRNRFLY_YEQYIKWPW_YFIASFRLF_YIFFASFYY_YLDAYNMMI_YLQPRTFLL_YLYALVYFL'
p11
g3
(g5
S'}\xec\xc3\x81?\xcc\xef?'
tRp12
tp13
a(S'AEIRASANL_ALRANSAVK_ATSRTLSYY_EEHVQIHTI_FAYANRNRF_FEYVSQPFL_FLLPSLATV_FLNRFTTTL_FLQSINFVR_FPQSAPHGV_FPRGQGVPI_FTNVYADSF_FTYASALWEI_FVDGVPFVV_HVTFFIYNK_IPTNFTISV_ISDYDYYRY_ITLATCELY_KTFPPTEPK_LLYDANYFL_LTDEMIAQY_LYSPIFLIV_MGYINVFAF_MPASWVMRI_MTSCCSCLK_NVFAFPFTIY_QELYSPIFL_RARSVSPKL_RLYYDSMSY_RTFKVSIWNL_SIIAYTMSL_SINFVRIIMR_SPRWYFYYL_TLKSFTVEK_TMADLVYAL_TSRTLSYYK_TVYSHLLLV_VRFPNITNL_VYFLQSINF_WTAGAAAYY_YANRNRFLY_YEQYIKWPW_YFIASFRLF_YIFFASFYY_YLDAYNMMI_YLQPRTFLL_YLYALVYFL'
p14
g3
(g5
S'8,\xb6\xe9.\xcc\xef?'
tRp15
tp16
a(S'AEIRASANL_ALRANSAVK_ATSRTLSYY_EEHVQIHTI_FAYANRNRF_FEYVSQPFL_FLLPSLATV_FLNRFTTTL_FLQSINFVR_FPQSAPHGV_FPRGQGVPI_FTNVYADSF_FTYASALWEI_FVDGVPFVV_HVTFFIYNK_IPIQASLPF_IPTNFTISV_ISDYDYYRY_ITLATCELY_KTFPPTEPK_LLYDANYFL_LTDEMIAQY_LYSPIFLIV_MGYINVFAF_MPASWVMRI_MTSCCSCLK_NVFAFPFTIY_QELYSPIFL_RARSVSPKL_RLYYDSMSY_RTFKVSIWNL_SIIAYTMSL_SINFVRIIMR_SPRWYFYYL_TMADLVYAL_TSRTLSYYK_TVYSHLLLV_VRFPNITNL_VYFLQSINF_WTAGAAAYY_YANRNRFLY_YEQYIKWPW_YFIASFRLF_YIFFASFYY_YLDAYNMMI_YLQPRTFLL_YLYALVYFL'
p17
g3
(g5
S'\xa7i\xd1\xa7\x1d\xcc\xef?'
tRp18
tp19
a(S'AEIRASANL_ALRANSAVK_ATSRTLSYY_EEHVQIHTI_FAYANRNRF_FEYVSQPFL_FLLPSLATV_FLNRFTTTL_FLQSINFVR_FPQSAPHGV_FPRGQGVPI_FTNVYADSF_FTYASALWEI_FVDGVPFVV_HVTFFIYNK_IPTNFTISV_ISDYDYYRY_ITLATCELY_KTFPPTEPK_LLYDANYFL_LTDEMIAQY_LYSPIFLIV_MGYINVFAF_MPASWVMRI_NSASFSTFK_NVFAFPFTIY_RARSVSPKL_RLFRKSNLK_RLYYDSMSY_RTFKVSIWNL_SIIAYTMSL_SINFVRIIMR_SPRWYFYYL_TMADLVYAL_TSRTLSYYK_TVYSHLLLV_VEHVTFFIY_VRFPNITNL_VYFLQSINF_WTAGAAAYY_YANRNRFLY_YEQYIKWPW_YFIASFRLF_YIFFASFYY_YLDAYNMMI_YLQPRTFLL_YLYALVYFL'
p20
g3
(g5
S'\xd8\x9f\x0b\xa0\xcf\xcb\xef?'
tRp21
tp22
a(S'AEIRASANL_ALRANSAVK_ATSRTLSYY_EEHVQIHTI_FAYANRNRF_FEYVSQPFL_FLLPSLATV_FLNRFTTTL_FLQSINFVR_FPQSAPHGV_FPRGQGVPI_FTNVYADSF_FTYASALWEI_FVDGVPFVV_HVTFFIYNK_IPTNFTISV_ISDYDYYRY_ITLATCELY_KTFPPTEPK_LLYDANYFL_LTDEMIAQY_LYSPIFLIV_MGYINVFAF_MPASWVMRI_NSASFSTFK_NVFAFPFTIY_QELYSPIFL_RARSVSPKL_RLFRKSNLK_RLYYDSMSY_RTFKVSIWNL_SIIAYTMSL_SINFVRIIMR_SPRWYFYYL_TMADLVYAL_TSRTLSYYK_TVYSHLLLV_VRFPNITNL_VYFLQSINF_WTAGAAAYY_YANRNRFLY_YEQYIKWPW_YFIASFRLF_YIFFASFYY_YLDAYNMMI_YLQPRTFLL_YLYALVYFL'
p23
g3
(g5
S'C\x9f\xae"\xb5\xcb\xef?'
tRp24
tp25
a(S'AEIRASANL_ALRANSAVK_ATSRTLSYY_EEHVQIHTI_FAYANRNRF_FEYVSQPFL_FLLPSLATV_FLNRFTTTL_FLQSINFVR_FPQSAPHGV_FPRGQGVPI_FTNVYADSF_FTYASALWEI_FVDGVPFVV_HVTFFIYNK_IPTNFTISV_ISDYDYYRY_ITLATCELY_KMQRMLLEK_KTFPPTEPK_LLYDANYFL_LTDEMIAQY_LYSPIFLIV_MGYINVFAF_MPASWVMRI_NSASFSTFK_NVFAFPFTIY_QELYSPIFL_RARSVSPKL_RLYYDSMSY_RTFKVSIWNL_SIIAYTMSL_SINFVRIIMR_SPRWYFYYL_TMADLVYAL_TSRTLSYYK_TVYSHLLLV_VRFPNITNL_VYFLQSINF_WTAGAAAYY_YANRNRFLY_YEQYIKWPW_YFIASFRLF_YIFFASFYY_YLDAYNMMI_YLQPRTFLL_YLYALVYFL'
p26
g3
(g5
S'C\x9f\xae"\xb5\xcb\xef?'
tRp27
tp28
a(S'AEIRASANL_ALRANSAVK_ATSRTLSYY_EEHVQIHTI_FAYANRNRF_FEYVSQPFL_FLLPSLATV_FLNRFTTTL_FLQSINFVR_FPQSAPHGV_FPRGQGVPI_FTNVYADSF_FTYASALWEI_FVDGVPFVV_HVTFFIYNK_IPTNFTISV_ISDYDYYRY_ITLATCELY_KTFPPTEPK_LLYDANYFL_LTDEMIAQY_LYSPIFLIV_MGYINVFAF_MPASWVMRI_NSASFSTFK_NVFAFPFTIY_QELYSPIFL_RARSVSPKL_RLYYDSMSY_RTFKVSIWNL_SIIAYTMSL_SINFVRIIMR_SPRWYFYYL_TLKSFTVEK_TMADLVYAL_TSRTLSYYK_TVYSHLLLV_VRFPNITNL_VYFLQSINF_WTAGAAAYY_YANRNRFLY_YEQYIKWPW_YFIASFRLF_YIFFASFYY_YLDAYNMMI_YLQPRTFLL_YLYALVYFL'
p29
g3
(g5
S'\xff\xde\xa0\x8a\xa4\xcb\xef?'
tRp30
tp31
a(S'AEIRASANL_ALRANSAVK_ATSRTLSYY_EEHVQIHTI_FAYANRNRF_FEYVSQPFL_FLLPSLATV_FLNRFTTTL_FLQSINFVR_FPQSAPHGV_FPRGQGVPI_FTNVYADSF_FTYASALWEI_FVDGVPFVV_HVTFFIYNK_IPTNFTISV_ISDYDYYRY_ITLATCELY_KTFPPTEPK_LLYDANYFL_LTDEMIAQY_LYSPIFLIV_MGYINVFAF_MPASWVMRI_NVFAFPFTIY_QELYSPIFL_RARSVSPKL_RLFRKSNLK_RLYYDSMSY_RTFKVSIWNL_SIIAYTMSL_SINFVRIIMR_SPRWYFYYL_TMADLVYAL_TSRTLSYYK_TVYSHLLLV_VEHVTFFIY_VRFPNITNL_VYFLQSINF_WTAGAAAYY_YANRNRFLY_YEQYIKWPW_YFIASFRLF_YIFFASFYY_YLDAYNMMI_YLQPRTFLL_YLYALVYFL'
p32
g3
(g5
S'\x14->S\xa4\xcb\xef?'
tRp33
tp34
a.