(lp1
(S'ATSRTLSYY_FAYANRNRF_FLNRFTTTL_FPQSAPHGV_KTFPPTEPK_MGYINVFAF_SIIAYTMSL_SINFVRIIMR_TSRTLSYYK_TVYSHLLLV_YANRNRFLY_YFIASFRLF_YLQPRTFLL_YLYALVYFL'
p2
cnumpy.core.multiarray
scalar
p3
(cnumpy
dtype
p4
(S'f8'
I0
I1
tRp5
(I3
S'<'
NNNI-1
I-1
I0
tbS'?\xc2\xe5\xb8QE\xef?'
tRp6
tp7
a(S'ATSRTLSYY_FAYANRNRF_FLNRFTTTL_FLQSINFVR_FPQSAPHGV_KTFPPTEPK_MGYINVFAF_SIIAYTMSL_TSRTLSYYK_TVYSHLLLV_YANRNRFLY_YFIASFRLF_YLQPRTFLL_YLYALVYFL'
p8
g3
(g5
S'\x8b\x03\xb1\x1e\x08E\xef?'
tRp9
tp10
a(S'AEIRASANL_ATSRTLSYY_FAYANRNRF_FLNRFTTTL_FPQSAPHGV_KTFPPTEPK_MGYINVFAF_SIIAYTMSL_TSRTLSYYK_TVYSHLLLV_YANRNRFLY_YFIASFRLF_YLQPRTFLL_YLYALVYFL'
p11
g3
(g5
S'\xe3b\xc7/\xbaD\xef?'
tRp12
tp13
a(S'ATSRTLSYY_FAYANRNRF_FLNRFTTTL_FPQSAPHGV_KTFPPTEPK_MGYINVFAF_SIIAYTMSL_SINFVRIIMR_SYFIASFRLF_TSRTLSYYK_TVYSHLLLV_YANRNRFLY_YLQPRTFLL_YLYALVYFL'
p14
g3
(g5
S'\xa3\xe9\x89u\xa7B\xef?'
tRp15
tp16
a(S'ATSRTLSYY_FAYANRNRF_FLNRFTTTL_FPQSAPHGV_KTFPPTEPK_MGYINVFAF_SIIAYTMSL_SINFVRIIMR_TSRTLSYYK_TVYSHLLLV_VYFLQSINF_YANRNRFLY_YLQPRTFLL_YLYALVYFL'
p17
g3
(g5
S'\\9I/\xa6B\xef?'
tRp18
tp19
a(S'ATSRTLSYY_FAYANRNRF_FLNRFTTTL_FLQSINFVR_FPQSAPHGV_KTFPPTEPK_MGYINVFAF_SIIAYTMSL_SYFIASFRLF_TSRTLSYYK_TVYSHLLLV_YANRNRFLY_YLQPRTFLL_YLYALVYFL'
p20
g3
(g5
S'A\xa1\xb3\xe2]B\xef?'
tRp21
tp22
a(S'ATSRTLSYY_FAYANRNRF_FLNRFTTTL_FLQSINFVR_FPQSAPHGV_KTFPPTEPK_MGYINVFAF_SIIAYTMSL_TSRTLSYYK_TVYSHLLLV_VYFLQSINF_YANRNRFLY_YLQPRTFLL_YLYALVYFL'
p23
g3
(g5
S'\xfb\xf0r\x9c\\B\xef?'
tRp24
tp25
a(S'AEIRASANL_ATSRTLSYY_FAYANRNRF_FLNRFTTTL_FPQSAPHGV_KTFPPTEPK_MGYINVFAF_SIIAYTMSL_SYFIASFRLF_TSRTLSYYK_TVYSHLLLV_YANRNRFLY_YLQPRTFLL_YLYALVYFL'
p26
g3
(g5
S'1tZ\xe6KB\xef?'
tRp27
tp28
a(S'AEIRASANL_ATSRTLSYY_FAYANRNRF_FLNRFTTTL_FPQSAPHGV_KTFPPTEPK_MGYINVFAF_SIIAYTMSL_TSRTLSYYK_TVYSHLLLV_VYFLQSINF_YANRNRFLY_YLQPRTFLL_YLYALVYFL'
p29
g3
(g5
S'$tZ\xe6KB\xef?'
tRp30
tp31
a(S'AEIRASANL_ATSRTLSYY_FAYANRNRF_FLNRFTTTL_FPQSAPHGV_KTFPPTEPK_LYSPIFLIV_MGYINVFAF_SIIAYTMSL_TSRTLSYYK_TVYSHLLLV_YANRNRFLY_YLQPRTFLL_YLYALVYFL'
p32
g3
(g5
S'\xb8\xba\xf6\xd7\xe6@\xef?'
tRp33
tp34
a.