(lp1
(S'KVFRSSVLHSTQDLFLPFF_LPIGINITRFQTLLALHRS_VKDCVVLHSYFTSDYYQLY'
p2
cnumpy.core.multiarray
scalar
p3
(cnumpy
dtype
p4
(S'f8'
I0
I1
tRp5
(I3
S'<'
NNNI-1
I-1
I0
tbS'\xf3\xce{P\x07\xbe\xee?'
tRp6
tp7
a(S'IITLKKRWQLALSKGVHFV_KVFRSSVLHSTQDLFLPFF_VKDCVVLHSYFTSDYYQLY'
p8
g3
(g5
S'\x11xr[\x94\xbd\xee?'
tRp9
tp10
a(S'KVFRSSVLHSTQDLFLPFF_NATRFASVYAWNRKRISNC_VKDCVVLHSYFTSDYYQLY'
p11
g3
(g5
S'\xa5\xd65\xd3\x9b\xbc\xee?'
tRp12
tp13
a(S'LPIGINITRFQTLLALHRS_VKDCVVLHSYFTSDYYQLY_VRDLPQGFSALEPLVDLPI'
p14
g3
(g5
S'm\x1a\x0c*\x1a\xbc\xee?'
tRp15
tp16
a(S'LPIGINITRFQTLLALHRS_SYFTSDYYQLYSTQLSTDT_VKDCVVLHSYFTSDYYQLY'
p17
g3
(g5
S'l\x1a\x0c*\x1a\xbc\xee?'
tRp18
tp19
a(S'KVFRSSVLHSTQDLFLPFF_LPIGINITRFQTLLALHRS_VRDLPQGFSALEPLVDLPI'
p20
g3
(g5
S'k\x1a\x0c*\x1a\xbc\xee?'
tRp21
tp22
a(S'KVFRSSVLHSTQDLFLPFF_LPIGINITRFQTLLALHRS_SYFTSDYYQLYSTQLSTDT'
p23
g3
(g5
S'h\x1a\x0c*\x1a\xbc\xee?'
tRp24
tp25
a(S'IITLKKRWQLALSKGVHFV_NATRFASVYAWNRKRISNC_VKDCVVLHSYFTSDYYQLY'
p26
g3
(g5
S'3\xdfX\xe7\x16\xba\xee?'
tRp27
tp28
a(S'IITLKKRWQLALSKGVHFV_KVFRSSVLHSTQDLFLPFF_NATRFASVYAWNRKRISNC'
p29
g3
(g5
S',\xdfX\xe7\x16\xba\xee?'
tRp30
tp31
a(S'IITLKKRWQLALSKGVHFV_SYFTSDYYQLYSTQLSTDT_VKDCVVLHSYFTSDYYQLY'
p32
g3
(g5
S'!\x93&s\xec\xb9\xee?'
tRp33
tp34
a.