(lp1
(S'IITLKKRWQLALSKGVHFV_KVFRSSVLHSTQDLFLPFF_PKEITVATSRTLSYYKLGA_RWYFYYLGTGPEAGLPYGA_SYFTSDYYQLYSTQLSTDT_TRGVYYPDKVFRSSVLHST_VKDCVVLHSYFTSDYYQLY_VRDLPQGFSALEPLVDLPI'
p2
cnumpy.core.multiarray
scalar
p3
(cnumpy
dtype
p4
(S'f8'
I0
I1
tRp5
(I3
S'<'
NNNI-1
I-1
I0
tbS'O\xf4\xa3\xa4\xb1\x14\xee?'
tRp6
tp7
a(S'IITLKKRWQLALSKGVHFV_KVFRSSVLHSTQDLFLPFF_NGGDAALALLLLDRLNQLE_RWYFYYLGTGPEAGLPYGA_SYFTSDYYQLYSTQLSTDT_TRGVYYPDKVFRSSVLHST_VKDCVVLHSYFTSDYYQLY_VRDLPQGFSALEPLVDLPI'
p8
g3
(g5
S'\xef\x10H`\x1a\x13\xee?'
tRp9
tp10
a(S'HQPYVVDDPCPIHFYSKWYI_IITLKKRWQLALSKGVHFV_KVFRSSVLHSTQDLFLPFF_RWYFYYLGTGPEAGLPYGA_SYFTSDYYQLYSTQLSTDT_TRGVYYPDKVFRSSVLHST_VKDCVVLHSYFTSDYYQLY_VRDLPQGFSALEPLVDLPI'
p11
g3
(g5
S'/\xda\x19q\xf9\x12\xee?'
tRp12
tp13
a(S'IITLKKRWQLALSKGVHFV_KVFRSSVLHSTQDLFLPFF_RWYFYYLGTGPEAGLPYGA_SYFTSDYYQLYSTQLSTDT_TRGVYYPDKVFRSSVLHST_TYTGAIKLDDKDPNFKDQV_VKDCVVLHSYFTSDYYQLY_VRDLPQGFSALEPLVDLPI'
p14
g3
(g5
S'-\xda\x19q\xf9\x12\xee?'
tRp15
tp16
a(S'IITLKKRWQLALSKGVHFV_KVFRSSVLHSTQDLFLPFF_LPIGINITRFQTLLALHRS_PKEITVATSRTLSYYKLGA_RWYFYYLGTGPEAGLPYGA_TRGVYYPDKVFRSSVLHST_VKDCVVLHSYFTSDYYQLY_VRDLPQGFSALEPLVDLPI'
p17
g3
(g5
S'\x9b\x8b*F,\x08\xee?'
tRp18
tp19
a(S'IITLKKRWQLALSKGVHFV_KVFRSSVLHSTQDLFLPFF_LPIGINITRFQTLLALHRS_PKEITVATSRTLSYYKLGA_RWYFYYLGTGPEAGLPYGA_SYFTSDYYQLYSTQLSTDT_TRGVYYPDKVFRSSVLHST_VKDCVVLHSYFTSDYYQLY'
p20
g3
(g5
S'\x9b\x8b*F,\x08\xee?'
tRp21
tp22
a(S'KVFRSSVLHSTQDLFLPFF_LPIGINITRFQTLLALHRS_NATRFASVYAWNRKRISNC_PKEITVATSRTLSYYKLGA_RWYFYYLGTGPEAGLPYGA_SYFTSDYYQLYSTQLSTDT_TRGVYYPDKVFRSSVLHST_VKDCVVLHSYFTSDYYQLY'
p23
g3
(g5
S'\xc7\x80\x88\xa0\xa3\x07\xee?'
tRp24
tp25
a(S'KVFRSSVLHSTQDLFLPFF_LPIGINITRFQTLLALHRS_NATRFASVYAWNRKRISNC_PKEITVATSRTLSYYKLGA_RWYFYYLGTGPEAGLPYGA_TRGVYYPDKVFRSSVLHST_VKDCVVLHSYFTSDYYQLY_VRDLPQGFSALEPLVDLPI'
p26
g3
(g5
S'\xc0\x80\x88\xa0\xa3\x07\xee?'
tRp27
tp28
a(S'IITLKKRWQLALSKGVHFV_KVFRSSVLHSTQDLFLPFF_NATRFASVYAWNRKRISNC_PKEITVATSRTLSYYKLGA_RWYFYYLGTGPEAGLPYGA_TRGVYYPDKVFRSSVLHST_VKDCVVLHSYFTSDYYQLY_VRDLPQGFSALEPLVDLPI'
p29
g3
(g5
S'8\x829\x12\xde\x06\xee?'
tRp30
tp31
a(S'IITLKKRWQLALSKGVHFV_KVFRSSVLHSTQDLFLPFF_NATRFASVYAWNRKRISNC_PKEITVATSRTLSYYKLGA_RWYFYYLGTGPEAGLPYGA_SYFTSDYYQLYSTQLSTDT_TRGVYYPDKVFRSSVLHST_VKDCVVLHSYFTSDYYQLY'
p32
g3
(g5
S'5\x829\x12\xde\x06\xee?'
tRp33
tp34
a.