(lp1
(S'DGVKHVYQLRARSVSPKLFI_FEYVSQPFLMDLEGKQGNF_HQPYVVDDPCPIHFYSKWYI_IITLKKRWQLALSKGVHFV_KVFRSSVLHSTQDLFLPFF_LPIGINITRFQTLLALHRS_MDLFMRIFTIGTVTLKQGE_MWLSYFIASFRLFARTRSM_NATRFASVYAWNRKRISNC_NGGDAALALLLLDRLNQLE_PKEITVATSRTLSYYKLGA_PRQKRTATKAYNVTQAFGR_PSDFVRATATIPIQASLPF_QTNSPRRARSVASQSIIAY_RWYFYYLGTGPEAGLPYGA_SYFTSDYYQLYSTQLSTDT_TRGVYYPDKVFRSSVLHST_TYTGAIKLDDKDPNFKDQV_VKDCVVLHSYFTSDYYQLY_VRDLPQGFSALEPLVDLPI_YNYLYRLFRKSNLKPFERD_YSSANNCTFEYVSQPFLMD'
p2
cnumpy.core.multiarray
scalar
p3
(cnumpy
dtype
p4
(S'f8'
I0
I1
tRp5
(I3
S'<'
NNNI-1
I-1
I0
tbS'E\xc7XY\x00I\xed?'
tRp6
tp7
a(S'DGVKHVYQLRARSVSPKLFI_DNKFALTCFSTQFAFACPDG_FEYVSQPFLMDLEGKQGNF_HQPYVVDDPCPIHFYSKWYI_IITLKKRWQLALSKGVHFV_KVFRSSVLHSTQDLFLPFF_LPIGINITRFQTLLALHRS_MDLFMRIFTIGTVTLKQGE_MWLSYFIASFRLFARTRSM_NATRFASVYAWNRKRISNC_NGGDAALALLLLDRLNQLE_PKEITVATSRTLSYYKLGA_PRQKRTATKAYNVTQAFGR_PSDFVRATATIPIQASLPF_QTNSPRRARSVASQSIIAY_RWYFYYLGTGPEAGLPYGA_SYFTSDYYQLYSTQLSTDT_TRGVYYPDKVFRSSVLHST_TYTGAIKLDDKDPNFKDQV_VKDCVVLHSYFTSDYYQLY_VRDLPQGFSALEPLVDLPI_YNYLYRLFRKSNLKPFERD'
p8
g3
(g5
S'E\xc7XY\x00I\xed?'
tRp9
tp10
a(S'CEFQFCNDPFLGVYYHKNN_DGVKHVYQLRARSVSPKLFI_FEYVSQPFLMDLEGKQGNF_HQPYVVDDPCPIHFYSKWYI_IITLKKRWQLALSKGVHFV_KVFRSSVLHSTQDLFLPFF_LPIGINITRFQTLLALHRS_MDLFMRIFTIGTVTLKQGE_MWLSYFIASFRLFARTRSM_NATRFASVYAWNRKRISNC_NGGDAALALLLLDRLNQLE_PKEITVATSRTLSYYKLGA_PRQKRTATKAYNVTQAFGR_PSDFVRATATIPIQASLPF_QTNSPRRARSVASQSIIAY_RWYFYYLGTGPEAGLPYGA_SYFTSDYYQLYSTQLSTDT_TRGVYYPDKVFRSSVLHST_TYTGAIKLDDKDPNFKDQV_VKDCVVLHSYFTSDYYQLY_VRDLPQGFSALEPLVDLPI_YNYLYRLFRKSNLKPFERD'
p11
g6
tp12
a(S'DGVKHVYQLRARSVSPKLFI_DNKFALTCFSTQFAFACPDG_HQPYVVDDPCPIHFYSKWYI_IITLKKRWQLALSKGVHFV_KVFRSSVLHSTQDLFLPFF_LPIGINITRFQTLLALHRS_MDLFMRIFTIGTVTLKQGE_MWLSYFIASFRLFARTRSM_NATRFASVYAWNRKRISNC_NGGDAALALLLLDRLNQLE_PKEITVATSRTLSYYKLGA_PRQKRTATKAYNVTQAFGR_PSDFVRATATIPIQASLPF_QTNSPRRARSVASQSIIAY_RWYFYYLGTGPEAGLPYGA_SYFTSDYYQLYSTQLSTDT_TRGVYYPDKVFRSSVLHST_TYTGAIKLDDKDPNFKDQV_VKDCVVLHSYFTSDYYQLY_VRDLPQGFSALEPLVDLPI_YNYLYRLFRKSNLKPFERD_YSSANNCTFEYVSQPFLMD'
p13
g3
(g5
S'\xbb?\xa1\x96\xf4H\xed?'
tRp14
tp15
a(S'CEFQFCNDPFLGVYYHKNN_DGVKHVYQLRARSVSPKLFI_DNKFALTCFSTQFAFACPDG_HQPYVVDDPCPIHFYSKWYI_IITLKKRWQLALSKGVHFV_KVFRSSVLHSTQDLFLPFF_LPIGINITRFQTLLALHRS_MDLFMRIFTIGTVTLKQGE_MWLSYFIASFRLFARTRSM_NATRFASVYAWNRKRISNC_NGGDAALALLLLDRLNQLE_PKEITVATSRTLSYYKLGA_PRQKRTATKAYNVTQAFGR_PSDFVRATATIPIQASLPF_QTNSPRRARSVASQSIIAY_RWYFYYLGTGPEAGLPYGA_SYFTSDYYQLYSTQLSTDT_TRGVYYPDKVFRSSVLHST_TYTGAIKLDDKDPNFKDQV_VKDCVVLHSYFTSDYYQLY_VRDLPQGFSALEPLVDLPI_YNYLYRLFRKSNLKPFERD'
p16
g3
(g5
S'\xbb?\xa1\x96\xf4H\xed?'
tRp17
tp18
a(S'CEFQFCNDPFLGVYYHKNN_DGVKHVYQLRARSVSPKLFI_HQPYVVDDPCPIHFYSKWYI_IITLKKRWQLALSKGVHFV_KVFRSSVLHSTQDLFLPFF_LPIGINITRFQTLLALHRS_MDLFMRIFTIGTVTLKQGE_MWLSYFIASFRLFARTRSM_NATRFASVYAWNRKRISNC_NGGDAALALLLLDRLNQLE_PKEITVATSRTLSYYKLGA_PRQKRTATKAYNVTQAFGR_PSDFVRATATIPIQASLPF_QTNSPRRARSVASQSIIAY_RWYFYYLGTGPEAGLPYGA_SYFTSDYYQLYSTQLSTDT_TRGVYYPDKVFRSSVLHST_TYTGAIKLDDKDPNFKDQV_VKDCVVLHSYFTSDYYQLY_VRDLPQGFSALEPLVDLPI_YNYLYRLFRKSNLKPFERD_YSSANNCTFEYVSQPFLMD'
p19
g3
(g5
S'\xb9?\xa1\x96\xf4H\xed?'
tRp20
tp21
a(S'AVFQSASKIITLKKRWQLA_DGVKHVYQLRARSVSPKLFI_DNKFALTCFSTQFAFACPDG_FEYVSQPFLMDLEGKQGNF_HQPYVVDDPCPIHFYSKWYI_IITLKKRWQLALSKGVHFV_KVFRSSVLHSTQDLFLPFF_LPIGINITRFQTLLALHRS_MDLFMRIFTIGTVTLKQGE_NATRFASVYAWNRKRISNC_NGGDAALALLLLDRLNQLE_PKEITVATSRTLSYYKLGA_PRQKRTATKAYNVTQAFGR_PSDFVRATATIPIQASLPF_QTNSPRRARSVASQSIIAY_RWYFYYLGTGPEAGLPYGA_SYFTSDYYQLYSTQLSTDT_TRGVYYPDKVFRSSVLHST_TYTGAIKLDDKDPNFKDQV_VKDCVVLHSYFTSDYYQLY_VRDLPQGFSALEPLVDLPI_YNYLYRLFRKSNLKPFERD'
p22
g3
(g5
S'\x8b\xa3\xac\xe0\xd8H\xed?'
tRp23
tp24
a(S'AVFQSASKIITLKKRWQLA_DGVKHVYQLRARSVSPKLFI_DNKFALTCFSTQFAFACPDG_HQPYVVDDPCPIHFYSKWYI_IITLKKRWQLALSKGVHFV_KVFRSSVLHSTQDLFLPFF_LPIGINITRFQTLLALHRS_MDLFMRIFTIGTVTLKQGE_NATRFASVYAWNRKRISNC_NGGDAALALLLLDRLNQLE_PKEITVATSRTLSYYKLGA_PRQKRTATKAYNVTQAFGR_PSDFVRATATIPIQASLPF_QTNSPRRARSVASQSIIAY_RWYFYYLGTGPEAGLPYGA_SYFTSDYYQLYSTQLSTDT_TRGVYYPDKVFRSSVLHST_TYTGAIKLDDKDPNFKDQV_VKDCVVLHSYFTSDYYQLY_VRDLPQGFSALEPLVDLPI_YNYLYRLFRKSNLKPFERD_YSSANNCTFEYVSQPFLMD'
p25
g3
(g5
S'\x8b\x12[!\xcdH\xed?'
tRp26
tp27
a(S'AVFQSASKIITLKKRWQLA_CEFQFCNDPFLGVYYHKNN_DGVKHVYQLRARSVSPKLFI_DNKFALTCFSTQFAFACPDG_HQPYVVDDPCPIHFYSKWYI_IITLKKRWQLALSKGVHFV_KVFRSSVLHSTQDLFLPFF_LPIGINITRFQTLLALHRS_MDLFMRIFTIGTVTLKQGE_NATRFASVYAWNRKRISNC_NGGDAALALLLLDRLNQLE_PKEITVATSRTLSYYKLGA_PRQKRTATKAYNVTQAFGR_PSDFVRATATIPIQASLPF_QTNSPRRARSVASQSIIAY_RWYFYYLGTGPEAGLPYGA_SYFTSDYYQLYSTQLSTDT_TRGVYYPDKVFRSSVLHST_TYTGAIKLDDKDPNFKDQV_VKDCVVLHSYFTSDYYQLY_VRDLPQGFSALEPLVDLPI_YNYLYRLFRKSNLKPFERD'
p28
g26
tp29
a(S'AVFQSASKIITLKKRWQLA_DGVKHVYQLRARSVSPKLFI_DNKFALTCFSTQFAFACPDG_FEYVSQPFLMDLEGKQGNF_HQPYVVDDPCPIHFYSKWYI_IITLKKRWQLALSKGVHFV_KVFRSSVLHSTQDLFLPFF_LPIGINITRFQTLLALHRS_MDLFMRIFTIGTVTLKQGE_MWLSYFIASFRLFARTRSM_NATRFASVYAWNRKRISNC_NGGDAALALLLLDRLNQLE_PKEITVATSRTLSYYKLGA_PRQKRTATKAYNVTQAFGR_PSDFVRATATIPIQASLPF_QTNSPRRARSVASQSIIAY_RWYFYYLGTGPEAGLPYGA_SYFTSDYYQLYSTQLSTDT_TRGVYYPDKVFRSSVLHST_TYTGAIKLDDKDPNFKDQV_VKDCVVLHSYFTSDYYQLY_VRDLPQGFSALEPLVDLPI'
p30
g3
(g5
S'wl|\xaa\xc5H\xed?'
tRp31
tp32
a.