(lp1
(S'DGVKHVYQLRARSVSPKLFI_FEYVSQPFLMDLEGKQGNF_HQPYVVDDPCPIHFYSKWYI_IITLKKRWQLALSKGVHFV_KVFRSSVLHSTQDLFLPFF_LPIGINITRFQTLLALHRS_MDLFMRIFTIGTVTLKQGE_MWLSYFIASFRLFARTRSM_NATRFASVYAWNRKRISNC_NGGDAALALLLLDRLNQLE_PKEITVATSRTLSYYKLGA_PRQKRTATKAYNVTQAFGR_PSDFVRATATIPIQASLPF_QTNSPRRARSVASQSIIAY_RWYFYYLGTGPEAGLPYGA_SYFTSDYYQLYSTQLSTDT_TRGVYYPDKVFRSSVLHST_TYTGAIKLDDKDPNFKDQV_VKDCVVLHSYFTSDYYQLY_VRDLPQGFSALEPLVDLPI_YNYLYRLFRKSNLKPFERD'
p2
cnumpy.core.multiarray
scalar
p3
(cnumpy
dtype
p4
(S'f8'
I0
I1
tRp5
(I3
S'<'
NNNI-1
I-1
I0
tbS'8R\xadV\xf5F\xed?'
tRp6
tp7
a(S'DGVKHVYQLRARSVSPKLFI_HQPYVVDDPCPIHFYSKWYI_IITLKKRWQLALSKGVHFV_KVFRSSVLHSTQDLFLPFF_LPIGINITRFQTLLALHRS_MDLFMRIFTIGTVTLKQGE_MWLSYFIASFRLFARTRSM_NATRFASVYAWNRKRISNC_NGGDAALALLLLDRLNQLE_PKEITVATSRTLSYYKLGA_PRQKRTATKAYNVTQAFGR_PSDFVRATATIPIQASLPF_QTNSPRRARSVASQSIIAY_RWYFYYLGTGPEAGLPYGA_SYFTSDYYQLYSTQLSTDT_TRGVYYPDKVFRSSVLHST_TYTGAIKLDDKDPNFKDQV_VKDCVVLHSYFTSDYYQLY_VRDLPQGFSALEPLVDLPI_YNYLYRLFRKSNLKPFERD_YSSANNCTFEYVSQPFLMD'
p8
g3
(g5
S'p\x1c0\xd2\xeaF\xed?'
tRp9
tp10
a(S'CEFQFCNDPFLGVYYHKNN_DGVKHVYQLRARSVSPKLFI_HQPYVVDDPCPIHFYSKWYI_IITLKKRWQLALSKGVHFV_KVFRSSVLHSTQDLFLPFF_LPIGINITRFQTLLALHRS_MDLFMRIFTIGTVTLKQGE_MWLSYFIASFRLFARTRSM_NATRFASVYAWNRKRISNC_NGGDAALALLLLDRLNQLE_PKEITVATSRTLSYYKLGA_PRQKRTATKAYNVTQAFGR_PSDFVRATATIPIQASLPF_QTNSPRRARSVASQSIIAY_RWYFYYLGTGPEAGLPYGA_SYFTSDYYQLYSTQLSTDT_TRGVYYPDKVFRSSVLHST_TYTGAIKLDDKDPNFKDQV_VKDCVVLHSYFTSDYYQLY_VRDLPQGFSALEPLVDLPI_YNYLYRLFRKSNLKPFERD'
p11
g9
tp12
a(S'DGVKHVYQLRARSVSPKLFI_DNKFALTCFSTQFAFACPDG_HQPYVVDDPCPIHFYSKWYI_IITLKKRWQLALSKGVHFV_KVFRSSVLHSTQDLFLPFF_LPIGINITRFQTLLALHRS_MDLFMRIFTIGTVTLKQGE_MWLSYFIASFRLFARTRSM_NATRFASVYAWNRKRISNC_NGGDAALALLLLDRLNQLE_PKEITVATSRTLSYYKLGA_PRQKRTATKAYNVTQAFGR_PSDFVRATATIPIQASLPF_QTNSPRRARSVASQSIIAY_RWYFYYLGTGPEAGLPYGA_SYFTSDYYQLYSTQLSTDT_TRGVYYPDKVFRSSVLHST_TYTGAIKLDDKDPNFKDQV_VKDCVVLHSYFTSDYYQLY_VRDLPQGFSALEPLVDLPI_YNYLYRLFRKSNLKPFERD'
p13
g3
(g5
S'o\x1c0\xd2\xeaF\xed?'
tRp14
tp15
a(S'AVFQSASKIITLKKRWQLA_DGVKHVYQLRARSVSPKLFI_DNKFALTCFSTQFAFACPDG_HQPYVVDDPCPIHFYSKWYI_IITLKKRWQLALSKGVHFV_KVFRSSVLHSTQDLFLPFF_LPIGINITRFQTLLALHRS_MDLFMRIFTIGTVTLKQGE_NATRFASVYAWNRKRISNC_NGGDAALALLLLDRLNQLE_PKEITVATSRTLSYYKLGA_PRQKRTATKAYNVTQAFGR_PSDFVRATATIPIQASLPF_QTNSPRRARSVASQSIIAY_RWYFYYLGTGPEAGLPYGA_SYFTSDYYQLYSTQLSTDT_TRGVYYPDKVFRSSVLHST_TYTGAIKLDDKDPNFKDQV_VKDCVVLHSYFTSDYYQLY_VRDLPQGFSALEPLVDLPI_YNYLYRLFRKSNLKPFERD'
p16
g3
(g5
S'\xf5\xd0\xb0>\xc3F\xed?'
tRp17
tp18
a(S'AVFQSASKIITLKKRWQLA_DGVKHVYQLRARSVSPKLFI_FEYVSQPFLMDLEGKQGNF_HQPYVVDDPCPIHFYSKWYI_IITLKKRWQLALSKGVHFV_KVFRSSVLHSTQDLFLPFF_LPIGINITRFQTLLALHRS_MDLFMRIFTIGTVTLKQGE_MWLSYFIASFRLFARTRSM_NATRFASVYAWNRKRISNC_NGGDAALALLLLDRLNQLE_PKEITVATSRTLSYYKLGA_PRQKRTATKAYNVTQAFGR_PSDFVRATATIPIQASLPF_QTNSPRRARSVASQSIIAY_RWYFYYLGTGPEAGLPYGA_SYFTSDYYQLYSTQLSTDT_TRGVYYPDKVFRSSVLHST_TYTGAIKLDDKDPNFKDQV_VKDCVVLHSYFTSDYYQLY_VRDLPQGFSALEPLVDLPI'
p19
g3
(g5
S'\xad\x0e/\xca\xb8F\xed?'
tRp20
tp21
a(S'AVFQSASKIITLKKRWQLA_DGVKHVYQLRARSVSPKLFI_HQPYVVDDPCPIHFYSKWYI_IITLKKRWQLALSKGVHFV_KVFRSSVLHSTQDLFLPFF_LPIGINITRFQTLLALHRS_MDLFMRIFTIGTVTLKQGE_MWLSYFIASFRLFARTRSM_NATRFASVYAWNRKRISNC_NGGDAALALLLLDRLNQLE_PKEITVATSRTLSYYKLGA_PRQKRTATKAYNVTQAFGR_PSDFVRATATIPIQASLPF_QTNSPRRARSVASQSIIAY_RWYFYYLGTGPEAGLPYGA_SYFTSDYYQLYSTQLSTDT_TRGVYYPDKVFRSSVLHST_TYTGAIKLDDKDPNFKDQV_VKDCVVLHSYFTSDYYQLY_VRDLPQGFSALEPLVDLPI_YSSANNCTFEYVSQPFLMD'
p22
g3
(g5
S'K\xd1q\x19\xaeF\xed?'
tRp23
tp24
a(S'AVFQSASKIITLKKRWQLA_DGVKHVYQLRARSVSPKLFI_DNKFALTCFSTQFAFACPDG_HQPYVVDDPCPIHFYSKWYI_IITLKKRWQLALSKGVHFV_KVFRSSVLHSTQDLFLPFF_LPIGINITRFQTLLALHRS_MDLFMRIFTIGTVTLKQGE_MWLSYFIASFRLFARTRSM_NATRFASVYAWNRKRISNC_NGGDAALALLLLDRLNQLE_PKEITVATSRTLSYYKLGA_PRQKRTATKAYNVTQAFGR_PSDFVRATATIPIQASLPF_QTNSPRRARSVASQSIIAY_RWYFYYLGTGPEAGLPYGA_SYFTSDYYQLYSTQLSTDT_TRGVYYPDKVFRSSVLHST_TYTGAIKLDDKDPNFKDQV_VKDCVVLHSYFTSDYYQLY_VRDLPQGFSALEPLVDLPI'
p25
g3
(g5
S'K\xd1q\x19\xaeF\xed?'
tRp26
tp27
a(S'AVFQSASKIITLKKRWQLA_CEFQFCNDPFLGVYYHKNN_DGVKHVYQLRARSVSPKLFI_HQPYVVDDPCPIHFYSKWYI_IITLKKRWQLALSKGVHFV_KVFRSSVLHSTQDLFLPFF_LPIGINITRFQTLLALHRS_MDLFMRIFTIGTVTLKQGE_MWLSYFIASFRLFARTRSM_NATRFASVYAWNRKRISNC_NGGDAALALLLLDRLNQLE_PKEITVATSRTLSYYKLGA_PRQKRTATKAYNVTQAFGR_PSDFVRATATIPIQASLPF_QTNSPRRARSVASQSIIAY_RWYFYYLGTGPEAGLPYGA_SYFTSDYYQLYSTQLSTDT_TRGVYYPDKVFRSSVLHST_TYTGAIKLDDKDPNFKDQV_VKDCVVLHSYFTSDYYQLY_VRDLPQGFSALEPLVDLPI'
p28
g23
tp29
a(S'DGVKHVYQLRARSVSPKLFI_DNKFALTCFSTQFAFACPDG_HQPYVVDDPCPIHFYSKWYI_IITLKKRWQLALSKGVHFV_KVFRSSVLHSTQDLFLPFF_LPIGINITRFQTLLALHRS_MDLFMRIFTIGTVTLKQGE_NATRFASVYAWNRKRISNC_NGGDAALALLLLDRLNQLE_PKEITVATSRTLSYYKLGA_PRQKRTATKAYNVTQAFGR_PSDFVRATATIPIQASLPF_QTNSPRRARSVASQSIIAY_RWYFYYLGTGPEAGLPYGA_SFRLFARTRSMWSFNPETN_SYFTSDYYQLYSTQLSTDT_TRGVYYPDKVFRSSVLHST_TYTGAIKLDDKDPNFKDQV_VKDCVVLHSYFTSDYYQLY_VRDLPQGFSALEPLVDLPI_YNYLYRLFRKSNLKPFERD'
p30
g3
(g5
S'#/]\xdc\xabF\xed?'
tRp31
tp32
a.