(lp1
(S'IITLKKRWQLALSKGVHFV_KVFRSSVLHSTQDLFLPFF_LPIGINITRFQTLLALHRS_PKEITVATSRTLSYYKLGA_RWYFYYLGTGPEAGLPYGA_SYFTSDYYQLYSTQLSTDT_TRGVYYPDKVFRSSVLHST_VKDCVVLHSYFTSDYYQLY_VRDLPQGFSALEPLVDLPI'
p2
cnumpy.core.multiarray
scalar
p3
(cnumpy
dtype
p4
(S'f8'
I0
I1
tRp5
(I3
S'<'
NNNI-1
I-1
I0
tbS'\xfd\xeb\xd5N\xf3#\xee?'
tRp6
tp7
a(S'KVFRSSVLHSTQDLFLPFF_LPIGINITRFQTLLALHRS_NATRFASVYAWNRKRISNC_PKEITVATSRTLSYYKLGA_RWYFYYLGTGPEAGLPYGA_SYFTSDYYQLYSTQLSTDT_TRGVYYPDKVFRSSVLHST_VKDCVVLHSYFTSDYYQLY_VRDLPQGFSALEPLVDLPI'
p8
g3
(g5
S'\x0bE\x88\x96o#\xee?'
tRp9
tp10
a(S'IITLKKRWQLALSKGVHFV_KVFRSSVLHSTQDLFLPFF_NATRFASVYAWNRKRISNC_PKEITVATSRTLSYYKLGA_RWYFYYLGTGPEAGLPYGA_SYFTSDYYQLYSTQLSTDT_TRGVYYPDKVFRSSVLHST_VKDCVVLHSYFTSDYYQLY_VRDLPQGFSALEPLVDLPI'
p11
g3
(g5
S'\x99\xe2\xe4\x1a\xa5"\xee?'
tRp12
tp13
a(S'IITLKKRWQLALSKGVHFV_KVFRSSVLHSTQDLFLPFF_PKEITVATSRTLSYYKLGA_RWYFYYLGTGPEAGLPYGA_SYFTSDYYQLYSTQLSTDT_TRGVYYPDKVFRSSVLHST_VKDCVVLHSYFTSDYYQLY_VRDLPQGFSALEPLVDLPI_YNYLYRLFRKSNLKPFERD'
p14
g3
(g5
S'a\xd9\xd4\xa6P"\xee?'
tRp15
tp16
a(S'AVFQSASKIITLKKRWQLA_IITLKKRWQLALSKGVHFV_KVFRSSVLHSTQDLFLPFF_PKEITVATSRTLSYYKLGA_RWYFYYLGTGPEAGLPYGA_SYFTSDYYQLYSTQLSTDT_TRGVYYPDKVFRSSVLHST_VKDCVVLHSYFTSDYYQLY_VRDLPQGFSALEPLVDLPI'
p17
g3
(g5
S'\x91\x15\xc3\xd2\x87!\xee?'
tRp18
tp19
a(S'IITLKKRWQLALSKGVHFV_KVFRSSVLHSTQDLFLPFF_MWLSYFIASFRLFARTRSM_PKEITVATSRTLSYYKLGA_RWYFYYLGTGPEAGLPYGA_SYFTSDYYQLYSTQLSTDT_TRGVYYPDKVFRSSVLHST_VKDCVVLHSYFTSDYYQLY_VRDLPQGFSALEPLVDLPI'
p20
g3
(g5
S'\x8d\xa8r\xbdv!\xee?'
tRp21
tp22
a(S'DGVKHVYQLRARSVSPKLFI_IITLKKRWQLALSKGVHFV_KVFRSSVLHSTQDLFLPFF_PKEITVATSRTLSYYKLGA_RWYFYYLGTGPEAGLPYGA_SYFTSDYYQLYSTQLSTDT_TRGVYYPDKVFRSSVLHST_VKDCVVLHSYFTSDYYQLY_VRDLPQGFSALEPLVDLPI'
p23
g3
(g5
S'h\xe1\xec&t!\xee?'
tRp24
tp25
a(S'IITLKKRWQLALSKGVHFV_KVFRSSVLHSTQDLFLPFF_PKEITVATSRTLSYYKLGA_RWYFYYLGTGPEAGLPYGA_SFRLFARTRSMWSFNPETN_SYFTSDYYQLYSTQLSTDT_TRGVYYPDKVFRSSVLHST_VKDCVVLHSYFTSDYYQLY_VRDLPQGFSALEPLVDLPI'
p26
g3
(g5
S'\x1d\x1f\xfdMQ!\xee?'
tRp27
tp28
a(S'DQVILLNKHIDAYKTFPPT_IITLKKRWQLALSKGVHFV_KVFRSSVLHSTQDLFLPFF_PKEITVATSRTLSYYKLGA_RWYFYYLGTGPEAGLPYGA_SYFTSDYYQLYSTQLSTDT_TRGVYYPDKVFRSSVLHST_VKDCVVLHSYFTSDYYQLY_VRDLPQGFSALEPLVDLPI'
p29
g3
(g5
S'\x1b\x1f\xfdMQ!\xee?'
tRp30
tp31
a(S'IITLKKRWQLALSKGVHFV_KVFRSSVLHSTQDLFLPFF_PKEITVATSRTLSYYKLGA_RWYFYYLGTGPEAGLPYGA_SYFTSDYYQLYSTQLSTDT_TRGVYYPDKVFRSSVLHST_VKDCVVLHSYFTSDYYQLY_VRDLPQGFSALEPLVDLPI_YSKWYIRVGARKSAPLIELC'
p32
g3
(g5
S'\xe48\xf1m\xf0 \xee?'
tRp33
tp34
a.