(lp1
(S'IITLKKRWQLALSKGVHFV_VKDCVVLHSYFTSDYYQLY'
p2
cnumpy.core.multiarray
scalar
p3
(cnumpy
dtype
p4
(S'f8'
I0
I1
tRp5
(I3
S'<'
NNNI-1
I-1
I0
tbS'G\x8dq3\xc9\xf9\xee?'
tRp6
tp7
a(S'IITLKKRWQLALSKGVHFV_KVFRSSVLHSTQDLFLPFF'
p8
g3
(g5
S'C\x8dq3\xc9\xf9\xee?'
tRp9
tp10
a(S'NATRFASVYAWNRKRISNC_VKDCVVLHSYFTSDYYQLY'
p11
g3
(g5
S'\x90\xe4\x1f\xa3#\xf9\xee?'
tRp12
tp13
a(S'KVFRSSVLHSTQDLFLPFF_NATRFASVYAWNRKRISNC'
p14
g3
(g5
S'\x88\xe4\x1f\xa3#\xf9\xee?'
tRp15
tp16
a(S'LPIGINITRFQTLLALHRS_VKDCVVLHSYFTSDYYQLY'
p17
g3
(g5
S'\x81\xc4\t@-\xf6\xee?'
tRp18
tp19
a(S'KVFRSSVLHSTQDLFLPFF_LPIGINITRFQTLLALHRS'
p20
g3
(g5
S'u\xc4\t@-\xf6\xee?'
tRp21
tp22
a(S'IITLKKRWQLALSKGVHFV_VRDLPQGFSALEPLVDLPI'
p23
g3
(g5
S'S\xa8%K!\xf6\xee?'
tRp24
tp25
a(S'IITLKKRWQLALSKGVHFV_SYFTSDYYQLYSTQLSTDT'
p26
g3
(g5
S'Q\xa8%K!\xf6\xee?'
tRp27
tp28
a(S'NATRFASVYAWNRKRISNC_SYFTSDYYQLYSTQLSTDT'
p29
g3
(g5
S'\xbb\x19)b\xc3\xf5\xee?'
tRp30
tp31
a(S'LPIGINITRFQTLLALHRS_SYFTSDYYQLYSTQLSTDT'
p32
g3
(g5
S'\xf9\x0f\x9a\x19@\xf4\xee?'
tRp33
tp34
a.