(lp1
(S'IITLKKRWQLALSKGVHFV_KVFRSSVLHSTQDLFLPFF_LPIGINITRFQTLLALHRS_NATRFASVYAWNRKRISNC_NGGDAALALLLLDRLNQLE_PKEITVATSRTLSYYKLGA_PSDFVRATATIPIQASLPF_RWYFYYLGTGPEAGLPYGA_SYFTSDYYQLYSTQLSTDT_TRGVYYPDKVFRSSVLHST_VKDCVVLHSYFTSDYYQLY_VRDLPQGFSALEPLVDLPI'
p2
cnumpy.core.multiarray
scalar
p3
(cnumpy
dtype
p4
(S'f8'
I0
I1
tRp5
(I3
S'<'
NNNI-1
I-1
I0
tbS'\xc9\xc4X?\xf0\xee\xed?'
tRp6
tp7
a(S'IITLKKRWQLALSKGVHFV_KVFRSSVLHSTQDLFLPFF_LPIGINITRFQTLLALHRS_NATRFASVYAWNRKRISNC_NGGDAALALLLLDRLNQLE_PKEITVATSRTLSYYKLGA_QTNSPRRARSVASQSIIAY_RWYFYYLGTGPEAGLPYGA_SYFTSDYYQLYSTQLSTDT_TRGVYYPDKVFRSSVLHST_VKDCVVLHSYFTSDYYQLY_VRDLPQGFSALEPLVDLPI'
p8
g3
(g5
S'\xc8\xc4X?\xf0\xee\xed?'
tRp9
tp10
a(S'IITLKKRWQLALSKGVHFV_KVFRSSVLHSTQDLFLPFF_LPIGINITRFQTLLALHRS_NATRFASVYAWNRKRISNC_NGGDAALALLLLDRLNQLE_PKEITVATSRTLSYYKLGA_PRQKRTATKAYNVTQAFGR_RWYFYYLGTGPEAGLPYGA_SYFTSDYYQLYSTQLSTDT_TRGVYYPDKVFRSSVLHST_VKDCVVLHSYFTSDYYQLY_VRDLPQGFSALEPLVDLPI'
p11
g3
(g5
S'\xc8\xc4X?\xf0\xee\xed?'
tRp12
tp13
a(S'IITLKKRWQLALSKGVHFV_KVFRSSVLHSTQDLFLPFF_LPIGINITRFQTLLALHRS_MDLFMRIFTIGTVTLKQGE_NATRFASVYAWNRKRISNC_NGGDAALALLLLDRLNQLE_PKEITVATSRTLSYYKLGA_RWYFYYLGTGPEAGLPYGA_SYFTSDYYQLYSTQLSTDT_TRGVYYPDKVFRSSVLHST_VKDCVVLHSYFTSDYYQLY_VRDLPQGFSALEPLVDLPI'
p14
g3
(g5
S'\xc8\xc4X?\xf0\xee\xed?'
tRp15
tp16
a(S'IITLKKRWQLALSKGVHFV_KVFRSSVLHSTQDLFLPFF_LPIGINITRFQTLLALHRS_NATRFASVYAWNRKRISNC_PKEITVATSRTLSYYKLGA_QTNSPRRARSVASQSIIAY_RWYFYYLGTGPEAGLPYGA_SYFTSDYYQLYSTQLSTDT_TRGVYYPDKVFRSSVLHST_TYTGAIKLDDKDPNFKDQV_VKDCVVLHSYFTSDYYQLY_VRDLPQGFSALEPLVDLPI'
p17
g3
(g5
S'\xbc\xb9C\xa2\xed\xee\xed?'
tRp18
tp19
a(S'IITLKKRWQLALSKGVHFV_KVFRSSVLHSTQDLFLPFF_LPIGINITRFQTLLALHRS_NATRFASVYAWNRKRISNC_PKEITVATSRTLSYYKLGA_PRQKRTATKAYNVTQAFGR_RWYFYYLGTGPEAGLPYGA_SYFTSDYYQLYSTQLSTDT_TRGVYYPDKVFRSSVLHST_TYTGAIKLDDKDPNFKDQV_VKDCVVLHSYFTSDYYQLY_VRDLPQGFSALEPLVDLPI'
p20
g3
(g5
S'\xbc\xb9C\xa2\xed\xee\xed?'
tRp21
tp22
a(S'HQPYVVDDPCPIHFYSKWYI_IITLKKRWQLALSKGVHFV_KVFRSSVLHSTQDLFLPFF_LPIGINITRFQTLLALHRS_NATRFASVYAWNRKRISNC_PKEITVATSRTLSYYKLGA_QTNSPRRARSVASQSIIAY_RWYFYYLGTGPEAGLPYGA_SYFTSDYYQLYSTQLSTDT_TRGVYYPDKVFRSSVLHST_VKDCVVLHSYFTSDYYQLY_VRDLPQGFSALEPLVDLPI'
p23
g3
(g5
S'\xbc\xb9C\xa2\xed\xee\xed?'
tRp24
tp25
a(S'HQPYVVDDPCPIHFYSKWYI_IITLKKRWQLALSKGVHFV_KVFRSSVLHSTQDLFLPFF_LPIGINITRFQTLLALHRS_NATRFASVYAWNRKRISNC_PKEITVATSRTLSYYKLGA_PRQKRTATKAYNVTQAFGR_RWYFYYLGTGPEAGLPYGA_SYFTSDYYQLYSTQLSTDT_TRGVYYPDKVFRSSVLHST_VKDCVVLHSYFTSDYYQLY_VRDLPQGFSALEPLVDLPI'
p26
g3
(g5
S'\xbc\xb9C\xa2\xed\xee\xed?'
tRp27
tp28
a(S'IITLKKRWQLALSKGVHFV_KVFRSSVLHSTQDLFLPFF_LPIGINITRFQTLLALHRS_NATRFASVYAWNRKRISNC_PKEITVATSRTLSYYKLGA_PSDFVRATATIPIQASLPF_RWYFYYLGTGPEAGLPYGA_SYFTSDYYQLYSTQLSTDT_TRGVYYPDKVFRSSVLHST_TYTGAIKLDDKDPNFKDQV_VKDCVVLHSYFTSDYYQLY_VRDLPQGFSALEPLVDLPI'
p29
g3
(g5
S'\xbb\xb9C\xa2\xed\xee\xed?'
tRp30
tp31
a(S'HQPYVVDDPCPIHFYSKWYI_IITLKKRWQLALSKGVHFV_KVFRSSVLHSTQDLFLPFF_LPIGINITRFQTLLALHRS_NATRFASVYAWNRKRISNC_PKEITVATSRTLSYYKLGA_PSDFVRATATIPIQASLPF_RWYFYYLGTGPEAGLPYGA_SYFTSDYYQLYSTQLSTDT_TRGVYYPDKVFRSSVLHST_VKDCVVLHSYFTSDYYQLY_VRDLPQGFSALEPLVDLPI'
p32
g3
(g5
S'\xbb\xb9C\xa2\xed\xee\xed?'
tRp33
tp34
a.