(lp1
(S'IITLKKRWQLALSKGVHFV_KVFRSSVLHSTQDLFLPFF_RWYFYYLGTGPEAGLPYGA_TRGVYYPDKVFRSSVLHST_VKDCVVLHSYFTSDYYQLY'
p2
cnumpy.core.multiarray
scalar
p3
(cnumpy
dtype
p4
(S'f8'
I0
I1
tRp5
(I3
S'<'
NNNI-1
I-1
I0
tbS'\xe1\xddU6\x19X\xee?'
tRp6
tp7
a(S'IITLKKRWQLALSKGVHFV_KVFRSSVLHSTQDLFLPFF_NATRFASVYAWNRKRISNC_TRGVYYPDKVFRSSVLHST_VKDCVVLHSYFTSDYYQLY'
p8
g3
(g5
S"l\x88\t'\xc6N\xee?"
tRp9
tp10
a(S'IITLKKRWQLALSKGVHFV_KVFRSSVLHSTQDLFLPFF_LPIGINITRFQTLLALHRS_TRGVYYPDKVFRSSVLHST_VKDCVVLHSYFTSDYYQLY'
p11
g3
(g5
S'\x89\x82<\xa4\x8cM\xee?'
tRp12
tp13
a(S'IITLKKRWQLALSKGVHFV_KVFRSSVLHSTQDLFLPFF_NATRFASVYAWNRKRISNC_TRGVYYPDKVFRSSVLHST_VRDLPQGFSALEPLVDLPI'
p14
g3
(g5
S'\x88\xd6\x1c:\xf4L\xee?'
tRp15
tp16
a(S'IITLKKRWQLALSKGVHFV_KVFRSSVLHSTQDLFLPFF_NATRFASVYAWNRKRISNC_SYFTSDYYQLYSTQLSTDT_TRGVYYPDKVFRSSVLHST'
p17
g3
(g5
S'\x88\xd6\x1c:\xf4L\xee?'
tRp18
tp19
a(S'IITLKKRWQLALSKGVHFV_NATRFASVYAWNRKRISNC_TRGVYYPDKVFRSSVLHST_VKDCVVLHSYFTSDYYQLY_VRDLPQGFSALEPLVDLPI'
p20
g3
(g5
S'\xcf\x9f\xeeJ\xd3L\xee?'
tRp21
tp22
a(S'IITLKKRWQLALSKGVHFV_NATRFASVYAWNRKRISNC_SYFTSDYYQLYSTQLSTDT_TRGVYYPDKVFRSSVLHST_VKDCVVLHSYFTSDYYQLY'
p23
g3
(g5
S'\xcf\x9f\xeeJ\xd3L\xee?'
tRp24
tp25
a(S'KVFRSSVLHSTQDLFLPFF_LPIGINITRFQTLLALHRS_NATRFASVYAWNRKRISNC_TRGVYYPDKVFRSSVLHST_VKDCVVLHSYFTSDYYQLY'
p26
g3
(g5
S'\x80\x89\xd88\x8aL\xee?'
tRp27
tp28
a(S'IITLKKRWQLALSKGVHFV_KVFRSSVLHSTQDLFLPFF_LPIGINITRFQTLLALHRS_PKEITVATSRTLSYYKLGA_VKDCVVLHSYFTSDYYQLY'
p29
g3
(g5
S'x\xf3\x01\xde\x8aJ\xee?'
tRp30
tp31
a(S'IITLKKRWQLALSKGVHFV_KVFRSSVLHSTQDLFLPFF_LPIGINITRFQTLLALHRS_SYFTSDYYQLYSTQLSTDT_TRGVYYPDKVFRSSVLHST'
p32
g3
(g5
S'\x93\x9d\xf0\xbb\xe4I\xee?'
tRp33
tp34
a.