(lp1
(S'VKDCVVLHSYFTSDYYQLY'
p2
cnumpy.core.multiarray
scalar
p3
(cnumpy
dtype
p4
(S'f8'
I0
I1
tRp5
(I3
S'<'
NNNI-1
I-1
I0
tbS'\xa3\xa0\x87L!\xa3\xef?'
tRp6
tp7
a(S'KVFRSSVLHSTQDLFLPFF'
p8
g3
(g5
S'\x99\xa0\x87L!\xa3\xef?'
tRp9
tp10
a(S'YSSANNCTFEYVSQPFLMD'
p11
g3
(g5
S'\x98\xa0\x87L!\xa3\xef?'
tRp12
tp13
a(S'FEYVSQPFLMDLEGKQGNF'
p14
g3
(g5
S'\x98\xa0\x87L!\xa3\xef?'
tRp15
tp16
a(S'CEFQFCNDPFLGVYYHKNN'
p17
g12
tp18
a(S'LPIGINITRFQTLLALHRS'
p19
g3
(g5
S'\x95\xa0\x87L!\xa3\xef?'
tRp20
tp21
a(S'DNKFALTCFSTQFAFACPDG'
p22
g3
(g5
S'\x95\xa0\x87L!\xa3\xef?'
tRp23
tp24
a(S'IITLKKRWQLALSKGVHFV'
p25
g3
(g5
S'\xf1\xb4\xa2\xe9\x1d\xa2\xef?'
tRp26
tp27
a(S'SYFTSDYYQLYSTQLSTDT'
p28
g3
(g5
S'\x18\xec\x17&4\xa1\xef?'
tRp29
tp30
a(S'YSKWYIRVGARKSAPLIELC'
p31
g3
(g5
S'\x17\xec\x17&4\xa1\xef?'
tRp32
tp33
a.