(lp1
(S'IITLKKRWQLALSKGVHFV_KVFRSSVLHSTQDLFLPFF_NATRFASVYAWNRKRISNC_RWYFYYLGTGPEAGLPYGA_TRGVYYPDKVFRSSVLHST_VKDCVVLHSYFTSDYYQLY'
p2
cnumpy.core.multiarray
scalar
p3
(cnumpy
dtype
p4
(S'f8'
I0
I1
tRp5
(I3
S'<'
NNNI-1
I-1
I0
tbS'4\xe3\xd5\x89\xeax\xee?'
tRp6
tp7
a(S'IITLKKRWQLALSKGVHFV_KVFRSSVLHSTQDLFLPFF_LPIGINITRFQTLLALHRS_RWYFYYLGTGPEAGLPYGA_TRGVYYPDKVFRSSVLHST_VKDCVVLHSYFTSDYYQLY'
p8
g3
(g5
S'O\xdd\x08\x07\xb1w\xee?'
tRp9
tp10
a(S'IITLKKRWQLALSKGVHFV_KVFRSSVLHSTQDLFLPFF_NATRFASVYAWNRKRISNC_RWYFYYLGTGPEAGLPYGA_TRGVYYPDKVFRSSVLHST_VRDLPQGFSALEPLVDLPI'
p11
g3
(g5
S'S1\xe9\x9c\x18w\xee?'
tRp12
tp13
a(S'IITLKKRWQLALSKGVHFV_KVFRSSVLHSTQDLFLPFF_NATRFASVYAWNRKRISNC_RWYFYYLGTGPEAGLPYGA_SYFTSDYYQLYSTQLSTDT_TRGVYYPDKVFRSSVLHST'
p14
g3
(g5
S'Q1\xe9\x9c\x18w\xee?'
tRp15
tp16
a(S'IITLKKRWQLALSKGVHFV_NATRFASVYAWNRKRISNC_RWYFYYLGTGPEAGLPYGA_TRGVYYPDKVFRSSVLHST_VKDCVVLHSYFTSDYYQLY_VRDLPQGFSALEPLVDLPI'
p17
g3
(g5
S'\x98\xfa\xba\xad\xf7v\xee?'
tRp18
tp19
a(S'IITLKKRWQLALSKGVHFV_NATRFASVYAWNRKRISNC_RWYFYYLGTGPEAGLPYGA_SYFTSDYYQLYSTQLSTDT_TRGVYYPDKVFRSSVLHST_VKDCVVLHSYFTSDYYQLY'
p20
g3
(g5
S'\x98\xfa\xba\xad\xf7v\xee?'
tRp21
tp22
a(S'KVFRSSVLHSTQDLFLPFF_LPIGINITRFQTLLALHRS_NATRFASVYAWNRKRISNC_RWYFYYLGTGPEAGLPYGA_TRGVYYPDKVFRSSVLHST_VKDCVVLHSYFTSDYYQLY'
p23
g3
(g5
S'\xf7\xa0Xf\xb8v\xee?'
tRp24
tp25
a(S'IITLKKRWQLALSKGVHFV_KVFRSSVLHSTQDLFLPFF_LPIGINITRFQTLLALHRS_PKEITVATSRTLSYYKLGA_RWYFYYLGTGPEAGLPYGA_VKDCVVLHSYFTSDYYQLY'
p26
g3
(g5
S';N\xce@\xaft\xee?'
tRp27
tp28
a(S'IITLKKRWQLALSKGVHFV_KVFRSSVLHSTQDLFLPFF_LPIGINITRFQTLLALHRS_RWYFYYLGTGPEAGLPYGA_SYFTSDYYQLYSTQLSTDT_TRGVYYPDKVFRSSVLHST'
p29
g3
(g5
S'W\xf8\xbc\x1e\tt\xee?'
tRp30
tp31
a(S'IITLKKRWQLALSKGVHFV_KVFRSSVLHSTQDLFLPFF_RWYFYYLGTGPEAGLPYGA_SYFTSDYYQLYSTQLSTDT_TRGVYYPDKVFRSSVLHST_VKDCVVLHSYFTSDYYQLY'
p32
g3
(g5
S'H>\x01?\xe0s\xee?'
tRp33
tp34
a.