(lp1
(S'IITLKKRWQLALSKGVHFV_KVFRSSVLHSTQDLFLPFF_PKEITVATSRTLSYYKLGA_RWYFYYLGTGPEAGLPYGA_SYFTSDYYQLYSTQLSTDT_TRGVYYPDKVFRSSVLHST_VKDCVVLHSYFTSDYYQLY'
p2
cnumpy.core.multiarray
scalar
p3
(cnumpy
dtype
p4
(S'f8'
I0
I1
tRp5
(I3
S'<'
NNNI-1
I-1
I0
tbS'\xe7\x93\xf8\x9b\xea\xf8\xed?'
tRp6
tp7
a(S'IITLKKRWQLALSKGVHFV_KVFRSSVLHSTQDLFLPFF_NGGDAALALLLLDRLNQLE_RWYFYYLGTGPEAGLPYGA_SYFTSDYYQLYSTQLSTDT_TRGVYYPDKVFRSSVLHST_VKDCVVLHSYFTSDYYQLY'
p8
g3
(g5
S'\x88\xb0\x9cWS\xf7\xed?'
tRp9
tp10
a(S'IITLKKRWQLALSKGVHFV_KVFRSSVLHSTQDLFLPFF_RWYFYYLGTGPEAGLPYGA_SYFTSDYYQLYSTQLSTDT_TRGVYYPDKVFRSSVLHST_TYTGAIKLDDKDPNFKDQV_VKDCVVLHSYFTSDYYQLY'
p11
g3
(g5
S'\xcbynh2\xf7\xed?'
tRp12
tp13
a(S'HQPYVVDDPCPIHFYSKWYI_IITLKKRWQLALSKGVHFV_KVFRSSVLHSTQDLFLPFF_RWYFYYLGTGPEAGLPYGA_SYFTSDYYQLYSTQLSTDT_TRGVYYPDKVFRSSVLHST_VKDCVVLHSYFTSDYYQLY'
p14
g3
(g5
S'\xcbynh2\xf7\xed?'
tRp15
tp16
a(S'IITLKKRWQLALSKGVHFV_KVFRSSVLHSTQDLFLPFF_LPIGINITRFQTLLALHRS_PKEITVATSRTLSYYKLGA_RWYFYYLGTGPEAGLPYGA_TRGVYYPDKVFRSSVLHST_VKDCVVLHSYFTSDYYQLY'
p17
g3
(g5
S'\xd8S\x8f55\xef\xed?'
tRp18
tp19
a(S'KVFRSSVLHSTQDLFLPFF_LPIGINITRFQTLLALHRS_NATRFASVYAWNRKRISNC_PKEITVATSRTLSYYKLGA_RWYFYYLGTGPEAGLPYGA_TRGVYYPDKVFRSSVLHST_VKDCVVLHSYFTSDYYQLY'
p20
g3
(g5
S'\x17\xd7\xc3N\xb1\xee\xed?'
tRp21
tp22
a(S'IITLKKRWQLALSKGVHFV_KVFRSSVLHSTQDLFLPFF_NATRFASVYAWNRKRISNC_PKEITVATSRTLSYYKLGA_RWYFYYLGTGPEAGLPYGA_TRGVYYPDKVFRSSVLHST_VKDCVVLHSYFTSDYYQLY'
p23
g3
(g5
S'uJ\x9e\x01\xe7\xed\xed?'
tRp24
tp25
a(S'IITLKKRWQLALSKGVHFV_KVFRSSVLHSTQDLFLPFF_LPIGINITRFQTLLALHRS_PKEITVATSRTLSYYKLGA_RWYFYYLGTGPEAGLPYGA_SYFTSDYYQLYSTQLSTDT_TRGVYYPDKVFRSSVLHST'
p26
g3
(g5
S'\xf5\xa1\xa2Hc\xed\xed?'
tRp27
tp28
a(S'IITLKKRWQLALSKGVHFV_KVFRSSVLHSTQDLFLPFF_NATRFASVYAWNRKRISNC_PKEITVATSRTLSYYKLGA_RWYFYYLGTGPEAGLPYGA_TRGVYYPDKVFRSSVLHST_VRDLPQGFSALEPLVDLPI'
p29
g3
(g5
S'\xf5k\x8d\x87u\xec\xed?'
tRp30
tp31
a(S'IITLKKRWQLALSKGVHFV_KVFRSSVLHSTQDLFLPFF_NATRFASVYAWNRKRISNC_PKEITVATSRTLSYYKLGA_RWYFYYLGTGPEAGLPYGA_SYFTSDYYQLYSTQLSTDT_TRGVYYPDKVFRSSVLHST'
p32
g3
(g5
S'\xf3k\x8d\x87u\xec\xed?'
tRp33
tp34
a.