(lp1
(S'IITLKKRWQLALSKGVHFV_KVFRSSVLHSTQDLFLPFF_NATRFASVYAWNRKRISNC_VKDCVVLHSYFTSDYYQLY'
p2
cnumpy.core.multiarray
scalar
p3
(cnumpy
dtype
p4
(S'f8'
I0
I1
tRp5
(I3
S'<'
NNNI-1
I-1
I0
tbS'\x8f$P\xd8\x85\xd9\xee?'
tRp6
tp7
a(S'IITLKKRWQLALSKGVHFV_KVFRSSVLHSTQDLFLPFF_LPIGINITRFQTLLALHRS_VKDCVVLHSYFTSDYYQLY'
p8
g3
(g5
S'\x13\x0f\x02\xb7\xfe\xd5\xee?'
tRp9
tp10
a(S'KVFRSSVLHSTQDLFLPFF_LPIGINITRFQTLLALHRS_NATRFASVYAWNRKRISNC_VKDCVVLHSYFTSDYYQLY'
p11
g3
(g5
S'\xa84\xa3B\xe9\xd5\xee?'
tRp12
tp13
a(S'IITLKKRWQLALSKGVHFV_KVFRSSVLHSTQDLFLPFF_NATRFASVYAWNRKRISNC_SYFTSDYYQLYSTQLSTDT'
p14
g3
(g5
S'\x9b?\x04\xf0\xdd\xd5\xee?'
tRp15
tp16
a(S'IITLKKRWQLALSKGVHFV_NATRFASVYAWNRKRISNC_VKDCVVLHSYFTSDYYQLY_VRDLPQGFSALEPLVDLPI'
p17
g3
(g5
S'\x98?\x04\xf0\xdd\xd5\xee?'
tRp18
tp19
a(S'IITLKKRWQLALSKGVHFV_NATRFASVYAWNRKRISNC_SYFTSDYYQLYSTQLSTDT_VKDCVVLHSYFTSDYYQLY'
p20
g3
(g5
S'\x98?\x04\xf0\xdd\xd5\xee?'
tRp21
tp22
a(S'IITLKKRWQLALSKGVHFV_KVFRSSVLHSTQDLFLPFF_NATRFASVYAWNRKRISNC_VRDLPQGFSALEPLVDLPI'
p23
g3
(g5
S'\x98?\x04\xf0\xdd\xd5\xee?'
tRp24
tp25
a(S'IITLKKRWQLALSKGVHFV_KVFRSSVLHSTQDLFLPFF_TRGVYYPDKVFRSSVLHST_VKDCVVLHSYFTSDYYQLY'
p26
g3
(g5
S'\xf8p\xd7B\xda\xd4\xee?'
tRp27
tp28
a(S'IITLKKRWQLALSKGVHFV_KVFRSSVLHSTQDLFLPFF_LPIGINITRFQTLLALHRS_SYFTSDYYQLYSTQLSTDT'
p29
g3
(g5
S'\xb897m\xa4\xd4\xee?'
tRp30
tp31
a(S'IITLKKRWQLALSKGVHFV_LPIGINITRFQTLLALHRS_VKDCVVLHSYFTSDYYQLY_VRDLPQGFSALEPLVDLPI'
p32
g3
(g5
S'\xb797m\xa4\xd4\xee?'
tRp33
tp34
a.