(lp1
(S'ATSRTLSYY_FAYANRNRF_FLNRFTTTL_FPQSAPHGV_KTFPPTEPK_MGYINVFAF_SPRWYFYYL_YLQPRTFLL'
p2
cnumpy.core.multiarray
scalar
p3
(cnumpy
dtype
p4
(S'f8'
I0
I1
tRp5
(I3
S'<'
NNNI-1
I-1
I0
tbS'\x1c\xbfo\xb9\x1c2\xef?'
tRp6
tp7
a(S'AEIRASANL_ATSRTLSYY_FAYANRNRF_FLNRFTTTL_KTFPPTEPK_MGYINVFAF_SPRWYFYYL_YLQPRTFLL'
p8
g3
(g5
S'\x0b\x0e!q?+\xef?'
tRp9
tp10
a(S'ATSRTLSYY_FAYANRNRF_FLNRFTTTL_KTFPPTEPK_MGYINVFAF_SINFVRIIMR_SPRWYFYYL_YLQPRTFLL'
p11
g3
(g5
S'\xdb\xf8\xbd\x10G)\xef?'
tRp12
tp13
a(S'AEIRASANL_ATSRTLSYY_FAYANRNRF_FLNRFTTTL_MGYINVFAF_SPRWYFYYL_TSRTLSYYK_YLQPRTFLL'
p14
g3
(g5
S"ee\xa7\x14\xc5'\xef?"
tRp15
tp16
a(S'ATSRTLSYY_FAYANRNRF_FLNRFTTTL_FLQSINFVR_KTFPPTEPK_MGYINVFAF_SPRWYFYYL_YLQPRTFLL'
p17
g3
(g5
S"\xa9\x0c'/\x86%\xef?"
tRp18
tp19
a(S'ATSRTLSYY_FAYANRNRF_FLNRFTTTL_KTFPPTEPK_MGYINVFAF_SPRWYFYYL_YEQYIKWPW_YLQPRTFLL'
p20
g3
(g5
S'\xa8\xa9\x87\x19\xfd \xef?'
tRp21
tp22
a(S'AEIRASANL_ATSRTLSYY_FAYANRNRF_FLNRFTTTL_FPQSAPHGV_KTFPPTEPK_MGYINVFAF_YLQPRTFLL'
p23
g3
(g5
S'(\xa8\xa3i\xc3 \xef?'
tRp24
tp25
a(S'ATSRTLSYY_FAYANRNRF_FLNRFTTTL_MGYINVFAF_SPRWYFYYL_TSRTLSYYK_YEQYIKWPW_YLQPRTFLL'
p26
g3
(g5
S'\xffGj\x10\x8e\x1d\xef?'
tRp27
tp28
a(S'ATSRTLSYY_FAYANRNRF_FVDGVPFVV_KTFPPTEPK_MGYINVFAF_SINFVRIIMR_SPRWYFYYL_YLQPRTFLL'
p29
g3
(g5
S'[\xd20#\xf2\x11\xef?'
tRp30
tp31
a(S'ATSRTLSYY_FAYANRNRF_FPQSAPHGV_FVDGVPFVV_KTFPPTEPK_MGYINVFAF_SPRWYFYYL_YLQPRTFLL'
p32
g3
(g5
S'm\xe1-\xb4V\x11\xef?'
tRp33
tp34
a.