(lp1
(S'KTFPPTEPK_MGYINVFAF_YANRNRFLY_YLQPRTFLL'
p2
cnumpy.core.multiarray
scalar
p3
(cnumpy
dtype
p4
(S'f8'
I0
I1
tRp5
(I3
S'<'
NNNI-1
I-1
I0
tbS'\x89\x1d\xf3k\xba\xa8\xef?'
tRp6
tp7
a(S'MGYINVFAF_TSRTLSYYK_YANRNRFLY_YLQPRTFLL'
p8
g3
(g5
S'\xb3\xbd\x9a}\x1d\xa8\xef?'
tRp9
tp10
a(S'FAYANRNRF_KTFPPTEPK_MGYINVFAF_YLQPRTFLL'
p11
g3
(g5
S'\xdc\x9f\xf5\x99\xa2\xa5\xef?'
tRp12
tp13
a(S'FAYANRNRF_MGYINVFAF_TSRTLSYYK_YLQPRTFLL'
p14
g3
(g5
S'\x80d\xe6\x84\xb6\xa4\xef?'
tRp15
tp16
a(S'ATSRTLSYY_FAYANRNRF_MGYINVFAF_YLQPRTFLL'
p17
g3
(g5
S']\xb4\xf0i\x9d\xa3\xef?'
tRp18
tp19
a(S'ATSRTLSYY_FPRGQGVPI_MGYINVFAF_YLQPRTFLL'
p20
g3
(g5
S'\x089\xf9\xf8\x91\xa3\xef?'
tRp21
tp22
a(S'KTFPPTEPK_LTDEMIAQY_MGYINVFAF_YLQPRTFLL'
p23
g3
(g5
S"='#\xbbp\xa3\xef?"
tRp24
tp25
a(S'LTDEMIAQY_MGYINVFAF_TSRTLSYYK_YLQPRTFLL'
p26
g3
(g5
S'_kv\xb8\xcc\xa2\xef?'
tRp27
tp28
a(S'ATSRTLSYY_KTFPPTEPK_MGYINVFAF_YLQPRTFLL'
p29
g3
(g5
S'\x9d{+\x94M\xa1\xef?'
tRp30
tp31
a(S'ATSRTLSYY_MGYINVFAF_TSRTLSYYK_YLQPRTFLL'
p32
g3
(g5
S'\xfd\x19OY\xa9\xa0\xef?'
tRp33
tp34
a.