(lp1
(S'AEIRASANL_ATSRTLSYY_FAYANRNRF_FLNRFTTTL_FPQSAPHGV_KTFPPTEPK_MGYINVFAF_SIIAYTMSL_SINFVRIIMR_SPRWYFYYL_TSRTLSYYK_TVYSHLLLV_YANRNRFLY_YFIASFRLF_YLQPRTFLL'
p2
cnumpy.core.multiarray
scalar
p3
(cnumpy
dtype
p4
(S'f8'
I0
I1
tRp5
(I3
S'<'
NNNI-1
I-1
I0
tbS"3'GE\xf1\x94\xef?"
tRp6
tp7
a(S'AEIRASANL_ATSRTLSYY_FAYANRNRF_FLNRFTTTL_FPQSAPHGV_KTFPPTEPK_MGYINVFAF_SINFVRIIMR_SPRWYFYYL_TSRTLSYYK_YANRNRFLY_YEQYIKWPW_YFIASFRLF_YLQPRTFLL_YLYALVYFL'
p8
g3
(g5
S'o"K\xd1\xbc\x94\xef?'
tRp9
tp10
a(S'AEIRASANL_ATSRTLSYY_FAYANRNRF_FLNRFTTTL_FLQSINFVR_FPQSAPHGV_KTFPPTEPK_MGYINVFAF_SPRWYFYYL_TSRTLSYYK_YANRNRFLY_YEQYIKWPW_YFIASFRLF_YLQPRTFLL_YLYALVYFL'
p11
g3
(g5
S'\x94\xef4\x8d\x97\x94\xef?'
tRp12
tp13
a(S'AEIRASANL_ATSRTLSYY_FAYANRNRF_FLNRFTTTL_FLQSINFVR_FPQSAPHGV_KTFPPTEPK_MGYINVFAF_SIIAYTMSL_SPRWYFYYL_TSRTLSYYK_TVYSHLLLV_YANRNRFLY_YFIASFRLF_YLQPRTFLL'
p14
g3
(g5
S'\xb7@\xdd\xa2\x94\x94\xef?'
tRp15
tp16
a(S'AEIRASANL_ATSRTLSYY_FAYANRNRF_FLNRFTTTL_FPQSAPHGV_KTFPPTEPK_LLYDANYFL_MGYINVFAF_SINFVRIIMR_SPRWYFYYL_TSRTLSYYK_YANRNRFLY_YEQYIKWPW_YFIASFRLF_YLQPRTFLL'
p17
g3
(g5
S'L\xc00YF\x94\xef?'
tRp18
tp19
a(S'AEIRASANL_ATSRTLSYY_FAYANRNRF_FLNRFTTTL_FPQSAPHGV_KTFPPTEPK_MGYINVFAF_SINFVRIIMR_SPRWYFYYL_TMADLVYAL_TSRTLSYYK_YANRNRFLY_YEQYIKWPW_YFIASFRLF_YLQPRTFLL'
p20
g3
(g5
S'\xf0\xcb]\xec2\x94\xef?'
tRp21
tp22
a(S'AEIRASANL_ATSRTLSYY_FAYANRNRF_FLNRFTTTL_FLQSINFVR_FPQSAPHGV_KTFPPTEPK_LLYDANYFL_MGYINVFAF_SPRWYFYYL_TSRTLSYYK_YANRNRFLY_YEQYIKWPW_YFIASFRLF_YLQPRTFLL'
p23
g3
(g5
S'\xa4G\x0c(.\x94\xef?'
tRp24
tp25
a(S'AEIRASANL_ATSRTLSYY_FAYANRNRF_FLNRFTTTL_FPQSAPHGV_KTFPPTEPK_MGYINVFAF_SIIAYTMSL_SPRWYFYYL_TSRTLSYYK_TVYSHLLLV_YANRNRFLY_YEQYIKWPW_YFIASFRLF_YLQPRTFLL'
p26
g3
(g5
S'\xc3x\x17\xad)\x94\xef?'
tRp27
tp28
a(S'AEIRASANL_ATSRTLSYY_FAYANRNRF_FLNRFTTTL_FPQSAPHGV_FVDGVPFVV_KTFPPTEPK_MGYINVFAF_SIIAYTMSL_SINFVRIIMR_SPRWYFYYL_TSRTLSYYK_YANRNRFLY_YFIASFRLF_YLQPRTFLL'
p29
g3
(g5
S'\xd8\xfe\xeac&\x94\xef?'
tRp30
tp31
a(S'AEIRASANL_ATSRTLSYY_FAYANRNRF_FLNRFTTTL_FLQSINFVR_FPQSAPHGV_KTFPPTEPK_MGYINVFAF_SPRWYFYYL_TMADLVYAL_TSRTLSYYK_YANRNRFLY_YEQYIKWPW_YFIASFRLF_YLQPRTFLL'
p32
g3
(g5
S'\xcf\xb2\x84^\x0b\x94\xef?'
tRp33
tp34
a.