(lp1
(S'AEIRASANL_ATSRTLSYY_FAYANRNRF_FLNRFTTTL_FPQSAPHGV_KTFPPTEPK_MGYINVFAF_SPRWYFYYL_TSRTLSYYK_YANRNRFLY_YFIASFRLF_YLQPRTFLL_YLYALVYFL'
p2
cnumpy.core.multiarray
scalar
p3
(cnumpy
dtype
p4
(S'f8'
I0
I1
tRp5
(I3
S'<'
NNNI-1
I-1
I0
tbS'\x9f\x15\x88\xd7\x11a\xef?'
tRp6
tp7
a(S'AEIRASANL_ATSRTLSYY_FAYANRNRF_FLNRFTTTL_FPQSAPHGV_KTFPPTEPK_LLYDANYFL_MGYINVFAF_SPRWYFYYL_TSRTLSYYK_YANRNRFLY_YFIASFRLF_YLQPRTFLL'
p8
g3
(g5
S'\xd1\x05h_d`\xef?'
tRp9
tp10
a(S'AEIRASANL_ATSRTLSYY_FAYANRNRF_FLNRFTTTL_FPQSAPHGV_KTFPPTEPK_MGYINVFAF_SPRWYFYYL_TMADLVYAL_TSRTLSYYK_YANRNRFLY_YFIASFRLF_YLQPRTFLL'
p11
g3
(g5
S'7h\xddcC`\xef?'
tRp12
tp13
a(S'AEIRASANL_ATSRTLSYY_FAYANRNRF_FLNRFTTTL_FPQSAPHGV_KTFPPTEPK_LLYDANYFL_MGYINVFAF_SPRWYFYYL_SYFIASFRLF_TSRTLSYYK_YANRNRFLY_YLQPRTFLL'
p14
g3
(g5
S'H\x9f\x9aC\x8c^\xef?'
tRp15
tp16
a(S'AEIRASANL_ATSRTLSYY_FAYANRNRF_FLNRFTTTL_FPQSAPHGV_KTFPPTEPK_LLYDANYFL_MGYINVFAF_SPRWYFYYL_TSRTLSYYK_VYFLQSINF_YANRNRFLY_YLQPRTFLL'
p17
g3
(g5
S'A\x9f\x9aC\x8c^\xef?'
tRp18
tp19
a(S'AEIRASANL_ATSRTLSYY_FAYANRNRF_FLNRFTTTL_FPQSAPHGV_KTFPPTEPK_MGYINVFAF_SPRWYFYYL_SYFIASFRLF_TMADLVYAL_TSRTLSYYK_YANRNRFLY_YLQPRTFLL'
p20
g3
(g5
S'\x9b^C\xc3l^\xef?'
tRp21
tp22
a(S'AEIRASANL_ATSRTLSYY_FAYANRNRF_FLNRFTTTL_FPQSAPHGV_KTFPPTEPK_MGYINVFAF_SPRWYFYYL_TMADLVYAL_TSRTLSYYK_VYFLQSINF_YANRNRFLY_YLQPRTFLL'
p23
g3
(g5
S'\x91^C\xc3l^\xef?'
tRp24
tp25
a(S'AEIRASANL_ATSRTLSYY_FAYANRNRF_FLNRFTTTL_FPQSAPHGV_KTFPPTEPK_MGYINVFAF_SIIAYTMSL_SPRWYFYYL_TSRTLSYYK_YANRNRFLY_YFIASFRLF_YLQPRTFLL'
p26
g3
(g5
S'\x1b8)u ^\xef?'
tRp27
tp28
a(S'AEIRASANL_ATSRTLSYY_FAYANRNRF_FLNRFTTTL_FPQSAPHGV_KTFPPTEPK_MGYINVFAF_SPRWYFYYL_SYFIASFRLF_TSRTLSYYK_YANRNRFLY_YLQPRTFLL_YLYALVYFL'
p29
g3
(g5
S'\x04,\x80\xa0\xe8]\xef?'
tRp30
tp31
a(S'AEIRASANL_ATSRTLSYY_FAYANRNRF_FLNRFTTTL_FPQSAPHGV_KTFPPTEPK_MGYINVFAF_SPRWYFYYL_TSRTLSYYK_VYFLQSINF_YANRNRFLY_YLQPRTFLL_YLYALVYFL'
p32
g3
(g5
S'\xfc+\x80\xa0\xe8]\xef?'
tRp33
tp34
a.