(lp1
(S'AEIRASANL_ALRANSAVK_ATSRTLSYY_EEHVQIHTI_FAYANRNRF_FEYVSQPFL_FLNRFTTTL_FLQSINFVR_FPQSAPHGV_FPRGQGVPI_FTNVYADSF_FVDGVPFVV_KTFPPTEPK_LTDEMIAQY_MGYINVFAF_MPASWVMRI_SIIAYTMSL_SINFVRIIMR_SPRWYFYYL_TMADLVYAL_TSRTLSYYK_TVYSHLLLV_VRFPNITNL_YANRNRFLY_YEQYIKWPW_YFIASFRLF_YLDAYNMMI_YLQPRTFLL_YLYALVYFL'
p2
cnumpy.core.multiarray
scalar
p3
(cnumpy
dtype
p4
(S'f8'
I0
I1
tRp5
(I3
S'<'
NNNI-1
I-1
I0
tbS'\x93\x8b4C\x9fq\xef?'
tRp6
tp7
a(S'AEIRASANL_ALRANSAVK_ATSRTLSYY_EEHVQIHTI_FAYANRNRF_FEYVSQPFL_FLNRFTTTL_FLQSINFVR_FPQSAPHGV_FPRGQGVPI_FTNVYADSF_FVDGVPFVV_KTFPPTEPK_LLYDANYFL_LTDEMIAQY_MGYINVFAF_MPASWVMRI_SIIAYTMSL_SINFVRIIMR_SPRWYFYYL_TSRTLSYYK_TVYSHLLLV_VRFPNITNL_YANRNRFLY_YEQYIKWPW_YFIASFRLF_YLDAYNMMI_YLQPRTFLL_YLYALVYFL'
p8
g3
(g5
S'\xd0#\x05\x1ddq\xef?'
tRp9
tp10
a(S'AEIRASANL_ALRANSAVK_ATSRTLSYY_EEHVQIHTI_FAYANRNRF_FEYVSQPFL_FLNRFTTTL_FLQSINFVR_FPQSAPHGV_FPRGQGVPI_FTNVYADSF_FVDGVPFVV_KTFPPTEPK_LTDEMIAQY_MGYINVFAF_MPASWVMRI_SIIAYTMSL_SINFVRIIMR_SPRWYFYYL_TSRTLSYYK_TVYSHLLLV_VLWAHGFEL_VRFPNITNL_YANRNRFLY_YEQYIKWPW_YFIASFRLF_YLDAYNMMI_YLQPRTFLL_YLYALVYFL'
p11
g3
(g5
S'\x0c\x9d0X\x08q\xef?'
tRp12
tp13
a(S'AEIRASANL_ALRANSAVK_ATSRTLSYY_EEHVQIHTI_FAYANRNRF_FEYVSQPFL_FLNRFTTTL_FLQSINFVR_FPQSAPHGV_FPRGQGVPI_FTNVYADSF_FVDGVPFVV_KTFPPTEPK_LLYDANYFL_LTDEMIAQY_MGYINVFAF_MPASWVMRI_SIIAYTMSL_SINFVRIIMR_SPRWYFYYL_TMADLVYAL_TSRTLSYYK_TVYSHLLLV_VRFPNITNL_YANRNRFLY_YEQYIKWPW_YFIASFRLF_YLDAYNMMI_YLQPRTFLL'
p14
g3
(g5
S'@wEubp\xef?'
tRp15
tp16
a(S'AEIRASANL_ALRANSAVK_ATSRTLSYY_EEHVQIHTI_FAYANRNRF_FEYVSQPFL_FLLPSLATV_FLNRFTTTL_FLQSINFVR_FPQSAPHGV_FPRGQGVPI_FTNVYADSF_FVDGVPFVV_KTFPPTEPK_LTDEMIAQY_MGYINVFAF_MPASWVMRI_SIIAYTMSL_SINFVRIIMR_SPRWYFYYL_TSRTLSYYK_TVYSHLLLV_VRFPNITNL_YANRNRFLY_YEQYIKWPW_YFIASFRLF_YLDAYNMMI_YLQPRTFLL_YLYALVYFL'
p17
g3
(g5
S'\x15\xf4\xd9\xa6#p\xef?'
tRp18
tp19
a(S'AEIRASANL_ALRANSAVK_ATSRTLSYY_EEHVQIHTI_FAYANRNRF_FEYVSQPFL_FLNRFTTTL_FLPRVFSAV_FLQSINFVR_FPQSAPHGV_FPRGQGVPI_FTNVYADSF_FVDGVPFVV_KTFPPTEPK_LTDEMIAQY_MGYINVFAF_MPASWVMRI_SIIAYTMSL_SINFVRIIMR_SPRWYFYYL_TSRTLSYYK_TVYSHLLLV_VRFPNITNL_YANRNRFLY_YEQYIKWPW_YFIASFRLF_YLDAYNMMI_YLQPRTFLL_YLYALVYFL'
p20
g3
(g5
S'\xf4G\x8f\x88!p\xef?'
tRp21
tp22
a(S'AEIRASANL_ALRANSAVK_ATSRTLSYY_EEHVQIHTI_FAYANRNRF_FEYVSQPFL_FLNRFTTTL_FLQSINFVR_FPQSAPHGV_FPRGQGVPI_FTNVYADSF_FVDGVPFVV_KTFPPTEPK_LTDEMIAQY_MGYINVFAF_MPASWVMRI_SIIAYTMSL_SINFVRIIMR_SPRWYFYYL_TMADLVYAL_TSRTLSYYK_TVYSHLLLV_VLWAHGFEL_VRFPNITNL_YANRNRFLY_YEQYIKWPW_YFIASFRLF_YLDAYNMMI_YLQPRTFLL'
p23
g3
(g5
S'\x93=\x10J\x07p\xef?'
tRp24
tp25
a(S'AEIRASANL_ALRANSAVK_ATSRTLSYY_EEHVQIHTI_FAYANRNRF_FEYVSQPFL_FLNRFTTTL_FLQSINFVR_FPQSAPHGV_FPRGQGVPI_FTNVYADSF_FVDGVPFVV_IPIQASLPF_KTFPPTEPK_LTDEMIAQY_MGYINVFAF_SIIAYTMSL_SINFVRIIMR_SPRWYFYYL_TMADLVYAL_TSRTLSYYK_TVYSHLLLV_VRFPNITNL_YANRNRFLY_YEQYIKWPW_YFIASFRLF_YLDAYNMMI_YLQPRTFLL_YLYALVYFL'
p26
g3
(g5
S'\xf1\xf2\x8aK\xf1o\xef?'
tRp27
tp28
a(S'AEIRASANL_ALRANSAVK_ATSRTLSYY_EEHVQIHTI_FAYANRNRF_FEYVSQPFL_FLNRFTTTL_FLQSINFVR_FPQSAPHGV_FPRGQGVPI_FTNVYADSF_FVDGVPFVV_IPIQASLPF_KTFPPTEPK_LLYDANYFL_LTDEMIAQY_MGYINVFAF_SIIAYTMSL_SINFVRIIMR_SPRWYFYYL_TSRTLSYYK_TVYSHLLLV_VRFPNITNL_YANRNRFLY_YEQYIKWPW_YFIASFRLF_YLDAYNMMI_YLQPRTFLL_YLYALVYFL'
p29
g3
(g5
S'S\xeal\xe2\xb6o\xef?'
tRp30
tp31
a(S'AEIRASANL_ALRANSAVK_ATSRTLSYY_EEHVQIHTI_FAYANRNRF_FEYVSQPFL_FLNRFTTTL_FLPRVFSAV_FLQSINFVR_FPQSAPHGV_FPRGQGVPI_FTNVYADSF_FVDGVPFVV_KTFPPTEPK_LTDEMIAQY_MGYINVFAF_MPASWVMRI_SIIAYTMSL_SINFVRIIMR_SPRWYFYYL_TMADLVYAL_TSRTLSYYK_TVYSHLLLV_VRFPNITNL_YANRNRFLY_YEQYIKWPW_YFIASFRLF_YLDAYNMMI_YLQPRTFLL'
p32
g3
(g5
S')\x87\x1f?Xo\xef?'
tRp33
tp34
a.