(lp1
(S'AEIRASANL_ALRANSAVK_ATSRTLSYY_EEHVQIHTI_FAYANRNRF_FLNRFTTTL_FPQSAPHGV_FPRGQGVPI_FTNVYADSF_FTYASALWEI_IPTNFTISV_KTFPPTEPK_LTDEMIAQY_MGYINVFAF_SIIAYTMSL_SINFVRIIMR_SPRWYFYYL_TSRTLSYYK_TVYSHLLLV_VRFPNITNL_YANRNRFLY_YEQYIKWPW_YFIASFRLF_YLDAYNMMI_YLQPRTFLL_YLYALVYFL'
p2
cnumpy.core.multiarray
scalar
p3
(cnumpy
dtype
p4
(S'f8'
I0
I1
tRp5
(I3
S'<'
NNNI-1
I-1
I0
tbS'\x03\x1c\x18A\xff\x9e\xef?'
tRp6
tp7
a(S'AEIRASANL_ALRANSAVK_ATSRTLSYY_EEHVQIHTI_FAYANRNRF_FEYVSQPFL_FLNRFTTTL_FLQSINFVR_FPQSAPHGV_FPRGQGVPI_FTNVYADSF_KTFPPTEPK_LTDEMIAQY_MGYINVFAF_SIIAYTMSL_SINFVRIIMR_SPRWYFYYL_TSRTLSYYK_TVYSHLLLV_VRFPNITNL_YANRNRFLY_YEQYIKWPW_YFIASFRLF_YLDAYNMMI_YLQPRTFLL_YLYALVYFL'
p8
g3
(g5
S'm3\xc8s\xf1\x9e\xef?'
tRp9
tp10
a(S'AEIRASANL_ALRANSAVK_ATSRTLSYY_EEHVQIHTI_FAYANRNRF_FEYVSQPFL_FLNRFTTTL_FPQSAPHGV_FPRGQGVPI_FTNVYADSF_IPTNFTISV_KTFPPTEPK_LTDEMIAQY_MGYINVFAF_SIIAYTMSL_SINFVRIIMR_SPRWYFYYL_TSRTLSYYK_TVYSHLLLV_VRFPNITNL_YANRNRFLY_YEQYIKWPW_YFIASFRLF_YLDAYNMMI_YLQPRTFLL_YLYALVYFL'
p11
g3
(g5
S'(\x95\xfb\x11l\x9e\xef?'
tRp12
tp13
a(S'AEIRASANL_ALRANSAVK_ATSRTLSYY_EEHVQIHTI_FAYANRNRF_FLNRFTTTL_FPQSAPHGV_FPRGQGVPI_FTNVYADSF_FTYASALWEI_IPTNFTISV_KTFPPTEPK_LTDEMIAQY_MGYINVFAF_SIIAYTMSL_SINFVRIIMR_SPRWYFYYL_TMADLVYAL_TSRTLSYYK_TVYSHLLLV_VRFPNITNL_YANRNRFLY_YEQYIKWPW_YFIASFRLF_YLDAYNMMI_YLQPRTFLL'
p14
g3
(g5
S'?\x03s[C\x9e\xef?'
tRp15
tp16
a(S'AEIRASANL_ALRANSAVK_ATSRTLSYY_EEHVQIHTI_FAYANRNRF_FLNRFTTTL_FPQSAPHGV_FPRGQGVPI_FTNVYADSF_FTYASALWEI_IPTNFTISV_KTFPPTEPK_LLYDANYFL_LTDEMIAQY_MGYINVFAF_SIIAYTMSL_SINFVRIIMR_SPRWYFYYL_TSRTLSYYK_TVYSHLLLV_VRFPNITNL_YANRNRFLY_YEQYIKWPW_YFIASFRLF_YLDAYNMMI_YLQPRTFLL'
p17
g3
(g5
S'+`\x87{\x14\x9e\xef?'
tRp18
tp19
a(S'AEIRASANL_ALRANSAVK_ATSRTLSYY_EEHVQIHTI_FAYANRNRF_FEYVSQPFL_FLNRFTTTL_FLQSINFVR_FPQSAPHGV_FPRGQGVPI_FTNVYADSF_KTFPPTEPK_LTDEMIAQY_MGYINVFAF_SIIAYTMSL_SINFVRIIMR_SPRWYFYYL_TMADLVYAL_TSRTLSYYK_TVYSHLLLV_VRFPNITNL_YANRNRFLY_YEQYIKWPW_YFIASFRLF_YLDAYNMMI_YLQPRTFLL'
p20
g3
(g5
S'\x88\x08\xb7n\xed\x9d\xef?'
tRp21
tp22
a(S'AEIRASANL_ALRANSAVK_ATSRTLSYY_EEHVQIHTI_FAYANRNRF_FLNRFTTTL_FPNITNLCPF_FPQSAPHGV_FPRGQGVPI_FTNVYADSF_FTYASALWEI_KTFPPTEPK_LTDEMIAQY_MGYINVFAF_SIIAYTMSL_SINFVRIIMR_SPRWYFYYL_TSRTLSYYK_TVYSHLLLV_VRFPNITNL_YANRNRFLY_YEQYIKWPW_YFIASFRLF_YLDAYNMMI_YLQPRTFLL_YLYALVYFL'
p23
g3
(g5
S'\xe0_-\x92i\x9d\xef?'
tRp24
tp25
a(S'AEIRASANL_ALRANSAVK_ATSRTLSYY_EEHVQIHTI_FAYANRNRF_FEYVSQPFL_FLNRFTTTL_FPQSAPHGV_FPRGQGVPI_FTNVYADSF_IPTNFTISV_KTFPPTEPK_LTDEMIAQY_MGYINVFAF_SIIAYTMSL_SINFVRIIMR_SPRWYFYYL_TMADLVYAL_TSRTLSYYK_TVYSHLLLV_VRFPNITNL_YANRNRFLY_YEQYIKWPW_YFIASFRLF_YLDAYNMMI_YLQPRTFLL'
p26
g3
(g5
S',H\x05v^\x9d\xef?'
tRp27
tp28
a(S'AEIRASANL_ALRANSAVK_ATSRTLSYY_EEHVQIHTI_FAYANRNRF_FLNRFTTTL_FPNITNLCPF_FPQSAPHGV_FPRGQGVPI_FTNVYADSF_FTYASALWEI_KTFPPTEPK_LTDEMIAQY_MGYINVFAF_SIIAYTMSL_SINFVRIIMR_SPRWYFYYL_TMADLVYAL_TSRTLSYYK_TVYSHLLLV_VRFPNITNL_YANRNRFLY_YEQYIKWPW_YFIASFRLF_YLDAYNMMI_YLQPRTFLL'
p29
g3
(g5
S'\xe1p\xda\x15\x9e\x9c\xef?'
tRp30
tp31
a(S'AEIRASANL_ALRANSAVK_ATSRTLSYY_EEHVQIHTI_FAYANRNRF_FLNRFTTTL_FPNITNLCPF_FPQSAPHGV_FPRGQGVPI_FTNVYADSF_FTYASALWEI_KTFPPTEPK_LLYDANYFL_LTDEMIAQY_MGYINVFAF_SIIAYTMSL_SINFVRIIMR_SPRWYFYYL_TSRTLSYYK_TVYSHLLLV_VRFPNITNL_YANRNRFLY_YEQYIKWPW_YFIASFRLF_YLDAYNMMI_YLQPRTFLL'
p32
g3
(g5
S"\x07\xdb\xdb'n\x9c\xef?"
tRp33
tp34
a.