(lp1
(S'ATSRTLSYY_MGYINVFAF_YLQPRTFLL'
p2
cnumpy.core.multiarray
scalar
p3
(cnumpy
dtype
p4
(S'f8'
I0
I1
tRp5
(I3
S'<'
NNNI-1
I-1
I0
tbS'\x0b\n;\x1b\x8ff\xef?'
tRp6
tp7
a(S'KTFPPTEPK_MGYINVFAF_YLQPRTFLL'
p8
g3
(g5
S'\xa5\xafI:{f\xef?'
tRp9
tp10
a(S'MGYINVFAF_TSRTLSYYK_YLQPRTFLL'
p11
g3
(g5
S'\x00\xc4\xeb:Ze\xef?'
tRp12
tp13
a(S'ALRANSAVK_MGYINVFAF_YLQPRTFLL'
p14
g3
(g5
S'\xdf\xe8\xb9+KI\xef?'
tRp15
tp16
a(S'HVTFFIYNK_MGYINVFAF_YLQPRTFLL'
p17
g3
(g5
S'\xef\xa0\xeb\xaa\xaaE\xef?'
tRp18
tp19
a(S'MGYINVFAF_YIFFASFYY_YLQPRTFLL'
p20
g3
(g5
S'\xab\xda\x9a\x18\xaa9\xef?'
tRp21
tp22
a(S'KTFPPTEPK_YANRNRFLY_YLQPRTFLL'
p23
g3
(g5
S'+\xa8\x15\x0ew3\xef?'
tRp24
tp25
a(S'KVSIWNLDY_MGYINVFAF_YLQPRTFLL'
p26
g3
(g5
S'\xbd\x82\x89\xce\x123\xef?'
tRp27
tp28
a(S'TSRTLSYYK_YANRNRFLY_YLQPRTFLL'
p29
g3
(g5
S'\x83!]\xbeX1\xef?'
tRp30
tp31
a(S'FAYANRNRF_MGYINVFAF_YLQPRTFLL'
p32
g3
(g5
S'\xe9\x94\xa3<\n/\xef?'
tRp33
tp34
a.