(lp1
(S'AEIRASANL_ATSRTLSYY_FAYANRNRF_FLNRFTTTL_FPQSAPHGV_KTFPPTEPK_MGYINVFAF_YANRNRFLY_YLQPRTFLL'
p2
cnumpy.core.multiarray
scalar
p3
(cnumpy
dtype
p4
(S'f8'
I0
I1
tRp5
(I3
S'<'
NNNI-1
I-1
I0
tbS'\xd4\xb9\xc8\x93}e\xef?'
tRp6
tp7
a(S'AEIRASANL_ATSRTLSYY_FAYANRNRF_FLNRFTTTL_FPQSAPHGV_KTFPPTEPK_MGYINVFAF_SPRWYFYYL_YLQPRTFLL'
p8
g3
(g5
S'\x18\x12\x7f\xeegb\xef?'
tRp9
tp10
a(S'ATSRTLSYY_FAYANRNRF_FLNRFTTTL_FPQSAPHGV_KTFPPTEPK_MGYINVFAF_SPRWYFYYL_YANRNRFLY_YLQPRTFLL'
p11
g3
(g5
S'P\x0e,\xf8\x8d`\xef?'
tRp12
tp13
a(S'AEIRASANL_ATSRTLSYY_FAYANRNRF_FLNRFTTTL_FPQSAPHGV_MGYINVFAF_SPRWYFYYL_TSRTLSYYK_YLQPRTFLL'
p14
g3
(g5
S's\xc9kpW_\xef?'
tRp15
tp16
a(S'AEIRASANL_ATSRTLSYY_FAYANRNRF_FLNRFTTTL_FPQSAPHGV_FVDGVPFVV_KTFPPTEPK_MGYINVFAF_YLQPRTFLL'
p17
g3
(g5
S'\xe3Q\xd0\xb2\x84]\xef?'
tRp18
tp19
a(S'AEIRASANL_ATSRTLSYY_FAYANRNRF_FLNRFTTTL_FPQSAPHGV_KTFPPTEPK_LTDEMIAQY_MGYINVFAF_YLQPRTFLL'
p20
g3
(g5
S'\xf3\xa1\x97R\xb2\\\xef?'
tRp21
tp22
a(S'AEIRASANL_ATSRTLSYY_FAYANRNRF_FLNRFTTTL_IPTNFTISV_KTFPPTEPK_MGYINVFAF_SPRWYFYYL_YLQPRTFLL'
p23
g3
(g5
S'\xc35*\x1b2\\\xef?'
tRp24
tp25
a(S'ATSRTLSYY_FAYANRNRF_FLNRFTTTL_FPQSAPHGV_FVDGVPFVV_KTFPPTEPK_MGYINVFAF_SPRWYFYYL_YLQPRTFLL'
p26
g3
(g5
S'P\xe0\xaey\xdc[\xef?'
tRp27
tp28
a(S'AEIRASANL_ATSRTLSYY_FAYANRNRF_FLNRFTTTL_FPQSAPHGV_ISDYDYYRY_KTFPPTEPK_MGYINVFAF_YLQPRTFLL'
p29
g3
(g5
S'\xe5\xee\xe4\x07\xceZ\xef?'
tRp30
tp31
a(S'AEIRASANL_ATSRTLSYY_FAYANRNRF_FLNRFTTTL_KTFPPTEPK_MGYINVFAF_SPRWYFYYL_YANRNRFLY_YLQPRTFLL'
p32
g3
(g5
S'\xa5|\x06sfZ\xef?'
tRp33
tp34
a.