(lp1
(S'AEIRASANL_AELEGIQY_ALRANSAVK_ASKIITLKK_ATEGALNTPK_ATSRTLSYY_EEHVQIHTI_FAYANRNRF_FEYVSQPFL_FIAGLIAIV_FLLNKEMYL_FLLPSLATV_FLNRFTTTL_FLPRVFSAV_FLQSINFVR_FPNITNLCPF_FPPTSFGPL_FPQSAPHGV_FPRGQGVPI_FTNVYADSF_FTYASALWEI_FVDGVPFVV_GVYFASTEK_HVTFFIYNK_IPIQASLPF_IPRRNVATL_IPTNFTISV_ISDYDYYRY_ITLATCELY_ITLKKRWQL_KAYNVTQAF_KMQRMLLEK_KTFPPTEPK_KVSIWNLDY_LLYDANYFL_LNDLCFTNVY_LPFFSNVTW_LPFNDGVYF_LSPRWYFYY_LTDEMIAQY_LYNSASFSTF_LYSPIFLIV_MGYINVFAF_MIELSLIDFY_MPASWVMRI_MTSCCSCLK_NSASFSTFK_NVFAFPFTIY_NYNYLYRLF_QELYSPIFL_QYIKWPWYI_RARSVSPKL_RLFRKSNLK_RLYYDSMSY_RTFKVSIWNL_SIIAYTMSL_SINFVRIIMR_SLIDFYLCFL_SPRWYFYYL_SSPDDQIGYY_TMADLVYAL_TSRTLSYYK_TVYSHLLLV_VEHVTFFIY_VLWAHGFEL_VRFPNITNL_VTPSGTWLTY_VYFLQSINF_WTAGAAAYY_YANRNRFLY_YEQYIKWPW_YFIASFRLF_YIFFASFYY_YIIKLIFLW_YINVFAFPF_YLDAYNMMI_YLQPRTFLL_YLYALVYFL'
p2
cnumpy.core.multiarray
scalar
p3
(cnumpy
dtype
p4
(S'f8'
I0
I1
tRp5
(I3
S'<'
NNNI-1
I-1
I0
tbS'\xd8r\x8e\xbb\x88\x85\xef?'
tRp6
tp7
a(S'AEIRASANL_AELEGIQY_ALRANSAVK_ASKIITLKK_ATEGALNTPK_ATSRTLSYY_EEHVQIHTI_FAYANRNRF_FEYVSQPFL_FIAGLIAIV_FLAFLLFLV_FLLNKEMYL_FLLPSLATV_FLNRFTTTL_FLPRVFSAV_FLQSINFVR_FPNITNLCPF_FPPTSFGPL_FPQSAPHGV_FPRGQGVPI_FTNVYADSF_FTYASALWEI_FVDGVPFVV_GVYFASTEK_HVTFFIYNK_IPIQASLPF_IPRRNVATL_IPTNFTISV_ISDYDYYRY_ITLATCELY_ITLKKRWQL_KAYNVTQAF_KMQRMLLEK_KTFPPTEPK_KVSIWNLDY_LLYDANYFL_LNDLCFTNVY_LPFFSNVTW_LPFNDGVYF_LSPRWYFYY_LTDEMIAQY_LYNSASFSTF_LYSPIFLIV_MGYINVFAF_MIELSLIDFY_MPASWVMRI_MTSCCSCLK_NSASFSTFK_NVFAFPFTIY_NYNYLYRLF_QELYSPIFL_QYIKWPWYI_RARSVSPKL_RLFRKSNLK_RLYYDSMSY_RTFKVSIWNL_SIIAYTMSL_SINFVRIIMR_SPRWYFYYL_SSPDDQIGYY_TMADLVYAL_TSRTLSYYK_TVYSHLLLV_VEHVTFFIY_VLWAHGFEL_VRFPNITNL_VTPSGTWLTY_VYFLQSINF_WTAGAAAYY_YANRNRFLY_YEQYIKWPW_YFIASFRLF_YIFFASFYY_YIIKLIFLW_YINVFAFPF_YLDAYNMMI_YLQPRTFLL_YLYALVYFL'
p8
g3
(g5
S'\xd8r\x8e\xbb\x88\x85\xef?'
tRp9
tp10
a(S'AEIRASANL_AELEGIQY_ALRANSAVK_ASKIITLKK_ATEGALNTPK_ATSRTLSYY_CNDPFLGVY_EEHVQIHTI_FAYANRNRF_FEYVSQPFL_FIAGLIAIV_FLLNKEMYL_FLLPSLATV_FLNRFTTTL_FLPRVFSAV_FLQSINFVR_FPNITNLCPF_FPPTSFGPL_FPQSAPHGV_FPRGQGVPI_FTNVYADSF_FTYASALWEI_FVDGVPFVV_GVYFASTEK_HVTFFIYNK_IPIQASLPF_IPRRNVATL_IPTNFTISV_ISDYDYYRY_ITLATCELY_ITLKKRWQL_KAYNVTQAF_KMQRMLLEK_KTFPPTEPK_KVSIWNLDY_LLYDANYFL_LPFFSNVTW_LPFNDGVYF_LSPRWYFYY_LTDEMIAQY_LYNSASFSTF_LYSPIFLIV_MGYINVFAF_MIELSLIDFY_MPASWVMRI_MTSCCSCLK_NSASFSTFK_NVFAFPFTIY_NYNYLYRLF_QELYSPIFL_QYIKWPWYI_RARSVSPKL_RLFRKSNLK_RLYYDSMSY_RTFKVSIWNL_SIIAYTMSL_SINFVRIIMR_SLIDFYLCFL_SPRWYFYYL_SSPDDQIGYY_TMADLVYAL_TSRTLSYYK_TVYSHLLLV_VEHVTFFIY_VLWAHGFEL_VRFPNITNL_VTPSGTWLTY_VYFLQSINF_WTAGAAAYY_YANRNRFLY_YEQYIKWPW_YFIASFRLF_YIFFASFYY_YIIKLIFLW_YINVFAFPF_YLDAYNMMI_YLQPRTFLL_YLYALVYFL'
p11
g6
tp12
a(S'AEIRASANL_AELEGIQY_ALRANSAVK_ASKIITLKK_ATEGALNTPK_ATSRTLSYY_CNDPFLGVY_EEHVQIHTI_FAYANRNRF_FEYVSQPFL_FIAGLIAIV_FLAFLLFLV_FLLNKEMYL_FLLPSLATV_FLNRFTTTL_FLPRVFSAV_FLQSINFVR_FPNITNLCPF_FPPTSFGPL_FPQSAPHGV_FPRGQGVPI_FTNVYADSF_FTYASALWEI_FVDGVPFVV_GVYFASTEK_HVTFFIYNK_IPIQASLPF_IPRRNVATL_IPTNFTISV_ISDYDYYRY_ITLATCELY_ITLKKRWQL_KAYNVTQAF_KMQRMLLEK_KTFPPTEPK_KVSIWNLDY_LLYDANYFL_LPFFSNVTW_LPFNDGVYF_LSPRWYFYY_LTDEMIAQY_LYNSASFSTF_LYSPIFLIV_MGYINVFAF_MIELSLIDFY_MPASWVMRI_MTSCCSCLK_NSASFSTFK_NVFAFPFTIY_NYNYLYRLF_QELYSPIFL_QYIKWPWYI_RARSVSPKL_RLFRKSNLK_RLYYDSMSY_RTFKVSIWNL_SIIAYTMSL_SINFVRIIMR_SPRWYFYYL_SSPDDQIGYY_TMADLVYAL_TSRTLSYYK_TVYSHLLLV_VEHVTFFIY_VLWAHGFEL_VRFPNITNL_VTPSGTWLTY_VYFLQSINF_WTAGAAAYY_YANRNRFLY_YEQYIKWPW_YFIASFRLF_YIFFASFYY_YIIKLIFLW_YINVFAFPF_YLDAYNMMI_YLQPRTFLL_YLYALVYFL'
p13
g9
tp14
a(S'AEIRASANL_AELEGIQY_ALRANSAVK_ASKIITLKK_ATEGALNTPK_ATSRTLSYY_CNDPFLGVYY_EEHVQIHTI_FAYANRNRF_FEYVSQPFL_FIAGLIAIV_FLLNKEMYL_FLLPSLATV_FLNRFTTTL_FLPRVFSAV_FLQSINFVR_FPNITNLCPF_FPPTSFGPL_FPQSAPHGV_FPRGQGVPI_FTNVYADSF_FTYASALWEI_FVDGVPFVV_GVYFASTEK_HVTFFIYNK_IPIQASLPF_IPRRNVATL_IPTNFTISV_ISDYDYYRY_ITLATCELY_ITLKKRWQL_KAYNVTQAF_KMQRMLLEK_KTFPPTEPK_KVSIWNLDY_LLYDANYFL_LNDLCFTNVY_LPFFSNVTW_LPFNDGVYF_LSPRWYFYY_LTDEMIAQY_LYNSASFSTF_LYSPIFLIV_MGYINVFAF_MIELSLIDFY_MPASWVMRI_MTSCCSCLK_NSASFSTFK_NVFAFPFTIY_NYNYLYRLF_QELYSPIFL_QYIKWPWYI_RARSVSPKL_RLFRKSNLK_RLYYDSMSY_RTFKVSIWNL_SIIAYTMSL_SINFVRIIMR_SLIDFYLCFL_SPRWYFYYL_TMADLVYAL_TSRTLSYYK_TVYSHLLLV_VEHVTFFIY_VLWAHGFEL_VRFPNITNL_VTPSGTWLTY_VYFLQSINF_WTAGAAAYY_YANRNRFLY_YEQYIKWPW_YFIASFRLF_YIFFASFYY_YIIKLIFLW_YINVFAFPF_YLDAYNMMI_YLQPRTFLL_YLYALVYFL'
p15
g3
(g5
S'\xd8r\x8e\xbb\x88\x85\xef?'
tRp16
tp17
a(S'AEIRASANL_AELEGIQY_ALRANSAVK_ASKIITLKK_ATEGALNTPK_ATSRTLSYY_CNDPFLGVYY_EEHVQIHTI_FAYANRNRF_FEYVSQPFL_FIAGLIAIV_FLAFLLFLV_FLLNKEMYL_FLLPSLATV_FLNRFTTTL_FLPRVFSAV_FLQSINFVR_FPNITNLCPF_FPPTSFGPL_FPQSAPHGV_FPRGQGVPI_FTNVYADSF_FTYASALWEI_FVDGVPFVV_GVYFASTEK_HVTFFIYNK_IPIQASLPF_IPRRNVATL_IPTNFTISV_ISDYDYYRY_ITLATCELY_ITLKKRWQL_KAYNVTQAF_KMQRMLLEK_KTFPPTEPK_KVSIWNLDY_LLYDANYFL_LNDLCFTNVY_LPFFSNVTW_LPFNDGVYF_LSPRWYFYY_LTDEMIAQY_LYNSASFSTF_LYSPIFLIV_MGYINVFAF_MIELSLIDFY_MPASWVMRI_MTSCCSCLK_NSASFSTFK_NVFAFPFTIY_NYNYLYRLF_QELYSPIFL_QYIKWPWYI_RARSVSPKL_RLFRKSNLK_RLYYDSMSY_RTFKVSIWNL_SIIAYTMSL_SINFVRIIMR_SPRWYFYYL_TMADLVYAL_TSRTLSYYK_TVYSHLLLV_VEHVTFFIY_VLWAHGFEL_VRFPNITNL_VTPSGTWLTY_VYFLQSINF_WTAGAAAYY_YANRNRFLY_YEQYIKWPW_YFIASFRLF_YIFFASFYY_YIIKLIFLW_YINVFAFPF_YLDAYNMMI_YLQPRTFLL_YLYALVYFL'
p18
g3
(g5
S'\xd8r\x8e\xbb\x88\x85\xef?'
tRp19
tp20
a(S'AEIRASANL_AELEGIQY_ALRANSAVK_ASKIITLKK_ATEGALNTPK_ATSRTLSYY_EEHVQIHTI_FAYANRNRF_FCNDPFLGVY_FEYVSQPFL_FIAGLIAIV_FLLNKEMYL_FLLPSLATV_FLNRFTTTL_FLPRVFSAV_FLQSINFVR_FPNITNLCPF_FPPTSFGPL_FPQSAPHGV_FPRGQGVPI_FTNVYADSF_FTYASALWEI_FVDGVPFVV_GVYFASTEK_HVTFFIYNK_IPIQASLPF_IPRRNVATL_IPTNFTISV_ISDYDYYRY_ITLATCELY_ITLKKRWQL_KAYNVTQAF_KMQRMLLEK_KTFPPTEPK_KVSIWNLDY_LLYDANYFL_LPFFSNVTW_LPFNDGVYF_LSPRWYFYY_LTDEMIAQY_LYNSASFSTF_LYSPIFLIV_MGYINVFAF_MIELSLIDFY_MPASWVMRI_MTSCCSCLK_NSASFSTFK_NVFAFPFTIY_NYNYLYRLF_QELYSPIFL_QYIKWPWYI_RARSVSPKL_RLFRKSNLK_RLYYDSMSY_RTFKVSIWNL_SIIAYTMSL_SINFVRIIMR_SLIDFYLCFL_SPRWYFYYL_SSPDDQIGYY_TMADLVYAL_TSRTLSYYK_TVYSHLLLV_VEHVTFFIY_VLWAHGFEL_VRFPNITNL_VTPSGTWLTY_VYFLQSINF_WTAGAAAYY_YANRNRFLY_YEQYIKWPW_YFIASFRLF_YIFFASFYY_YIIKLIFLW_YINVFAFPF_YLDAYNMMI_YLQPRTFLL_YLYALVYFL'
p21
g3
(g5
S'\xd5r\x8e\xbb\x88\x85\xef?'
tRp22
tp23
a(S'AEIRASANL_AELEGIQY_ALRANSAVK_ASKIITLKK_ATEGALNTPK_ATSRTLSYY_EEHVQIHTI_FAYANRNRF_FCNDPFLGVY_FEYVSQPFL_FIAGLIAIV_FLLNKEMYL_FLLPSLATV_FLNRFTTTL_FLPRVFSAV_FLQSINFVR_FPNITNLCPF_FPPTSFGPL_FPQSAPHGV_FPRGQGVPI_FTNVYADSF_FTYASALWEI_FVDGVPFVV_GVYFASTEK_HVTFFIYNK_IPIQASLPF_IPRRNVATL_IPTNFTISV_ISDYDYYRY_ITLATCELY_ITLKKRWQL_KAYNVTQAF_KMQRMLLEK_KTFPPTEPK_KVSIWNLDY_LLYDANYFL_LNDLCFTNVY_LPFFSNVTW_LPFNDGVYF_LSPRWYFYY_LTDEMIAQY_LYNSASFSTF_LYSPIFLIV_MGYINVFAF_MPASWVMRI_MTSCCSCLK_NSASFSTFK_NVFAFPFTIY_NYNYLYRLF_QELYSPIFL_QYIKWPWYI_RARSVSPKL_RLFRKSNLK_RLYYDSMSY_RTFKVSIWNL_SIIAYTMSL_SINFVRIIMR_SLIDFYLCFL_SPRWYFYYL_SSPDDQIGYY_TMADLVYAL_TSRTLSYYK_TVYSHLLLV_VEHVTFFIY_VLWAHGFEL_VRFPNITNL_VTPSGTWLTY_VYFLQSINF_WTAGAAAYY_YANRNRFLY_YEQYIKWPW_YFIASFRLF_YIFFASFYY_YIIKLIFLW_YINVFAFPF_YLDAYNMMI_YLQPRTFLL_YLYALVYFL'
p24
g3
(g5
S'\xd5r\x8e\xbb\x88\x85\xef?'
tRp25
tp26
a(S'AEIRASANL_AELEGIQY_ALRANSAVK_ASKIITLKK_ATEGALNTPK_ATSRTLSYY_EEHVQIHTI_FAYANRNRF_FCNDPFLGVY_FEYVSQPFL_FIAGLIAIV_FLLNKEMYL_FLLPSLATV_FLNRFTTTL_FLPRVFSAV_FLQSINFVR_FPNITNLCPF_FPPTSFGPL_FPQSAPHGV_FPRGQGVPI_FTNVYADSF_FTYASALWEI_FVDGVPFVV_GVYFASTEK_HVTFFIYNK_IPIQASLPF_IPRRNVATL_IPTNFTISV_ISDYDYYRY_ITLATCELY_ITLKKRWQL_KAYNVTQAF_KMQRMLLEK_KTFPPTEPK_KVSIWNLDY_LLYDANYFL_LNDLCFTNVY_LPFFSNVTW_LPFNDGVYF_LSPRWYFYY_LTDEMIAQY_LYNSASFSTF_LYSPIFLIV_MGYINVFAF_MIELSLIDFY_MPASWVMRI_MTSCCSCLK_NSASFSTFK_NVFAFPFTIY_NYNYLYRLF_QELYSPIFL_QYIKWPWYI_RARSVSPKL_RLFRKSNLK_RLYYDSMSY_RTFKVSIWNL_SIIAYTMSL_SINFVRIIMR_SLIDFYLCFL_SPRWYFYYL_TMADLVYAL_TSRTLSYYK_TVYSHLLLV_VEHVTFFIY_VLWAHGFEL_VRFPNITNL_VTPSGTWLTY_VYFLQSINF_WTAGAAAYY_YANRNRFLY_YEQYIKWPW_YFIASFRLF_YIFFASFYY_YIIKLIFLW_YINVFAFPF_YLDAYNMMI_YLQPRTFLL_YLYALVYFL'
p27
g3
(g5
S'\xd5r\x8e\xbb\x88\x85\xef?'
tRp28
tp29
a(S'AEIRASANL_AELEGIQY_ALRANSAVK_ASKIITLKK_ATEGALNTPK_ATSRTLSYY_EEHVQIHTI_FAYANRNRF_FCNDPFLGVY_FEYVSQPFL_FIAGLIAIV_FLAFLLFLV_FLLNKEMYL_FLLPSLATV_FLNRFTTTL_FLPRVFSAV_FLQSINFVR_FPNITNLCPF_FPPTSFGPL_FPQSAPHGV_FPRGQGVPI_FTNVYADSF_FTYASALWEI_FVDGVPFVV_GVYFASTEK_HVTFFIYNK_IPIQASLPF_IPRRNVATL_IPTNFTISV_ISDYDYYRY_ITLATCELY_ITLKKRWQL_KAYNVTQAF_KMQRMLLEK_KTFPPTEPK_KVSIWNLDY_LLYDANYFL_LPFFSNVTW_LPFNDGVYF_LSPRWYFYY_LTDEMIAQY_LYNSASFSTF_LYSPIFLIV_MGYINVFAF_MIELSLIDFY_MPASWVMRI_MTSCCSCLK_NSASFSTFK_NVFAFPFTIY_NYNYLYRLF_QELYSPIFL_QYIKWPWYI_RARSVSPKL_RLFRKSNLK_RLYYDSMSY_RTFKVSIWNL_SIIAYTMSL_SINFVRIIMR_SPRWYFYYL_SSPDDQIGYY_TMADLVYAL_TSRTLSYYK_TVYSHLLLV_VEHVTFFIY_VLWAHGFEL_VRFPNITNL_VTPSGTWLTY_VYFLQSINF_WTAGAAAYY_YANRNRFLY_YEQYIKWPW_YFIASFRLF_YIFFASFYY_YIIKLIFLW_YINVFAFPF_YLDAYNMMI_YLQPRTFLL_YLYALVYFL'
p30
g3
(g5
S'\xd5r\x8e\xbb\x88\x85\xef?'
tRp31
tp32
a.