(lp1
(S'AEIRASANL_ATSRTLSYY_FAYANRNRF_FLNRFTTTL_FPQSAPHGV_KTFPPTEPK_LLYDANYFL_MGYINVFAF_SPRWYFYYL_TSRTLSYYK_YANRNRFLY_YLQPRTFLL'
p2
cnumpy.core.multiarray
scalar
p3
(cnumpy
dtype
p4
(S'f8'
I0
I1
tRp5
(I3
S'<'
NNNI-1
I-1
I0
tbS'[\x01\xd5\xee\xd75\xef?'
tRp6
tp7
a(S'AEIRASANL_ATSRTLSYY_FAYANRNRF_FLNRFTTTL_FPQSAPHGV_KTFPPTEPK_MGYINVFAF_SPRWYFYYL_TSRTLSYYK_YANRNRFLY_YLQPRTFLL_YLYALVYFL'
p8
g3
(g5
S'\xb4\xd2\x9fD05\xef?'
tRp9
tp10
a(S'AEIRASANL_ATSRTLSYY_FAYANRNRF_FLNRFTTTL_FPQSAPHGV_KTFPPTEPK_MGYINVFAF_SPRWYFYYL_TMADLVYAL_TSRTLSYYK_YANRNRFLY_YLQPRTFLL'
p11
g3
(g5
S',\xbc\xe6\xcfw4\xef?'
tRp12
tp13
a(S'AEIRASANL_ATSRTLSYY_FAYANRNRF_FLNRFTTTL_FPQSAPHGV_KTFPPTEPK_MGYINVFAF_SIIAYTMSL_SPRWYFYYL_TSRTLSYYK_YANRNRFLY_YLQPRTFLL'
p14
g3
(g5
S'p[\xffm\xc83\xef?'
tRp15
tp16
a(S'AEIRASANL_ATSRTLSYY_FAYANRNRF_FLNRFTTTL_IPTNFTISV_KTFPPTEPK_LLYDANYFL_MGYINVFAF_SPRWYFYYL_TSRTLSYYK_YANRNRFLY_YLQPRTFLL'
p17
g3
(g5
S'0\xa7\x94\x83\xb72\xef?'
tRp18
tp19
a(S'AEIRASANL_ATSRTLSYY_FAYANRNRF_FLNRFTTTL_IPTNFTISV_KTFPPTEPK_MGYINVFAF_SPRWYFYYL_TSRTLSYYK_YANRNRFLY_YLQPRTFLL_YLYALVYFL'
p20
g3
(g5
S'y\xbf\xc1\x90\x8c2\xef?'
tRp21
tp22
a(S'AEIRASANL_ATSRTLSYY_FAYANRNRF_FLNRFTTTL_IPTNFTISV_KTFPPTEPK_MGYINVFAF_SPRWYFYYL_TMADLVYAL_TSRTLSYYK_YANRNRFLY_YLQPRTFLL'
p23
g3
(g5
S'\xd4V\x80\xfdA1\xef?'
tRp24
tp25
a(S'AEIRASANL_ATSRTLSYY_FAYANRNRF_FLNRFTTTL_FPQSAPHGV_IPRRNVATL_KTFPPTEPK_MGYINVFAF_SIIAYTMSL_TSRTLSYYK_YANRNRFLY_YLQPRTFLL'
p26
g3
(g5
S'Sn@B+1\xef?'
tRp27
tp28
a(S'AEIRASANL_ATSRTLSYY_FAYANRNRF_FLNRFTTTL_IPTNFTISV_KTFPPTEPK_MGYINVFAF_SIIAYTMSL_SPRWYFYYL_TSRTLSYYK_YANRNRFLY_YLQPRTFLL'
p29
g3
(g5
S'c<\x8a$|0\xef?'
tRp30
tp31
a(S'AEIRASANL_ATSRTLSYY_FAYANRNRF_FLNRFTTTL_FPQSAPHGV_KTFPPTEPK_MGYINVFAF_SIIAYTMSL_SPRWYFYYL_VRFPNITNL_YANRNRFLY_YLQPRTFLL'
p32
g3
(g5
S'\xd5\xca=\x8cs0\xef?'
tRp33
tp34
a.