(lp1
(S'AEIRASANL_ATSRTLSYY_FAYANRNRF_FLNRFTTTL_FPQSAPHGV_KTFPPTEPK_MGYINVFAF_SIIAYTMSL_SINFVRIIMR_SPRWYFYYL_TSRTLSYYK_TVYSHLLLV_YANRNRFLY_YEQYIKWPW_YFIASFRLF_YLQPRTFLL'
p2
cnumpy.core.multiarray
scalar
p3
(cnumpy
dtype
p4
(S'f8'
I0
I1
tRp5
(I3
S'<'
NNNI-1
I-1
I0
tbS'\xab\xfcFW\xb9\xa9\xef?'
tRp6
tp7
a(S'AEIRASANL_ATSRTLSYY_FAYANRNRF_FLNRFTTTL_FLQSINFVR_FPQSAPHGV_KTFPPTEPK_MGYINVFAF_SIIAYTMSL_SPRWYFYYL_TSRTLSYYK_TVYSHLLLV_YANRNRFLY_YEQYIKWPW_YFIASFRLF_YLQPRTFLL'
p8
g3
(g5
S'\x8d]\x14\xfe\x9e\xa9\xef?'
tRp9
tp10
a(S'AEIRASANL_AELEGIQY_ATSRTLSYY_FAYANRNRF_FLNRFTTTL_FPQSAPHGV_KTFPPTEPK_MGYINVFAF_SIIAYTMSL_SINFVRIIMR_SPRWYFYYL_TSRTLSYYK_TVYSHLLLV_YANRNRFLY_YFIASFRLF_YLQPRTFLL'
p11
g3
(g5
S'\x9b\xfb\xadJ}\xa8\xef?'
tRp12
tp13
a(S'AEIRASANL_AELEGIQY_ATSRTLSYY_FAYANRNRF_FLNRFTTTL_FLQSINFVR_FPQSAPHGV_KTFPPTEPK_MGYINVFAF_SIIAYTMSL_SPRWYFYYL_TSRTLSYYK_TVYSHLLLV_YANRNRFLY_YFIASFRLF_YLQPRTFLL'
p14
g3
(g5
S'UI\x04\x81J\xa8\xef?'
tRp15
tp16
a(S'AEIRASANL_ATSRTLSYY_FAYANRNRF_FLNRFTTTL_FPQSAPHGV_KTFPPTEPK_MGYINVFAF_SIIAYTMSL_SINFVRIIMR_SPRWYFYYL_TSRTLSYYK_TVYSHLLLV_VEHVTFFIY_YANRNRFLY_YFIASFRLF_YLQPRTFLL'
p17
g3
(g5
S'\x0c?\x12\xe4\x92\xa7\xef?'
tRp18
tp19
a(S'AEIRASANL_ATSRTLSYY_FAYANRNRF_FLNRFTTTL_FPQSAPHGV_FVDGVPFVV_KTFPPTEPK_MGYINVFAF_SIIAYTMSL_SINFVRIIMR_SPRWYFYYL_TSRTLSYYK_YANRNRFLY_YEQYIKWPW_YFIASFRLF_YLQPRTFLL'
p20
g3
(g5
S'1\xc8\xa8[}\xa7\xef?'
tRp21
tp22
a(S'AEIRASANL_ATSRTLSYY_FAYANRNRF_FLNRFTTTL_FLQSINFVR_FPQSAPHGV_KTFPPTEPK_MGYINVFAF_SIIAYTMSL_SPRWYFYYL_TSRTLSYYK_TVYSHLLLV_VEHVTFFIY_YANRNRFLY_YFIASFRLF_YLQPRTFLL'
p23
g3
(g5
S' \x14\xcez_\xa7\xef?'
tRp24
tp25
a(S'AEIRASANL_ATSRTLSYY_FAYANRNRF_FLNRFTTTL_FPQSAPHGV_KTFPPTEPK_MGYINVFAF_SINFVRIIMR_SPRWYFYYL_TSRTLSYYK_TVYSHLLLV_YANRNRFLY_YEQYIKWPW_YFIASFRLF_YLQPRTFLL_YLYALVYFL'
p26
g3
(g5
S'p\xac\xdd\xcb\t\xa7\xef?'
tRp27
tp28
a(S'AEIRASANL_ATSRTLSYY_FAYANRNRF_FLNRFTTTL_FLQSINFVR_FPQSAPHGV_KTFPPTEPK_MGYINVFAF_SPRWYFYYL_TSRTLSYYK_TVYSHLLLV_YANRNRFLY_YEQYIKWPW_YFIASFRLF_YLQPRTFLL_YLYALVYFL'
p29
g3
(g5
S'\xbcd\xe1\x10\xe5\xa6\xef?'
tRp30
tp31
a(S'AEIRASANL_ATSRTLSYY_FAYANRNRF_FLNRFTTTL_FPQSAPHGV_KTFPPTEPK_MGYINVFAF_SINFVRIIMR_SPRWYFYYL_TSRTLSYYK_VRFPNITNL_YANRNRFLY_YEQYIKWPW_YFIASFRLF_YLQPRTFLL_YLYALVYFL'
p32
g3
(g5
S'\x05\xb7T\x8e\xb2\xa6\xef?'
tRp33
tp34
a.