(lp1
(S'AEIRASANL_ATSRTLSYY_FAYANRNRF_FLNRFTTTL_FPQSAPHGV_KTFPPTEPK_MGYINVFAF_SPRWYFYYL_YANRNRFLY_YLQPRTFLL'
p2
cnumpy.core.multiarray
scalar
p3
(cnumpy
dtype
p4
(S'f8'
I0
I1
tRp5
(I3
S'<'
NNNI-1
I-1
I0
tbS'A\xb6\xab\xe4g\x88\xef?'
tRp6
tp7
a(S'AEIRASANL_ATSRTLSYY_FAYANRNRF_FLNRFTTTL_FPQSAPHGV_MGYINVFAF_SPRWYFYYL_TSRTLSYYK_YANRNRFLY_YLQPRTFLL'
p8
g3
(g5
S'\xf0tV\x9d\xbb\x85\xef?'
tRp9
tp10
a(S'AEIRASANL_ATSRTLSYY_FAYANRNRF_FLNRFTTTL_FPQSAPHGV_IPRRNVATL_KTFPPTEPK_MGYINVFAF_YANRNRFLY_YLQPRTFLL'
p11
g3
(g5
S'\xb0.ZV`\x85\xef?'
tRp12
tp13
a(S'AEIRASANL_ATSRTLSYY_FAYANRNRF_FLNRFTTTL_FPQSAPHGV_FPRGQGVPI_KTFPPTEPK_MGYINVFAF_YANRNRFLY_YLQPRTFLL'
p14
g3
(g5
S'\xec$U\xfb\x90\x84\xef?'
tRp15
tp16
a(S'AEIRASANL_ATSRTLSYY_FAYANRNRF_FLNRFTTTL_FPQSAPHGV_FVDGVPFVV_KTFPPTEPK_MGYINVFAF_SPRWYFYYL_YLQPRTFLL'
p17
g3
(g5
S'\xb0 eE\xbc\x83\xef?'
tRp18
tp19
a(S'AEIRASANL_ATSRTLSYY_FAYANRNRF_FLNRFTTTL_FPQSAPHGV_KTFPPTEPK_MGYINVFAF_SINFVRIIMR_YANRNRFLY_YLQPRTFLL'
p20
g3
(g5
S'1\xd2\xf4<\x1c\x83\xef?'
tRp21
tp22
a(S'AEIRASANL_ATSRTLSYY_FAYANRNRF_FLNRFTTTL_FLQSINFVR_FPQSAPHGV_KTFPPTEPK_MGYINVFAF_YANRNRFLY_YLQPRTFLL'
p23
g3
(g5
S'\xd7\xb3\x1a\xb9]\x82\xef?'
tRp24
tp25
a(S'AEIRASANL_ATSRTLSYY_FAYANRNRF_FLNRFTTTL_FPQSAPHGV_KTFPPTEPK_LTDEMIAQY_MGYINVFAF_SPRWYFYYL_YLQPRTFLL'
p26
g3
(g5
S'\xd5\x03\xe8h/\x82\xef?'
tRp27
tp28
a(S'AEIRASANL_ATSRTLSYY_FAYANRNRF_FLNRFTTTL_IPTNFTISV_KTFPPTEPK_MGYINVFAF_SPRWYFYYL_YANRNRFLY_YLQPRTFLL'
p29
g3
(g5
S'l\x92;\x9a\x12\x82\xef?'
tRp30
tp31
a(S'AEIRASANL_ATSRTLSYY_FAYANRNRF_FLNRFTTTL_FPQSAPHGV_FVDGVPFVV_MGYINVFAF_SPRWYFYYL_TSRTLSYYK_YLQPRTFLL'
p32
g3
(g5
S']j\x98Z\x91\x81\xef?'
tRp33
tp34
a.