(lp1
(S'ATSRTLSYY_FAYANRNRF_KTFPPTEPK_MGYINVFAF_YLQPRTFLL'
p2
cnumpy.core.multiarray
scalar
p3
(cnumpy
dtype
p4
(S'f8'
I0
I1
tRp5
(I3
S'<'
NNNI-1
I-1
I0
tbS'\xd0"\xe7p\xffK\xef?'
tRp6
tp7
a(S'ATSRTLSYY_FAYANRNRF_MGYINVFAF_TSRTLSYYK_YLQPRTFLL'
p8
g3
(g5
S'\xd9h\xfb\xe8BH\xef?'
tRp9
tp10
a(S'KTFPPTEPK_MGYINVFAF_TSRTLSYYK_YANRNRFLY_YLQPRTFLL'
p11
g3
(g5
S'\xf0p\x87\x7f\xe5@\xef?'
tRp12
tp13
a(S'ATSRTLSYY_KTFPPTEPK_MGYINVFAF_YANRNRFLY_YLQPRTFLL'
p14
g3
(g5
S'\xfbW[\x15K<\xef?'
tRp15
tp16
a(S'ATSRTLSYY_MGYINVFAF_TSRTLSYYK_YANRNRFLY_YLQPRTFLL'
p17
g3
(g5
S'\xe5p\x8ao\x8b8\xef?'
tRp18
tp19
a(S'ALRANSAVK_ATSRTLSYY_FAYANRNRF_MGYINVFAF_YLQPRTFLL'
p20
g3
(g5
S'\xcfO\xc5\xcd\xcb/\xef?'
tRp21
tp22
a(S'ATSRTLSYY_FAYANRNRF_HVTFFIYNK_MGYINVFAF_YLQPRTFLL'
p23
g3
(g5
S'\xb3\xbb\xfd\xaf7/\xef?'
tRp24
tp25
a(S'ALRANSAVK_KTFPPTEPK_MGYINVFAF_YANRNRFLY_YLQPRTFLL'
p26
g3
(g5
S'\x9b\xed\x1a\x8cc.\xef?'
tRp27
tp28
a(S'KTFPPTEPK_MGYINVFAF_VRFPNITNL_YANRNRFLY_YLQPRTFLL'
p29
g3
(g5
S'P\xeb\x95\xdd4.\xef?'
tRp30
tp31
a(S'ATSRTLSYY_FPRGQGVPI_KTFPPTEPK_MGYINVFAF_YLQPRTFLL'
p32
g3
(g5
S'\xeb\xf9\x03F)-\xef?'
tRp33
tp34
a.