(lp1
(S'ATSRTLSYY_FAYANRNRF_KTFPPTEPK_MGYINVFAF_SPRWYFYYL_YLQPRTFLL'
p2
cnumpy.core.multiarray
scalar
p3
(cnumpy
dtype
p4
(S'f8'
I0
I1
tRp5
(I3
S'<'
NNNI-1
I-1
I0
tbS'\xbd\xef\x1at\n~\xef?'
tRp6
tp7
a(S'ATSRTLSYY_FAYANRNRF_IPRRNVATL_KTFPPTEPK_MGYINVFAF_YLQPRTFLL'
p8
g3
(g5
S'\x83\xf9\x19"\x85{\xef?'
tRp9
tp10
a(S'ATSRTLSYY_FAYANRNRF_MGYINVFAF_SPRWYFYYL_TSRTLSYYK_YLQPRTFLL'
p11
g3
(g5
S'\x94\x9d\xdaB\xf3z\xef?'
tRp12
tp13
a(S'ATSRTLSYY_FAYANRNRF_FPQSAPHGV_KTFPPTEPK_MGYINVFAF_YLQPRTFLL'
p14
g3
(g5
S'\x10\xea\xfd\xb4Zz\xef?'
tRp15
tp16
a(S'ATSRTLSYY_FAYANRNRF_FPRGQGVPI_KTFPPTEPK_MGYINVFAF_YLQPRTFLL'
p17
g3
(g5
S'#\xc56\xd2\xb3x\xef?'
tRp18
tp19
a(S'ATSRTLSYY_FAYANRNRF_IPRRNVATL_MGYINVFAF_TSRTLSYYK_YLQPRTFLL'
p20
g3
(g5
S'\x9dp\xd8\x06\\x\xef?'
tRp21
tp22
a(S'ATSRTLSYY_FAYANRNRF_FPQSAPHGV_MGYINVFAF_TSRTLSYYK_YLQPRTFLL'
p23
g3
(g5
S'!)\xb9\xf5fw\xef?'
tRp24
tp25
a(S'ATSRTLSYY_FAYANRNRF_FPRGQGVPI_MGYINVFAF_TSRTLSYYK_YLQPRTFLL'
p26
g3
(g5
S'L\xee\x07\xb5\x1cu\xef?'
tRp27
tp28
a(S'ATSRTLSYY_FAYANRNRF_KTFPPTEPK_MGYINVFAF_MPASWVMRI_YLQPRTFLL'
p29
g3
(g5
S'\xd79!\x9f\xcat\xef?'
tRp30
tp31
a(S'ATSRTLSYY_FAYANRNRF_FPNITNLCPF_KTFPPTEPK_MGYINVFAF_YLQPRTFLL'
p32
g3
(g5
S'0\xc1y\xcddt\xef?'
tRp33
tp34
a.