(lp1
(S'AEIRASANL_ATSRTLSYY_FAYANRNRF_FLNRFTTTL_FPQSAPHGV_KTFPPTEPK_MGYINVFAF_SINFVRIIMR_SPRWYFYYL_TSRTLSYYK_YANRNRFLY_YFIASFRLF_YLQPRTFLL_YLYALVYFL'
p2
cnumpy.core.multiarray
scalar
p3
(cnumpy
dtype
p4
(S'f8'
I0
I1
tRp5
(I3
S'<'
NNNI-1
I-1
I0
tbS'x\\/X\xab\x7f\xef?'
tRp6
tp7
a(S'AEIRASANL_ATSRTLSYY_FAYANRNRF_FLNRFTTTL_FLQSINFVR_FPQSAPHGV_KTFPPTEPK_MGYINVFAF_SPRWYFYYL_TSRTLSYYK_YANRNRFLY_YFIASFRLF_YLQPRTFLL_YLYALVYFL'
p8
g3
(g5
S'\xect\x1bfB\x7f\xef?'
tRp9
tp10
a(S'AEIRASANL_ATSRTLSYY_FAYANRNRF_FLNRFTTTL_FPQSAPHGV_KTFPPTEPK_LLYDANYFL_MGYINVFAF_SINFVRIIMR_SPRWYFYYL_TSRTLSYYK_YANRNRFLY_YFIASFRLF_YLQPRTFLL'
p11
g3
(g5
S'\xe8P3\x96\xc6~\xef?'
tRp12
tp13
a(S'AEIRASANL_ATSRTLSYY_FAYANRNRF_FLNRFTTTL_FPQSAPHGV_KTFPPTEPK_MGYINVFAF_SINFVRIIMR_SPRWYFYYL_TMADLVYAL_TSRTLSYYK_YANRNRFLY_YFIASFRLF_YLQPRTFLL'
p14
g3
(g5
S'\x01\xdbg\x9d\xb7~\xef?'
tRp15
tp16
a(S'AEIRASANL_ATSRTLSYY_FAYANRNRF_FLNRFTTTL_FLQSINFVR_FPQSAPHGV_KTFPPTEPK_LLYDANYFL_MGYINVFAF_SPRWYFYYL_TSRTLSYYK_YANRNRFLY_YFIASFRLF_YLQPRTFLL'
p17
g3
(g5
S'W\xa6\xa9\x82k~\xef?'
tRp18
tp19
a(S'AEIRASANL_ATSRTLSYY_FAYANRNRF_FLNRFTTTL_FLQSINFVR_FPQSAPHGV_KTFPPTEPK_MGYINVFAF_SPRWYFYYL_TMADLVYAL_TSRTLSYYK_YANRNRFLY_YFIASFRLF_YLQPRTFLL'
p20
g3
(g5
S'\xab\xc2H+M~\xef?'
tRp21
tp22
a(S'AEIRASANL_ATSRTLSYY_FAYANRNRF_FLNRFTTTL_FPQSAPHGV_KTFPPTEPK_MGYINVFAF_SIIAYTMSL_SPRWYFYYL_TSRTLSYYK_TVYSHLLLV_YANRNRFLY_YFIASFRLF_YLQPRTFLL'
p23
g3
(g5
S'\x80\xb5\x08\xea\xa0}\xef?'
tRp24
tp25
a(S'AEIRASANL_ATSRTLSYY_FAYANRNRF_FLNRFTTTL_FPQSAPHGV_KTFPPTEPK_MGYINVFAF_SINFVRIIMR_SPRWYFYYL_SYFIASFRLF_TSRTLSYYK_YANRNRFLY_YLQPRTFLL_YLYALVYFL'
p26
g3
(g5
S'\xfd\x95\x93\xf1<}\xef?'
tRp27
tp28
a(S'AEIRASANL_ATSRTLSYY_FAYANRNRF_FLNRFTTTL_FPQSAPHGV_KTFPPTEPK_MGYINVFAF_SINFVRIIMR_SPRWYFYYL_TSRTLSYYK_VYFLQSINF_YANRNRFLY_YLQPRTFLL_YLYALVYFL'
p29
g3
(g5
S'\xf5\x95\x93\xf1<}\xef?'
tRp30
tp31
a(S'AEIRASANL_ATSRTLSYY_FAYANRNRF_FLNRFTTTL_FPQSAPHGV_FVDGVPFVV_KTFPPTEPK_MGYINVFAF_SIIAYTMSL_SPRWYFYYL_TSRTLSYYK_YANRNRFLY_YFIASFRLF_YLQPRTFLL'
p32
g3
(g5
S'\xc7\x0e\xee\xe4&}\xef?'
tRp33
tp34
a.