(lp1
(S'FLNRFTTTL_KTFPPTEPK_MGYINVFAF_TVYSHLLLV_YANRNRFLY_YLQPRTFLL'
p2
cnumpy.core.multiarray
scalar
p3
(cnumpy
dtype
p4
(S'f8'
I0
I1
tRp5
(I3
S'<'
NNNI-1
I-1
I0
tbS'\x14\xcb\x8e\xfb\x80\xfa\xee?'
tRp6
tp7
a(S'ATSRTLSYY_FAYANRNRF_FLNRFTTTL_KTFPPTEPK_MGYINVFAF_YLQPRTFLL'
p8
g3
(g5
S'\xfb>\xc5B\xf1\xf3\xee?'
tRp9
tp10
a(S'FLNRFTTTL_MGYINVFAF_TSRTLSYYK_TVYSHLLLV_YANRNRFLY_YLQPRTFLL'
p11
g3
(g5
S']\x9b:\x08"\xf2\xee?'
tRp12
tp13
a(S'ATSRTLSYY_FLNRFTTTL_KTFPPTEPK_MGYINVFAF_TVYSHLLLV_YLQPRTFLL'
p14
g3
(g5
S'\x9b\xa3s\xa7\xc9\xeb\xee?'
tRp15
tp16
a(S'FAYANRNRF_FLNRFTTTL_KTFPPTEPK_MGYINVFAF_YANRNRFLY_YLQPRTFLL'
p17
g3
(g5
S'x\xa7\xa4X\x17\xe8\xee?'
tRp18
tp19
a(S'FAYANRNRF_FLNRFTTTL_MGYINVFAF_TSRTLSYYK_YANRNRFLY_YLQPRTFLL'
p20
g3
(g5
S'\xf0\x9f*\xcb\x98\xde\xee?'
tRp21
tp22
a(S'FAYANRNRF_FLNRFTTTL_FVDGVPFVV_KTFPPTEPK_MGYINVFAF_YLQPRTFLL'
p23
g3
(g5
S'\x05\xf0\xe6\x03\x9d\xd8\xee?'
tRp24
tp25
a(S'KTFPPTEPK_MGYINVFAF_VRFPNITNL_YANRNRFLY_YLQPRTFLL_YLYALVYFL'
p26
g3
(g5
S'#\xaf\x1e\xaf\n\xd7\xee?'
tRp27
tp28
a(S'ATSRTLSYY_FLNRFTTTL_KTFPPTEPK_MGYINVFAF_YANRNRFLY_YLQPRTFLL'
p29
g3
(g5
S'\x10\xc3e\xff\xab\xd6\xee?'
tRp30
tp31
a(S'FVDGVPFVV_KTFPPTEPK_MGYINVFAF_VRFPNITNL_YANRNRFLY_YLQPRTFLL'
p32
g3
(g5
S'\x03\x0cT\xfd\x01\xd5\xee?'
tRp33
tp34
a.