(lp1
(S'MGYINVFAF_YLQPRTFLL'
p2
cnumpy.core.multiarray
scalar
p3
(cnumpy
dtype
p4
(S'f8'
I0
I1
tRp5
(I3
S'<'
NNNI-1
I-1
I0
tbS'\xd5:T\xba~\xa1\xef?'
tRp6
tp7
a(S'LPFNDGVYF_YLQPRTFLL'
p8
g3
(g5
S'\xb5\xde\xcb\x88\xdfr\xef?'
tRp9
tp10
a(S'FTNVYADSF_YLQPRTFLL'
p11
g3
(g5
S'\x0cH\xde=0p\xef?'
tRp12
tp13
a(S'YINVFAFPF_YLQPRTFLL'
p14
g3
(g5
S'\x8f\x06\x9e\xe6u_\xef?'
tRp15
tp16
a(S'YANRNRFLY_YLQPRTFLL'
p17
g3
(g5
S'\xe0%@C&Q\xef?'
tRp18
tp19
a(S'YFIASFRLF_YLQPRTFLL'
p20
g3
(g5
S'\xf0\x10~"\xb3<\xef?'
tRp21
tp22
a(S'ITLATCELY_YLQPRTFLL'
p23
g3
(g5
S'%6\xb6\xf8g-\xef?'
tRp24
tp25
a(S'FAYANRNRF_YLQPRTFLL'
p26
g3
(g5
S'\xe1\xa0i\x8bj\x1f\xef?'
tRp27
tp28
a(S'SSANNCTFEY_YLQPRTFLL'
p29
g3
(g5
S'\xc5\xa4\x8d5\xa1\x1a\xef?'
tRp30
tp31
a(S'FVDGVPFVV_YLQPRTFLL'
p32
g3
(g5
S'X#\xb1\xffJ\x19\xef?'
tRp33
tp34
a.