(lp1
(S'AEIRASANL_ALRANSAVK_ATSRTLSYY_FAYANRNRF_FLNRFTTTL_FLQSINFVR_FPQSAPHGV_FPRGQGVPI_FTYASALWEI_FVDGVPFVV_HVTFFIYNK_KTFPPTEPK_MGYINVFAF_NVFAFPFTIY_SIIAYTMSL_SINFVRIIMR_SPRWYFYYL_TMADLVYAL_TVYSHLLLV_VRFPNITNL_YANRNRFLY_YEQYIKWPW_YFIASFRLF_YIFFASFYY_YLDAYNMMI_YLQPRTFLL_YLYALVYFL'
p2
cnumpy.core.multiarray
scalar
p3
(cnumpy
dtype
p4
(S'f8'
I0
I1
tRp5
(I3
S'<'
NNNI-1
I-1
I0
tbS'X\x96:9W\x90\xef?'
tRp6
tp7
a(S'AEIRASANL_ALRANSAVK_ATSRTLSYY_FAYANRNRF_FEYVSQPFL_FLNRFTTTL_FLQSINFVR_FPQSAPHGV_FPRGQGVPI_FTYASALWEI_FVDGVPFVV_HVTFFIYNK_KTFPPTEPK_MGYINVFAF_NVFAFPFTIY_SIIAYTMSL_SINFVRIIMR_SPRWYFYYL_TMADLVYAL_TVYSHLLLV_VRFPNITNL_YANRNRFLY_YEQYIKWPW_YFIASFRLF_YLDAYNMMI_YLQPRTFLL_YLYALVYFL'
p8
g3
(g5
S'\xbf\x00\xed\x8d\xcd\x8f\xef?'
tRp9
tp10
a(S'AEIRASANL_ALRANSAVK_ATSRTLSYY_FAYANRNRF_FLNRFTTTL_FLQSINFVR_FPQSAPHGV_FPRGQGVPI_FTYASALWEI_FVDGVPFVV_HVTFFIYNK_IPTNFTISV_KTFPPTEPK_MGYINVFAF_NVFAFPFTIY_SIIAYTMSL_SINFVRIIMR_SPRWYFYYL_TMADLVYAL_TVYSHLLLV_VRFPNITNL_YANRNRFLY_YEQYIKWPW_YFIASFRLF_YLDAYNMMI_YLQPRTFLL_YLYALVYFL'
p11
g3
(g5
S'5\xb2 \x9f\xcb\x8f\xef?'
tRp12
tp13
a(S'AEIRASANL_ALRANSAVK_ATSRTLSYY_FAYANRNRF_FLNRFTTTL_FLQSINFVR_FPQSAPHGV_FPRGQGVPI_FTYASALWEI_FVDGVPFVV_HVTFFIYNK_KTFPPTEPK_LLYDANYFL_MGYINVFAF_NVFAFPFTIY_SIIAYTMSL_SINFVRIIMR_SPRWYFYYL_TMADLVYAL_TVYSHLLLV_VRFPNITNL_YANRNRFLY_YEQYIKWPW_YFIASFRLF_YIFFASFYY_YLQPRTFLL_YLYALVYFL'
p14
g3
(g5
S'\xa1\xfav\x82\xc9\x8f\xef?'
tRp15
tp16
a(S'AEIRASANL_ALRANSAVK_ATSRTLSYY_FAYANRNRF_FLNRFTTTL_FLQSINFVR_FPQSAPHGV_FPRGQGVPI_FTYASALWEI_FVDGVPFVV_HVTFFIYNK_IPTNFTISV_KTFPPTEPK_LLYDANYFL_MGYINVFAF_NVFAFPFTIY_SIIAYTMSL_SINFVRIIMR_SPRWYFYYL_TMADLVYAL_TVYSHLLLV_VRFPNITNL_YANRNRFLY_YEQYIKWPW_YFIASFRLF_YLQPRTFLL_YLYALVYFL'
p17
g3
(g5
S'\xe9\xdcx7G\x8f\xef?'
tRp18
tp19
a(S'AEIRASANL_ALRANSAVK_ATSRTLSYY_FAYANRNRF_FEYVSQPFL_FLNRFTTTL_FLQSINFVR_FPQSAPHGV_FPRGQGVPI_FTYASALWEI_FVDGVPFVV_HVTFFIYNK_KTFPPTEPK_MGYINVFAF_NVFAFPFTIY_SIIAYTMSL_SINFVRIIMR_SPRWYFYYL_TMADLVYAL_TVYSHLLLV_VLWAHGFEL_VRFPNITNL_YANRNRFLY_YEQYIKWPW_YFIASFRLF_YLQPRTFLL_YLYALVYFL'
p20
g3
(g5
S'5\xa6\x99x>\x8f\xef?'
tRp21
tp22
a(S'AEIRASANL_ALRANSAVK_ATSRTLSYY_FAYANRNRF_FLNRFTTTL_FLQSINFVR_FPQSAPHGV_FPRGQGVPI_FTYASALWEI_FVDGVPFVV_HVTFFIYNK_KTFPPTEPK_MGYINVFAF_NVFAFPFTIY_SIIAYTMSL_SINFVRIIMR_SPRWYFYYL_TMADLVYAL_TVYSHLLLV_VLWAHGFEL_VRFPNITNL_YANRNRFLY_YEQYIKWPW_YFIASFRLF_YIFFASFYY_YLQPRTFLL_YLYALVYFL'
p23
g3
(g5
S'\xe0\x19\xd5E\x14\x8f\xef?'
tRp24
tp25
a(S'AEIRASANL_ALRANSAVK_ATSRTLSYY_EEHVQIHTI_FAYANRNRF_FLNRFTTTL_FLQSINFVR_FPQSAPHGV_FPRGQGVPI_FTYASALWEI_FVDGVPFVV_HVTFFIYNK_KTFPPTEPK_MGYINVFAF_NVFAFPFTIY_SIIAYTMSL_SINFVRIIMR_SPRWYFYYL_TMADLVYAL_TVYSHLLLV_VRFPNITNL_YANRNRFLY_YEQYIKWPW_YFIASFRLF_YLDAYNMMI_YLQPRTFLL_YLYALVYFL'
p26
g3
(g5
S'\x90\xd0\x96\n\x06\x8f\xef?'
tRp27
tp28
a(S'AEIRASANL_ALRANSAVK_ATSRTLSYY_FAYANRNRF_FLNRFTTTL_FLQSINFVR_FPQSAPHGV_FPRGQGVPI_FTYASALWEI_FVDGVPFVV_HVTFFIYNK_KTFPPTEPK_LLYDANYFL_MGYINVFAF_NVFAFPFTIY_SIIAYTMSL_SINFVRIIMR_SPRWYFYYL_TMADLVYAL_TVYSHLLLV_VRFPNITNL_VYFLQSINF_YANRNRFLY_YEQYIKWPW_YFIASFRLF_YLQPRTFLL_YLYALVYFL'
p29
g3
(g5
S'\xf1\xdfK\xff\xfb\x8e\xef?'
tRp30
tp31
a(S'AEIRASANL_ALRANSAVK_ATSRTLSYY_FAYANRNRF_FLNRFTTTL_FLQSINFVR_FPQSAPHGV_FPRGQGVPI_FTYASALWEI_FVDGVPFVV_HVTFFIYNK_KTFPPTEPK_MGYINVFAF_NVFAFPFTIY_SIIAYTMSL_SINFVRIIMR_SPRWYFYYL_TMADLVYAL_TVYSHLLLV_VRFPNITNL_VYFLQSINF_YANRNRFLY_YEQYIKWPW_YFIASFRLF_YLDAYNMMI_YLQPRTFLL_YLYALVYFL'
p32
g3
(g5
S'@C\xc5\x9b\xc6\x8e\xef?'
tRp33
tp34
a.