(lp1
(S'AEIRASANL_ALRANSAVK_ATSRTLSYY_FAYANRNRF_FLNRFTTTL_FPQSAPHGV_KTFPPTEPK_MGYINVFAF_SIIAYTMSL_SINFVRIIMR_TVYSHLLLV_YANRNRFLY_YFIASFRLF_YLQPRTFLL_YLYALVYFL'
p2
cnumpy.core.multiarray
scalar
p3
(cnumpy
dtype
p4
(S'f8'
I0
I1
tRp5
(I3
S'<'
NNNI-1
I-1
I0
tbS'H\xcfq\x9e\xf1_\xef?'
tRp6
tp7
a(S'AEIRASANL_ALRANSAVK_ATSRTLSYY_FAYANRNRF_FLNRFTTTL_FLQSINFVR_FPQSAPHGV_KTFPPTEPK_MGYINVFAF_SIIAYTMSL_TVYSHLLLV_YANRNRFLY_YFIASFRLF_YLQPRTFLL_YLYALVYFL'
p8
g3
(g5
S'\xf3:*\xd49\\\xef?'
tRp9
tp10
a(S'AEIRASANL_ATSRTLSYY_FAYANRNRF_FLNRFTTTL_FPQSAPHGV_FPRGQGVPI_KTFPPTEPK_MGYINVFAF_SIIAYTMSL_SINFVRIIMR_TVYSHLLLV_YANRNRFLY_YFIASFRLF_YLQPRTFLL_YLYALVYFL'
p11
g3
(g5
S'\x10\xf2\x83U\xd5Y\xef?'
tRp12
tp13
a(S'AEIRASANL_ATSRTLSYY_FAYANRNRF_FLNRFTTTL_FLQSINFVR_FPQSAPHGV_HVTFFIYNK_KTFPPTEPK_MGYINVFAF_SIIAYTMSL_TVYSHLLLV_YANRNRFLY_YFIASFRLF_YLQPRTFLL_YLYALVYFL'
p14
g3
(g5
S"'&\xd2\xf0\xa4Y\xef?"
tRp15
tp16
a(S'ALRANSAVK_ATSRTLSYY_FAYANRNRF_FEYVSQPFL_FLNRFTTTL_FPQSAPHGV_KTFPPTEPK_MGYINVFAF_SIIAYTMSL_SINFVRIIMR_TVYSHLLLV_YANRNRFLY_YFIASFRLF_YLQPRTFLL_YLYALVYFL'
p17
g3
(g5
S'\xbc\xe9\xda\xa0|Y\xef?'
tRp18
tp19
a(S'AEIRASANL_ATSRTLSYY_FAYANRNRF_FLNRFTTTL_FPQSAPHGV_HVTFFIYNK_KTFPPTEPK_MGYINVFAF_SIIAYTMSL_SINFVRIIMR_TVYSHLLLV_YANRNRFLY_YFIASFRLF_YLQPRTFLL_YLYALVYFL'
p20
g3
(g5
S'`-$\xd4XY\xef?'
tRp21
tp22
a(S'AEIRASANL_ATSRTLSYY_FAYANRNRF_FLNRFTTTL_FPQSAPHGV_KTFPPTEPK_MGYINVFAF_SIIAYTMSL_SINFVRIIMR_SPRWYFYYL_TVYSHLLLV_YANRNRFLY_YFIASFRLF_YLQPRTFLL_YLYALVYFL'
p23
g3
(g5
S'[\x9c\x84\xe9\xfaX\xef?'
tRp24
tp25
a(S'ALRANSAVK_ATSRTLSYY_FAYANRNRF_FLNRFTTTL_FPQSAPHGV_KTFPPTEPK_MGYINVFAF_SIIAYTMSL_SINFVRIIMR_TVYSHLLLV_YANRNRFLY_YEQYIKWPW_YFIASFRLF_YLQPRTFLL_YLYALVYFL'
p26
g3
(g5
S'\xfb\xaa,W\xf9X\xef?'
tRp27
tp28
a(S'AEIRASANL_ATSRTLSYY_FAYANRNRF_FLNRFTTTL_FPQSAPHGV_KTFPPTEPK_MGYINVFAF_MTSCCSCLK_SIIAYTMSL_SINFVRIIMR_TVYSHLLLV_YANRNRFLY_YFIASFRLF_YLQPRTFLL_YLYALVYFL'
p29
g3
(g5
S']\x8bf-\xcbX\xef?'
tRp30
tp31
a(S'ALRANSAVK_ATSRTLSYY_FAYANRNRF_FLNRFTTTL_FLQSINFVR_FPQSAPHGV_KTFPPTEPK_MGYINVFAF_SIIAYTMSL_SINFVRIIMR_TVYSHLLLV_YANRNRFLY_YFIASFRLF_YLQPRTFLL_YLYALVYFL'
p32
g3
(g5
S'\x1d:c\x91\x9cW\xef?'
tRp33
tp34
a.