(lp1
(S'AEIRASANL_ALRANSAVK_ATSRTLSYY_FAYANRNRF_FLLNKEMYL_FLNRFTTTL_FPQSAPHGV_FPRGQGVPI_FVDGVPFVV_HVTFFIYNK_KTFPPTEPK_MGYINVFAF_NVFAFPFTIY_SIIAYTMSL_SINFVRIIMR_SPRWYFYYL_TVYSHLLLV_YANRNRFLY_YEQYIKWPW_YFIASFRLF_YLQPRTFLL_YLYALVYFL'
p2
cnumpy.core.multiarray
scalar
p3
(cnumpy
dtype
p4
(S'f8'
I0
I1
tRp5
(I3
S'<'
NNNI-1
I-1
I0
tbS'\xa4\xbd\xe2\x94\x90\x91\xef?'
tRp6
tp7
a(S'AEIRASANL_ALRANSAVK_ATSRTLSYY_EEHVQIHTI_FAYANRNRF_FLLNKEMYL_FLNRFTTTL_FPQSAPHGV_FVDGVPFVV_KTFPPTEPK_MGYINVFAF_MPASWVMRI_NVFAFPFTIY_SIIAYTMSL_SINFVRIIMR_SPRWYFYYL_TVYSHLLLV_YANRNRFLY_YEQYIKWPW_YFIASFRLF_YLQPRTFLL_YLYALVYFL'
p8
g3
(g5
S'}\x04{L\x8f\x91\xef?'
tRp9
tp10
a(S'AEIRASANL_ALRANSAVK_ATSRTLSYY_FAYANRNRF_FLNRFTTTL_FPQSAPHGV_FPRGQGVPI_FTYASALWEI_FVDGVPFVV_HVTFFIYNK_KTFPPTEPK_MGYINVFAF_SIIAYTMSL_SINFVRIIMR_SPRWYFYYL_TMADLVYAL_TVYSHLLLV_YANRNRFLY_YEQYIKWPW_YFIASFRLF_YLQPRTFLL_YLYALVYFL'
p11
g3
(g5
S'0B\x1a\x82F\x91\xef?'
tRp12
tp13
a(S'AEIRASANL_ALRANSAVK_ATSRTLSYY_FAYANRNRF_FLLNKEMYL_FLNRFTTTL_FPQSAPHGV_FPRGQGVPI_FTNVYADSF_FVDGVPFVV_KTFPPTEPK_MGYINVFAF_SIIAYTMSL_SINFVRIIMR_SPRWYFYYL_TVYSHLLLV_YANRNRFLY_YEQYIKWPW_YFIASFRLF_YIFFASFYY_YLQPRTFLL_YLYALVYFL'
p14
g3
(g5
S'\xddd\xa7v$\x91\xef?'
tRp15
tp16
a(S'AEIRASANL_ALRANSAVK_ATSRTLSYY_FAYANRNRF_FLLNKEMYL_FLNRFTTTL_FPQSAPHGV_FPRGQGVPI_FTNVYADSF_FVDGVPFVV_HVTFFIYNK_KTFPPTEPK_MGYINVFAF_SIIAYTMSL_SINFVRIIMR_SPRWYFYYL_TVYSHLLLV_YANRNRFLY_YEQYIKWPW_YFIASFRLF_YLQPRTFLL_YLYALVYFL'
p17
g3
(g5
S'\x8dmR\xf6\x03\x91\xef?'
tRp18
tp19
a(S'AEIRASANL_ALRANSAVK_ATSRTLSYY_FAYANRNRF_FLLNKEMYL_FLNRFTTTL_FPQSAPHGV_FVDGVPFVV_HVTFFIYNK_KTFPPTEPK_MGYINVFAF_MPASWVMRI_NVFAFPFTIY_SIIAYTMSL_SINFVRIIMR_SPRWYFYYL_TVYSHLLLV_YANRNRFLY_YEQYIKWPW_YFIASFRLF_YLQPRTFLL_YLYALVYFL'
p20
g3
(g5
S'\xe0x\xc30\x9d\x90\xef?'
tRp21
tp22
a(S'AEIRASANL_AELEGIQY_ALRANSAVK_ATSRTLSYY_FAYANRNRF_FLLNKEMYL_FLNRFTTTL_FPQSAPHGV_FPRGQGVPI_FTNVYADSF_FVDGVPFVV_KTFPPTEPK_MGYINVFAF_SIIAYTMSL_SINFVRIIMR_SPRWYFYYL_TVYSHLLLV_YANRNRFLY_YFIASFRLF_YIFFASFYY_YLQPRTFLL_YLYALVYFL'
p23
g3
(g5
S'\xa1\x82\x10\xf1q\x90\xef?'
tRp24
tp25
a(S'AEIRASANL_ALRANSAVK_ATSRTLSYY_FAYANRNRF_FLNRFTTTL_FPQSAPHGV_FPRGQGVPI_FVDGVPFVV_HVTFFIYNK_KTFPPTEPK_MGYINVFAF_SIIAYTMSL_SINFVRIIMR_SPRWYFYYL_TMADLVYAL_TVYSHLLLV_VRFPNITNL_YANRNRFLY_YEQYIKWPW_YFIASFRLF_YLQPRTFLL_YLYALVYFL'
p26
g3
(g5
S'!\xcaR8p\x90\xef?'
tRp27
tp28
a(S'AEIRASANL_AELEGIQY_ALRANSAVK_ATSRTLSYY_FAYANRNRF_FLLNKEMYL_FLNRFTTTL_FPQSAPHGV_FPRGQGVPI_FTNVYADSF_FVDGVPFVV_HVTFFIYNK_KTFPPTEPK_MGYINVFAF_SIIAYTMSL_SINFVRIIMR_SPRWYFYYL_TVYSHLLLV_YANRNRFLY_YFIASFRLF_YLQPRTFLL_YLYALVYFL'
p29
g3
(g5
S'h\x1f\xc42f\x90\xef?'
tRp30
tp31
a(S'AEIRASANL_ALRANSAVK_ATSRTLSYY_FAYANRNRF_FLLNKEMYL_FLNRFTTTL_FPQSAPHGV_FTNVYADSF_FVDGVPFVV_HVTFFIYNK_KTFPPTEPK_MGYINVFAF_MPASWVMRI_SIIAYTMSL_SINFVRIIMR_SPRWYFYYL_TVYSHLLLV_YANRNRFLY_YEQYIKWPW_YFIASFRLF_YLQPRTFLL_YLYALVYFL'
p32
g3
(g5
S'\xcb)A\xb4C\x90\xef?'
tRp33
tp34
a.