(lp1
(S'AEIRASANL_AELEGIQY_ALRANSAVK_ATSRTLSYY_FAYANRNRF_FEYVSQPFL_FLLNKEMYL_FLNRFTTTL_FLQSINFVR_FPQSAPHGV_FPRGQGVPI_FTYASALWEI_FVDGVPFVV_HVTFFIYNK_IPTNFTISV_ITLATCELY_KTFPPTEPK_LLYDANYFL_LTDEMIAQY_MGYINVFAF_MPASWVMRI_NVFAFPFTIY_SIIAYTMSL_SINFVRIIMR_SPRWYFYYL_TMADLVYAL_TVYSHLLLV_VRFPNITNL_VYFLQSINF_YANRNRFLY_YEQYIKWPW_YFIASFRLF_YIFFASFYY_YLQPRTFLL_YLYALVYFL'
p2
cnumpy.core.multiarray
scalar
p3
(cnumpy
dtype
p4
(S'f8'
I0
I1
tRp5
(I3
S'<'
NNNI-1
I-1
I0
tbS'\xdd9tuQ\xaa\xef?'
tRp6
tp7
a(S'AEIRASANL_ALRANSAVK_ATSRTLSYY_EEHVQIHTI_FAYANRNRF_FEYVSQPFL_FLLNKEMYL_FLNRFTTTL_FLQSINFVR_FPQSAPHGV_FPRGQGVPI_FTYASALWEI_FVDGVPFVV_HVTFFIYNK_IPTNFTISV_ITLATCELY_KTFPPTEPK_LLYDANYFL_LTDEMIAQY_MGYINVFAF_MPASWVMRI_NVFAFPFTIY_SIIAYTMSL_SINFVRIIMR_SPRWYFYYL_TMADLVYAL_TVYSHLLLV_VRFPNITNL_VYFLQSINF_YANRNRFLY_YEQYIKWPW_YFIASFRLF_YIFFASFYY_YLQPRTFLL_YLYALVYFL'
p8
g3
(g5
S'#\xf6\x8c\xa77\xaa\xef?'
tRp9
tp10
a(S'AEIRASANL_ALRANSAVK_ATSRTLSYY_EEHVQIHTI_FAYANRNRF_FEYVSQPFL_FLLNKEMYL_FLNRFTTTL_FLQSINFVR_FPQSAPHGV_FPRGQGVPI_FTNVYADSF_FTYASALWEI_FVDGVPFVV_HVTFFIYNK_ITLATCELY_KTFPPTEPK_LLYDANYFL_LTDEMIAQY_MGYINVFAF_MPASWVMRI_NVFAFPFTIY_SIIAYTMSL_SINFVRIIMR_SPRWYFYYL_TMADLVYAL_TVYSHLLLV_VRFPNITNL_VYFLQSINF_YANRNRFLY_YEQYIKWPW_YFIASFRLF_YIFFASFYY_YLQPRTFLL_YLYALVYFL'
p11
g3
(g5
S'\xc7\x8a\x8a\xd6\xfc\xa9\xef?'
tRp12
tp13
a(S'AEIRASANL_ALRANSAVK_ATSRTLSYY_EEHVQIHTI_FAYANRNRF_FEYVSQPFL_FLLNKEMYL_FLNRFTTTL_FLQSINFVR_FPQSAPHGV_FPRGQGVPI_FTYASALWEI_FVDGVPFVV_HVTFFIYNK_IPTNFTISV_ITLATCELY_KTFPPTEPK_LLYDANYFL_LTDEMIAQY_LYSPIFLIV_MGYINVFAF_MPASWVMRI_NVFAFPFTIY_SIIAYTMSL_SINFVRIIMR_SPRWYFYYL_TMADLVYAL_TVYSHLLLV_VRFPNITNL_YANRNRFLY_YEQYIKWPW_YFIASFRLF_YIFFASFYY_YLQPRTFLL_YLYALVYFL'
p14
g3
(g5
S']j,\x9f\xf0\xa9\xef?'
tRp15
tp16
a(S'AEIRASANL_ALRANSAVK_ATSRTLSYY_EEHVQIHTI_FAYANRNRF_FEYVSQPFL_FLLNKEMYL_FLNRFTTTL_FLQSINFVR_FPQSAPHGV_FPRGQGVPI_FTNVYADSF_FTYASALWEI_FVDGVPFVV_HVTFFIYNK_ITLATCELY_KTFPPTEPK_LLYDANYFL_LTDEMIAQY_LYSPIFLIV_MGYINVFAF_MPASWVMRI_NVFAFPFTIY_SIIAYTMSL_SINFVRIIMR_SPRWYFYYL_TMADLVYAL_TVYSHLLLV_VRFPNITNL_YANRNRFLY_YEQYIKWPW_YFIASFRLF_YIFFASFYY_YLQPRTFLL_YLYALVYFL'
p17
g3
(g5
S'}gr\r\xb4\xa9\xef?'
tRp18
tp19
a(S'AEIRASANL_ALRANSAVK_ATSRTLSYY_FAYANRNRF_FEYVSQPFL_FLLNKEMYL_FLNRFTTTL_FLQSINFVR_FPQSAPHGV_FPRGQGVPI_FTNVYADSF_FTYASALWEI_FVDGVPFVV_HVTFFIYNK_KTFPPTEPK_LLYDANYFL_LTDEMIAQY_MGYINVFAF_MPASWVMRI_MTSCCSCLK_NVFAFPFTIY_SIIAYTMSL_SINFVRIIMR_SPRWYFYYL_TMADLVYAL_TVYSHLLLV_VRFPNITNL_VYFLQSINF_WTAGAAAYY_YANRNRFLY_YEQYIKWPW_YFIASFRLF_YIFFASFYY_YLQPRTFLL_YLYALVYFL'
p20
g3
(g5
S'p\x8eD,\xa4\xa9\xef?'
tRp21
tp22
a(S'AEIRASANL_ALRANSAVK_ATSRTLSYY_EEHVQIHTI_FAYANRNRF_FEYVSQPFL_FLLNKEMYL_FLNRFTTTL_FLQSINFVR_FPQSAPHGV_FPRGQGVPI_FTNVYADSF_FTYASALWEI_FVDGVPFVV_HVTFFIYNK_IPTNFTISV_KTFPPTEPK_LLYDANYFL_LTDEMIAQY_MGYINVFAF_MPASWVMRI_NVFAFPFTIY_SIIAYTMSL_SINFVRIIMR_SPRWYFYYL_TMADLVYAL_TVYSHLLLV_VRFPNITNL_VYFLQSINF_YANRNRFLY_YEQYIKWPW_YFIASFRLF_YIFFASFYY_YLQPRTFLL_YLYALVYFL'
p23
g3
(g5
S'\xef\x8a\xbe\xb2p\xa9\xef?'
tRp24
tp25
a(S'AEIRASANL_AELEGIQY_ALRANSAVK_ATSRTLSYY_FAYANRNRF_FEYVSQPFL_FLLNKEMYL_FLNRFTTTL_FLQSINFVR_FPQSAPHGV_FPRGQGVPI_FTYASALWEI_FVDGVPFVV_HVTFFIYNK_IPTNFTISV_KTFPPTEPK_LLYDANYFL_LTDEMIAQY_MGYINVFAF_MPASWVMRI_NVFAFPFTIY_RLYYDSMSY_SIIAYTMSL_SINFVRIIMR_SPRWYFYYL_TMADLVYAL_TVYSHLLLV_VRFPNITNL_VYFLQSINF_YANRNRFLY_YEQYIKWPW_YFIASFRLF_YIFFASFYY_YLQPRTFLL_YLYALVYFL'
p26
g3
(g5
S"\xb8\x9a'\x80i\xa9\xef?"
tRp27
tp28
a(S'AEIRASANL_ALRANSAVK_ATSRTLSYY_EEHVQIHTI_FAYANRNRF_FEYVSQPFL_FLLNKEMYL_FLNRFTTTL_FLQSINFVR_FPQSAPHGV_FPRGQGVPI_FTNVYADSF_FTYASALWEI_FVDGVPFVV_HVTFFIYNK_KTFPPTEPK_LLYDANYFL_LTDEMIAQY_MGYINVFAF_MPASWVMRI_NVFAFPFTIY_RLYYDSMSY_SIIAYTMSL_SINFVRIIMR_SPRWYFYYL_TMADLVYAL_TVYSHLLLV_VRFPNITNL_VYFLQSINF_YANRNRFLY_YEQYIKWPW_YFIASFRLF_YIFFASFYY_YLQPRTFLL_YLYALVYFL'
p29
g3
(g5
S'\x01s\xdd.g\xa9\xef?'
tRp30
tp31
a(S'AEIRASANL_ALRANSAVK_ATSRTLSYY_FAYANRNRF_FEYVSQPFL_FLLNKEMYL_FLNRFTTTL_FLQSINFVR_FPQSAPHGV_FPRGQGVPI_FTNVYADSF_FTYASALWEI_FVDGVPFVV_HVTFFIYNK_ITLATCELY_KTFPPTEPK_LLYDANYFL_LTDEMIAQY_MGYINVFAF_MPASWVMRI_MTSCCSCLK_NVFAFPFTIY_SIIAYTMSL_SINFVRIIMR_SPRWYFYYL_TMADLVYAL_TVYSHLLLV_VRFPNITNL_VYFLQSINF_YANRNRFLY_YEQYIKWPW_YFIASFRLF_YIFFASFYY_YLQPRTFLL_YLYALVYFL'
p32
g3
(g5
S'LF\x9c\x0ee\xa9\xef?'
tRp33
tp34
a.