(lp1
(S'FLNRFTTTL_KTFPPTEPK_MGYINVFAF_YANRNRFLY_YLQPRTFLL'
p2
cnumpy.core.multiarray
scalar
p3
(cnumpy
dtype
p4
(S'f8'
I0
I1
tRp5
(I3
S'<'
NNNI-1
I-1
I0
tbS'\xedj\xe0\x9b]b\xee?'
tRp6
tp7
a(S'FLNRFTTTL_MGYINVFAF_TSRTLSYYK_YANRNRFLY_YLQPRTFLL'
p8
g3
(g5
S'\x95j\xf4\x1b\x7fV\xee?'
tRp9
tp10
a(S'ATSRTLSYY_FLNRFTTTL_KTFPPTEPK_MGYINVFAF_YLQPRTFLL'
p11
g3
(g5
S'\x9d8\x0b\x04\x91D\xee?'
tRp12
tp13
a(S'KTFPPTEPK_MGYINVFAF_TVYSHLLLV_YANRNRFLY_YLQPRTFLL'
p14
g3
(g5
S']D\xa1\xebw:\xee?'
tRp15
tp16
a(S'FVDGVPFVV_KTFPPTEPK_MGYINVFAF_YANRNRFLY_YLQPRTFLL'
p17
g3
(g5
S'T\x90\x19~\x077\xee?'
tRp18
tp19
a(S'FAYANRNRF_FVDGVPFVV_KTFPPTEPK_MGYINVFAF_YLQPRTFLL'
p20
g3
(g5
S'\xe9\x9d&\xfc\xbc4\xee?'
tRp21
tp22
a(S'KTFPPTEPK_MGYINVFAF_YANRNRFLY_YLQPRTFLL_YLYALVYFL'
p23
g3
(g5
S'\x0f\x9dEQ\x00.\xee?'
tRp24
tp25
a(S'FAYANRNRF_FLNRFTTTL_KTFPPTEPK_MGYINVFAF_YLQPRTFLL'
p26
g3
(g5
S'C\xf6\xe6]9*\xee?'
tRp27
tp28
a(S'FVDGVPFVV_MGYINVFAF_TSRTLSYYK_YANRNRFLY_YLQPRTFLL'
p29
g3
(g5
S'\xa5\xbf\xb0\xf9\xc0$\xee?'
tRp30
tp31
a(S'MGYINVFAF_TSRTLSYYK_TVYSHLLLV_YANRNRFLY_YLQPRTFLL'
p32
g3
(g5
S'\x98W\xb5\xba\x10$\xee?'
tRp33
tp34
a.