(lp1
(S'ATSRTLSYY_FAYANRNRF_FLNRFTTTL_FPQSAPHGV_FVDGVPFVV_KTFPPTEPK_MGYINVFAF_YLQPRTFLL_YLYALVYFL'
p2
cnumpy.core.multiarray
scalar
p3
(cnumpy
dtype
p4
(S'f8'
I0
I1
tRp5
(I3
S'<'
NNNI-1
I-1
I0
tbS'\x07\x15\xd0\xd3x\xf3\xee?'
tRp6
tp7
a(S'ATSRTLSYY_FAYANRNRF_FLNRFTTTL_FVDGVPFVV_KTFPPTEPK_MGYINVFAF_SPRWYFYYL_YLQPRTFLL_YLYALVYFL'
p8
g3
(g5
S'\x9cJ\xaa\x8d\x01\xec\xee?'
tRp9
tp10
a(S'ATSRTLSYY_FLNRFTTTL_FPQSAPHGV_KTFPPTEPK_MGYINVFAF_TVYSHLLLV_YANRNRFLY_YLQPRTFLL_YLYALVYFL'
p11
g3
(g5
S'\xf1\xe5au\x12\xe6\xee?'
tRp12
tp13
a(S'ATSRTLSYY_FAYANRNRF_FLNRFTTTL_FVDGVPFVV_KTFPPTEPK_MGYINVFAF_YIFFASFYY_YLQPRTFLL_YLYALVYFL'
p14
g3
(g5
S'=\x1e\xc6\xb7\xd0\xe5\xee?'
tRp15
tp16
a(S'ATSRTLSYY_FAYANRNRF_FLNRFTTTL_FPQSAPHGV_KTFPPTEPK_MGYINVFAF_YANRNRFLY_YLQPRTFLL_YLYALVYFL'
p17
g3
(g5
S'X&:\x97\x91\xe5\xee?'
tRp18
tp19
a(S'ATSRTLSYY_FAYANRNRF_FLNRFTTTL_KTFPPTEPK_MGYINVFAF_TVYSHLLLV_YANRNRFLY_YLQPRTFLL_YLYALVYFL'
p20
g3
(g5
S'\xc7\xcf\xffi\xe8\xe4\xee?'
tRp21
tp22
a(S'ATSRTLSYY_FAYANRNRF_FLNRFTTTL_FPRGQGVPI_FVDGVPFVV_KTFPPTEPK_MGYINVFAF_YLQPRTFLL_YLYALVYFL'
p23
g3
(g5
S'\x85/\xf8\x93\xcb\xe4\xee?'
tRp24
tp25
a(S'ATSRTLSYY_FAYANRNRF_FLNRFTTTL_FVDGVPFVV_IPRRNVATL_KTFPPTEPK_MGYINVFAF_YLQPRTFLL_YLYALVYFL'
p26
g3
(g5
S'U\x83;\x95`\xe4\xee?'
tRp27
tp28
a(S'FAYANRNRF_FLNRFTTTL_FVDGVPFVV_KTFPPTEPK_MGYINVFAF_YANRNRFLY_YIFFASFYY_YLQPRTFLL_YLYALVYFL'
p29
g3
(g5
S'\xc5\xfd\xeb\x86H\xe4\xee?'
tRp30
tp31
a(S'ATSRTLSYY_FAYANRNRF_FLNRFTTTL_FVDGVPFVV_KTFPPTEPK_MGYINVFAF_YANRNRFLY_YLQPRTFLL_YLYALVYFL'
p32
g3
(g5
S'\xbc_\x96p\xc6\xe2\xee?'
tRp33
tp34
a.