(lp1
(S'ATSRTLSYY_FLNRFTTTL_KTFPPTEPK_MGYINVFAF_TVYSHLLLV_YANRNRFLY_YLQPRTFLL'
p2
cnumpy.core.multiarray
scalar
p3
(cnumpy
dtype
p4
(S'f8'
I0
I1
tRp5
(I3
S'<'
NNNI-1
I-1
I0
tbS'W7|,\xb5\x0c\xee?'
tRp6
tp7
a(S'ATSRTLSYY_FAYANRNRF_FLNRFTTTL_FVDGVPFVV_KTFPPTEPK_MGYINVFAF_YLQPRTFLL'
p8
g3
(g5
S'T\xd6\x85\x04\x8a\n\xee?'
tRp9
tp10
a(S'ATSRTLSYY_FAYANRNRF_FLNRFTTTL_KTFPPTEPK_MGYINVFAF_YLQPRTFLL_YLYALVYFL'
p11
g3
(g5
S'Q\xa6y{\xbb\t\xee?'
tRp12
tp13
a(S'ATSRTLSYY_FLNRFTTTL_KTFPPTEPK_MGYINVFAF_YANRNRFLY_YLQPRTFLL_YLYALVYFL'
p14
g3
(g5
S'\xfc0icV\x06\xee?'
tRp15
tp16
a(S'ATSRTLSYY_FAYANRNRF_FLNRFTTTL_KTFPPTEPK_MGYINVFAF_TVYSHLLLV_YLQPRTFLL'
p17
g3
(g5
S'`\x8fFmK\xec\xed?'
tRp18
tp19
a(S'ATSRTLSYY_FLNRFTTTL_FVDGVPFVV_KTFPPTEPK_MGYINVFAF_YANRNRFLY_YLQPRTFLL'
p20
g3
(g5
S'\xf1\x95\xc0\xde\xc8\xeb\xed?'
tRp21
tp22
a(S'FLNRFTTTL_KTFPPTEPK_MGYINVFAF_TVYSHLLLV_YANRNRFLY_YIFFASFYY_YLQPRTFLL'
p23
g3
(g5
S'8G,C<\xe6\xed?'
tRp24
tp25
a(S'ATSRTLSYY_FAYANRNRF_FLNRFTTTL_KTFPPTEPK_MGYINVFAF_SIIAYTMSL_YLQPRTFLL'
p26
g3
(g5
S'\x8b}\x01|U\xe5\xed?'
tRp27
tp28
a(S'FAYANRNRF_FLNRFTTTL_FVDGVPFVV_KTFPPTEPK_MGYINVFAF_YIFFASFYY_YLQPRTFLL'
p29
g3
(g5
S'\xe3M\xe3k\x99\xda\xed?'
tRp30
tp31
a(S'FAYANRNRF_FLNRFTTTL_FVDGVPFVV_KTFPPTEPK_MGYINVFAF_YANRNRFLY_YLQPRTFLL'
p32
g3
(g5
S'dH"A\t\xd7\xed?'
tRp33
tp34
a.