(lp1
(S'ATSRTLSYY_FAYANRNRF_FLNRFTTTL_FVDGVPFVV_KTFPPTEPK_MGYINVFAF_YLQPRTFLL_YLYALVYFL'
p2
cnumpy.core.multiarray
scalar
p3
(cnumpy
dtype
p4
(S'f8'
I0
I1
tRp5
(I3
S'<'
NNNI-1
I-1
I0
tbS'\xf7\xedI\x13\xae\x96\xee?'
tRp6
tp7
a(S'ATSRTLSYY_FAYANRNRF_FLNRFTTTL_KTFPPTEPK_MGYINVFAF_YANRNRFLY_YLQPRTFLL_YLYALVYFL'
p8
g3
(g5
S'cS\x96LQ\x95\xee?'
tRp9
tp10
a(S'ATSRTLSYY_FLNRFTTTL_KTFPPTEPK_MGYINVFAF_TVYSHLLLV_YANRNRFLY_YLQPRTFLL_YLYALVYFL'
p11
g3
(g5
S'\x0c\xaa\xf1\x07\xc9\x91\xee?'
tRp12
tp13
a(S'ATSRTLSYY_FAYANRNRF_FLNRFTTTL_KTFPPTEPK_MGYINVFAF_SPRWYFYYL_YLQPRTFLL_YLYALVYFL'
p14
g3
(g5
S'\xc5I\x19\x12\x93\x88\xee?'
tRp15
tp16
a(S'ATSRTLSYY_FAYANRNRF_FLNRFTTTL_KTFPPTEPK_MGYINVFAF_TVYSHLLLV_YANRNRFLY_YLQPRTFLL'
p17
g3
(g5
S'\x00\xa5\xa7\x9d\x03}\xee?'
tRp18
tp19
a(S'ATSRTLSYY_FLNRFTTTL_KTFPPTEPK_MGYINVFAF_VRFPNITNL_YANRNRFLY_YLQPRTFLL_YLYALVYFL'
p20
g3
(g5
S'\x9dv\xaa&\xcdy\xee?'
tRp21
tp22
a(S'FAYANRNRF_FLNRFTTTL_FVDGVPFVV_KTFPPTEPK_MGYINVFAF_YANRNRFLY_YIFFASFYY_YLQPRTFLL'
p23
g3
(g5
S'\xe5\x87\xbe\xee\x86x\xee?'
tRp24
tp25
a(S'ATSRTLSYY_FAYANRNRF_FLNRFTTTL_FPQSAPHGV_FVDGVPFVV_KTFPPTEPK_MGYINVFAF_YLQPRTFLL'
p26
g3
(g5
S'\x9d&\x9cnjx\xee?'
tRp27
tp28
a(S'ATSRTLSYY_FAYANRNRF_FLNRFTTTL_FVDGVPFVV_KTFPPTEPK_MGYINVFAF_YANRNRFLY_YLQPRTFLL'
p29
g3
(g5
S'c\xe3SF\x99v\xee?'
tRp30
tp31
a(S'ATSRTLSYY_FAYANRNRF_FLNRFTTTL_FVDGVPFVV_KTFPPTEPK_MGYINVFAF_SPRWYFYYL_YLQPRTFLL'
p32
g3
(g5
S'\xc1{a)\x7ft\xee?'
tRp33
tp34
a.