(lp1
(S'AEIRASANL_ALRANSAVK_ATSRTLSYY_FAYANRNRF_FEYVSQPFL_FLLNKEMYL_FLLPSLATV_FLNRFTTTL_FLQSINFVR_FPQSAPHGV_FPRGQGVPI_FTNVYADSF_FTYASALWEI_FVDGVPFVV_HVTFFIYNK_ISDYDYYRY_KTFPPTEPK_LLYDANYFL_LTDEMIAQY_MGYINVFAF_MPASWVMRI_MTSCCSCLK_NVFAFPFTIY_SIIAYTMSL_SINFVRIIMR_SPRWYFYYL_TMADLVYAL_TVYSHLLLV_VRFPNITNL_VYFLQSINF_WTAGAAAYY_YANRNRFLY_YEQYIKWPW_YFIASFRLF_YIFFASFYY_YLQPRTFLL_YLYALVYFL'
p2
cnumpy.core.multiarray
scalar
p3
(cnumpy
dtype
p4
(S'f8'
I0
I1
tRp5
(I3
S'<'
NNNI-1
I-1
I0
tbS'\xd4\x9d\xf1\xdf\xc8p\xef?'
tRp6
tp7
a(S'AEIRASANL_ALRANSAVK_ATSRTLSYY_FAYANRNRF_FEYVSQPFL_FLLNKEMYL_FLNRFTTTL_FLQSINFVR_FPQSAPHGV_FPRGQGVPI_FTNVYADSF_FTYASALWEI_FVDGVPFVV_HVTFFIYNK_ISDYDYYRY_KTFPPTEPK_LLYDANYFL_LTDEMIAQY_MGYINVFAF_MPASWVMRI_MTSCCSCLK_NVFAFPFTIY_SIIAYTMSL_SINFVRIIMR_SPRWYFYYL_TMADLVYAL_TVYSHLLLV_VRFPNITNL_VYFLQSINF_WTAGAAAYY_YANRNRFLY_YEQYIKWPW_YFIASFRLF_YIFFASFYY_YLDAYNMMI_YLQPRTFLL_YLYALVYFL'
p8
g3
(g5
S'\x13$\xb2\xb6\xa3p\xef?'
tRp9
tp10
a(S'AEIRASANL_ALRANSAVK_ATSRTLSYY_FAYANRNRF_FEYVSQPFL_FLLNKEMYL_FLNRFTTTL_FLPRVFSAV_FLQSINFVR_FPQSAPHGV_FPRGQGVPI_FTNVYADSF_FTYASALWEI_FVDGVPFVV_HVTFFIYNK_ISDYDYYRY_KTFPPTEPK_LLYDANYFL_LTDEMIAQY_MGYINVFAF_MPASWVMRI_MTSCCSCLK_NVFAFPFTIY_SIIAYTMSL_SINFVRIIMR_SPRWYFYYL_TMADLVYAL_TVYSHLLLV_VRFPNITNL_VYFLQSINF_WTAGAAAYY_YANRNRFLY_YEQYIKWPW_YFIASFRLF_YIFFASFYY_YLQPRTFLL_YLYALVYFL'
p11
g3
(g5
S'\x9f\xb4gS\xe6n\xef?'
tRp12
tp13
a(S'AEIRASANL_ALRANSAVK_ATSRTLSYY_FAYANRNRF_FEYVSQPFL_FLLNKEMYL_FLNRFTTTL_FLQSINFVR_FPQSAPHGV_FPRGQGVPI_FTNVYADSF_FTYASALWEI_FVDGVPFVV_HVTFFIYNK_ISDYDYYRY_KTFPPTEPK_LLYDANYFL_LTDEMIAQY_MGYINVFAF_MPASWVMRI_MTSCCSCLK_NVFAFPFTIY_SIIAYTMSL_SINFVRIIMR_SPRWYFYYL_TMADLVYAL_TVYSHLLLV_VLWAHGFEL_VRFPNITNL_VYFLQSINF_WTAGAAAYY_YANRNRFLY_YEQYIKWPW_YFIASFRLF_YIFFASFYY_YLQPRTFLL_YLYALVYFL'
p14
g3
(g5
S'\xab6\xf8\x1d\xeem\xef?'
tRp15
tp16
a(S'AEIRASANL_ALRANSAVK_ATSRTLSYY_EEHVQIHTI_FAYANRNRF_FEYVSQPFL_FLLNKEMYL_FLNRFTTTL_FLQSINFVR_FPQSAPHGV_FPRGQGVPI_FTYASALWEI_FVDGVPFVV_HVTFFIYNK_IPTNFTISV_ITLATCELY_KTFPPTEPK_LLYDANYFL_LTDEMIAQY_MGYINVFAF_MPASWVMRI_NVFAFPFTIY_RARSVSPKL_SIIAYTMSL_SINFVRIIMR_SPRWYFYYL_TMADLVYAL_TVYSHLLLV_VRFPNITNL_VYFLQSINF_YANRNRFLY_YEQYIKWPW_YFIASFRLF_YIFFASFYY_YLDAYNMMI_YLQPRTFLL_YLYALVYFL'
p17
g3
(g5
S'\x04\xe7Z\x9a7h\xef?'
tRp18
tp19
a(S'AEIRASANL_AELEGIQY_ALRANSAVK_ATSRTLSYY_FAYANRNRF_FEYVSQPFL_FLLNKEMYL_FLNRFTTTL_FLQSINFVR_FPQSAPHGV_FPRGQGVPI_FTYASALWEI_FVDGVPFVV_HVTFFIYNK_IPTNFTISV_ITLATCELY_KTFPPTEPK_LLYDANYFL_LTDEMIAQY_MGYINVFAF_MPASWVMRI_NVFAFPFTIY_RARSVSPKL_SIIAYTMSL_SINFVRIIMR_SPRWYFYYL_TMADLVYAL_TVYSHLLLV_VRFPNITNL_VYFLQSINF_YANRNRFLY_YEQYIKWPW_YFIASFRLF_YIFFASFYY_YLDAYNMMI_YLQPRTFLL_YLYALVYFL'
p20
g3
(g5
S'K\xf2\x82#\x94g\xef?'
tRp21
tp22
a(S'AEIRASANL_ALRANSAVK_ATSRTLSYY_EEHVQIHTI_FAYANRNRF_FEYVSQPFL_FLLNKEMYL_FLLPSLATV_FLNRFTTTL_FLQSINFVR_FPQSAPHGV_FPRGQGVPI_FTYASALWEI_FVDGVPFVV_HVTFFIYNK_IPTNFTISV_ITLATCELY_KTFPPTEPK_LLYDANYFL_LTDEMIAQY_MGYINVFAF_MPASWVMRI_NVFAFPFTIY_RARSVSPKL_SIIAYTMSL_SINFVRIIMR_SPRWYFYYL_TMADLVYAL_TVYSHLLLV_VRFPNITNL_VYFLQSINF_YANRNRFLY_YEQYIKWPW_YFIASFRLF_YIFFASFYY_YLQPRTFLL_YLYALVYFL'
p23
g3
(g5
S'\xdc[\xf2\xa0\x81g\xef?'
tRp24
tp25
a(S'AEIRASANL_AELEGIQY_ALRANSAVK_ATSRTLSYY_FAYANRNRF_FEYVSQPFL_FLLNKEMYL_FLLPSLATV_FLNRFTTTL_FLQSINFVR_FPQSAPHGV_FPRGQGVPI_FTYASALWEI_FVDGVPFVV_HVTFFIYNK_IPTNFTISV_ITLATCELY_KTFPPTEPK_LLYDANYFL_LTDEMIAQY_MGYINVFAF_MPASWVMRI_NVFAFPFTIY_RARSVSPKL_SIIAYTMSL_SINFVRIIMR_SPRWYFYYL_TMADLVYAL_TVYSHLLLV_VRFPNITNL_VYFLQSINF_YANRNRFLY_YEQYIKWPW_YFIASFRLF_YIFFASFYY_YLQPRTFLL_YLYALVYFL'
p26
g3
(g5
S'\xfdb\xaeO#g\xef?'
tRp27
tp28
a(S'AEIRASANL_AELEGIQY_ALRANSAVK_ATSRTLSYY_EEHVQIHTI_FAYANRNRF_FEYVSQPFL_FLLNKEMYL_FLNRFTTTL_FLQSINFVR_FPQSAPHGV_FPRGQGVPI_FTYASALWEI_FVDGVPFVV_HVTFFIYNK_IPTNFTISV_ITLATCELY_KTFPPTEPK_LLYDANYFL_LTDEMIAQY_MGYINVFAF_MPASWVMRI_NVFAFPFTIY_SIIAYTMSL_SINFVRIIMR_SPRWYFYYL_TMADLVYAL_TVYSHLLLV_VRFPNITNL_VYFLQSINF_YANRNRFLY_YEQYIKWPW_YFIASFRLF_YIFFASFYY_YLDAYNMMI_YLQPRTFLL_YLYALVYFL'
p29
g3
(g5
S'\x11D\x9e#\x16f\xef?'
tRp30
tp31
a(S'AEIRASANL_AELEGIQY_ALRANSAVK_ATSRTLSYY_EEHVQIHTI_FAYANRNRF_FEYVSQPFL_FLLNKEMYL_FLNRFTTTL_FLQSINFVR_FPQSAPHGV_FPRGQGVPI_FTYASALWEI_FVDGVPFVV_HVTFFIYNK_IPTNFTISV_ITLATCELY_KTFPPTEPK_LLYDANYFL_LTDEMIAQY_LYSPIFLIV_MGYINVFAF_MPASWVMRI_NVFAFPFTIY_SIIAYTMSL_SINFVRIIMR_SPRWYFYYL_TMADLVYAL_TVYSHLLLV_VRFPNITNL_YANRNRFLY_YEQYIKWPW_YFIASFRLF_YIFFASFYY_YLDAYNMMI_YLQPRTFLL_YLYALVYFL'
p32
g3
(g5
S'\xa5]+y\xc7e\xef?'
tRp33
tp34
a.