(lp1
(S'AEIRASANL_ALRANSAVK_ATSRTLSYY_EEHVQIHTI_FAYANRNRF_FLLNKEMYL_FLNRFTTTL_FPQSAPHGV_FPRGQGVPI_FTNVYADSF_FVDGVPFVV_KTFPPTEPK_MGYINVFAF_RARSVSPKL_SIIAYTMSL_SINFVRIIMR_SPRWYFYYL_TVYSHLLLV_YANRNRFLY_YEQYIKWPW_YFIASFRLF_YIFFASFYY_YLQPRTFLL_YLYALVYFL'
p2
cnumpy.core.multiarray
scalar
p3
(cnumpy
dtype
p4
(S'f8'
I0
I1
tRp5
(I3
S'<'
NNNI-1
I-1
I0
tbS'\xd0\x89\xe9\x18\xc4\xae\xef?'
tRp6
tp7
a(S'AEIRASANL_AELEGIQY_ALRANSAVK_ATSRTLSYY_EEHVQIHTI_FAYANRNRF_FLLNKEMYL_FLNRFTTTL_FPQSAPHGV_FPRGQGVPI_FTNVYADSF_FVDGVPFVV_KTFPPTEPK_MGYINVFAF_RARSVSPKL_SIIAYTMSL_SINFVRIIMR_SPRWYFYYL_TVYSHLLLV_YANRNRFLY_YFIASFRLF_YIFFASFYY_YLQPRTFLL_YLYALVYFL'
p8
g3
(g5
S'\x08}\x9a\x99\x1f\xae\xef?'
tRp9
tp10
a(S'AEIRASANL_ALRANSAVK_ATSRTLSYY_FAYANRNRF_FLNRFTTTL_FLQSINFVR_FPQSAPHGV_FPRGQGVPI_FVDGVPFVV_HVTFFIYNK_KTFPPTEPK_MGYINVFAF_MPASWVMRI_SIIAYTMSL_SINFVRIIMR_SPRWYFYYL_TMADLVYAL_TVYSHLLLV_VRFPNITNL_YANRNRFLY_YEQYIKWPW_YFIASFRLF_YLQPRTFLL_YLYALVYFL'
p11
g3
(g5
S'\x1b\n\xb0B\x16\xae\xef?'
tRp12
tp13
a(S'AEIRASANL_AELEGIQY_ALRANSAVK_ATSRTLSYY_FAYANRNRF_FLLNKEMYL_FLNRFTTTL_FPQSAPHGV_FPRGQGVPI_FTNVYADSF_FVDGVPFVV_KTFPPTEPK_MGYINVFAF_RARSVSPKL_SIIAYTMSL_SINFVRIIMR_SPRWYFYYL_TVYSHLLLV_YANRNRFLY_YEQYIKWPW_YFIASFRLF_YIFFASFYY_YLQPRTFLL_YLYALVYFL'
p14
g3
(g5
S'\xacy\x1c\xa2\x05\xae\xef?'
tRp15
tp16
a(S'AEIRASANL_ALRANSAVK_ATSRTLSYY_EEHVQIHTI_FAYANRNRF_FLLNKEMYL_FLNRFTTTL_FPQSAPHGV_FPRGQGVPI_FTNVYADSF_FVDGVPFVV_KTFPPTEPK_MGYINVFAF_SIIAYTMSL_SINFVRIIMR_SPRWYFYYL_TLKSFTVEK_TVYSHLLLV_YANRNRFLY_YEQYIKWPW_YFIASFRLF_YIFFASFYY_YLQPRTFLL_YLYALVYFL'
p17
g3
(g5
S'=\xc8\x9d\xce\xf2\xad\xef?'
tRp18
tp19
a(S'AEIRASANL_ALRANSAVK_ATSRTLSYY_FAYANRNRF_FLNRFTTTL_FPQSAPHGV_FPRGQGVPI_FTNVYADSF_FVDGVPFVV_HVTFFIYNK_KTFPPTEPK_MGYINVFAF_MPASWVMRI_SIIAYTMSL_SINFVRIIMR_SPRWYFYYL_TMADLVYAL_TVYSHLLLV_VRFPNITNL_YANRNRFLY_YEQYIKWPW_YFIASFRLF_YLQPRTFLL_YLYALVYFL'
p20
g3
(g5
S'\x0cG\xb8\xfa\xe4\xad\xef?'
tRp21
tp22
a(S'AEIRASANL_ALRANSAVK_ATSRTLSYY_FAYANRNRF_FLLNKEMYL_FLNRFTTTL_FPQSAPHGV_FPRGQGVPI_FTNVYADSF_FVDGVPFVV_KTFPPTEPK_MGYINVFAF_RARSVSPKL_SIIAYTMSL_SINFVRIIMR_SPRWYFYYL_TVYSHLLLV_VEHVTFFIY_YANRNRFLY_YEQYIKWPW_YFIASFRLF_YIFFASFYY_YLQPRTFLL_YLYALVYFL'
p23
g3
(g5
S'\x95O\xdb\x0f\xb8\xad\xef?'
tRp24
tp25
a(S'AEIRASANL_ALRANSAVK_ATSRTLSYY_FAYANRNRF_FLNRFTTTL_FLQSINFVR_FPQSAPHGV_FPRGQGVPI_FTYASALWEI_FVDGVPFVV_HVTFFIYNK_KTFPPTEPK_MGYINVFAF_NVFAFPFTIY_SIIAYTMSL_SINFVRIIMR_SPRWYFYYL_TMADLVYAL_TVYSHLLLV_YANRNRFLY_YEQYIKWPW_YFIASFRLF_YLQPRTFLL_YLYALVYFL'
p26
g3
(g5
S'\xf38z\xab\x85\xad\xef?'
tRp27
tp28
a(S'AEIRASANL_ALRANSAVK_ATSRTLSYY_EEHVQIHTI_FAYANRNRF_FLLNKEMYL_FLNRFTTTL_FPQSAPHGV_FPRGQGVPI_FTNVYADSF_FVDGVPFVV_KTFPPTEPK_MGYINVFAF_MPASWVMRI_SIIAYTMSL_SINFVRIIMR_SPRWYFYYL_TVYSHLLLV_YANRNRFLY_YEQYIKWPW_YFIASFRLF_YIFFASFYY_YLQPRTFLL_YLYALVYFL'
p29
g3
(g5
S'\x13\xd8G\xb5\x7f\xad\xef?'
tRp30
tp31
a(S'AEIRASANL_ALRANSAVK_ATSRTLSYY_FAYANRNRF_FLNRFTTTL_FPQSAPHGV_FPRGQGVPI_FTYASALWEI_FVDGVPFVV_HVTFFIYNK_KTFPPTEPK_MGYINVFAF_MPASWVMRI_NVFAFPFTIY_SIIAYTMSL_SINFVRIIMR_SPRWYFYYL_TMADLVYAL_TVYSHLLLV_YANRNRFLY_YEQYIKWPW_YFIASFRLF_YLQPRTFLL_YLYALVYFL'
p32
g3
(g5
S'!\xc9\xa0\x97t\xad\xef?'
tRp33
tp34
a.