(lp1
(S'AEIRASANL_ALRANSAVK_ATSRTLSYY_FAYANRNRF_FLLNKEMYL_FLNRFTTTL_FPQSAPHGV_FPRGQGVPI_FVDGVPFVV_HVTFFIYNK_KTFPPTEPK_MGYINVFAF_SIIAYTMSL_SINFVRIIMR_SPRWYFYYL_TVYSHLLLV_YANRNRFLY_YEQYIKWPW_YFIASFRLF_YLQPRTFLL_YLYALVYFL'
p2
cnumpy.core.multiarray
scalar
p3
(cnumpy
dtype
p4
(S'f8'
I0
I1
tRp5
(I3
S'<'
NNNI-1
I-1
I0
tbS'p\x06\xd3$\xbb\x7f\xef?'
tRp6
tp7
a(S'AEIRASANL_ALRANSAVK_ATSRTLSYY_FAYANRNRF_FLLNKEMYL_FLNRFTTTL_FPQSAPHGV_FVDGVPFVV_HVTFFIYNK_KTFPPTEPK_MGYINVFAF_MPASWVMRI_SIIAYTMSL_SINFVRIIMR_SPRWYFYYL_TVYSHLLLV_YANRNRFLY_YEQYIKWPW_YFIASFRLF_YLQPRTFLL_YLYALVYFL'
p8
g3
(g5
S'\x98\xf8\xb8.\xe4~\xef?'
tRp9
tp10
a(S'AEIRASANL_ALRANSAVK_ATSRTLSYY_FAYANRNRF_FLLNKEMYL_FLNRFTTTL_FPQSAPHGV_FPRGQGVPI_FVDGVPFVV_KTFPPTEPK_MGYINVFAF_SIIAYTMSL_SINFVRIIMR_SPRWYFYYL_TVYSHLLLV_YANRNRFLY_YEQYIKWPW_YFIASFRLF_YIFFASFYY_YLQPRTFLL_YLYALVYFL'
p11
g3
(g5
S'L\x9c\xaf\x93\x87~\xef?'
tRp12
tp13
a(S'AEIRASANL_AELEGIQY_ALRANSAVK_ATSRTLSYY_FAYANRNRF_FLLNKEMYL_FLNRFTTTL_FPQSAPHGV_FPRGQGVPI_FVDGVPFVV_HVTFFIYNK_KTFPPTEPK_MGYINVFAF_SIIAYTMSL_SINFVRIIMR_SPRWYFYYL_TVYSHLLLV_YANRNRFLY_YFIASFRLF_YLQPRTFLL_YLYALVYFL'
p14
g3
(g5
S'\xd7\xdcl12~\xef?'
tRp15
tp16
a(S'AEIRASANL_ALRANSAVK_ATSRTLSYY_FAYANRNRF_FLLNKEMYL_FLNRFTTTL_FPQSAPHGV_FPRGQGVPI_FVDGVPFVV_KTFPPTEPK_MGYINVFAF_NVFAFPFTIY_SIIAYTMSL_SINFVRIIMR_SPRWYFYYL_TVYSHLLLV_YANRNRFLY_YEQYIKWPW_YFIASFRLF_YLQPRTFLL_YLYALVYFL'
p17
g3
(g5
S'\xa7\xa5\xdeT\x1e~\xef?'
tRp18
tp19
a(S'AEIRASANL_ALRANSAVK_ATSRTLSYY_FAYANRNRF_FLLNKEMYL_FLNRFTTTL_FPQSAPHGV_FVDGVPFVV_KTFPPTEPK_MGYINVFAF_MPASWVMRI_NVFAFPFTIY_SIIAYTMSL_SINFVRIIMR_SPRWYFYYL_TVYSHLLLV_YANRNRFLY_YEQYIKWPW_YFIASFRLF_YLQPRTFLL_YLYALVYFL'
p20
g3
(g5
S'\x10\x87\xbc\xc5\xad}\xef?'
tRp21
tp22
a(S'AEIRASANL_AELEGIQY_ALRANSAVK_ATSRTLSYY_FAYANRNRF_FLLNKEMYL_FLNRFTTTL_FPQSAPHGV_FVDGVPFVV_HVTFFIYNK_KTFPPTEPK_MGYINVFAF_MPASWVMRI_SIIAYTMSL_SINFVRIIMR_SPRWYFYYL_TVYSHLLLV_YANRNRFLY_YFIASFRLF_YLQPRTFLL_YLYALVYFL'
p23
g3
(g5
S'S\xba\xcbXr}\xef?'
tRp24
tp25
a(S'AEIRASANL_AELEGIQY_ALRANSAVK_ATSRTLSYY_FAYANRNRF_FLLNKEMYL_FLNRFTTTL_FPQSAPHGV_FPRGQGVPI_FVDGVPFVV_KTFPPTEPK_MGYINVFAF_SIIAYTMSL_SINFVRIIMR_SPRWYFYYL_TVYSHLLLV_YANRNRFLY_YFIASFRLF_YIFFASFYY_YLQPRTFLL_YLYALVYFL'
p26
g3
(g5
S'\xe7\xdb)za}\xef?'
tRp27
tp28
a(S'AEIRASANL_ALRANSAVK_ATSRTLSYY_FAYANRNRF_FLNRFTTTL_FPQSAPHGV_FPRGQGVPI_FVDGVPFVV_HVTFFIYNK_KTFPPTEPK_MGYINVFAF_SIIAYTMSL_SINFVRIIMR_SPRWYFYYL_TMADLVYAL_TVYSHLLLV_YANRNRFLY_YEQYIKWPW_YFIASFRLF_YLQPRTFLL_YLYALVYFL'
p29
g3
(g5
S'-\xf4\xea\x87A}\xef?'
tRp30
tp31
a(S'AEIRASANL_ALRANSAVK_ATSRTLSYY_FAYANRNRF_FLLNKEMYL_FLNRFTTTL_FPQSAPHGV_FVDGVPFVV_KTFPPTEPK_MGYINVFAF_MPASWVMRI_MTSCCSCLK_SIIAYTMSL_SINFVRIIMR_SPRWYFYYL_TVYSHLLLV_YANRNRFLY_YEQYIKWPW_YFIASFRLF_YLQPRTFLL_YLYALVYFL'
p32
g3
(g5
S'|\xb0\x81\xb0\xd0|\xef?'
tRp33
tp34
a.