(lp1
(S'FVDGVPFVV_KTFPPTEPK_MGYINVFAF_YLQPRTFLL'
p2
cnumpy.core.multiarray
scalar
p3
(cnumpy
dtype
p4
(S'f8'
I0
I1
tRp5
(I3
S'<'
NNNI-1
I-1
I0
tbS'I\xc9\xdd\x92VK\xef?'
tRp6
tp7
a(S'FVDGVPFVV_MGYINVFAF_TSRTLSYYK_YLQPRTFLL'
p8
g3
(g5
S')Y\x19\xc8\xb3F\xef?'
tRp9
tp10
a(S'KTFPPTEPK_MGYINVFAF_YANRNRFLY_YLQPRTFLL'
p11
g3
(g5
S'\x8d\xc1\xec\xcbJ:\xef?'
tRp12
tp13
a(S'KTFPPTEPK_MGYINVFAF_TVYSHLLLV_YLQPRTFLL'
p14
g3
(g5
S'S\x1a\xc3\xf8\xf66\xef?'
tRp15
tp16
a(S'MGYINVFAF_TSRTLSYYK_YANRNRFLY_YLQPRTFLL'
p17
g3
(g5
S'\x18\x1cU\x80j2\xef?'
tRp18
tp19
a(S'MGYINVFAF_TSRTLSYYK_TVYSHLLLV_YLQPRTFLL'
p20
g3
(g5
S',\xb5a\xd9$0\xef?'
tRp21
tp22
a(S'FVDGVPFVV_KTFPPTEPK_YANRNRFLY_YLQPRTFLL'
p23
g3
(g5
S'\x03C\x8b\x91v"\xef?'
tRp24
tp25
a(S'FAYANRNRF_KTFPPTEPK_MGYINVFAF_YLQPRTFLL'
p26
g3
(g5
S'\xa3\x85\x952,\x1c\xef?'
tRp27
tp28
a(S'ATSRTLSYY_KTFPPTEPK_MGYINVFAF_YLQPRTFLL'
p29
g3
(g5
S'\xab\x14\xfc\xb9\x0f\x14\xef?'
tRp30
tp31
a(S'FAYANRNRF_MGYINVFAF_TSRTLSYYK_YLQPRTFLL'
p32
g3
(g5
S'7l\xca\xf1`\x13\xef?'
tRp33
tp34
a.