(lp1
(S'ATSRTLSYY_FAYANRNRF_FLNRFTTTL_FVDGVPFVV_KTFPPTEPK_MGYINVFAF_YANRNRFLY_YFIASFRLF_YLQPRTFLL_YLYALVYFL'
p2
cnumpy.core.multiarray
scalar
p3
(cnumpy
dtype
p4
(S'f8'
I0
I1
tRp5
(I3
S'<'
NNNI-1
I-1
I0
tbS']X\r|\x92+\xee?'
tRp6
tp7
a(S'ATSRTLSYY_FAYANRNRF_FLNRFTTTL_FVDGVPFVV_KTFPPTEPK_MGYINVFAF_SYFIASFRLF_YANRNRFLY_YLQPRTFLL_YLYALVYFL'
p8
g3
(g5
S"\xab\x1fjE\xc8'\xee?"
tRp9
tp10
a(S'ATSRTLSYY_FAYANRNRF_FLNRFTTTL_FVDGVPFVV_KTFPPTEPK_MGYINVFAF_VYFLQSINF_YANRNRFLY_YLQPRTFLL_YLYALVYFL'
p11
g3
(g5
S"L-W\x03\xc4'\xee?"
tRp12
tp13
a(S'ATSRTLSYY_FAYANRNRF_FLNRFTTTL_FVDGVPFVV_KTFPPTEPK_LYSPIFLIV_MGYINVFAF_YANRNRFLY_YLQPRTFLL_YLYALVYFL'
p14
g3
(g5
S'\xab[KPw \xee?'
tRp15
tp16
a(S'ATSRTLSYY_FAYANRNRF_FLNRFTTTL_FVDGVPFVV_KTFPPTEPK_MGYINVFAF_YANRNRFLY_YIFFASFYY_YLQPRTFLL_YLYALVYFL'
p17
g3
(g5
S'\xbd\xf6\x1aXR\x1f\xee?'
tRp18
tp19
a(S'ATSRTLSYY_FAYANRNRF_FLNRFTTTL_FVDGVPFVV_KTFPPTEPK_MGYINVFAF_VRFPNITNL_YANRNRFLY_YLQPRTFLL_YLYALVYFL'
p20
g3
(g5
S'+\xc82h,\x19\xee?'
tRp21
tp22
a(S'ATSRTLSYY_FAYANRNRF_FLNRFTTTL_FVDGVPFVV_KTFPPTEPK_MGYINVFAF_QYIKWPWYI_YANRNRFLY_YLQPRTFLL_YLYALVYFL'
p23
g3
(g5
S'@\xab\xef\xd1*\x19\xee?'
tRp24
tp25
a(S'ATSRTLSYY_FAYANRNRF_FLNRFTTTL_KTFPPTEPK_MGYINVFAF_TVYSHLLLV_YANRNRFLY_YFIASFRLF_YLQPRTFLL_YLYALVYFL'
p26
g3
(g5
S'\xd8\xebDS\x10\x11\xee?'
tRp27
tp28
a(S'ATSRTLSYY_FAYANRNRF_FLNRFTTTL_FVDGVPFVV_KTFPPTEPK_MGYINVFAF_YFIASFRLF_YIFFASFYY_YLQPRTFLL_YLYALVYFL'
p29
g3
(g5
S'\xdcD\x0e\x8e\xbb\x0f\xee?'
tRp30
tp31
a(S'ATSRTLSYY_FAYANRNRF_FLNRFTTTL_FVDGVPFVV_KTFPPTEPK_MGYINVFAF_SIIAYTMSL_YIFFASFYY_YLQPRTFLL_YLYALVYFL'
p32
g3
(g5
S'\x1b\xd1y\xecK\x0f\xee?'
tRp33
tp34
a.