(lp1
(S'FPRGQGVPI_FTNVYADSF_YLQPRTFLL'
p2
cnumpy.core.multiarray
scalar
p3
(cnumpy
dtype
p4
(S'f8'
I0
I1
tRp5
(I3
S'<'
NNNI-1
I-1
I0
tbS'\x88$q\xab\xc7\xd6\xef?'
tRp6
tp7
a(S'KTFPPTEPK_MGYINVFAF_YLQPRTFLL'
p8
g3
(g5
S'h\xbe\xf1\xe68\xd6\xef?'
tRp9
tp10
a(S'MGYINVFAF_TSRTLSYYK_YLQPRTFLL'
p11
g3
(g5
S'\xa3\xfc\xcb(2\xd5\xef?'
tRp12
tp13
a(S'IPRRNVATL_MGYINVFAF_YLQPRTFLL'
p14
g3
(g5
S'\xc8I7\xf5\x8a\xd2\xef?'
tRp15
tp16
a(S'MGYINVFAF_SPRWYFYYL_YLQPRTFLL'
p17
g3
(g5
S'gI7\xf5\x8a\xd2\xef?'
tRp18
tp19
a(S'FPRGQGVPI_MGYINVFAF_YLQPRTFLL'
p20
g3
(g5
S'}\xb1\xac\xad\x11\xd2\xef?'
tRp21
tp22
a(S'KTFPPTEPK_YANRNRFLY_YLQPRTFLL'
p23
g3
(g5
S'q;\xb5\xb3\xd9\xd1\xef?'
tRp24
tp25
a(S'MGYINVFAF_MPASWVMRI_YLQPRTFLL'
p26
g3
(g5
S'\xc5Ma?d\xd1\xef?'
tRp27
tp28
a(S'IPIQASLPF_MGYINVFAF_YLQPRTFLL'
p29
g3
(g5
S's^s\xcc\xbe\xd0\xef?'
tRp30
tp31
a(S'FPPTSFGPL_MGYINVFAF_YLQPRTFLL'
p32
g3
(g5
S'$\xbb\x05\xf9\xba\xd0\xef?'
tRp33
tp34
a.