(lp1
(S'AEIRASANLAATKMSECVL_AVFQSASKIITLKKRWQLA_DGVKHVYQLRARSVSPKLFI_DNKFALTCFSTQFAFACPDG_DQVILLNKHIDAYKTFPPT_ENQKLIANQFNSAIGKIQD_FCTQLNRALTGIAVEQDKN_FNPETNILLNVPLHGTILT_GAGAALQIPFAMQMAYRFN_GAISSVLNDILSRLDKVEA_HQPYVVDDPCPIHFYSKWYI_IIMRTFKVSIWNLDYIINL_IITLKKRWQLALSKGVHFV_MDLFMRIFTIGTVTLKQGE_NATRFASVYAWNRKRISNC_NGGDAALALLLLDRLNQLE_PKEITVATSRTLSYYKLGA_PRQKRTATKAYNVTQAFGR_PSDFVRATATIPIQASLPF_PSKRSFIEDLLFNKVTLAD_QTNSPRRARSVASQSIIAY_RCSFYEDFLEYHDVRVVLDFI_RWYFYYLGTGPEAGLPYGA_SRTLSYYKLGASQRVAGDS_SYFTSDYYQLYSTQLSTDT_TAPAICHDGKAHFPREGVF_TITSGWTFGAGAALQIPFA_TYTGAIKLDDKDPNFKDQV_VEAEVQIDRLITGRLQSLQ_VKDCVVLHSYFTSDYYQLY_VKQLSSNFGAISSVLNDIL_VTQQLIRAAEIRASANLAA_YLYALVYFLQSINFVRIIM_YNYLYRLFRKSNLKPFERD_YSHLLLVAAGLEAPFLYLY'
p2
cnumpy.core.multiarray
scalar
p3
(cnumpy
dtype
p4
(S'f8'
I0
I1
tRp5
(I3
S'<'
NNNI-1
I-1
I0
tbS'\xf9\xfd\x90\xc2(\xd2\xea?'
tRp6
tp7
a(S'AEIRASANLAATKMSECVL_AVFQSASKIITLKKRWQLA_DGVKHVYQLRARSVSPKLFI_DNKFALTCFSTQFAFACPDG_DQVILLNKHIDAYKTFPPT_ENQKLIANQFNSAIGKIQD_FCTQLNRALTGIAVEQDKN_FNPETNILLNVPLHGTILT_GAGAALQIPFAMQMAYRFN_GAISSVLNDILSRLDKVEA_HQPYVVDDPCPIHFYSKWYI_IIMRTFKVSIWNLDYIINL_IITLKKRWQLALSKGVHFV_MDLFMRIFTIGTVTLKQGE_NATRFASVYAWNRKRISNC_NGGDAALALLLLDRLNQLE_PKEITVATSRTLSYYKLGA_PRQKRTATKAYNVTQAFGR_PSDFVRATATIPIQASLPF_PSKRSFIEDLLFNKVTLAD_QTNSPRRARSVASQSIIAY_RCSFYEDFLEYHDVRVVLDFI_RWYFYYLGTGPEAGLPYGA_SRTLSYYKLGASQRVAGDS_SYFTSDYYQLYSTQLSTDT_TAPAICHDGKAHFPREGVF_TITSGWTFGAGAALQIPFA_TYTGAIKLDDKDPNFKDQV_VEAEVQIDRLITGRLQSLQ_VKDCVVLHSYFTSDYYQLY_VTQQLIRAAEIRASANLAA_YGANKDGIIWVATEGALNT_YLYALVYFLQSINFVRIIM_YNYLYRLFRKSNLKPFERD_YSHLLLVAAGLEAPFLYLY'
p8
g3
(g5
S'\xf7\xfd\x90\xc2(\xd2\xea?'
tRp9
tp10
a(S'AEIRASANLAATKMSECVL_AVFQSASKIITLKKRWQLA_DGVKHVYQLRARSVSPKLFI_DNKFALTCFSTQFAFACPDG_DQVILLNKHIDAYKTFPPT_ENQKLIANQFNSAIGKIQD_FCTQLNRALTGIAVEQDKN_FNPETNILLNVPLHGTILT_GAGAALQIPFAMQMAYRFN_GAISSVLNDILSRLDKVEA_HQPYVVDDPCPIHFYSKWYI_IIMRTFKVSIWNLDYIINL_IITLKKRWQLALSKGVHFV_MDLFMRIFTIGTVTLKQGE_NATRFASVYAWNRKRISNC_NGGDAALALLLLDRLNQLE_PKEITVATSRTLSYYKLGA_PRQKRTATKAYNVTQAFGR_PSDFVRATATIPIQASLPF_PSKRSFIEDLLFNKVTLAD_QTNSPRRARSVASQSIIAY_RCSFYEDFLEYHDVRVVLDFI_RWYFYYLGTGPEAGLPYGA_SELVIGAVILRGHLRIAGH_SRTLSYYKLGASQRVAGDS_SYFTSDYYQLYSTQLSTDT_TAPAICHDGKAHFPREGVF_TITSGWTFGAGAALQIPFA_TYTGAIKLDDKDPNFKDQV_VEAEVQIDRLITGRLQSLQ_VKDCVVLHSYFTSDYYQLY_VTQQLIRAAEIRASANLAA_YLYALVYFLQSINFVRIIM_YNYLYRLFRKSNLKPFERD_YSHLLLVAAGLEAPFLYLY'
p11
g3
(g5
S'\xf7\xfd\x90\xc2(\xd2\xea?'
tRp12
tp13
a(S'AEIRASANLAATKMSECVL_AVFQSASKIITLKKRWQLA_DGVKHVYQLRARSVSPKLFI_DNKFALTCFSTQFAFACPDG_DQVILLNKHIDAYKTFPPT_ENQKLIANQFNSAIGKIQD_FCTQLNRALTGIAVEQDKN_FNPETNILLNVPLHGTILT_GAGAALQIPFAMQMAYRFN_GAISSVLNDILSRLDKVEA_HQPYVVDDPCPIHFYSKWYI_IIMRTFKVSIWNLDYIINL_IITLKKRWQLALSKGVHFV_MDLFMRIFTIGTVTLKQGE_NATRFASVYAWNRKRISNC_NGGDAALALLLLDRLNQLE_PKEITVATSRTLSYYKLGA_PRQKRTATKAYNVTQAFGR_PSDFVRATATIPIQASLPF_PSKRSFIEDLLFNKVTLAD_QTNSPRRARSVASQSIIAY_RCSFYEDFLEYHDVRVVLDFI_RWYFYYLGTGPEAGLPYGA_SRTLSYYKLGASQRVAGDS_STGSNVFQTRAGCLIGAEH_SYFTSDYYQLYSTQLSTDT_TAPAICHDGKAHFPREGVF_TITSGWTFGAGAALQIPFA_TYTGAIKLDDKDPNFKDQV_VEAEVQIDRLITGRLQSLQ_VKDCVVLHSYFTSDYYQLY_VTQQLIRAAEIRASANLAA_YLYALVYFLQSINFVRIIM_YNYLYRLFRKSNLKPFERD_YSHLLLVAAGLEAPFLYLY'
p14
g3
(g5
S'\xf5\xfd\x90\xc2(\xd2\xea?'
tRp15
tp16
a(S'AEIRASANLAATKMSECVL_AVFQSASKIITLKKRWQLA_DGVKHVYQLRARSVSPKLFI_DNKFALTCFSTQFAFACPDG_DQVILLNKHIDAYKTFPPT_ENQKLIANQFNSAIGKIQD_FCTQLNRALTGIAVEQDKN_FNPETNILLNVPLHGTILT_GAGAALQIPFAMQMAYRFN_GAISSVLNDILSRLDKVEA_HQPYVVDDPCPIHFYSKWYI_IIMRTFKVSIWNLDYIINL_IITLKKRWQLALSKGVHFV_LICAQKFNGLTVLPPLLTD_MDLFMRIFTIGTVTLKQGE_NATRFASVYAWNRKRISNC_NGGDAALALLLLDRLNQLE_PKEITVATSRTLSYYKLGA_PRQKRTATKAYNVTQAFGR_PSDFVRATATIPIQASLPF_PSKRSFIEDLLFNKVTLAD_QTNSPRRARSVASQSIIAY_RCSFYEDFLEYHDVRVVLDFI_RWYFYYLGTGPEAGLPYGA_SRTLSYYKLGASQRVAGDS_SYFTSDYYQLYSTQLSTDT_TAPAICHDGKAHFPREGVF_TITSGWTFGAGAALQIPFA_TYTGAIKLDDKDPNFKDQV_VEAEVQIDRLITGRLQSLQ_VKDCVVLHSYFTSDYYQLY_VTQQLIRAAEIRASANLAA_YLYALVYFLQSINFVRIIM_YNYLYRLFRKSNLKPFERD_YSHLLLVAAGLEAPFLYLY'
p17
g3
(g5
S'\xf5\xfd\x90\xc2(\xd2\xea?'
tRp18
tp19
a(S'AEIRASANLAATKMSECVL_AVFQSASKIITLKKRWQLA_DGVKHVYQLRARSVSPKLFI_DNKFALTCFSTQFAFACPDG_DQVILLNKHIDAYKTFPPT_ENQKLIANQFNSAIGKIQD_FCTQLNRALTGIAVEQDKN_FNPETNILLNVPLHGTILT_GAGAALQIPFAMQMAYRFN_GAISSVLNDILSRLDKVEA_HQPYVVDDPCPIHFYSKWYI_IIMRTFKVSIWNLDYIINL_IITLKKRWQLALSKGVHFV_MDLFMRIFTIGTVTLKQGE_NATRFASVYAWNRKRISNC_NGGDAALALLLLDRLNQLE_PKEITVATSRTLSYYKLGA_PRQKRTATKAYNVTQAFGR_PSDFVRATATIPIQASLPF_PSKRSFIEDLLFNKVTLAD_QTNSPRRARSVASQSIIAY_RCSFYEDFLEYHDVRVVLDFI_RQKKQQTVTLLPAADLDDF_RWYFYYLGTGPEAGLPYGA_SRTLSYYKLGASQRVAGDS_SYFTSDYYQLYSTQLSTDT_TAPAICHDGKAHFPREGVF_TITSGWTFGAGAALQIPFA_TYTGAIKLDDKDPNFKDQV_VEAEVQIDRLITGRLQSLQ_VKDCVVLHSYFTSDYYQLY_VTQQLIRAAEIRASANLAA_YLYALVYFLQSINFVRIIM_YNYLYRLFRKSNLKPFERD_YSHLLLVAAGLEAPFLYLY'
p20
g3
(g5
S'\xf3\xfd\x90\xc2(\xd2\xea?'
tRp21
tp22
a(S'AEIRASANLAATKMSECVL_AVFQSASKIITLKKRWQLA_DGVKHVYQLRARSVSPKLFI_DNKFALTCFSTQFAFACPDG_DQVILLNKHIDAYKTFPPT_ENQKLIANQFNSAIGKIQD_FCTQLNRALTGIAVEQDKN_FNPETNILLNVPLHGTILT_GAGAALQIPFAMQMAYRFN_GAISSVLNDILSRLDKVEA_HQPYVVDDPCPIHFYSKWYI_IIMRTFKVSIWNLDYIINL_IITLKKRWQLALSKGVHFV_MDLFMRIFTIGTVTLKQGE_NATRFASVYAWNRKRISNC_NGGDAALALLLLDRLNQLE_PKEITVATSRTLSYYKLGA_PRQKRTATKAYNVTQAFGR_PSDFVRATATIPIQASLPF_PSKRSFIEDLLFNKVTLAD_QTNSPRRARSVASQSIIAY_RWYFYYLGTGPEAGLPYGA_SRTLSYYKLGASQRVAGDS_STGSNVFQTRAGCLIGAEH_SYFTSDYYQLYSTQLSTDT_TAPAICHDGKAHFPREGVF_TITSGWTFGAGAALQIPFA_TYTGAIKLDDKDPNFKDQV_VEAEVQIDRLITGRLQSLQ_VKDCVVLHSYFTSDYYQLY_VKQLSSNFGAISSVLNDIL_VTQQLIRAAEIRASANLAA_YLYALVYFLQSINFVRIIM_YNYLYRLFRKSNLKPFERD_YSHLLLVAAGLEAPFLYLY'
p23
g3
(g5
S'\x1d&\xd4\x1e\xf3\xd1\xea?'
tRp24
tp25
a(S'AEIRASANLAATKMSECVL_AVFQSASKIITLKKRWQLA_DGVKHVYQLRARSVSPKLFI_DNKFALTCFSTQFAFACPDG_DQVILLNKHIDAYKTFPPT_ENQKLIANQFNSAIGKIQD_FCTQLNRALTGIAVEQDKN_FNPETNILLNVPLHGTILT_GAGAALQIPFAMQMAYRFN_GAISSVLNDILSRLDKVEA_HQPYVVDDPCPIHFYSKWYI_IIMRTFKVSIWNLDYIINL_IITLKKRWQLALSKGVHFV_MDLFMRIFTIGTVTLKQGE_NATRFASVYAWNRKRISNC_NGGDAALALLLLDRLNQLE_PKEITVATSRTLSYYKLGA_PRQKRTATKAYNVTQAFGR_PSDFVRATATIPIQASLPF_PSKRSFIEDLLFNKVTLAD_QTNSPRRARSVASQSIIAY_RCSFYEDFLEYHDVRVVLDFI_RWYFYYLGTGPEAGLPYGA_SRTLSYYKLGASQRVAGDS_SYFTSDYYQLYSTQLSTDT_TAPAICHDGKAHFPREGVF_TITSGWTFGAGAALQIPFA_TYTGAIKLDDKDPNFKDQV_VEAEVQIDRLITGRLQSLQ_VKDCVVLHSYFTSDYYQLY_VKQLSSNFGAISSVLNDIL_VTQQLIRAAEIRASANLAA_YGANKDGIIWVATEGALNT_YLYALVYFLQSINFVRIIM_YNYLYRLFRKSNLKPFERD'
p26
g3
(g5
S'\x1d&\xd4\x1e\xf3\xd1\xea?'
tRp27
tp28
a(S'AEIRASANLAATKMSECVL_AVFQSASKIITLKKRWQLA_DGVKHVYQLRARSVSPKLFI_DNKFALTCFSTQFAFACPDG_DQVILLNKHIDAYKTFPPT_ENQKLIANQFNSAIGKIQD_FCTQLNRALTGIAVEQDKN_FNPETNILLNVPLHGTILT_GAGAALQIPFAMQMAYRFN_GAISSVLNDILSRLDKVEA_HQPYVVDDPCPIHFYSKWYI_IIMRTFKVSIWNLDYIINL_IITLKKRWQLALSKGVHFV_MDLFMRIFTIGTVTLKQGE_NATRFASVYAWNRKRISNC_NGGDAALALLLLDRLNQLE_PKEITVATSRTLSYYKLGA_PRQKRTATKAYNVTQAFGR_PSDFVRATATIPIQASLPF_PSKRSFIEDLLFNKVTLAD_QTNSPRRARSVASQSIIAY_RWYFYYLGTGPEAGLPYGA_SRTLSYYKLGASQRVAGDS_SYFTSDYYQLYSTQLSTDT_TAPAICHDGKAHFPREGVF_TITSGWTFGAGAALQIPFA_TYTGAIKLDDKDPNFKDQV_VEAEVQIDRLITGRLQSLQ_VKDCVVLHSYFTSDYYQLY_VKQLSSNFGAISSVLNDIL_VTQQLIRAAEIRASANLAA_YGANKDGIIWVATEGALNT_YLYALVYFLQSINFVRIIM_YNYLYRLFRKSNLKPFERD_YSHLLLVAAGLEAPFLYLY'
p29
g3
(g5
S'\x1c&\xd4\x1e\xf3\xd1\xea?'
tRp30
tp31
a(S'AEIRASANLAATKMSECVL_AVFQSASKIITLKKRWQLA_DGVKHVYQLRARSVSPKLFI_DLLFNKVTLADAGFIKQYG_DNKFALTCFSTQFAFACPDG_DQVILLNKHIDAYKTFPPT_ENQKLIANQFNSAIGKIQD_FCTQLNRALTGIAVEQDKN_FNPETNILLNVPLHGTILT_GAGAALQIPFAMQMAYRFN_GAISSVLNDILSRLDKVEA_HQPYVVDDPCPIHFYSKWYI_IIMRTFKVSIWNLDYIINL_IITLKKRWQLALSKGVHFV_MDLFMRIFTIGTVTLKQGE_NATRFASVYAWNRKRISNC_NGGDAALALLLLDRLNQLE_PKEITVATSRTLSYYKLGA_PRQKRTATKAYNVTQAFGR_PSDFVRATATIPIQASLPF_PSKRSFIEDLLFNKVTLAD_QTNSPRRARSVASQSIIAY_RWYFYYLGTGPEAGLPYGA_SRTLSYYKLGASQRVAGDS_SYFTSDYYQLYSTQLSTDT_TAPAICHDGKAHFPREGVF_TITSGWTFGAGAALQIPFA_TYTGAIKLDDKDPNFKDQV_VEAEVQIDRLITGRLQSLQ_VKDCVVLHSYFTSDYYQLY_VKQLSSNFGAISSVLNDIL_VTQQLIRAAEIRASANLAA_YLYALVYFLQSINFVRIIM_YNYLYRLFRKSNLKPFERD_YSHLLLVAAGLEAPFLYLY'
p32
g3
(g5
S'\x1c&\xd4\x1e\xf3\xd1\xea?'
tRp33
tp34
a.