(lp1
(S'GAGAALQIPFAMQMAYRFN_GAISSVLNDILSRLDKVEA_HQPYVVDDPCPIHFYSKWYI_IITLKKRWQLALSKGVHFV_NATRFASVYAWNRKRISNC_NGGDAALALLLLDRLNQLE_PSDFVRATATIPIQASLPF_RWYFYYLGTGPEAGLPYGA_SRTLSYYKLGASQRVAGDS_SYFTSDYYQLYSTQLSTDT_TITSGWTFGAGAALQIPFA_VKDCVVLHSYFTSDYYQLY_VTQQLIRAAEIRASANLAA_YNYLYRLFRKSNLKPFERD'
p2
cnumpy.core.multiarray
scalar
p3
(cnumpy
dtype
p4
(S'f8'
I0
I1
tRp5
(I3
S'<'
NNNI-1
I-1
I0
tbS'e\xa7Y\xaf\x8b\x87\xed?'
tRp6
tp7
a(S'GAGAALQIPFAMQMAYRFN_IITLKKRWQLALSKGVHFV_NATRFASVYAWNRKRISNC_NGGDAALALLLLDRLNQLE_PSDFVRATATIPIQASLPF_RWYFYYLGTGPEAGLPYGA_SRTLSYYKLGASQRVAGDS_SYFTSDYYQLYSTQLSTDT_TAPAICHDGKAHFPREGVF_TITSGWTFGAGAALQIPFA_TYTGAIKLDDKDPNFKDQV_VKDCVVLHSYFTSDYYQLY_VTQQLIRAAEIRASANLAA_YNYLYRLFRKSNLKPFERD'
p8
g3
(g5
S'c\xa7Y\xaf\x8b\x87\xed?'
tRp9
tp10
a(S'GAGAALQIPFAMQMAYRFN_HQPYVVDDPCPIHFYSKWYI_IITLKKRWQLALSKGVHFV_NATRFASVYAWNRKRISNC_NGGDAALALLLLDRLNQLE_PSDFVRATATIPIQASLPF_RWYFYYLGTGPEAGLPYGA_SRTLSYYKLGASQRVAGDS_SYFTSDYYQLYSTQLSTDT_TITSGWTFGAGAALQIPFA_TYTGAIKLDDKDPNFKDQV_VKDCVVLHSYFTSDYYQLY_VTQQLIRAAEIRASANLAA_YNYLYRLFRKSNLKPFERD'
p11
g3
(g5
S'c\xa7Y\xaf\x8b\x87\xed?'
tRp12
tp13
a(S'GAGAALQIPFAMQMAYRFN_HQPYVVDDPCPIHFYSKWYI_IITLKKRWQLALSKGVHFV_NATRFASVYAWNRKRISNC_NGGDAALALLLLDRLNQLE_PSDFVRATATIPIQASLPF_RWYFYYLGTGPEAGLPYGA_SRTLSYYKLGASQRVAGDS_SYFTSDYYQLYSTQLSTDT_TAPAICHDGKAHFPREGVF_TITSGWTFGAGAALQIPFA_VKDCVVLHSYFTSDYYQLY_VTQQLIRAAEIRASANLAA_YNYLYRLFRKSNLKPFERD'
p14
g3
(g5
S'c\xa7Y\xaf\x8b\x87\xed?'
tRp15
tp16
a(S'GAGAALQIPFAMQMAYRFN_IITLKKRWQLALSKGVHFV_NATRFASVYAWNRKRISNC_NGGDAALALLLLDRLNQLE_PSDFVRATATIPIQASLPF_RWYFYYLGTGPEAGLPYGA_SRTLSYYKLGASQRVAGDS_SYFTSDYYQLYSTQLSTDT_TITSGWTFGAGAALQIPFA_TYTGAIKLDDKDPNFKDQV_VEAEVQIDRLITGRLQSLQ_VKDCVVLHSYFTSDYYQLY_VTQQLIRAAEIRASANLAA_YNYLYRLFRKSNLKPFERD'
p17
g3
(g5
S'a\xa7Y\xaf\x8b\x87\xed?'
tRp18
tp19
a(S'GAGAALQIPFAMQMAYRFN_IITLKKRWQLALSKGVHFV_NATRFASVYAWNRKRISNC_NGGDAALALLLLDRLNQLE_PSDFVRATATIPIQASLPF_RWYFYYLGTGPEAGLPYGA_SRTLSYYKLGASQRVAGDS_SYFTSDYYQLYSTQLSTDT_TAPAICHDGKAHFPREGVF_TITSGWTFGAGAALQIPFA_VEAEVQIDRLITGRLQSLQ_VKDCVVLHSYFTSDYYQLY_VTQQLIRAAEIRASANLAA_YNYLYRLFRKSNLKPFERD'
p20
g3
(g5
S'a\xa7Y\xaf\x8b\x87\xed?'
tRp21
tp22
a(S'GAGAALQIPFAMQMAYRFN_HQPYVVDDPCPIHFYSKWYI_IITLKKRWQLALSKGVHFV_NATRFASVYAWNRKRISNC_NGGDAALALLLLDRLNQLE_PSDFVRATATIPIQASLPF_RWYFYYLGTGPEAGLPYGA_SRTLSYYKLGASQRVAGDS_SYFTSDYYQLYSTQLSTDT_TITSGWTFGAGAALQIPFA_VEAEVQIDRLITGRLQSLQ_VKDCVVLHSYFTSDYYQLY_VTQQLIRAAEIRASANLAA_YNYLYRLFRKSNLKPFERD'
p23
g3
(g5
S'`\xa7Y\xaf\x8b\x87\xed?'
tRp24
tp25
a(S'GAGAALQIPFAMQMAYRFN_IITLKKRWQLALSKGVHFV_NATRFASVYAWNRKRISNC_NGGDAALALLLLDRLNQLE_PKEITVATSRTLSYYKLGA_PSDFVRATATIPIQASLPF_RWYFYYLGTGPEAGLPYGA_SRTLSYYKLGASQRVAGDS_SYFTSDYYQLYSTQLSTDT_TITSGWTFGAGAALQIPFA_TYTGAIKLDDKDPNFKDQV_VKDCVVLHSYFTSDYYQLY_VTQQLIRAAEIRASANLAA_YNYLYRLFRKSNLKPFERD'
p26
g3
(g5
S']\xa7Y\xaf\x8b\x87\xed?'
tRp27
tp28
a(S'GAGAALQIPFAMQMAYRFN_IITLKKRWQLALSKGVHFV_NATRFASVYAWNRKRISNC_NGGDAALALLLLDRLNQLE_PKEITVATSRTLSYYKLGA_PSDFVRATATIPIQASLPF_RWYFYYLGTGPEAGLPYGA_SRTLSYYKLGASQRVAGDS_SYFTSDYYQLYSTQLSTDT_TAPAICHDGKAHFPREGVF_TITSGWTFGAGAALQIPFA_VKDCVVLHSYFTSDYYQLY_VTQQLIRAAEIRASANLAA_YNYLYRLFRKSNLKPFERD'
p29
g3
(g5
S']\xa7Y\xaf\x8b\x87\xed?'
tRp30
tp31
a(S'GAGAALQIPFAMQMAYRFN_HQPYVVDDPCPIHFYSKWYI_IITLKKRWQLALSKGVHFV_NATRFASVYAWNRKRISNC_NGGDAALALLLLDRLNQLE_PKEITVATSRTLSYYKLGA_PSDFVRATATIPIQASLPF_RWYFYYLGTGPEAGLPYGA_SRTLSYYKLGASQRVAGDS_SYFTSDYYQLYSTQLSTDT_TITSGWTFGAGAALQIPFA_VKDCVVLHSYFTSDYYQLY_VTQQLIRAAEIRASANLAA_YNYLYRLFRKSNLKPFERD'
p32
g3
(g5
S']\xa7Y\xaf\x8b\x87\xed?'
tRp33
tp34
a.