(lp1
(S'AVFQSASKIITLKKRWQLA_DQVILLNKHIDAYKTFPPT_GAGAALQIPFAMQMAYRFN_GAISSVLNDILSRLDKVEA_HQPYVVDDPCPIHFYSKWYI_IITLKKRWQLALSKGVHFV_MDLFMRIFTIGTVTLKQGE_NATRFASVYAWNRKRISNC_NGGDAALALLLLDRLNQLE_PKEITVATSRTLSYYKLGA_PRQKRTATKAYNVTQAFGR_PSDFVRATATIPIQASLPF_PSKRSFIEDLLFNKVTLAD_QTNSPRRARSVASQSIIAY_RWYFYYLGTGPEAGLPYGA_SRTLSYYKLGASQRVAGDS_SYFTSDYYQLYSTQLSTDT_TAPAICHDGKAHFPREGVF_TITSGWTFGAGAALQIPFA_TYTGAIKLDDKDPNFKDQV_VEAEVQIDRLITGRLQSLQ_VKDCVVLHSYFTSDYYQLY_VTQQLIRAAEIRASANLAA_YNYLYRLFRKSNLKPFERD'
p2
cnumpy.core.multiarray
scalar
p3
(cnumpy
dtype
p4
(S'f8'
I0
I1
tRp5
(I3
S'<'
NNNI-1
I-1
I0
tbS'\x08\x9a\x06\xb4\xb1\xb5\xeb?'
tRp6
tp7
a(S'AVFQSASKIITLKKRWQLA_DGVKHVYQLRARSVSPKLFI_DQVILLNKHIDAYKTFPPT_GAGAALQIPFAMQMAYRFN_GAISSVLNDILSRLDKVEA_HQPYVVDDPCPIHFYSKWYI_IITLKKRWQLALSKGVHFV_MDLFMRIFTIGTVTLKQGE_NATRFASVYAWNRKRISNC_NGGDAALALLLLDRLNQLE_PKEITVATSRTLSYYKLGA_PRQKRTATKAYNVTQAFGR_PSDFVRATATIPIQASLPF_QTNSPRRARSVASQSIIAY_RWYFYYLGTGPEAGLPYGA_SRTLSYYKLGASQRVAGDS_SYFTSDYYQLYSTQLSTDT_TAPAICHDGKAHFPREGVF_TITSGWTFGAGAALQIPFA_TYTGAIKLDDKDPNFKDQV_VEAEVQIDRLITGRLQSLQ_VKDCVVLHSYFTSDYYQLY_VTQQLIRAAEIRASANLAA_YNYLYRLFRKSNLKPFERD'
p8
g3
(g5
S'\xf5\x8a\x89\\o\xb3\xeb?'
tRp9
tp10
a(S'DQVILLNKHIDAYKTFPPT_FCTQLNRALTGIAVEQDKN_GAGAALQIPFAMQMAYRFN_GAISSVLNDILSRLDKVEA_HQPYVVDDPCPIHFYSKWYI_IITLKKRWQLALSKGVHFV_MDLFMRIFTIGTVTLKQGE_NATRFASVYAWNRKRISNC_NGGDAALALLLLDRLNQLE_PKEITVATSRTLSYYKLGA_PRQKRTATKAYNVTQAFGR_PSDFVRATATIPIQASLPF_PSKRSFIEDLLFNKVTLAD_QTNSPRRARSVASQSIIAY_RWYFYYLGTGPEAGLPYGA_SRTLSYYKLGASQRVAGDS_SYFTSDYYQLYSTQLSTDT_TAPAICHDGKAHFPREGVF_TITSGWTFGAGAALQIPFA_TYTGAIKLDDKDPNFKDQV_VEAEVQIDRLITGRLQSLQ_VKDCVVLHSYFTSDYYQLY_VTQQLIRAAEIRASANLAA_YNYLYRLFRKSNLKPFERD'
p11
g3
(g5
S'\x00\xa8-g\x90\xae\xeb?'
tRp12
tp13
a(S'DQVILLNKHIDAYKTFPPT_ENQKLIANQFNSAIGKIQD_GAGAALQIPFAMQMAYRFN_GAISSVLNDILSRLDKVEA_HQPYVVDDPCPIHFYSKWYI_IITLKKRWQLALSKGVHFV_MDLFMRIFTIGTVTLKQGE_NATRFASVYAWNRKRISNC_NGGDAALALLLLDRLNQLE_PKEITVATSRTLSYYKLGA_PRQKRTATKAYNVTQAFGR_PSDFVRATATIPIQASLPF_PSKRSFIEDLLFNKVTLAD_QTNSPRRARSVASQSIIAY_RWYFYYLGTGPEAGLPYGA_SRTLSYYKLGASQRVAGDS_SYFTSDYYQLYSTQLSTDT_TAPAICHDGKAHFPREGVF_TITSGWTFGAGAALQIPFA_TYTGAIKLDDKDPNFKDQV_VEAEVQIDRLITGRLQSLQ_VKDCVVLHSYFTSDYYQLY_VTQQLIRAAEIRASANLAA_YNYLYRLFRKSNLKPFERD'
p14
g3
(g5
S'\xd7\x1f|\xb83\xad\xeb?'
tRp15
tp16
a(S'DQVILLNKHIDAYKTFPPT_FNPETNILLNVPLHGTILT_GAGAALQIPFAMQMAYRFN_GAISSVLNDILSRLDKVEA_HQPYVVDDPCPIHFYSKWYI_IITLKKRWQLALSKGVHFV_MDLFMRIFTIGTVTLKQGE_NATRFASVYAWNRKRISNC_NGGDAALALLLLDRLNQLE_PKEITVATSRTLSYYKLGA_PRQKRTATKAYNVTQAFGR_PSDFVRATATIPIQASLPF_PSKRSFIEDLLFNKVTLAD_QTNSPRRARSVASQSIIAY_RWYFYYLGTGPEAGLPYGA_SRTLSYYKLGASQRVAGDS_SYFTSDYYQLYSTQLSTDT_TAPAICHDGKAHFPREGVF_TITSGWTFGAGAALQIPFA_TYTGAIKLDDKDPNFKDQV_VEAEVQIDRLITGRLQSLQ_VKDCVVLHSYFTSDYYQLY_VTQQLIRAAEIRASANLAA_YNYLYRLFRKSNLKPFERD'
p17
g3
(g5
S'\xc5\x95\x90\xfd*\xad\xeb?'
tRp18
tp19
a(S'AEIRASANLAATKMSECVL_DQVILLNKHIDAYKTFPPT_GAGAALQIPFAMQMAYRFN_GAISSVLNDILSRLDKVEA_HQPYVVDDPCPIHFYSKWYI_IITLKKRWQLALSKGVHFV_MDLFMRIFTIGTVTLKQGE_NATRFASVYAWNRKRISNC_NGGDAALALLLLDRLNQLE_PKEITVATSRTLSYYKLGA_PRQKRTATKAYNVTQAFGR_PSDFVRATATIPIQASLPF_PSKRSFIEDLLFNKVTLAD_QTNSPRRARSVASQSIIAY_RWYFYYLGTGPEAGLPYGA_SRTLSYYKLGASQRVAGDS_SYFTSDYYQLYSTQLSTDT_TAPAICHDGKAHFPREGVF_TITSGWTFGAGAALQIPFA_TYTGAIKLDDKDPNFKDQV_VEAEVQIDRLITGRLQSLQ_VKDCVVLHSYFTSDYYQLY_VTQQLIRAAEIRASANLAA_YNYLYRLFRKSNLKPFERD'
p20
g3
(g5
S'w\x88/\x8c#\xad\xeb?'
tRp21
tp22
a(S'DQVILLNKHIDAYKTFPPT_GAGAALQIPFAMQMAYRFN_GAISSVLNDILSRLDKVEA_HQPYVVDDPCPIHFYSKWYI_IITLKKRWQLALSKGVHFV_LTDEMIAQYTSALLAGTIT_MDLFMRIFTIGTVTLKQGE_NATRFASVYAWNRKRISNC_NGGDAALALLLLDRLNQLE_PKEITVATSRTLSYYKLGA_PRQKRTATKAYNVTQAFGR_PSDFVRATATIPIQASLPF_PSKRSFIEDLLFNKVTLAD_QTNSPRRARSVASQSIIAY_RWYFYYLGTGPEAGLPYGA_SRTLSYYKLGASQRVAGDS_SYFTSDYYQLYSTQLSTDT_TAPAICHDGKAHFPREGVF_TITSGWTFGAGAALQIPFA_TYTGAIKLDDKDPNFKDQV_VEAEVQIDRLITGRLQSLQ_VKDCVVLHSYFTSDYYQLY_VTQQLIRAAEIRASANLAA_YNYLYRLFRKSNLKPFERD'
p23
g3
(g5
S'\x93{\x9f\x1a\xf9\xac\xeb?'
tRp24
tp25
a(S'DQVILLNKHIDAYKTFPPT_GAGAALQIPFAMQMAYRFN_GAISSVLNDILSRLDKVEA_HQPYVVDDPCPIHFYSKWYI_IITLKKRWQLALSKGVHFV_MDLFMRIFTIGTVTLKQGE_NATRFASVYAWNRKRISNC_NGGDAALALLLLDRLNQLE_PKEITVATSRTLSYYKLGA_PRQKRTATKAYNVTQAFGR_PSDFVRATATIPIQASLPF_PSKRSFIEDLLFNKVTLAD_QTNSPRRARSVASQSIIAY_RWYFYYLGTGPEAGLPYGA_SRTLSYYKLGASQRVAGDS_STGSNVFQTRAGCLIGAEH_SYFTSDYYQLYSTQLSTDT_TAPAICHDGKAHFPREGVF_TITSGWTFGAGAALQIPFA_TYTGAIKLDDKDPNFKDQV_VEAEVQIDRLITGRLQSLQ_VKDCVVLHSYFTSDYYQLY_VTQQLIRAAEIRASANLAA_YNYLYRLFRKSNLKPFERD'
p26
g3
(g5
S'\x90{\x9f\x1a\xf9\xac\xeb?'
tRp27
tp28
a(S'DQVILLNKHIDAYKTFPPT_GAGAALQIPFAMQMAYRFN_GAISSVLNDILSRLDKVEA_HQPYVVDDPCPIHFYSKWYI_IITLKKRWQLALSKGVHFV_MDLFMRIFTIGTVTLKQGE_NATRFASVYAWNRKRISNC_NGGDAALALLLLDRLNQLE_PKEITVATSRTLSYYKLGA_PRQKRTATKAYNVTQAFGR_PSDFVRATATIPIQASLPF_PSKRSFIEDLLFNKVTLAD_QTNSPRRARSVASQSIIAY_RQKKQQTVTLLPAADLDDF_RWYFYYLGTGPEAGLPYGA_SRTLSYYKLGASQRVAGDS_SYFTSDYYQLYSTQLSTDT_TAPAICHDGKAHFPREGVF_TITSGWTFGAGAALQIPFA_TYTGAIKLDDKDPNFKDQV_VEAEVQIDRLITGRLQSLQ_VKDCVVLHSYFTSDYYQLY_VTQQLIRAAEIRASANLAA_YNYLYRLFRKSNLKPFERD'
p29
g3
(g5
S'\x90{\x9f\x1a\xf9\xac\xeb?'
tRp30
tp31
a(S'DQVILLNKHIDAYKTFPPT_GAGAALQIPFAMQMAYRFN_GAISSVLNDILSRLDKVEA_HQPYVVDDPCPIHFYSKWYI_IITLKKRWQLALSKGVHFV_MDLFMRIFTIGTVTLKQGE_NATRFASVYAWNRKRISNC_NGGDAALALLLLDRLNQLE_PKEITVATSRTLSYYKLGA_PRQKRTATKAYNVTQAFGR_PSDFVRATATIPIQASLPF_PSKRSFIEDLLFNKVTLAD_QTNSPRRARSVASQSIIAY_RWYFYYLGTGPEAGLPYGA_SRTLSYYKLGASQRVAGDS_SYFTSDYYQLYSTQLSTDT_TAPAICHDGKAHFPREGVF_TITSGWTFGAGAALQIPFA_TYTGAIKLDDKDPNFKDQV_VEAEVQIDRLITGRLQSLQ_VKDCVVLHSYFTSDYYQLY_VTQQLIRAAEIRASANLAA_YGANKDGIIWVATEGALNT_YNYLYRLFRKSNLKPFERD'
p32
g3
(g5
S'\x8f{\x9f\x1a\xf9\xac\xeb?'
tRp33
tp34
a.