(lp1
(S'FCTQLNRALTGIAVEQDKN_IITLKKRWQLALSKGVHFV_RWYFYYLGTGPEAGLPYGA_VTQQLIRAAEIRASANLAA'
p2
cnumpy.core.multiarray
scalar
p3
(cnumpy
dtype
p4
(S'f8'
I0
I1
tRp5
(I3
S'<'
NNNI-1
I-1
I0
tbS'\x88\xb2\xc7\x82\xe3f\xee?'
tRp6
tp7
a(S'FCTQLNRALTGIAVEQDKN_PSDFVRATATIPIQASLPF_RWYFYYLGTGPEAGLPYGA_VTQQLIRAAEIRASANLAA'
p8
g3
(g5
S'M \x18i\xd9d\xee?'
tRp9
tp10
a(S'IITLKKRWQLALSKGVHFV_RWYFYYLGTGPEAGLPYGA_VTQQLIRAAEIRASANLAA_YNYLYRLFRKSNLKPFERD'
p11
g3
(g5
S'\xd3T\x8a\xe8\\a\xee?'
tRp12
tp13
a(S'PSDFVRATATIPIQASLPF_RWYFYYLGTGPEAGLPYGA_VTQQLIRAAEIRASANLAA_YNYLYRLFRKSNLKPFERD'
p14
g3
(g5
S'\xc0\x9c\xeb.\x16a\xee?'
tRp15
tp16
a(S'IITLKKRWQLALSKGVHFV_RWYFYYLGTGPEAGLPYGA_SNCVADYSVLYNSASFSTF_VTQQLIRAAEIRASANLAA'
p17
g3
(g5
S'\x0b^\x00\xee>_\xee?'
tRp18
tp19
a(S'IITLKKRWQLALSKGVHFV_RWYFYYLGTGPEAGLPYGA_VTQQLIRAAEIRASANLAA_YSHLLLVAAGLEAPFLYLY'
p20
g3
(g5
S'\x8bA}\xa0*_\xee?'
tRp21
tp22
a(S'IITLKKRWQLALSKGVHFV_QTNSPRRARSVASQSIIAY_RWYFYYLGTGPEAGLPYGA_VTQQLIRAAEIRASANLAA'
p23
g3
(g5
S'\x8bA}\xa0*_\xee?'
tRp24
tp25
a(S'IITLKKRWQLALSKGVHFV_IQDSLSSTASALGKLQDVV_RWYFYYLGTGPEAGLPYGA_VTQQLIRAAEIRASANLAA'
p26
g3
(g5
S'\x8bA}\xa0*_\xee?'
tRp27
tp28
a(S'DHIGTRNPANNAAIVLQLP_IITLKKRWQLALSKGVHFV_RWYFYYLGTGPEAGLPYGA_VTQQLIRAAEIRASANLAA'
p29
g3
(g5
S'\x8bA}\xa0*_\xee?'
tRp30
tp31
a(S'ANNAAIVLQLPQGTTLPKG_IITLKKRWQLALSKGVHFV_RWYFYYLGTGPEAGLPYGA_VTQQLIRAAEIRASANLAA'
p32
g3
(g5
S'\x8bA}\xa0*_\xee?'
tRp33
tp34
a.