(lp1
(S'AEIRASANLAATKMSECVL_ANNAAIVLQLPQGTTLPKG_AVFQSASKIITLKKRWQLA_AYANRNRFLYIIKLIFLWL_DFGGFNFSQILPDPSKPSK_DGVKHVYQLRARSVSPKLFI_DHIGTRNPANNAAIVLQLP_DKNTQEVFAQVKQIYKTPP_DLLFNKVTLADAGFIKQYG_DNKFALTCFSTQFAFACPDG_DQVILLNKHIDAYKTFPPT_EHVTFFIYNKIVDEPEEHV_ENQKLIANQFNSAIGKIQD_FCTQLNRALTGIAVEQDKN_FNPETNILLNVPLHGTILT_FPFTIYSLLLCRMNSRNYI_GAGAALQIPFAMQMAYRFN_GAISSVLNDILSRLDKVEA_GNSPFHPLADNKFALTCFST_GVFVSNGTHWFVTQRNFYE_HQPYVVDDPCPIHFYSKWYI_IHADQLTPTWRVYSTGSNV_IIMRLWLCWKCRSKNPLLY_IIMRTFKVSIWNLDYIINL_IITLKKRWQLALSKGVHFV_IQDSLSSTASALGKLQDVV_LDSKVGGNYNYLYRLFRKS_LICAQKFNGLTVLPPLLTD_LTDEMIAQYTSALLAGTIT_MAYRFNGIGVTQNVLYENQ_MDLFMRIFTIGTVTLKQGE_MWLSYFIASFRLFARTRSM_NAQALNTLVKQLSSNFGAI_NATRFASVYAWNRKRISNC_NGGDAALALLLLDRLNQLE_PKEITVATSRTLSYYKLGA_PNNTASWFTALTQHGKEDL_PRQKRTATKAYNVTQAFGR_PSDFVRATATIPIQASLPF_PSFYVYSRVKNLNSSRVPDLLV_PSKRSFIEDLLFNKVTLAD_QTNSPRRARSVASQSIIAY_RCSFYEDFLEYHDVRVVLDFI_RLITGRLQSLQTYVTQQLI_RQKKQQTVTLLPAADLDDF_RWYFYYLGTGPEAGLPYGA_SELVIGAVILRGHLRIAGH_SFRLFARTRSMWSFNPETN_SNCVADYSVLYNSASFSTF_SNKKFLPFQQFGRDIADTT_SRTLSYYKLGASQRVAGDS_SSPDDQIGYYRRATRRIRG_STGSNVFQTRAGCLIGAEH_SYFTSDYYQLYSTQLSTDT_TAPAICHDGKAHFPREGVF_TITSGWTFGAGAALQIPFA_TYTGAIKLDDKDPNFKDQV_VEAEVQIDRLITGRLQSLQ_VFLHVTYVPAQEKNFTTAP_VKDCVVLHSYFTSDYYQLY_VKQLSSNFGAISSVLNDIL_VTQQLIRAAEIRASANLAA_VVVLSFELLHAPATVCGPK_YGANKDGIIWVATEGALNT_YLYALVYFLQSINFVRIIM_YNYLYRLFRKSNLKPFERD_YSHLLLVAAGLEAPFLYLY_YSKWYIRVGARKSAPLIELC'
p2
cnumpy.core.multiarray
scalar
p3
(cnumpy
dtype
p4
(S'f8'
I0
I1
tRp5
(I3
S'<'
NNNI-1
I-1
I0
tbS'KI\x1e\xd7vx\xe7?'
tRp6
tp7
a(S'AEIRASANLAATKMSECVL_ANNAAIVLQLPQGTTLPKG_AVFQSASKIITLKKRWQLA_AYANRNRFLYIIKLIFLWL_DFGGFNFSQILPDPSKPSK_DGVKHVYQLRARSVSPKLFI_DHIGTRNPANNAAIVLQLP_DKNTQEVFAQVKQIYKTPP_DLLFNKVTLADAGFIKQYG_DNKFALTCFSTQFAFACPDG_DQVILLNKHIDAYKTFPPT_EHVTFFIYNKIVDEPEEHV_ENQKLIANQFNSAIGKIQD_FCTQLNRALTGIAVEQDKN_FNPETNILLNVPLHGTILT_FPFTIYSLLLCRMNSRNYI_GAGAALQIPFAMQMAYRFN_GAISSVLNDILSRLDKVEA_GNSPFHPLADNKFALTCFST_GVFVSNGTHWFVTQRNFYE_HQPYVVDDPCPIHFYSKWYI_IHADQLTPTWRVYSTGSNV_IIMRLWLCWKCRSKNPLLY_IIMRTFKVSIWNLDYIINL_IITLKKRWQLALSKGVHFV_IQDSLSSTASALGKLQDVV_IVNVSLVKPSFYVYSRVKN_LDSKVGGNYNYLYRLFRKS_LICAQKFNGLTVLPPLLTD_LTDEMIAQYTSALLAGTIT_MAYRFNGIGVTQNVLYENQ_MDLFMRIFTIGTVTLKQGE_MWLSYFIASFRLFARTRSM_NAQALNTLVKQLSSNFGAI_NATRFASVYAWNRKRISNC_NGGDAALALLLLDRLNQLE_PKEITVATSRTLSYYKLGA_PNNTASWFTALTQHGKEDL_PRQKRTATKAYNVTQAFGR_PSDFVRATATIPIQASLPF_PSKRSFIEDLLFNKVTLAD_QTNSPRRARSVASQSIIAY_RCSFYEDFLEYHDVRVVLDFI_RLITGRLQSLQTYVTQQLI_RQKKQQTVTLLPAADLDDF_RWYFYYLGTGPEAGLPYGA_SELVIGAVILRGHLRIAGH_SFRLFARTRSMWSFNPETN_SNCVADYSVLYNSASFSTF_SNKKFLPFQQFGRDIADTT_SRTLSYYKLGASQRVAGDS_SSPDDQIGYYRRATRRIRG_STGSNVFQTRAGCLIGAEH_SYFTSDYYQLYSTQLSTDT_TAPAICHDGKAHFPREGVF_TITSGWTFGAGAALQIPFA_TYTGAIKLDDKDPNFKDQV_VEAEVQIDRLITGRLQSLQ_VFLHVTYVPAQEKNFTTAP_VKDCVVLHSYFTSDYYQLY_VKQLSSNFGAISSVLNDIL_VTQQLIRAAEIRASANLAA_VVVLSFELLHAPATVCGPK_YGANKDGIIWVATEGALNT_YLYALVYFLQSINFVRIIM_YNYLYRLFRKSNLKPFERD_YSHLLLVAAGLEAPFLYLY_YSKWYIRVGARKSAPLIELC'
p8
g3
(g5
S'KI\x1e\xd7vx\xe7?'
tRp9
tp10
a(S'AEIRASANLAATKMSECVL_ANNAAIVLQLPQGTTLPKG_AVFQSASKIITLKKRWQLA_AYANRNRFLYIIKLIFLWL_DFGGFNFSQILPDPSKPSK_DGVKHVYQLRARSVSPKLFI_DHIGTRNPANNAAIVLQLP_DKNTQEVFAQVKQIYKTPP_DLLFNKVTLADAGFIKQYG_DNKFALTCFSTQFAFACPDG_DQVILLNKHIDAYKTFPPT_EHVTFFIYNKIVDEPEEHV_ENQKLIANQFNSAIGKIQD_FCTQLNRALTGIAVEQDKN_FLIVAAIVFITLCFTLKRKTE_FNPETNILLNVPLHGTILT_GAGAALQIPFAMQMAYRFN_GAISSVLNDILSRLDKVEA_GNSPFHPLADNKFALTCFST_GVFVSNGTHWFVTQRNFYE_HQPYVVDDPCPIHFYSKWYI_IHADQLTPTWRVYSTGSNV_IIMRLWLCWKCRSKNPLLY_IIMRTFKVSIWNLDYIINL_IITLKKRWQLALSKGVHFV_IQDSLSSTASALGKLQDVV_LDSKVGGNYNYLYRLFRKS_LICAQKFNGLTVLPPLLTD_LTDEMIAQYTSALLAGTIT_MAYRFNGIGVTQNVLYENQ_MDLFMRIFTIGTVTLKQGE_MWLSYFIASFRLFARTRSM_NAQALNTLVKQLSSNFGAI_NATRFASVYAWNRKRISNC_NGGDAALALLLLDRLNQLE_PKEITVATSRTLSYYKLGA_PNNTASWFTALTQHGKEDL_PRQKRTATKAYNVTQAFGR_PSDFVRATATIPIQASLPF_PSFYVYSRVKNLNSSRVPDLLV_PSKRSFIEDLLFNKVTLAD_QTNSPRRARSVASQSIIAY_RCSFYEDFLEYHDVRVVLDFI_RLITGRLQSLQTYVTQQLI_RQKKQQTVTLLPAADLDDF_RWYFYYLGTGPEAGLPYGA_SELVIGAVILRGHLRIAGH_SFRLFARTRSMWSFNPETN_SNCVADYSVLYNSASFSTF_SNKKFLPFQQFGRDIADTT_SRTLSYYKLGASQRVAGDS_SSPDDQIGYYRRATRRIRG_STGSNVFQTRAGCLIGAEH_SYFTSDYYQLYSTQLSTDT_TAPAICHDGKAHFPREGVF_TITSGWTFGAGAALQIPFA_TYTGAIKLDDKDPNFKDQV_VEAEVQIDRLITGRLQSLQ_VFLHVTYVPAQEKNFTTAP_VKDCVVLHSYFTSDYYQLY_VKQLSSNFGAISSVLNDIL_VTQQLIRAAEIRASANLAA_VVVLSFELLHAPATVCGPK_YGANKDGIIWVATEGALNT_YLYALVYFLQSINFVRIIM_YNYLYRLFRKSNLKPFERD_YSHLLLVAAGLEAPFLYLY_YSKWYIRVGARKSAPLIELC'
p11
g3
(g5
S'KI\x1e\xd7vx\xe7?'
tRp12
tp13
a(S'AEIRASANLAATKMSECVL_ANNAAIVLQLPQGTTLPKG_AVFQSASKIITLKKRWQLA_AYANRNRFLYIIKLIFLWL_DFGGFNFSQILPDPSKPSK_DGVKHVYQLRARSVSPKLFI_DHIGTRNPANNAAIVLQLP_DKNTQEVFAQVKQIYKTPP_DLLFNKVTLADAGFIKQYG_DNKFALTCFSTQFAFACPDG_DQVILLNKHIDAYKTFPPT_EHVTFFIYNKIVDEPEEHV_ENQKLIANQFNSAIGKIQD_FCTQLNRALTGIAVEQDKN_FLIVAAIVFITLCFTLKRKTE_FNPETNILLNVPLHGTILT_GAGAALQIPFAMQMAYRFN_GAISSVLNDILSRLDKVEA_GNSPFHPLADNKFALTCFST_GVFVSNGTHWFVTQRNFYE_HQPYVVDDPCPIHFYSKWYI_IHADQLTPTWRVYSTGSNV_IIMRLWLCWKCRSKNPLLY_IIMRTFKVSIWNLDYIINL_IITLKKRWQLALSKGVHFV_IQDSLSSTASALGKLQDVV_IVNVSLVKPSFYVYSRVKN_LDSKVGGNYNYLYRLFRKS_LICAQKFNGLTVLPPLLTD_LTDEMIAQYTSALLAGTIT_MAYRFNGIGVTQNVLYENQ_MDLFMRIFTIGTVTLKQGE_MWLSYFIASFRLFARTRSM_NAQALNTLVKQLSSNFGAI_NATRFASVYAWNRKRISNC_NGGDAALALLLLDRLNQLE_PKEITVATSRTLSYYKLGA_PNNTASWFTALTQHGKEDL_PRQKRTATKAYNVTQAFGR_PSDFVRATATIPIQASLPF_PSKRSFIEDLLFNKVTLAD_QTNSPRRARSVASQSIIAY_RCSFYEDFLEYHDVRVVLDFI_RLITGRLQSLQTYVTQQLI_RQKKQQTVTLLPAADLDDF_RWYFYYLGTGPEAGLPYGA_SELVIGAVILRGHLRIAGH_SFRLFARTRSMWSFNPETN_SNCVADYSVLYNSASFSTF_SNKKFLPFQQFGRDIADTT_SRTLSYYKLGASQRVAGDS_SSPDDQIGYYRRATRRIRG_STGSNVFQTRAGCLIGAEH_SYFTSDYYQLYSTQLSTDT_TAPAICHDGKAHFPREGVF_TITSGWTFGAGAALQIPFA_TYTGAIKLDDKDPNFKDQV_VEAEVQIDRLITGRLQSLQ_VFLHVTYVPAQEKNFTTAP_VKDCVVLHSYFTSDYYQLY_VKQLSSNFGAISSVLNDIL_VTQQLIRAAEIRASANLAA_VVVLSFELLHAPATVCGPK_YGANKDGIIWVATEGALNT_YLYALVYFLQSINFVRIIM_YNYLYRLFRKSNLKPFERD_YSHLLLVAAGLEAPFLYLY_YSKWYIRVGARKSAPLIELC'
p14
g3
(g5
S'KI\x1e\xd7vx\xe7?'
tRp15
tp16
a(S'AEIRASANLAATKMSECVL_ANNAAIVLQLPQGTTLPKG_AVFQSASKIITLKKRWQLA_AYANRNRFLYIIKLIFLWL_DFGGFNFSQILPDPSKPSK_DGVKHVYQLRARSVSPKLFI_DHIGTRNPANNAAIVLQLP_DKNTQEVFAQVKQIYKTPP_DLLFNKVTLADAGFIKQYG_DNKFALTCFSTQFAFACPDG_DQVILLNKHIDAYKTFPPT_EHVTFFIYNKIVDEPEEHV_ENQKLIANQFNSAIGKIQD_FCTQLNRALTGIAVEQDKN_FLIVAAIVFITLCFTLKRKTE_FNPETNILLNVPLHGTILT_FPFTIYSLLLCRMNSRNYI_GAGAALQIPFAMQMAYRFN_GAISSVLNDILSRLDKVEA_GNSPFHPLADNKFALTCFST_GVFVSNGTHWFVTQRNFYE_HQPYVVDDPCPIHFYSKWYI_IIMRLWLCWKCRSKNPLLY_IIMRTFKVSIWNLDYIINL_IITLKKRWQLALSKGVHFV_IQDSLSSTASALGKLQDVV_LDSKVGGNYNYLYRLFRKS_LICAQKFNGLTVLPPLLTD_LTDEMIAQYTSALLAGTIT_MAYRFNGIGVTQNVLYENQ_MDLFMRIFTIGTVTLKQGE_MWLSYFIASFRLFARTRSM_NAQALNTLVKQLSSNFGAI_NATRFASVYAWNRKRISNC_NGGDAALALLLLDRLNQLE_PKEITVATSRTLSYYKLGA_PNNTASWFTALTQHGKEDL_PRQKRTATKAYNVTQAFGR_PSDFVRATATIPIQASLPF_PSFYVYSRVKNLNSSRVPDLLV_PSKRSFIEDLLFNKVTLAD_QTNSPRRARSVASQSIIAY_RCSFYEDFLEYHDVRVVLDFI_RLITGRLQSLQTYVTQQLI_RQKKQQTVTLLPAADLDDF_RWYFYYLGTGPEAGLPYGA_SELVIGAVILRGHLRIAGH_SFRLFARTRSMWSFNPETN_SNCVADYSVLYNSASFSTF_SNKKFLPFQQFGRDIADTT_SRTLSYYKLGASQRVAGDS_SSPDDQIGYYRRATRRIRG_STGSNVFQTRAGCLIGAEH_SYFTSDYYQLYSTQLSTDT_TAPAICHDGKAHFPREGVF_TITSGWTFGAGAALQIPFA_TYTGAIKLDDKDPNFKDQV_VEAEVQIDRLITGRLQSLQ_VFLHVTYVPAQEKNFTTAP_VKDCVVLHSYFTSDYYQLY_VKQLSSNFGAISSVLNDIL_VTQQLIRAAEIRASANLAA_VVVLSFELLHAPATVCGPK_YGANKDGIIWVATEGALNT_YLYALVYFLQSINFVRIIM_YNYLYRLFRKSNLKPFERD_YSHLLLVAAGLEAPFLYLY_YSKWYIRVGARKSAPLIELC'
p17
g3
(g5
S'KI\x1e\xd7vx\xe7?'
tRp18
tp19
a(S'AEIRASANLAATKMSECVL_ANNAAIVLQLPQGTTLPKG_AVFQSASKIITLKKRWQLA_AYANRNRFLYIIKLIFLWL_DFGGFNFSQILPDPSKPSK_DGVKHVYQLRARSVSPKLFI_DHIGTRNPANNAAIVLQLP_DKNTQEVFAQVKQIYKTPP_DLLFNKVTLADAGFIKQYG_DNKFALTCFSTQFAFACPDG_DQVILLNKHIDAYKTFPPT_EHVTFFIYNKIVDEPEEHV_ENQKLIANQFNSAIGKIQD_FCTQLNRALTGIAVEQDKN_FLIVAAIVFITLCFTLKRKTE_FNPETNILLNVPLHGTILT_FPFTIYSLLLCRMNSRNYI_GAGAALQIPFAMQMAYRFN_GAISSVLNDILSRLDKVEA_GNSPFHPLADNKFALTCFST_GVFVSNGTHWFVTQRNFYE_HQPYVVDDPCPIHFYSKWYI_IIMRLWLCWKCRSKNPLLY_IIMRTFKVSIWNLDYIINL_IITLKKRWQLALSKGVHFV_IQDSLSSTASALGKLQDVV_IVNVSLVKPSFYVYSRVKN_LDSKVGGNYNYLYRLFRKS_LICAQKFNGLTVLPPLLTD_LTDEMIAQYTSALLAGTIT_MAYRFNGIGVTQNVLYENQ_MDLFMRIFTIGTVTLKQGE_MWLSYFIASFRLFARTRSM_NAQALNTLVKQLSSNFGAI_NATRFASVYAWNRKRISNC_NGGDAALALLLLDRLNQLE_PKEITVATSRTLSYYKLGA_PNNTASWFTALTQHGKEDL_PRQKRTATKAYNVTQAFGR_PSDFVRATATIPIQASLPF_PSKRSFIEDLLFNKVTLAD_QTNSPRRARSVASQSIIAY_RCSFYEDFLEYHDVRVVLDFI_RLITGRLQSLQTYVTQQLI_RQKKQQTVTLLPAADLDDF_RWYFYYLGTGPEAGLPYGA_SELVIGAVILRGHLRIAGH_SFRLFARTRSMWSFNPETN_SNCVADYSVLYNSASFSTF_SNKKFLPFQQFGRDIADTT_SRTLSYYKLGASQRVAGDS_SSPDDQIGYYRRATRRIRG_STGSNVFQTRAGCLIGAEH_SYFTSDYYQLYSTQLSTDT_TAPAICHDGKAHFPREGVF_TITSGWTFGAGAALQIPFA_TYTGAIKLDDKDPNFKDQV_VEAEVQIDRLITGRLQSLQ_VFLHVTYVPAQEKNFTTAP_VKDCVVLHSYFTSDYYQLY_VKQLSSNFGAISSVLNDIL_VTQQLIRAAEIRASANLAA_VVVLSFELLHAPATVCGPK_YGANKDGIIWVATEGALNT_YLYALVYFLQSINFVRIIM_YNYLYRLFRKSNLKPFERD_YSHLLLVAAGLEAPFLYLY_YSKWYIRVGARKSAPLIELC'
p20
g3
(g5
S'KI\x1e\xd7vx\xe7?'
tRp21
tp22
a(S'AEIRASANLAATKMSECVL_ANNAAIVLQLPQGTTLPKG_AVFQSASKIITLKKRWQLA_AYANRNRFLYIIKLIFLWL_DFGGFNFSQILPDPSKPSK_DGVKHVYQLRARSVSPKLFI_DHIGTRNPANNAAIVLQLP_DKNTQEVFAQVKQIYKTPP_DLLFNKVTLADAGFIKQYG_DNKFALTCFSTQFAFACPDG_DQVILLNKHIDAYKTFPPT_EHVTFFIYNKIVDEPEEHV_ENQKLIANQFNSAIGKIQD_FCTQLNRALTGIAVEQDKN_FLIVAAIVFITLCFTLKRKTE_FNPETNILLNVPLHGTILT_FPFTIYSLLLCRMNSRNYI_GAGAALQIPFAMQMAYRFN_GAISSVLNDILSRLDKVEA_GNSPFHPLADNKFALTCFST_GVFVSNGTHWFVTQRNFYE_HQPYVVDDPCPIHFYSKWYI_IHADQLTPTWRVYSTGSNV_IIMRTFKVSIWNLDYIINL_IITLKKRWQLALSKGVHFV_IQDSLSSTASALGKLQDVV_LDSKVGGNYNYLYRLFRKS_LICAQKFNGLTVLPPLLTD_LTDEMIAQYTSALLAGTIT_MAYRFNGIGVTQNVLYENQ_MDLFMRIFTIGTVTLKQGE_MWLSYFIASFRLFARTRSM_NAQALNTLVKQLSSNFGAI_NATRFASVYAWNRKRISNC_NGGDAALALLLLDRLNQLE_PKEITVATSRTLSYYKLGA_PNNTASWFTALTQHGKEDL_PRQKRTATKAYNVTQAFGR_PSDFVRATATIPIQASLPF_PSFYVYSRVKNLNSSRVPDLLV_PSKRSFIEDLLFNKVTLAD_QTNSPRRARSVASQSIIAY_RCSFYEDFLEYHDVRVVLDFI_RLITGRLQSLQTYVTQQLI_RQKKQQTVTLLPAADLDDF_RWYFYYLGTGPEAGLPYGA_SELVIGAVILRGHLRIAGH_SFRLFARTRSMWSFNPETN_SNCVADYSVLYNSASFSTF_SNKKFLPFQQFGRDIADTT_SRTLSYYKLGASQRVAGDS_SSPDDQIGYYRRATRRIRG_STGSNVFQTRAGCLIGAEH_SYFTSDYYQLYSTQLSTDT_TAPAICHDGKAHFPREGVF_TITSGWTFGAGAALQIPFA_TYTGAIKLDDKDPNFKDQV_VEAEVQIDRLITGRLQSLQ_VFLHVTYVPAQEKNFTTAP_VKDCVVLHSYFTSDYYQLY_VKQLSSNFGAISSVLNDIL_VTQQLIRAAEIRASANLAA_VVVLSFELLHAPATVCGPK_YGANKDGIIWVATEGALNT_YLYALVYFLQSINFVRIIM_YNYLYRLFRKSNLKPFERD_YSHLLLVAAGLEAPFLYLY_YSKWYIRVGARKSAPLIELC'
p23
g3
(g5
S'KI\x1e\xd7vx\xe7?'
tRp24
tp25
a(S'AEIRASANLAATKMSECVL_ANNAAIVLQLPQGTTLPKG_AVFQSASKIITLKKRWQLA_AYANRNRFLYIIKLIFLWL_DFGGFNFSQILPDPSKPSK_DGVKHVYQLRARSVSPKLFI_DHIGTRNPANNAAIVLQLP_DKNTQEVFAQVKQIYKTPP_DLLFNKVTLADAGFIKQYG_DNKFALTCFSTQFAFACPDG_DQVILLNKHIDAYKTFPPT_EHVTFFIYNKIVDEPEEHV_ENQKLIANQFNSAIGKIQD_FCTQLNRALTGIAVEQDKN_FLIVAAIVFITLCFTLKRKTE_FNPETNILLNVPLHGTILT_FPFTIYSLLLCRMNSRNYI_GAGAALQIPFAMQMAYRFN_GAISSVLNDILSRLDKVEA_GNSPFHPLADNKFALTCFST_GVFVSNGTHWFVTQRNFYE_HQPYVVDDPCPIHFYSKWYI_IHADQLTPTWRVYSTGSNV_IIMRTFKVSIWNLDYIINL_IITLKKRWQLALSKGVHFV_IQDSLSSTASALGKLQDVV_IVNVSLVKPSFYVYSRVKN_LDSKVGGNYNYLYRLFRKS_LICAQKFNGLTVLPPLLTD_LTDEMIAQYTSALLAGTIT_MAYRFNGIGVTQNVLYENQ_MDLFMRIFTIGTVTLKQGE_MWLSYFIASFRLFARTRSM_NAQALNTLVKQLSSNFGAI_NATRFASVYAWNRKRISNC_NGGDAALALLLLDRLNQLE_PKEITVATSRTLSYYKLGA_PNNTASWFTALTQHGKEDL_PRQKRTATKAYNVTQAFGR_PSDFVRATATIPIQASLPF_PSKRSFIEDLLFNKVTLAD_QTNSPRRARSVASQSIIAY_RCSFYEDFLEYHDVRVVLDFI_RLITGRLQSLQTYVTQQLI_RQKKQQTVTLLPAADLDDF_RWYFYYLGTGPEAGLPYGA_SELVIGAVILRGHLRIAGH_SFRLFARTRSMWSFNPETN_SNCVADYSVLYNSASFSTF_SNKKFLPFQQFGRDIADTT_SRTLSYYKLGASQRVAGDS_SSPDDQIGYYRRATRRIRG_STGSNVFQTRAGCLIGAEH_SYFTSDYYQLYSTQLSTDT_TAPAICHDGKAHFPREGVF_TITSGWTFGAGAALQIPFA_TYTGAIKLDDKDPNFKDQV_VEAEVQIDRLITGRLQSLQ_VFLHVTYVPAQEKNFTTAP_VKDCVVLHSYFTSDYYQLY_VKQLSSNFGAISSVLNDIL_VTQQLIRAAEIRASANLAA_VVVLSFELLHAPATVCGPK_YGANKDGIIWVATEGALNT_YLYALVYFLQSINFVRIIM_YNYLYRLFRKSNLKPFERD_YSHLLLVAAGLEAPFLYLY_YSKWYIRVGARKSAPLIELC'
p26
g3
(g5
S'KI\x1e\xd7vx\xe7?'
tRp27
tp28
a(S'AEIRASANLAATKMSECVL_ANNAAIVLQLPQGTTLPKG_AVFQSASKIITLKKRWQLA_AYANRNRFLYIIKLIFLWL_DFGGFNFSQILPDPSKPSK_DGVKHVYQLRARSVSPKLFI_DHIGTRNPANNAAIVLQLP_DKNTQEVFAQVKQIYKTPP_DLLFNKVTLADAGFIKQYG_DNKFALTCFSTQFAFACPDG_DQVILLNKHIDAYKTFPPT_EHVTFFIYNKIVDEPEEHV_ENQKLIANQFNSAIGKIQD_FCTQLNRALTGIAVEQDKN_FLIVAAIVFITLCFTLKRKTE_FNPETNILLNVPLHGTILT_FPFTIYSLLLCRMNSRNYI_GAGAALQIPFAMQMAYRFN_GAISSVLNDILSRLDKVEA_GNSPFHPLADNKFALTCFST_GVFVSNGTHWFVTQRNFYE_HQPYVVDDPCPIHFYSKWYI_IHADQLTPTWRVYSTGSNV_IIMRLWLCWKCRSKNPLLY_IIMRTFKVSIWNLDYIINL_IITLKKRWQLALSKGVHFV_IQDSLSSTASALGKLQDVV_LDSKVGGNYNYLYRLFRKS_LICAQKFNGLTVLPPLLTD_LTDEMIAQYTSALLAGTIT_MAYRFNGIGVTQNVLYENQ_MDLFMRIFTIGTVTLKQGE_MWLSYFIASFRLFARTRSM_NAQALNTLVKQLSSNFGAI_NATRFASVYAWNRKRISNC_NGGDAALALLLLDRLNQLE_PKEITVATSRTLSYYKLGA_PRQKRTATKAYNVTQAFGR_PSDFVRATATIPIQASLPF_PSFYVYSRVKNLNSSRVPDLLV_PSKRSFIEDLLFNKVTLAD_QTNSPRRARSVASQSIIAY_RCSFYEDFLEYHDVRVVLDFI_RLITGRLQSLQTYVTQQLI_RQKKQQTVTLLPAADLDDF_RWYFYYLGTGPEAGLPYGA_SELVIGAVILRGHLRIAGH_SFRLFARTRSMWSFNPETN_SNCVADYSVLYNSASFSTF_SNKKFLPFQQFGRDIADTT_SRTLSYYKLGASQRVAGDS_SSPDDQIGYYRRATRRIRG_STGSNVFQTRAGCLIGAEH_SYFTSDYYQLYSTQLSTDT_TAPAICHDGKAHFPREGVF_TITSGWTFGAGAALQIPFA_TYTGAIKLDDKDPNFKDQV_VEAEVQIDRLITGRLQSLQ_VFLHVTYVPAQEKNFTTAP_VKDCVVLHSYFTSDYYQLY_VKQLSSNFGAISSVLNDIL_VTQQLIRAAEIRASANLAA_VVVLSFELLHAPATVCGPK_YGANKDGIIWVATEGALNT_YLYALVYFLQSINFVRIIM_YNYLYRLFRKSNLKPFERD_YSHLLLVAAGLEAPFLYLY_YSKWYIRVGARKSAPLIELC'
p29
g3
(g5
S'KI\x1e\xd7vx\xe7?'
tRp30
tp31
a(S'AEIRASANLAATKMSECVL_ANNAAIVLQLPQGTTLPKG_AVFQSASKIITLKKRWQLA_AYANRNRFLYIIKLIFLWL_DFGGFNFSQILPDPSKPSK_DGVKHVYQLRARSVSPKLFI_DHIGTRNPANNAAIVLQLP_DKNTQEVFAQVKQIYKTPP_DLLFNKVTLADAGFIKQYG_DNKFALTCFSTQFAFACPDG_DQVILLNKHIDAYKTFPPT_EHVTFFIYNKIVDEPEEHV_ENQKLIANQFNSAIGKIQD_FCTQLNRALTGIAVEQDKN_FLIVAAIVFITLCFTLKRKTE_FNPETNILLNVPLHGTILT_FPFTIYSLLLCRMNSRNYI_GAGAALQIPFAMQMAYRFN_GAISSVLNDILSRLDKVEA_GNSPFHPLADNKFALTCFST_GVFVSNGTHWFVTQRNFYE_HQPYVVDDPCPIHFYSKWYI_IHADQLTPTWRVYSTGSNV_IIMRLWLCWKCRSKNPLLY_IIMRTFKVSIWNLDYIINL_IITLKKRWQLALSKGVHFV_IQDSLSSTASALGKLQDVV_IVNVSLVKPSFYVYSRVKN_LDSKVGGNYNYLYRLFRKS_LICAQKFNGLTVLPPLLTD_LTDEMIAQYTSALLAGTIT_MAYRFNGIGVTQNVLYENQ_MDLFMRIFTIGTVTLKQGE_MWLSYFIASFRLFARTRSM_NAQALNTLVKQLSSNFGAI_NATRFASVYAWNRKRISNC_NGGDAALALLLLDRLNQLE_PKEITVATSRTLSYYKLGA_PRQKRTATKAYNVTQAFGR_PSDFVRATATIPIQASLPF_PSKRSFIEDLLFNKVTLAD_QTNSPRRARSVASQSIIAY_RCSFYEDFLEYHDVRVVLDFI_RLITGRLQSLQTYVTQQLI_RQKKQQTVTLLPAADLDDF_RWYFYYLGTGPEAGLPYGA_SELVIGAVILRGHLRIAGH_SFRLFARTRSMWSFNPETN_SNCVADYSVLYNSASFSTF_SNKKFLPFQQFGRDIADTT_SRTLSYYKLGASQRVAGDS_SSPDDQIGYYRRATRRIRG_STGSNVFQTRAGCLIGAEH_SYFTSDYYQLYSTQLSTDT_TAPAICHDGKAHFPREGVF_TITSGWTFGAGAALQIPFA_TYTGAIKLDDKDPNFKDQV_VEAEVQIDRLITGRLQSLQ_VFLHVTYVPAQEKNFTTAP_VKDCVVLHSYFTSDYYQLY_VKQLSSNFGAISSVLNDIL_VTQQLIRAAEIRASANLAA_VVVLSFELLHAPATVCGPK_YGANKDGIIWVATEGALNT_YLYALVYFLQSINFVRIIM_YNYLYRLFRKSNLKPFERD_YSHLLLVAAGLEAPFLYLY_YSKWYIRVGARKSAPLIELC'
p32
g3
(g5
S'KI\x1e\xd7vx\xe7?'
tRp33
tp34
a.