(lp1
(S'HQPYVVDDPCPIHFYSKWYI_IITLKKRWQLALSKGVHFV_PSDFVRATATIPIQASLPF_RWYFYYLGTGPEAGLPYGA_TITSGWTFGAGAALQIPFA_VTQQLIRAAEIRASANLAA_YNYLYRLFRKSNLKPFERD'
p2
cnumpy.core.multiarray
scalar
p3
(cnumpy
dtype
p4
(S'f8'
I0
I1
tRp5
(I3
S'<'
NNNI-1
I-1
I0
tbS'\xd4\x01\xb6\x0eH\xf9\xec?'
tRp6
tp7
a(S'IITLKKRWQLALSKGVHFV_PSDFVRATATIPIQASLPF_RWYFYYLGTGPEAGLPYGA_TITSGWTFGAGAALQIPFA_TYTGAIKLDDKDPNFKDQV_VTQQLIRAAEIRASANLAA_YNYLYRLFRKSNLKPFERD'
p8
g3
(g5
S'\xd3\x01\xb6\x0eH\xf9\xec?'
tRp9
tp10
a(S'IITLKKRWQLALSKGVHFV_PSDFVRATATIPIQASLPF_RWYFYYLGTGPEAGLPYGA_TAPAICHDGKAHFPREGVF_TITSGWTFGAGAALQIPFA_VTQQLIRAAEIRASANLAA_YNYLYRLFRKSNLKPFERD'
p11
g3
(g5
S'\xd3\x01\xb6\x0eH\xf9\xec?'
tRp12
tp13
a(S'FCTQLNRALTGIAVEQDKN_IITLKKRWQLALSKGVHFV_NGGDAALALLLLDRLNQLE_PSDFVRATATIPIQASLPF_RWYFYYLGTGPEAGLPYGA_TITSGWTFGAGAALQIPFA_VTQQLIRAAEIRASANLAA'
p14
g3
(g5
S'p~\xbe&\xa6\xf8\xec?'
tRp15
tp16
a(S'FCTQLNRALTGIAVEQDKN_IITLKKRWQLALSKGVHFV_NGGDAALALLLLDRLNQLE_PSDFVRATATIPIQASLPF_RWYFYYLGTGPEAGLPYGA_SRTLSYYKLGASQRVAGDS_VTQQLIRAAEIRASANLAA'
p17
g3
(g5
S'p~\xbe&\xa6\xf8\xec?'
tRp18
tp19
a(S'FCTQLNRALTGIAVEQDKN_IITLKKRWQLALSKGVHFV_PSDFVRATATIPIQASLPF_RWYFYYLGTGPEAGLPYGA_SRTLSYYKLGASQRVAGDS_TYTGAIKLDDKDPNFKDQV_VTQQLIRAAEIRASANLAA'
p20
g3
(g5
S'\xb4\xbf/h\x96\xf8\xec?'
tRp21
tp22
a(S'FCTQLNRALTGIAVEQDKN_IITLKKRWQLALSKGVHFV_PSDFVRATATIPIQASLPF_RWYFYYLGTGPEAGLPYGA_SRTLSYYKLGASQRVAGDS_TAPAICHDGKAHFPREGVF_VTQQLIRAAEIRASANLAA'
p23
g3
(g5
S'\xb4\xbf/h\x96\xf8\xec?'
tRp24
tp25
a(S'FCTQLNRALTGIAVEQDKN_HQPYVVDDPCPIHFYSKWYI_IITLKKRWQLALSKGVHFV_PSDFVRATATIPIQASLPF_RWYFYYLGTGPEAGLPYGA_SRTLSYYKLGASQRVAGDS_VTQQLIRAAEIRASANLAA'
p26
g3
(g5
S'\xb3\xbf/h\x96\xf8\xec?'
tRp27
tp28
a(S'FCTQLNRALTGIAVEQDKN_IITLKKRWQLALSKGVHFV_PSDFVRATATIPIQASLPF_RWYFYYLGTGPEAGLPYGA_TITSGWTFGAGAALQIPFA_TYTGAIKLDDKDPNFKDQV_VTQQLIRAAEIRASANLAA'
p29
g3
(g5
S'\xb0\xbf/h\x96\xf8\xec?'
tRp30
tp31
a(S'FCTQLNRALTGIAVEQDKN_IITLKKRWQLALSKGVHFV_PSDFVRATATIPIQASLPF_RWYFYYLGTGPEAGLPYGA_TAPAICHDGKAHFPREGVF_TITSGWTFGAGAALQIPFA_VTQQLIRAAEIRASANLAA'
p32
g3
(g5
S'\xb0\xbf/h\x96\xf8\xec?'
tRp33
tp34
a.