(lp1
(S'HQPYVVDDPCPIHFYSKWYI_IITLKKRWQLALSKGVHFV_NATRFASVYAWNRKRISNC_NGGDAALALLLLDRLNQLE_PSDFVRATATIPIQASLPF_RWYFYYLGTGPEAGLPYGA_SRTLSYYKLGASQRVAGDS_TITSGWTFGAGAALQIPFA_VTQQLIRAAEIRASANLAA_YNYLYRLFRKSNLKPFERD'
p2
cnumpy.core.multiarray
scalar
p3
(cnumpy
dtype
p4
(S'f8'
I0
I1
tRp5
(I3
S'<'
NNNI-1
I-1
I0
tbS'\xd0\x01\xb2\xa9\xd7\xc8\xec?'
tRp6
tp7
a(S'IITLKKRWQLALSKGVHFV_NATRFASVYAWNRKRISNC_NGGDAALALLLLDRLNQLE_PSDFVRATATIPIQASLPF_RWYFYYLGTGPEAGLPYGA_SRTLSYYKLGASQRVAGDS_TITSGWTFGAGAALQIPFA_TYTGAIKLDDKDPNFKDQV_VTQQLIRAAEIRASANLAA_YNYLYRLFRKSNLKPFERD'
p8
g3
(g5
S'\xcf\x01\xb2\xa9\xd7\xc8\xec?'
tRp9
tp10
a(S'IITLKKRWQLALSKGVHFV_NATRFASVYAWNRKRISNC_NGGDAALALLLLDRLNQLE_PSDFVRATATIPIQASLPF_RWYFYYLGTGPEAGLPYGA_SRTLSYYKLGASQRVAGDS_TAPAICHDGKAHFPREGVF_TITSGWTFGAGAALQIPFA_VTQQLIRAAEIRASANLAA_YNYLYRLFRKSNLKPFERD'
p11
g3
(g5
S'\xcf\x01\xb2\xa9\xd7\xc8\xec?'
tRp12
tp13
a(S'HQPYVVDDPCPIHFYSKWYI_IITLKKRWQLALSKGVHFV_NATRFASVYAWNRKRISNC_PSDFVRATATIPIQASLPF_RWYFYYLGTGPEAGLPYGA_SRTLSYYKLGASQRVAGDS_TITSGWTFGAGAALQIPFA_TYTGAIKLDDKDPNFKDQV_VTQQLIRAAEIRASANLAA_YNYLYRLFRKSNLKPFERD'
p14
g3
(g5
S'}\xc3\xbf$\x8e\xc8\xec?'
tRp15
tp16
a(S'HQPYVVDDPCPIHFYSKWYI_IITLKKRWQLALSKGVHFV_NATRFASVYAWNRKRISNC_PSDFVRATATIPIQASLPF_RWYFYYLGTGPEAGLPYGA_SRTLSYYKLGASQRVAGDS_TAPAICHDGKAHFPREGVF_TITSGWTFGAGAALQIPFA_VTQQLIRAAEIRASANLAA_YNYLYRLFRKSNLKPFERD'
p17
g3
(g5
S'}\xc3\xbf$\x8e\xc8\xec?'
tRp18
tp19
a(S'GAISSVLNDILSRLDKVEA_HQPYVVDDPCPIHFYSKWYI_IITLKKRWQLALSKGVHFV_NATRFASVYAWNRKRISNC_PSDFVRATATIPIQASLPF_RWYFYYLGTGPEAGLPYGA_SRTLSYYKLGASQRVAGDS_TITSGWTFGAGAALQIPFA_VTQQLIRAAEIRASANLAA_YNYLYRLFRKSNLKPFERD'
p20
g3
(g5
S'}\xc3\xbf$\x8e\xc8\xec?'
tRp21
tp22
a(S'GAISSVLNDILSRLDKVEA_IITLKKRWQLALSKGVHFV_NATRFASVYAWNRKRISNC_PSDFVRATATIPIQASLPF_RWYFYYLGTGPEAGLPYGA_SRTLSYYKLGASQRVAGDS_TITSGWTFGAGAALQIPFA_TYTGAIKLDDKDPNFKDQV_VTQQLIRAAEIRASANLAA_YNYLYRLFRKSNLKPFERD'
p23
g3
(g5
S'|\xc3\xbf$\x8e\xc8\xec?'
tRp24
tp25
a(S'GAISSVLNDILSRLDKVEA_IITLKKRWQLALSKGVHFV_NATRFASVYAWNRKRISNC_PSDFVRATATIPIQASLPF_RWYFYYLGTGPEAGLPYGA_SRTLSYYKLGASQRVAGDS_TAPAICHDGKAHFPREGVF_TITSGWTFGAGAALQIPFA_VTQQLIRAAEIRASANLAA_YNYLYRLFRKSNLKPFERD'
p26
g3
(g5
S'|\xc3\xbf$\x8e\xc8\xec?'
tRp27
tp28
a(S'IITLKKRWQLALSKGVHFV_NATRFASVYAWNRKRISNC_PSDFVRATATIPIQASLPF_RWYFYYLGTGPEAGLPYGA_SRTLSYYKLGASQRVAGDS_TAPAICHDGKAHFPREGVF_TITSGWTFGAGAALQIPFA_TYTGAIKLDDKDPNFKDQV_VTQQLIRAAEIRASANLAA_YNYLYRLFRKSNLKPFERD'
p29
g3
(g5
S'{\xc3\xbf$\x8e\xc8\xec?'
tRp30
tp31
a(S'IITLKKRWQLALSKGVHFV_NATRFASVYAWNRKRISNC_PSDFVRATATIPIQASLPF_RWYFYYLGTGPEAGLPYGA_SRTLSYYKLGASQRVAGDS_TITSGWTFGAGAALQIPFA_TYTGAIKLDDKDPNFKDQV_VEAEVQIDRLITGRLQSLQ_VTQQLIRAAEIRASANLAA_YNYLYRLFRKSNLKPFERD'
p32
g3
(g5
S'x\xc3\xbf$\x8e\xc8\xec?'
tRp33
tp34
a.