(lp1
(S'RWYFYYLGTGPEAGLPYGA_VTQQLIRAAEIRASANLAA'
p2
cnumpy.core.multiarray
scalar
p3
(cnumpy
dtype
p4
(S'f8'
I0
I1
tRp5
(I3
S'<'
NNNI-1
I-1
I0
tbS'\xf9<\xf1\x98\xcf\x14\xef?'
tRp6
tp7
a(S'FCTQLNRALTGIAVEQDKN_RWYFYYLGTGPEAGLPYGA'
p8
g3
(g5
S'P?\xf2\xfe\x91\x01\xef?'
tRp9
tp10
a(S'RWYFYYLGTGPEAGLPYGA_YNYLYRLFRKSNLKPFERD'
p11
g3
(g5
S'\xec\xa1\xa7\xfb\x9b\xec\xee?'
tRp12
tp13
a(S'RWYFYYLGTGPEAGLPYGA_SNCVADYSVLYNSASFSTF'
p14
g3
(g5
S'Yv\xbc\xd8\x1f\xec\xee?'
tRp15
tp16
a(S'FNPETNILLNVPLHGTILT_RWYFYYLGTGPEAGLPYGA'
p17
g3
(g5
S'\x13\x97\x99}\x19\xec\xee?'
tRp18
tp19
a(S'DQVILLNKHIDAYKTFPPT_RWYFYYLGTGPEAGLPYGA'
p20
g3
(g5
S'\x11\x97\x99}\x19\xec\xee?'
tRp21
tp22
a(S'RVAGDSGFAAYSRYRIGNY_RWYFYYLGTGPEAGLPYGA'
p23
g3
(g5
S'\x10\x97\x99}\x19\xec\xee?'
tRp24
tp25
a(S'LPDDFTGCVIAWNSNNLDS_RWYFYYLGTGPEAGLPYGA'
p26
g3
(g5
S'\x10\x97\x99}\x19\xec\xee?'
tRp27
tp28
a(S'HQPYVVDDPCPIHFYSKWYI_RWYFYYLGTGPEAGLPYGA'
p29
g3
(g5
S'\x10\x97\x99}\x19\xec\xee?'
tRp30
tp31
a(S'DYIINLIIKNLSKSLTENK_RWYFYYLGTGPEAGLPYGA'
p32
g3
(g5
S'\x10\x97\x99}\x19\xec\xee?'
tRp33
tp34
a.