(lp1
(S'FCTQLNRALTGIAVEQDKN_IITLKKRWQLALSKGVHFV_PSDFVRATATIPIQASLPF_RWYFYYLGTGPEAGLPYGA_TYTGAIKLDDKDPNFKDQV_VTQQLIRAAEIRASANLAA'
p2
cnumpy.core.multiarray
scalar
p3
(cnumpy
dtype
p4
(S'f8'
I0
I1
tRp5
(I3
S'<'
NNNI-1
I-1
I0
tbS'#i9P\xef\x9f\xed?'
tRp6
tp7
a(S'FCTQLNRALTGIAVEQDKN_IITLKKRWQLALSKGVHFV_PSDFVRATATIPIQASLPF_RWYFYYLGTGPEAGLPYGA_TAPAICHDGKAHFPREGVF_VTQQLIRAAEIRASANLAA'
p8
g6
tp9
a(S'FCTQLNRALTGIAVEQDKN_HQPYVVDDPCPIHFYSKWYI_IITLKKRWQLALSKGVHFV_PSDFVRATATIPIQASLPF_RWYFYYLGTGPEAGLPYGA_VTQQLIRAAEIRASANLAA'
p10
g3
(g5
S' i9P\xef\x9f\xed?'
tRp11
tp12
a(S'FCTQLNRALTGIAVEQDKN_GAISSVLNDILSRLDKVEA_IITLKKRWQLALSKGVHFV_PSDFVRATATIPIQASLPF_RWYFYYLGTGPEAGLPYGA_VTQQLIRAAEIRASANLAA'
p13
g3
(g5
S' i9P\xef\x9f\xed?'
tRp14
tp15
a(S'FCTQLNRALTGIAVEQDKN_IITLKKRWQLALSKGVHFV_NGGDAALALLLLDRLNQLE_PSDFVRATATIPIQASLPF_RWYFYYLGTGPEAGLPYGA_VTQQLIRAAEIRASANLAA'
p16
g3
(g5
S'\x1bi9P\xef\x9f\xed?'
tRp17
tp18
a(S'FCTQLNRALTGIAVEQDKN_IITLKKRWQLALSKGVHFV_PKEITVATSRTLSYYKLGA_PSDFVRATATIPIQASLPF_RWYFYYLGTGPEAGLPYGA_VTQQLIRAAEIRASANLAA'
p19
g3
(g5
S'\x18i9P\xef\x9f\xed?'
tRp20
tp21
a(S'FCTQLNRALTGIAVEQDKN_IITLKKRWQLALSKGVHFV_PSDFVRATATIPIQASLPF_RWYFYYLGTGPEAGLPYGA_VEAEVQIDRLITGRLQSLQ_VTQQLIRAAEIRASANLAA'
p22
g3
(g5
S'\x15i9P\xef\x9f\xed?'
tRp23
tp24
a(S'HQPYVVDDPCPIHFYSKWYI_IITLKKRWQLALSKGVHFV_PSDFVRATATIPIQASLPF_RWYFYYLGTGPEAGLPYGA_VTQQLIRAAEIRASANLAA_YNYLYRLFRKSNLKPFERD'
p25
g3
(g5
S'\xff*slI\x9c\xed?'
tRp26
tp27
a(S'IITLKKRWQLALSKGVHFV_PSDFVRATATIPIQASLPF_RWYFYYLGTGPEAGLPYGA_TYTGAIKLDDKDPNFKDQV_VTQQLIRAAEIRASANLAA_YNYLYRLFRKSNLKPFERD'
p28
g3
(g5
S'\xfd*slI\x9c\xed?'
tRp29
tp30
a(S'IITLKKRWQLALSKGVHFV_PSDFVRATATIPIQASLPF_RWYFYYLGTGPEAGLPYGA_TAPAICHDGKAHFPREGVF_VTQQLIRAAEIRASANLAA_YNYLYRLFRKSNLKPFERD'
p31
g29
tp32
a.