(lp1
(S'FCTQLNRALTGIAVEQDKN_IITLKKRWQLALSKGVHFV_PSDFVRATATIPIQASLPF_RWYFYYLGTGPEAGLPYGA_VTQQLIRAAEIRASANLAA'
p2
cnumpy.core.multiarray
scalar
p3
(cnumpy
dtype
p4
(S'f8'
I0
I1
tRp5
(I3
S'<'
NNNI-1
I-1
I0
tbS'\x9b\x96\xdd\xe8+W\xed?'
tRp6
tp7
a(S'IITLKKRWQLALSKGVHFV_PSDFVRATATIPIQASLPF_RWYFYYLGTGPEAGLPYGA_VTQQLIRAAEIRASANLAA_YNYLYRLFRKSNLKPFERD'
p8
g3
(g5
S'8&\x99o\x83P\xed?'
tRp9
tp10
a(S'IITLKKRWQLALSKGVHFV_PSDFVRATATIPIQASLPF_RWYFYYLGTGPEAGLPYGA_VTQQLIRAAEIRASANLAA_YSHLLLVAAGLEAPFLYLY'
p11
g3
(g5
S'\rM\xf0B/N\xed?'
tRp12
tp13
a(S'IITLKKRWQLALSKGVHFV_PSDFVRATATIPIQASLPF_RWYFYYLGTGPEAGLPYGA_SNCVADYSVLYNSASFSTF_VTQQLIRAAEIRASANLAA'
p14
g3
(g5
S'\xd0(\xbd\xa8\x98M\xed?'
tRp15
tp16
a(S'IITLKKRWQLALSKGVHFV_IQDSLSSTASALGKLQDVV_PSDFVRATATIPIQASLPF_RWYFYYLGTGPEAGLPYGA_VTQQLIRAAEIRASANLAA'
p17
g3
(g5
S'W\x0e\xaf"xM\xed?'
tRp18
tp19
a(S'DHIGTRNPANNAAIVLQLP_IITLKKRWQLALSKGVHFV_PSDFVRATATIPIQASLPF_RWYFYYLGTGPEAGLPYGA_VTQQLIRAAEIRASANLAA'
p20
g3
(g5
S'W\x0e\xaf"xM\xed?'
tRp21
tp22
a(S'ANNAAIVLQLPQGTTLPKG_IITLKKRWQLALSKGVHFV_PSDFVRATATIPIQASLPF_RWYFYYLGTGPEAGLPYGA_VTQQLIRAAEIRASANLAA'
p23
g3
(g5
S'U\x0e\xaf"xM\xed?'
tRp24
tp25
a(S'IITLKKRWQLALSKGVHFV_QTNSPRRARSVASQSIIAY_RWYFYYLGTGPEAGLPYGA_TITSGWTFGAGAALQIPFA_VTQQLIRAAEIRASANLAA'
p26
g3
(g5
S'P\x0e\xaf"xM\xed?'
tRp27
tp28
a(S'IITLKKRWQLALSKGVHFV_QTNSPRRARSVASQSIIAY_RWYFYYLGTGPEAGLPYGA_SRTLSYYKLGASQRVAGDS_VTQQLIRAAEIRASANLAA'
p29
g3
(g5
S'M\x0e\xaf"xM\xed?'
tRp30
tp31
a(S'IITLKKRWQLALSKGVHFV_PSDFVRATATIPIQASLPF_QTNSPRRARSVASQSIIAY_RWYFYYLGTGPEAGLPYGA_VTQQLIRAAEIRASANLAA'
p32
g3
(g5
S'I\x0e\xaf"xM\xed?'
tRp33
tp34
a.