(lp1
(S'DQVILLNKHIDAYKTFPPT_GAGAALQIPFAMQMAYRFN_HQPYVVDDPCPIHFYSKWYI_IITLKKRWQLALSKGVHFV_NATRFASVYAWNRKRISNC_NGGDAALALLLLDRLNQLE_PRQKRTATKAYNVTQAFGR_PSDFVRATATIPIQASLPF_QTNSPRRARSVASQSIIAY_RWYFYYLGTGPEAGLPYGA_SRTLSYYKLGASQRVAGDS_SYFTSDYYQLYSTQLSTDT_TAPAICHDGKAHFPREGVF_TITSGWTFGAGAALQIPFA_TYTGAIKLDDKDPNFKDQV_VKDCVVLHSYFTSDYYQLY_VTQQLIRAAEIRASANLAA_YNYLYRLFRKSNLKPFERD'
p2
cnumpy.core.multiarray
scalar
p3
(cnumpy
dtype
p4
(S'f8'
I0
I1
tRp5
(I3
S'<'
NNNI-1
I-1
I0
tbS'\x9fHH\xf4\xbb\xc5\xec?'
tRp6
tp7
a(S'DQVILLNKHIDAYKTFPPT_GAGAALQIPFAMQMAYRFN_GAISSVLNDILSRLDKVEA_IITLKKRWQLALSKGVHFV_NATRFASVYAWNRKRISNC_NGGDAALALLLLDRLNQLE_PRQKRTATKAYNVTQAFGR_PSDFVRATATIPIQASLPF_QTNSPRRARSVASQSIIAY_RWYFYYLGTGPEAGLPYGA_SRTLSYYKLGASQRVAGDS_SYFTSDYYQLYSTQLSTDT_TAPAICHDGKAHFPREGVF_TITSGWTFGAGAALQIPFA_TYTGAIKLDDKDPNFKDQV_VKDCVVLHSYFTSDYYQLY_VTQQLIRAAEIRASANLAA_YNYLYRLFRKSNLKPFERD'
p8
g3
(g5
S'\x9dHH\xf4\xbb\xc5\xec?'
tRp9
tp10
a(S'DQVILLNKHIDAYKTFPPT_GAGAALQIPFAMQMAYRFN_GAISSVLNDILSRLDKVEA_HQPYVVDDPCPIHFYSKWYI_IITLKKRWQLALSKGVHFV_NATRFASVYAWNRKRISNC_NGGDAALALLLLDRLNQLE_PRQKRTATKAYNVTQAFGR_PSDFVRATATIPIQASLPF_QTNSPRRARSVASQSIIAY_RWYFYYLGTGPEAGLPYGA_SRTLSYYKLGASQRVAGDS_SYFTSDYYQLYSTQLSTDT_TITSGWTFGAGAALQIPFA_TYTGAIKLDDKDPNFKDQV_VKDCVVLHSYFTSDYYQLY_VTQQLIRAAEIRASANLAA_YNYLYRLFRKSNLKPFERD'
p11
g3
(g5
S'\x9dHH\xf4\xbb\xc5\xec?'
tRp12
tp13
a(S'DQVILLNKHIDAYKTFPPT_GAGAALQIPFAMQMAYRFN_GAISSVLNDILSRLDKVEA_HQPYVVDDPCPIHFYSKWYI_IITLKKRWQLALSKGVHFV_NATRFASVYAWNRKRISNC_NGGDAALALLLLDRLNQLE_PRQKRTATKAYNVTQAFGR_PSDFVRATATIPIQASLPF_QTNSPRRARSVASQSIIAY_RWYFYYLGTGPEAGLPYGA_SRTLSYYKLGASQRVAGDS_SYFTSDYYQLYSTQLSTDT_TAPAICHDGKAHFPREGVF_TITSGWTFGAGAALQIPFA_VKDCVVLHSYFTSDYYQLY_VTQQLIRAAEIRASANLAA_YNYLYRLFRKSNLKPFERD'
p14
g3
(g5
S'\x9dHH\xf4\xbb\xc5\xec?'
tRp15
tp16
a(S'DQVILLNKHIDAYKTFPPT_GAGAALQIPFAMQMAYRFN_HQPYVVDDPCPIHFYSKWYI_IITLKKRWQLALSKGVHFV_MDLFMRIFTIGTVTLKQGE_NATRFASVYAWNRKRISNC_NGGDAALALLLLDRLNQLE_PSDFVRATATIPIQASLPF_QTNSPRRARSVASQSIIAY_RWYFYYLGTGPEAGLPYGA_SRTLSYYKLGASQRVAGDS_SYFTSDYYQLYSTQLSTDT_TAPAICHDGKAHFPREGVF_TITSGWTFGAGAALQIPFA_TYTGAIKLDDKDPNFKDQV_VKDCVVLHSYFTSDYYQLY_VTQQLIRAAEIRASANLAA_YNYLYRLFRKSNLKPFERD'
p17
g3
(g5
S'\x9cHH\xf4\xbb\xc5\xec?'
tRp18
tp19
a(S'DQVILLNKHIDAYKTFPPT_GAGAALQIPFAMQMAYRFN_HQPYVVDDPCPIHFYSKWYI_IITLKKRWQLALSKGVHFV_MDLFMRIFTIGTVTLKQGE_NATRFASVYAWNRKRISNC_NGGDAALALLLLDRLNQLE_PRQKRTATKAYNVTQAFGR_PSDFVRATATIPIQASLPF_RWYFYYLGTGPEAGLPYGA_SRTLSYYKLGASQRVAGDS_SYFTSDYYQLYSTQLSTDT_TAPAICHDGKAHFPREGVF_TITSGWTFGAGAALQIPFA_TYTGAIKLDDKDPNFKDQV_VKDCVVLHSYFTSDYYQLY_VTQQLIRAAEIRASANLAA_YNYLYRLFRKSNLKPFERD'
p20
g3
(g5
S'\x9cHH\xf4\xbb\xc5\xec?'
tRp21
tp22
a(S'DQVILLNKHIDAYKTFPPT_GAGAALQIPFAMQMAYRFN_IITLKKRWQLALSKGVHFV_NATRFASVYAWNRKRISNC_NGGDAALALLLLDRLNQLE_PRQKRTATKAYNVTQAFGR_PSDFVRATATIPIQASLPF_QTNSPRRARSVASQSIIAY_RWYFYYLGTGPEAGLPYGA_SRTLSYYKLGASQRVAGDS_SYFTSDYYQLYSTQLSTDT_TAPAICHDGKAHFPREGVF_TITSGWTFGAGAALQIPFA_TYTGAIKLDDKDPNFKDQV_VEAEVQIDRLITGRLQSLQ_VKDCVVLHSYFTSDYYQLY_VTQQLIRAAEIRASANLAA_YNYLYRLFRKSNLKPFERD'
p23
g3
(g5
S'\x9bHH\xf4\xbb\xc5\xec?'
tRp24
tp25
a(S'DQVILLNKHIDAYKTFPPT_GAGAALQIPFAMQMAYRFN_HQPYVVDDPCPIHFYSKWYI_IITLKKRWQLALSKGVHFV_NATRFASVYAWNRKRISNC_NGGDAALALLLLDRLNQLE_PRQKRTATKAYNVTQAFGR_PSDFVRATATIPIQASLPF_QTNSPRRARSVASQSIIAY_RWYFYYLGTGPEAGLPYGA_SRTLSYYKLGASQRVAGDS_SYFTSDYYQLYSTQLSTDT_TITSGWTFGAGAALQIPFA_TYTGAIKLDDKDPNFKDQV_VEAEVQIDRLITGRLQSLQ_VKDCVVLHSYFTSDYYQLY_VTQQLIRAAEIRASANLAA_YNYLYRLFRKSNLKPFERD'
p26
g3
(g5
S'\x99HH\xf4\xbb\xc5\xec?'
tRp27
tp28
a(S'DQVILLNKHIDAYKTFPPT_GAGAALQIPFAMQMAYRFN_GAISSVLNDILSRLDKVEA_HQPYVVDDPCPIHFYSKWYI_IITLKKRWQLALSKGVHFV_MDLFMRIFTIGTVTLKQGE_NATRFASVYAWNRKRISNC_NGGDAALALLLLDRLNQLE_PRQKRTATKAYNVTQAFGR_PSDFVRATATIPIQASLPF_RWYFYYLGTGPEAGLPYGA_SRTLSYYKLGASQRVAGDS_SYFTSDYYQLYSTQLSTDT_TITSGWTFGAGAALQIPFA_TYTGAIKLDDKDPNFKDQV_VKDCVVLHSYFTSDYYQLY_VTQQLIRAAEIRASANLAA_YNYLYRLFRKSNLKPFERD'
p29
g3
(g5
S'\x99HH\xf4\xbb\xc5\xec?'
tRp30
tp31
a(S'DQVILLNKHIDAYKTFPPT_GAGAALQIPFAMQMAYRFN_GAISSVLNDILSRLDKVEA_HQPYVVDDPCPIHFYSKWYI_IITLKKRWQLALSKGVHFV_MDLFMRIFTIGTVTLKQGE_NATRFASVYAWNRKRISNC_NGGDAALALLLLDRLNQLE_PRQKRTATKAYNVTQAFGR_PSDFVRATATIPIQASLPF_RWYFYYLGTGPEAGLPYGA_SRTLSYYKLGASQRVAGDS_SYFTSDYYQLYSTQLSTDT_TAPAICHDGKAHFPREGVF_TITSGWTFGAGAALQIPFA_VKDCVVLHSYFTSDYYQLY_VTQQLIRAAEIRASANLAA_YNYLYRLFRKSNLKPFERD'
p32
g3
(g5
S'\x99HH\xf4\xbb\xc5\xec?'
tRp33
tp34
a.