(lp1
(S'AEIRASANLAATKMSECVL_ANNAAIVLQLPQGTTLPKG_AVFQSASKIITLKKRWQLA_AYANRNRFLYIIKLIFLWL_DDKDPNFKDQVILLNKHID_DFGGFNFSQILPDPSKPSK_DGVKHVYQLRARSVSPKLFI_DHIGTRNPANNAAIVLQLP_DKNTQEVFAQVKQIYKTPP_DLLFNKVTLADAGFIKQYG_DNKFALTCFSTQFAFACPDG_DQVILLNKHIDAYKTFPPT_EHVTFFIYNKIVDEPEEHV_ENQKLIANQFNSAIGKIQD_EQYIKWPWYIWLGFIAGLI_FCTQLNRALTGIAVEQDKN_FNCYFPLQSYGFQPTNGVG_FNPETNILLNVPLHGTILT_FPFTIYSLLLCRMNSRNYI_FTVEKGIYQTSNFRVQPTE_GAGAALQIPFAMQMAYRFN_GAISSVLNDILSRLDKVEA_GKMKDLSPRWYFYYLGTGP_GNSPFHPLADNKFALTCFST_GVFVSNGTHWFVTQRNFYE_GVGYQPYRVVVLSFELLHA_HLMSFPQSAPHGVVFLHVT_HQPYVVDDPCPIHFYSKWYI_IHADQLTPTWRVYSTGSNV_IIMRLWLCWKCRSKNPLLY_IIMRTFKVSIWNLDYIINL_IITLKKRWQLALSKGVHFV_IQDSLSSTASALGKLQDVV_LDSKVGGNYNYLYRLFRKS_LICAQKFNGLTVLPPLLTD_LNVPLHGTILTRPLLESEL_LTDEMIAQYTSALLAGTIT_MAYRFNGIGVTQNVLYENQ_MDLFMRIFTIGTVTLKQGE_MWLSYFIASFRLFARTRSM_NAQALNTLVKQLSSNFGAI_NATRFASVYAWNRKRISNC_NGGDAALALLLLDRLNQLE_PKEITVATSRTLSYYKLGA_PNNTASWFTALTQHGKEDL_PRQKRTATKAYNVTQAFGR_PSDFVRATATIPIQASLPF_PSFYVYSRVKNLNSSRVPDLLV_PSKRSFIEDLLFNKVTLAD_QTNSPRRARSVASQSIIAY_RCSFYEDFLEYHDVRVVLDFI_RLITGRLQSLQTYVTQQLI_RQKKQQTVTLLPAADLDDF_RWYFYYLGTGPEAGLPYGA_SELVIGAVILRGHLRIAGH_SFRLFARTRSMWSFNPETN_SNCVADYSVLYNSASFSTF_SNKKFLPFQQFGRDIADTT_SRTLSYYKLGASQRVAGDS_SSPDDQIGYYRRATRRIRG_STGSNVFQTRAGCLIGAEH_SYFTSDYYQLYSTQLSTDT_TAPAICHDGKAHFPREGVF_TITSGWTFGAGAALQIPFA_TVEELKKLLEQWNLVIGFL_TYTGAIKLDDKDPNFKDQV_VDFCGKGYHLMSFPQSAPH_VEAEVQIDRLITGRLQSLQ_VFLHVTYVPAQEKNFTTAP_VKDCVVLHSYFTSDYYQLY_VKQLSSNFGAISSVLNDIL_VTQQLIRAAEIRASANLAA_VVVLSFELLHAPATVCGPK_YGANKDGIIWVATEGALNT_YLYALVYFLQSINFVRIIM_YNYLYRLFRKSNLKPFERD_YSHLLLVAAGLEAPFLYLY_YSKWYIRVGARKSAPLIELC'
p2
cnumpy.core.multiarray
scalar
p3
(cnumpy
dtype
p4
(S'f8'
I0
I1
tRp5
(I3
S'<'
NNNI-1
I-1
I0
tbS'\xe7\xb7\x00\xaa\xe3\xe2\xe5?'
tRp6
tp7
a(S'AEIRASANLAATKMSECVL_ANNAAIVLQLPQGTTLPKG_AVFQSASKIITLKKRWQLA_AYANRNRFLYIIKLIFLWL_DDKDPNFKDQVILLNKHID_DFGGFNFSQILPDPSKPSK_DGVKHVYQLRARSVSPKLFI_DHIGTRNPANNAAIVLQLP_DKNTQEVFAQVKQIYKTPP_DLLFNKVTLADAGFIKQYG_DNKFALTCFSTQFAFACPDG_DQVILLNKHIDAYKTFPPT_EHVTFFIYNKIVDEPEEHV_ENQKLIANQFNSAIGKIQD_EQYIKWPWYIWLGFIAGLI_FCTQLNRALTGIAVEQDKN_FNCYFPLQSYGFQPTNGVG_FNPETNILLNVPLHGTILT_FPFTIYSLLLCRMNSRNYI_FTVEKGIYQTSNFRVQPTE_GAGAALQIPFAMQMAYRFN_GAISSVLNDILSRLDKVEA_GKMKDLSPRWYFYYLGTGP_GNSPFHPLADNKFALTCFST_GVFVSNGTHWFVTQRNFYE_GVGYQPYRVVVLSFELLHA_HLMSFPQSAPHGVVFLHVT_HQPYVVDDPCPIHFYSKWYI_IHADQLTPTWRVYSTGSNV_IIMRLWLCWKCRSKNPLLY_IIMRTFKVSIWNLDYIINL_IITLKKRWQLALSKGVHFV_IQDSLSSTASALGKLQDVV_IVNVSLVKPSFYVYSRVKN_LDSKVGGNYNYLYRLFRKS_LICAQKFNGLTVLPPLLTD_LNVPLHGTILTRPLLESEL_LTDEMIAQYTSALLAGTIT_MAYRFNGIGVTQNVLYENQ_MDLFMRIFTIGTVTLKQGE_MWLSYFIASFRLFARTRSM_NAQALNTLVKQLSSNFGAI_NATRFASVYAWNRKRISNC_NGGDAALALLLLDRLNQLE_PKEITVATSRTLSYYKLGA_PNNTASWFTALTQHGKEDL_PRQKRTATKAYNVTQAFGR_PSDFVRATATIPIQASLPF_PSKRSFIEDLLFNKVTLAD_QTNSPRRARSVASQSIIAY_RCSFYEDFLEYHDVRVVLDFI_RLITGRLQSLQTYVTQQLI_RQKKQQTVTLLPAADLDDF_RWYFYYLGTGPEAGLPYGA_SELVIGAVILRGHLRIAGH_SFRLFARTRSMWSFNPETN_SNCVADYSVLYNSASFSTF_SNKKFLPFQQFGRDIADTT_SRTLSYYKLGASQRVAGDS_SSPDDQIGYYRRATRRIRG_STGSNVFQTRAGCLIGAEH_SYFTSDYYQLYSTQLSTDT_TAPAICHDGKAHFPREGVF_TITSGWTFGAGAALQIPFA_TVEELKKLLEQWNLVIGFL_TYTGAIKLDDKDPNFKDQV_VDFCGKGYHLMSFPQSAPH_VEAEVQIDRLITGRLQSLQ_VFLHVTYVPAQEKNFTTAP_VKDCVVLHSYFTSDYYQLY_VKQLSSNFGAISSVLNDIL_VTQQLIRAAEIRASANLAA_VVVLSFELLHAPATVCGPK_YGANKDGIIWVATEGALNT_YLYALVYFLQSINFVRIIM_YNYLYRLFRKSNLKPFERD_YSHLLLVAAGLEAPFLYLY_YSKWYIRVGARKSAPLIELC'
p8
g3
(g5
S'\xe7\xb7\x00\xaa\xe3\xe2\xe5?'
tRp9
tp10
a(S'AEIRASANLAATKMSECVL_ANNAAIVLQLPQGTTLPKG_AVFQSASKIITLKKRWQLA_AYANRNRFLYIIKLIFLWL_DDKDPNFKDQVILLNKHID_DFGGFNFSQILPDPSKPSK_DGVKHVYQLRARSVSPKLFI_DHIGTRNPANNAAIVLQLP_DKNTQEVFAQVKQIYKTPP_DLLFNKVTLADAGFIKQYG_DNKFALTCFSTQFAFACPDG_DQVILLNKHIDAYKTFPPT_EHVTFFIYNKIVDEPEEHV_ENQKLIANQFNSAIGKIQD_EQYIKWPWYIWLGFIAGLI_FCTQLNRALTGIAVEQDKN_FNCYFPLQSYGFQPTNGVG_FNPETNILLNVPLHGTILT_FPFTIYSLLLCRMNSRNYI_FTVEKGIYQTSNFRVQPTE_GAGAALQIPFAMQMAYRFN_GAISSVLNDILSRLDKVEA_GKMKDLSPRWYFYYLGTGP_GNSPFHPLADNKFALTCFST_GVFVSNGTHWFVTQRNFYE_GVGYQPYRVVVLSFELLHA_HLMSFPQSAPHGVVFLHVT_HQPYVVDDPCPIHFYSKWYI_IHADQLTPTWRVYSTGSNV_IIMRLWLCWKCRSKNPLLY_IIMRTFKVSIWNLDYIINL_IITLKKRWQLALSKGVHFV_ILTRPLLESELVIGAVILR_IQDSLSSTASALGKLQDVV_LDSKVGGNYNYLYRLFRKS_LICAQKFNGLTVLPPLLTD_LNVPLHGTILTRPLLESEL_LTDEMIAQYTSALLAGTIT_MAYRFNGIGVTQNVLYENQ_MDLFMRIFTIGTVTLKQGE_MWLSYFIASFRLFARTRSM_NAQALNTLVKQLSSNFGAI_NATRFASVYAWNRKRISNC_NGGDAALALLLLDRLNQLE_PKEITVATSRTLSYYKLGA_PNNTASWFTALTQHGKEDL_PRQKRTATKAYNVTQAFGR_PSDFVRATATIPIQASLPF_PSFYVYSRVKNLNSSRVPDLLV_PSKRSFIEDLLFNKVTLAD_QTNSPRRARSVASQSIIAY_RCSFYEDFLEYHDVRVVLDFI_RLITGRLQSLQTYVTQQLI_RQKKQQTVTLLPAADLDDF_RWYFYYLGTGPEAGLPYGA_SELVIGAVILRGHLRIAGH_SFRLFARTRSMWSFNPETN_SNCVADYSVLYNSASFSTF_SNKKFLPFQQFGRDIADTT_SRTLSYYKLGASQRVAGDS_SSPDDQIGYYRRATRRIRG_STGSNVFQTRAGCLIGAEH_SYFTSDYYQLYSTQLSTDT_TAPAICHDGKAHFPREGVF_TITSGWTFGAGAALQIPFA_TYTGAIKLDDKDPNFKDQV_VDFCGKGYHLMSFPQSAPH_VEAEVQIDRLITGRLQSLQ_VFLHVTYVPAQEKNFTTAP_VKDCVVLHSYFTSDYYQLY_VKQLSSNFGAISSVLNDIL_VTQQLIRAAEIRASANLAA_VVVLSFELLHAPATVCGPK_YGANKDGIIWVATEGALNT_YLYALVYFLQSINFVRIIM_YNYLYRLFRKSNLKPFERD_YSHLLLVAAGLEAPFLYLY_YSKWYIRVGARKSAPLIELC'
p11
g3
(g5
S'\xe7\xb7\x00\xaa\xe3\xe2\xe5?'
tRp12
tp13
a(S'AEIRASANLAATKMSECVL_ANNAAIVLQLPQGTTLPKG_AVFQSASKIITLKKRWQLA_AYANRNRFLYIIKLIFLWL_DDKDPNFKDQVILLNKHID_DFGGFNFSQILPDPSKPSK_DGVKHVYQLRARSVSPKLFI_DHIGTRNPANNAAIVLQLP_DKNTQEVFAQVKQIYKTPP_DLLFNKVTLADAGFIKQYG_DNKFALTCFSTQFAFACPDG_DQVILLNKHIDAYKTFPPT_EHVTFFIYNKIVDEPEEHV_ENQKLIANQFNSAIGKIQD_EQYIKWPWYIWLGFIAGLI_FCTQLNRALTGIAVEQDKN_FNCYFPLQSYGFQPTNGVG_FNPETNILLNVPLHGTILT_FPFTIYSLLLCRMNSRNYI_FTVEKGIYQTSNFRVQPTE_GAGAALQIPFAMQMAYRFN_GAISSVLNDILSRLDKVEA_GKMKDLSPRWYFYYLGTGP_GNSPFHPLADNKFALTCFST_GVFVSNGTHWFVTQRNFYE_GVGYQPYRVVVLSFELLHA_HLMSFPQSAPHGVVFLHVT_HQPYVVDDPCPIHFYSKWYI_IHADQLTPTWRVYSTGSNV_IIMRLWLCWKCRSKNPLLY_IIMRTFKVSIWNLDYIINL_IITLKKRWQLALSKGVHFV_ILTRPLLESELVIGAVILR_IQDSLSSTASALGKLQDVV_IVNVSLVKPSFYVYSRVKN_LDSKVGGNYNYLYRLFRKS_LICAQKFNGLTVLPPLLTD_LTDEMIAQYTSALLAGTIT_MAYRFNGIGVTQNVLYENQ_MDLFMRIFTIGTVTLKQGE_MWLSYFIASFRLFARTRSM_NAQALNTLVKQLSSNFGAI_NATRFASVYAWNRKRISNC_NGGDAALALLLLDRLNQLE_PKEITVATSRTLSYYKLGA_PNNTASWFTALTQHGKEDL_PRQKRTATKAYNVTQAFGR_PSDFVRATATIPIQASLPF_PSKRSFIEDLLFNKVTLAD_QTNSPRRARSVASQSIIAY_RCSFYEDFLEYHDVRVVLDFI_RLITGRLQSLQTYVTQQLI_RQKKQQTVTLLPAADLDDF_RWYFYYLGTGPEAGLPYGA_SELVIGAVILRGHLRIAGH_SFRLFARTRSMWSFNPETN_SNCVADYSVLYNSASFSTF_SNKKFLPFQQFGRDIADTT_SRTLSYYKLGASQRVAGDS_SSPDDQIGYYRRATRRIRG_STGSNVFQTRAGCLIGAEH_SYFTSDYYQLYSTQLSTDT_TAPAICHDGKAHFPREGVF_TITSGWTFGAGAALQIPFA_TVEELKKLLEQWNLVIGFL_TYTGAIKLDDKDPNFKDQV_VDFCGKGYHLMSFPQSAPH_VEAEVQIDRLITGRLQSLQ_VFLHVTYVPAQEKNFTTAP_VKDCVVLHSYFTSDYYQLY_VKQLSSNFGAISSVLNDIL_VTQQLIRAAEIRASANLAA_VVVLSFELLHAPATVCGPK_YGANKDGIIWVATEGALNT_YLYALVYFLQSINFVRIIM_YNYLYRLFRKSNLKPFERD_YSHLLLVAAGLEAPFLYLY_YSKWYIRVGARKSAPLIELC'
p14
g3
(g5
S'\xe7\xb7\x00\xaa\xe3\xe2\xe5?'
tRp15
tp16
a(S'AEIRASANLAATKMSECVL_ANNAAIVLQLPQGTTLPKG_AVFQSASKIITLKKRWQLA_AYANRNRFLYIIKLIFLWL_DDKDPNFKDQVILLNKHID_DFGGFNFSQILPDPSKPSK_DGVKHVYQLRARSVSPKLFI_DHIGTRNPANNAAIVLQLP_DKNTQEVFAQVKQIYKTPP_DLLFNKVTLADAGFIKQYG_DNKFALTCFSTQFAFACPDG_DQVILLNKHIDAYKTFPPT_EHVTFFIYNKIVDEPEEHV_ENQKLIANQFNSAIGKIQD_EQYIKWPWYIWLGFIAGLI_FCTQLNRALTGIAVEQDKN_FNCYFPLQSYGFQPTNGVG_FNPETNILLNVPLHGTILT_FPFTIYSLLLCRMNSRNYI_FTVEKGIYQTSNFRVQPTE_GAGAALQIPFAMQMAYRFN_GAISSVLNDILSRLDKVEA_GKMKDLSPRWYFYYLGTGP_GNSPFHPLADNKFALTCFST_GVFVSNGTHWFVTQRNFYE_GVGYQPYRVVVLSFELLHA_HLMSFPQSAPHGVVFLHVT_HQPYVVDDPCPIHFYSKWYI_IHADQLTPTWRVYSTGSNV_IIMRLWLCWKCRSKNPLLY_IIMRTFKVSIWNLDYIINL_IITLKKRWQLALSKGVHFV_ILTRPLLESELVIGAVILR_IQDSLSSTASALGKLQDVV_IVNVSLVKPSFYVYSRVKN_LDSKVGGNYNYLYRLFRKS_LICAQKFNGLTVLPPLLTD_LNVPLHGTILTRPLLESEL_LTDEMIAQYTSALLAGTIT_MAYRFNGIGVTQNVLYENQ_MDLFMRIFTIGTVTLKQGE_MWLSYFIASFRLFARTRSM_NAQALNTLVKQLSSNFGAI_NATRFASVYAWNRKRISNC_NGGDAALALLLLDRLNQLE_PKEITVATSRTLSYYKLGA_PNNTASWFTALTQHGKEDL_PRQKRTATKAYNVTQAFGR_PSDFVRATATIPIQASLPF_PSKRSFIEDLLFNKVTLAD_QTNSPRRARSVASQSIIAY_RCSFYEDFLEYHDVRVVLDFI_RLITGRLQSLQTYVTQQLI_RQKKQQTVTLLPAADLDDF_RWYFYYLGTGPEAGLPYGA_SELVIGAVILRGHLRIAGH_SFRLFARTRSMWSFNPETN_SNCVADYSVLYNSASFSTF_SNKKFLPFQQFGRDIADTT_SRTLSYYKLGASQRVAGDS_SSPDDQIGYYRRATRRIRG_STGSNVFQTRAGCLIGAEH_SYFTSDYYQLYSTQLSTDT_TAPAICHDGKAHFPREGVF_TITSGWTFGAGAALQIPFA_TYTGAIKLDDKDPNFKDQV_VDFCGKGYHLMSFPQSAPH_VEAEVQIDRLITGRLQSLQ_VFLHVTYVPAQEKNFTTAP_VKDCVVLHSYFTSDYYQLY_VKQLSSNFGAISSVLNDIL_VTQQLIRAAEIRASANLAA_VVVLSFELLHAPATVCGPK_YGANKDGIIWVATEGALNT_YLYALVYFLQSINFVRIIM_YNYLYRLFRKSNLKPFERD_YSHLLLVAAGLEAPFLYLY_YSKWYIRVGARKSAPLIELC'
p17
g3
(g5
S'\xe7\xb7\x00\xaa\xe3\xe2\xe5?'
tRp18
tp19
a(S'AEIRASANLAATKMSECVL_ANNAAIVLQLPQGTTLPKG_AVFQSASKIITLKKRWQLA_AYANRNRFLYIIKLIFLWL_DDKDPNFKDQVILLNKHID_DFGGFNFSQILPDPSKPSK_DGVKHVYQLRARSVSPKLFI_DHIGTRNPANNAAIVLQLP_DKNTQEVFAQVKQIYKTPP_DLLFNKVTLADAGFIKQYG_DNKFALTCFSTQFAFACPDG_DQVILLNKHIDAYKTFPPT_EHVTFFIYNKIVDEPEEHV_ENQKLIANQFNSAIGKIQD_EQYIKWPWYIWLGFIAGLI_FCTQLNRALTGIAVEQDKN_FNCYFPLQSYGFQPTNGVG_FNPETNILLNVPLHGTILT_FPFTIYSLLLCRMNSRNYI_FTVEKGIYQTSNFRVQPTE_GAGAALQIPFAMQMAYRFN_GAISSVLNDILSRLDKVEA_GFLFLTWICLLQFAYANRN_GKMKDLSPRWYFYYLGTGP_GNSPFHPLADNKFALTCFST_GVFVSNGTHWFVTQRNFYE_GVGYQPYRVVVLSFELLHA_HLMSFPQSAPHGVVFLHVT_HQPYVVDDPCPIHFYSKWYI_IHADQLTPTWRVYSTGSNV_IIMRLWLCWKCRSKNPLLY_IIMRTFKVSIWNLDYIINL_IITLKKRWQLALSKGVHFV_IQDSLSSTASALGKLQDVV_LDSKVGGNYNYLYRLFRKS_LICAQKFNGLTVLPPLLTD_LTDEMIAQYTSALLAGTIT_MAYRFNGIGVTQNVLYENQ_MDLFMRIFTIGTVTLKQGE_MWLSYFIASFRLFARTRSM_NAQALNTLVKQLSSNFGAI_NATRFASVYAWNRKRISNC_NGGDAALALLLLDRLNQLE_PKEITVATSRTLSYYKLGA_PNNTASWFTALTQHGKEDL_PRQKRTATKAYNVTQAFGR_PSDFVRATATIPIQASLPF_PSFYVYSRVKNLNSSRVPDLLV_PSKRSFIEDLLFNKVTLAD_QTNSPRRARSVASQSIIAY_RCSFYEDFLEYHDVRVVLDFI_RLITGRLQSLQTYVTQQLI_RQKKQQTVTLLPAADLDDF_RWYFYYLGTGPEAGLPYGA_SELVIGAVILRGHLRIAGH_SFRLFARTRSMWSFNPETN_SNCVADYSVLYNSASFSTF_SNKKFLPFQQFGRDIADTT_SRTLSYYKLGASQRVAGDS_SSPDDQIGYYRRATRRIRG_STGSNVFQTRAGCLIGAEH_SYFTSDYYQLYSTQLSTDT_TAPAICHDGKAHFPREGVF_TITSGWTFGAGAALQIPFA_TVEELKKLLEQWNLVIGFL_TYTGAIKLDDKDPNFKDQV_VDFCGKGYHLMSFPQSAPH_VEAEVQIDRLITGRLQSLQ_VFLHVTYVPAQEKNFTTAP_VKDCVVLHSYFTSDYYQLY_VKQLSSNFGAISSVLNDIL_VTQQLIRAAEIRASANLAA_VVVLSFELLHAPATVCGPK_YGANKDGIIWVATEGALNT_YLYALVYFLQSINFVRIIM_YNYLYRLFRKSNLKPFERD_YSHLLLVAAGLEAPFLYLY_YSKWYIRVGARKSAPLIELC'
p20
g6
tp21
a(S'AEIRASANLAATKMSECVL_ANNAAIVLQLPQGTTLPKG_AVFQSASKIITLKKRWQLA_AYANRNRFLYIIKLIFLWL_DDKDPNFKDQVILLNKHID_DFGGFNFSQILPDPSKPSK_DGVKHVYQLRARSVSPKLFI_DHIGTRNPANNAAIVLQLP_DKNTQEVFAQVKQIYKTPP_DLLFNKVTLADAGFIKQYG_DNKFALTCFSTQFAFACPDG_DQVILLNKHIDAYKTFPPT_EHVTFFIYNKIVDEPEEHV_ENQKLIANQFNSAIGKIQD_EQYIKWPWYIWLGFIAGLI_FCTQLNRALTGIAVEQDKN_FNCYFPLQSYGFQPTNGVG_FNPETNILLNVPLHGTILT_FPFTIYSLLLCRMNSRNYI_FTVEKGIYQTSNFRVQPTE_GAGAALQIPFAMQMAYRFN_GAISSVLNDILSRLDKVEA_GFLFLTWICLLQFAYANRN_GKMKDLSPRWYFYYLGTGP_GNSPFHPLADNKFALTCFST_GVFVSNGTHWFVTQRNFYE_GVGYQPYRVVVLSFELLHA_HLMSFPQSAPHGVVFLHVT_HQPYVVDDPCPIHFYSKWYI_IHADQLTPTWRVYSTGSNV_IIMRLWLCWKCRSKNPLLY_IIMRTFKVSIWNLDYIINL_IITLKKRWQLALSKGVHFV_IQDSLSSTASALGKLQDVV_IVNVSLVKPSFYVYSRVKN_LDSKVGGNYNYLYRLFRKS_LICAQKFNGLTVLPPLLTD_LTDEMIAQYTSALLAGTIT_MAYRFNGIGVTQNVLYENQ_MDLFMRIFTIGTVTLKQGE_MWLSYFIASFRLFARTRSM_NAQALNTLVKQLSSNFGAI_NATRFASVYAWNRKRISNC_NGGDAALALLLLDRLNQLE_PKEITVATSRTLSYYKLGA_PNNTASWFTALTQHGKEDL_PRQKRTATKAYNVTQAFGR_PSDFVRATATIPIQASLPF_PSKRSFIEDLLFNKVTLAD_QTNSPRRARSVASQSIIAY_RCSFYEDFLEYHDVRVVLDFI_RLITGRLQSLQTYVTQQLI_RQKKQQTVTLLPAADLDDF_RWYFYYLGTGPEAGLPYGA_SELVIGAVILRGHLRIAGH_SFRLFARTRSMWSFNPETN_SNCVADYSVLYNSASFSTF_SNKKFLPFQQFGRDIADTT_SRTLSYYKLGASQRVAGDS_SSPDDQIGYYRRATRRIRG_STGSNVFQTRAGCLIGAEH_SYFTSDYYQLYSTQLSTDT_TAPAICHDGKAHFPREGVF_TITSGWTFGAGAALQIPFA_TVEELKKLLEQWNLVIGFL_TYTGAIKLDDKDPNFKDQV_VDFCGKGYHLMSFPQSAPH_VEAEVQIDRLITGRLQSLQ_VFLHVTYVPAQEKNFTTAP_VKDCVVLHSYFTSDYYQLY_VKQLSSNFGAISSVLNDIL_VTQQLIRAAEIRASANLAA_VVVLSFELLHAPATVCGPK_YGANKDGIIWVATEGALNT_YLYALVYFLQSINFVRIIM_YNYLYRLFRKSNLKPFERD_YSHLLLVAAGLEAPFLYLY_YSKWYIRVGARKSAPLIELC'
p22
g15
tp23
a(S'AEIRASANLAATKMSECVL_ANNAAIVLQLPQGTTLPKG_AVFQSASKIITLKKRWQLA_AYANRNRFLYIIKLIFLWL_DDKDPNFKDQVILLNKHID_DFGGFNFSQILPDPSKPSK_DGVKHVYQLRARSVSPKLFI_DHIGTRNPANNAAIVLQLP_DKNTQEVFAQVKQIYKTPP_DLLFNKVTLADAGFIKQYG_DNKFALTCFSTQFAFACPDG_DQVILLNKHIDAYKTFPPT_EHVTFFIYNKIVDEPEEHV_ENQKLIANQFNSAIGKIQD_EQYIKWPWYIWLGFIAGLI_FCTQLNRALTGIAVEQDKN_FNCYFPLQSYGFQPTNGVG_FNPETNILLNVPLHGTILT_FPFTIYSLLLCRMNSRNYI_FTVEKGIYQTSNFRVQPTE_GAGAALQIPFAMQMAYRFN_GAISSVLNDILSRLDKVEA_GFLFLTWICLLQFAYANRN_GKMKDLSPRWYFYYLGTGP_GNSPFHPLADNKFALTCFST_GVFVSNGTHWFVTQRNFYE_GVGYQPYRVVVLSFELLHA_HLMSFPQSAPHGVVFLHVT_HQPYVVDDPCPIHFYSKWYI_IHADQLTPTWRVYSTGSNV_IIMRLWLCWKCRSKNPLLY_IIMRTFKVSIWNLDYIINL_IITLKKRWQLALSKGVHFV_IQDSLSSTASALGKLQDVV_IVNVSLVKPSFYVYSRVKN_LDSKVGGNYNYLYRLFRKS_LICAQKFNGLTVLPPLLTD_LNVPLHGTILTRPLLESEL_LTDEMIAQYTSALLAGTIT_MAYRFNGIGVTQNVLYENQ_MDLFMRIFTIGTVTLKQGE_MWLSYFIASFRLFARTRSM_NAQALNTLVKQLSSNFGAI_NATRFASVYAWNRKRISNC_NGGDAALALLLLDRLNQLE_PKEITVATSRTLSYYKLGA_PNNTASWFTALTQHGKEDL_PRQKRTATKAYNVTQAFGR_PSDFVRATATIPIQASLPF_PSKRSFIEDLLFNKVTLAD_QTNSPRRARSVASQSIIAY_RCSFYEDFLEYHDVRVVLDFI_RLITGRLQSLQTYVTQQLI_RQKKQQTVTLLPAADLDDF_RWYFYYLGTGPEAGLPYGA_SELVIGAVILRGHLRIAGH_SFRLFARTRSMWSFNPETN_SNCVADYSVLYNSASFSTF_SNKKFLPFQQFGRDIADTT_SRTLSYYKLGASQRVAGDS_SSPDDQIGYYRRATRRIRG_STGSNVFQTRAGCLIGAEH_SYFTSDYYQLYSTQLSTDT_TAPAICHDGKAHFPREGVF_TITSGWTFGAGAALQIPFA_TYTGAIKLDDKDPNFKDQV_VDFCGKGYHLMSFPQSAPH_VEAEVQIDRLITGRLQSLQ_VFLHVTYVPAQEKNFTTAP_VKDCVVLHSYFTSDYYQLY_VKQLSSNFGAISSVLNDIL_VTQQLIRAAEIRASANLAA_VVVLSFELLHAPATVCGPK_YGANKDGIIWVATEGALNT_YLYALVYFLQSINFVRIIM_YNYLYRLFRKSNLKPFERD_YSHLLLVAAGLEAPFLYLY_YSKWYIRVGARKSAPLIELC'
p24
g9
tp25
a(S'AEIRASANLAATKMSECVL_ANNAAIVLQLPQGTTLPKG_AVFQSASKIITLKKRWQLA_AYANRNRFLYIIKLIFLWL_DDKDPNFKDQVILLNKHID_DFGGFNFSQILPDPSKPSK_DGVKHVYQLRARSVSPKLFI_DHIGTRNPANNAAIVLQLP_DKNTQEVFAQVKQIYKTPP_DLLFNKVTLADAGFIKQYG_DNKFALTCFSTQFAFACPDG_DQVILLNKHIDAYKTFPPT_EHVTFFIYNKIVDEPEEHV_ENQKLIANQFNSAIGKIQD_EQYIKWPWYIWLGFIAGLI_FCTQLNRALTGIAVEQDKN_FNCYFPLQSYGFQPTNGVG_FNPETNILLNVPLHGTILT_FPFTIYSLLLCRMNSRNYI_FTVEKGIYQTSNFRVQPTE_GAGAALQIPFAMQMAYRFN_GAISSVLNDILSRLDKVEA_GFLFLTWICLLQFAYANRN_GKMKDLSPRWYFYYLGTGP_GNSPFHPLADNKFALTCFST_GVFVSNGTHWFVTQRNFYE_GVGYQPYRVVVLSFELLHA_HLMSFPQSAPHGVVFLHVT_HQPYVVDDPCPIHFYSKWYI_IHADQLTPTWRVYSTGSNV_IIMRLWLCWKCRSKNPLLY_IIMRTFKVSIWNLDYIINL_IITLKKRWQLALSKGVHFV_ILTRPLLESELVIGAVILR_IQDSLSSTASALGKLQDVV_LDSKVGGNYNYLYRLFRKS_LICAQKFNGLTVLPPLLTD_LTDEMIAQYTSALLAGTIT_MAYRFNGIGVTQNVLYENQ_MDLFMRIFTIGTVTLKQGE_MWLSYFIASFRLFARTRSM_NAQALNTLVKQLSSNFGAI_NATRFASVYAWNRKRISNC_NGGDAALALLLLDRLNQLE_PKEITVATSRTLSYYKLGA_PNNTASWFTALTQHGKEDL_PRQKRTATKAYNVTQAFGR_PSDFVRATATIPIQASLPF_PSFYVYSRVKNLNSSRVPDLLV_PSKRSFIEDLLFNKVTLAD_QTNSPRRARSVASQSIIAY_RCSFYEDFLEYHDVRVVLDFI_RLITGRLQSLQTYVTQQLI_RQKKQQTVTLLPAADLDDF_RWYFYYLGTGPEAGLPYGA_SELVIGAVILRGHLRIAGH_SFRLFARTRSMWSFNPETN_SNCVADYSVLYNSASFSTF_SNKKFLPFQQFGRDIADTT_SRTLSYYKLGASQRVAGDS_SSPDDQIGYYRRATRRIRG_STGSNVFQTRAGCLIGAEH_SYFTSDYYQLYSTQLSTDT_TAPAICHDGKAHFPREGVF_TITSGWTFGAGAALQIPFA_TYTGAIKLDDKDPNFKDQV_VDFCGKGYHLMSFPQSAPH_VEAEVQIDRLITGRLQSLQ_VFLHVTYVPAQEKNFTTAP_VKDCVVLHSYFTSDYYQLY_VKQLSSNFGAISSVLNDIL_VTQQLIRAAEIRASANLAA_VVVLSFELLHAPATVCGPK_YGANKDGIIWVATEGALNT_YLYALVYFLQSINFVRIIM_YNYLYRLFRKSNLKPFERD_YSHLLLVAAGLEAPFLYLY_YSKWYIRVGARKSAPLIELC'
p26
g12
tp27
a(S'AEIRASANLAATKMSECVL_ANNAAIVLQLPQGTTLPKG_AVFQSASKIITLKKRWQLA_AYANRNRFLYIIKLIFLWL_DDKDPNFKDQVILLNKHID_DFGGFNFSQILPDPSKPSK_DGVKHVYQLRARSVSPKLFI_DHIGTRNPANNAAIVLQLP_DKNTQEVFAQVKQIYKTPP_DLLFNKVTLADAGFIKQYG_DNKFALTCFSTQFAFACPDG_DQVILLNKHIDAYKTFPPT_EHVTFFIYNKIVDEPEEHV_ENQKLIANQFNSAIGKIQD_EQYIKWPWYIWLGFIAGLI_FCTQLNRALTGIAVEQDKN_FLIVAAIVFITLCFTLKRKTE_FNCYFPLQSYGFQPTNGVG_FNPETNILLNVPLHGTILT_FTVEKGIYQTSNFRVQPTE_GAGAALQIPFAMQMAYRFN_GAISSVLNDILSRLDKVEA_GKMKDLSPRWYFYYLGTGP_GNSPFHPLADNKFALTCFST_GVFVSNGTHWFVTQRNFYE_GVGYQPYRVVVLSFELLHA_HLMSFPQSAPHGVVFLHVT_HQPYVVDDPCPIHFYSKWYI_IHADQLTPTWRVYSTGSNV_IIMRLWLCWKCRSKNPLLY_IIMRTFKVSIWNLDYIINL_IITLKKRWQLALSKGVHFV_IQDSLSSTASALGKLQDVV_IVNVSLVKPSFYVYSRVKN_LDSKVGGNYNYLYRLFRKS_LICAQKFNGLTVLPPLLTD_LNVPLHGTILTRPLLESEL_LTDEMIAQYTSALLAGTIT_MAYRFNGIGVTQNVLYENQ_MDLFMRIFTIGTVTLKQGE_MWLSYFIASFRLFARTRSM_NAQALNTLVKQLSSNFGAI_NATRFASVYAWNRKRISNC_NGGDAALALLLLDRLNQLE_PKEITVATSRTLSYYKLGA_PNNTASWFTALTQHGKEDL_PRQKRTATKAYNVTQAFGR_PSDFVRATATIPIQASLPF_PSKRSFIEDLLFNKVTLAD_QTNSPRRARSVASQSIIAY_RCSFYEDFLEYHDVRVVLDFI_RLITGRLQSLQTYVTQQLI_RQKKQQTVTLLPAADLDDF_RWYFYYLGTGPEAGLPYGA_SELVIGAVILRGHLRIAGH_SFRLFARTRSMWSFNPETN_SNCVADYSVLYNSASFSTF_SNKKFLPFQQFGRDIADTT_SRTLSYYKLGASQRVAGDS_SSPDDQIGYYRRATRRIRG_STGSNVFQTRAGCLIGAEH_SYFTSDYYQLYSTQLSTDT_TAPAICHDGKAHFPREGVF_TITSGWTFGAGAALQIPFA_TVEELKKLLEQWNLVIGFL_TYTGAIKLDDKDPNFKDQV_VDFCGKGYHLMSFPQSAPH_VEAEVQIDRLITGRLQSLQ_VFLHVTYVPAQEKNFTTAP_VKDCVVLHSYFTSDYYQLY_VKQLSSNFGAISSVLNDIL_VTQQLIRAAEIRASANLAA_VVVLSFELLHAPATVCGPK_YGANKDGIIWVATEGALNT_YLYALVYFLQSINFVRIIM_YNYLYRLFRKSNLKPFERD_YSHLLLVAAGLEAPFLYLY_YSKWYIRVGARKSAPLIELC'
p28
g3
(g5
S'\xe7\xb7\x00\xaa\xe3\xe2\xe5?'
tRp29
tp30
a.