(lp1
(S'IITLKKRWQLALSKGVHFV_NGGDAALALLLLDRLNQLE_PSDFVRATATIPIQASLPF_RWYFYYLGTGPEAGLPYGA_TITSGWTFGAGAALQIPFA_TYTGAIKLDDKDPNFKDQV_VTQQLIRAAEIRASANLAA_YNYLYRLFRKSNLKPFERD'
p2
cnumpy.core.multiarray
scalar
p3
(cnumpy
dtype
p4
(S'f8'
I0
I1
tRp5
(I3
S'<'
NNNI-1
I-1
I0
tbS'\x08\xd2\xde\x13\x1eE\xed?'
tRp6
tp7
a(S'IITLKKRWQLALSKGVHFV_NGGDAALALLLLDRLNQLE_PSDFVRATATIPIQASLPF_RWYFYYLGTGPEAGLPYGA_TAPAICHDGKAHFPREGVF_TITSGWTFGAGAALQIPFA_VTQQLIRAAEIRASANLAA_YNYLYRLFRKSNLKPFERD'
p8
g3
(g5
S'\x08\xd2\xde\x13\x1eE\xed?'
tRp9
tp10
a(S'HQPYVVDDPCPIHFYSKWYI_IITLKKRWQLALSKGVHFV_NGGDAALALLLLDRLNQLE_PSDFVRATATIPIQASLPF_RWYFYYLGTGPEAGLPYGA_TITSGWTFGAGAALQIPFA_VTQQLIRAAEIRASANLAA_YNYLYRLFRKSNLKPFERD'
p11
g3
(g5
S'\x08\xd2\xde\x13\x1eE\xed?'
tRp12
tp13
a(S'GAISSVLNDILSRLDKVEA_HQPYVVDDPCPIHFYSKWYI_IITLKKRWQLALSKGVHFV_PSDFVRATATIPIQASLPF_RWYFYYLGTGPEAGLPYGA_TITSGWTFGAGAALQIPFA_VTQQLIRAAEIRASANLAA_YNYLYRLFRKSNLKPFERD'
p14
g3
(g5
S'\xa0\x06\x90\x0b\x0eE\xed?'
tRp15
tp16
a(S'HQPYVVDDPCPIHFYSKWYI_IITLKKRWQLALSKGVHFV_PSDFVRATATIPIQASLPF_RWYFYYLGTGPEAGLPYGA_TITSGWTFGAGAALQIPFA_TYTGAIKLDDKDPNFKDQV_VTQQLIRAAEIRASANLAA_YNYLYRLFRKSNLKPFERD'
p17
g3
(g5
S'\x9f\x06\x90\x0b\x0eE\xed?'
tRp18
tp19
a(S'HQPYVVDDPCPIHFYSKWYI_IITLKKRWQLALSKGVHFV_PSDFVRATATIPIQASLPF_RWYFYYLGTGPEAGLPYGA_TAPAICHDGKAHFPREGVF_TITSGWTFGAGAALQIPFA_VTQQLIRAAEIRASANLAA_YNYLYRLFRKSNLKPFERD'
p20
g18
tp21
a(S'GAISSVLNDILSRLDKVEA_IITLKKRWQLALSKGVHFV_PSDFVRATATIPIQASLPF_RWYFYYLGTGPEAGLPYGA_TITSGWTFGAGAALQIPFA_TYTGAIKLDDKDPNFKDQV_VTQQLIRAAEIRASANLAA_YNYLYRLFRKSNLKPFERD'
p22
g3
(g5
S'\x9f\x06\x90\x0b\x0eE\xed?'
tRp23
tp24
a(S'GAISSVLNDILSRLDKVEA_IITLKKRWQLALSKGVHFV_PSDFVRATATIPIQASLPF_RWYFYYLGTGPEAGLPYGA_TAPAICHDGKAHFPREGVF_TITSGWTFGAGAALQIPFA_VTQQLIRAAEIRASANLAA_YNYLYRLFRKSNLKPFERD'
p25
g3
(g5
S'\x9f\x06\x90\x0b\x0eE\xed?'
tRp26
tp27
a(S'IITLKKRWQLALSKGVHFV_PSDFVRATATIPIQASLPF_RWYFYYLGTGPEAGLPYGA_TAPAICHDGKAHFPREGVF_TITSGWTFGAGAALQIPFA_TYTGAIKLDDKDPNFKDQV_VTQQLIRAAEIRASANLAA_YNYLYRLFRKSNLKPFERD'
p28
g3
(g5
S'\x9d\x06\x90\x0b\x0eE\xed?'
tRp29
tp30
a(S'IITLKKRWQLALSKGVHFV_PSDFVRATATIPIQASLPF_RWYFYYLGTGPEAGLPYGA_TITSGWTFGAGAALQIPFA_TYTGAIKLDDKDPNFKDQV_VEAEVQIDRLITGRLQSLQ_VTQQLIRAAEIRASANLAA_YNYLYRLFRKSNLKPFERD'
p31
g3
(g5
S'\x97\x06\x90\x0b\x0eE\xed?'
tRp32
tp33
a.