(lp1
(S'FCTQLNRALTGIAVEQDKN_RWYFYYLGTGPEAGLPYGA_VTQQLIRAAEIRASANLAA'
p2
cnumpy.core.multiarray
scalar
p3
(cnumpy
dtype
p4
(S'f8'
I0
I1
tRp5
(I3
S'<'
NNNI-1
I-1
I0
tbS'\xad7\xe6\xd3\x88(\xef?'
tRp6
tp7
a(S'RWYFYYLGTGPEAGLPYGA_VTQQLIRAAEIRASANLAA_YNYLYRLFRKSNLKPFERD'
p8
g3
(g5
S'|\xa1b\xcaG\x15\xef?'
tRp9
tp10
a(S'RWYFYYLGTGPEAGLPYGA_SNCVADYSVLYNSASFSTF_VTQQLIRAAEIRASANLAA'
p11
g3
(g5
S'w\xc7\xdc\xa6\xd4\x14\xef?'
tRp12
tp13
a(S'IQDSLSSTASALGKLQDVV_RWYFYYLGTGPEAGLPYGA_VTQQLIRAAEIRASANLAA'
p14
g3
(g5
S'\xff<\xf1\x98\xcf\x14\xef?'
tRp15
tp16
a(S'DHIGTRNPANNAAIVLQLP_RWYFYYLGTGPEAGLPYGA_VTQQLIRAAEIRASANLAA'
p17
g3
(g5
S'\xff<\xf1\x98\xcf\x14\xef?'
tRp18
tp19
a(S'ANNAAIVLQLPQGTTLPKG_RWYFYYLGTGPEAGLPYGA_VTQQLIRAAEIRASANLAA'
p20
g3
(g5
S'\xfd<\xf1\x98\xcf\x14\xef?'
tRp21
tp22
a(S'RWYFYYLGTGPEAGLPYGA_VTQQLIRAAEIRASANLAA_YGANKDGIIWVATEGALNT'
p23
g3
(g5
S'\xfc<\xf1\x98\xcf\x14\xef?'
tRp24
tp25
a(S'RWYFYYLGTGPEAGLPYGA_STGSNVFQTRAGCLIGAEH_VTQQLIRAAEIRASANLAA'
p26
g3
(g5
S'\xfc<\xf1\x98\xcf\x14\xef?'
tRp27
tp28
a(S'QTNSPRRARSVASQSIIAY_RWYFYYLGTGPEAGLPYGA_VTQQLIRAAEIRASANLAA'
p29
g3
(g5
S'\xfc<\xf1\x98\xcf\x14\xef?'
tRp30
tp31
a(S'RWYFYYLGTGPEAGLPYGA_VTQQLIRAAEIRASANLAA_YSHLLLVAAGLEAPFLYLY'
p32
g3
(g5
S'\xfb<\xf1\x98\xcf\x14\xef?'
tRp33
tp34
a.