(lp1
(S'AELEGIQY_ALRANSAVK_ASKIITLKK_ATEGALNTPK_ATSRTLSYY_CPDGVKHVY_DLFMRIFTI_EEHVQIHTI_EELKKLLEQW_FAYANRNRF_FLLNKEMYL_FLLPSLATV_FLNRFTTTL_FLPRVFSAV_FLQSINFVR_FPPTSFGPL_FPRGQGVPI_FRYMNSQGL_FTYASALWEI_FVDGVPFVV_HLRIAGHHL_HPLADNKFAL_HVTFFIYNK_IELSLIDFYL_ILLIIMRTFK_IMRTFKVSI_IPIQASLPF_IPRRNVATL_IPYNSVTSSI_ISDYDYYRY_ITLATCELY_ITLKKRWQL_KAYNVTQAF_KMQRMLLEK_KTFPPTEPK_KVSIWNLDY_LEYHDVRVV_LIIMRTFKV_LLYDANYFL_LSPRWYFYY_LWLLWPVTL_LWPVTLACF_LYSPIFLIV_MEVTPSGTWL_MGYINVFAF_MIELSLIDFY_MPASWVMRI_NPLLYDANY_NVFAFPFTIY_QELIRQGTDY_QELYSPIFL_QLPQGTTLPK_QWNLVIGFLF_RARSVSPKL_RIRGGDGKMK_RLYYDSMSY_RQLLFVVEV_RTFKVSIWNL_SELVIGAVI_SINFVRIIMR_SPRWYFYYL_SSPDDQIGYY_SSRGTSPAR_SYFTSDYYQL_TMADLVYAL_TSRTLSYYK_TVYSHLLLV_VEHVTFFIY_VFITLCFTL_VLWAHGFEL_VSIWNLDYII_VTPSGTWLTY_VVYRGTTTY_VYFLQSINF_WPVTLACFVL_YANRNRFLY_YDANYFLCW_YFIASFRLF_YFTSDYYQLY_YIFFASFYY_YIIKLIFLW_YINVFAFPF_YLDAYNMMI_YLYALVYFL_YTVSCLPFTI'
p2
cnumpy.core.multiarray
scalar
p3
(cnumpy
dtype
p4
(S'f8'
I0
I1
tRp5
(I3
S'<'
NNNI-1
I-1
I0
tbS'\\?]]p\x9c\xef?'
tRp6
tp7
a(S'AELEGIQY_ALRANSAVK_ASKIITLKK_ATEGALNTPK_ATSRTLSYY_CPDGVKHVY_DLFMRIFTI_EEHVQIHTI_EELKKLLEQW_FAYANRNRF_FLLNKEMYL_FLLPSLATV_FLNRFTTTL_FLPRVFSAV_FLQSINFVR_FPPTSFGPL_FPRGQGVPI_FRYMNSQGL_FTYASALWEI_FVDGVPFVV_HLRIAGHHL_HPLADNKFAL_HVTFFIYNK_IELSLIDFYL_ILLIIMRTFK_IMRTFKVSI_IPIQASLPF_IPRRNVATL_IPYNSVTSSI_ISDYDYYRY_ITLATCELY_ITLKKRWQL_KAYNVTQAF_KMQRMLLEK_KTFPPTEPK_KVSIWNLDY_LEYHDVRVV_LIIMRTFKV_LLYDANYFL_LSPRWYFYY_LWLLWPVTL_LWPVTLACF_LYSPIFLIV_MEVTPSGTWL_MGYINVFAF_MIELSLIDFY_MPASWVMRI_NPLLYDANY_NVFAFPFTIY_QELIRQGTDY_QELYSPIFL_QLPQGTTLPK_QWNLVIGFLF_RARSVSPKL_RIRGGDGKMK_RLYYDSMSY_RQLLFVVEV_RTFKVSIWNL_SELVIGAVI_SINFVRIIMR_SPRWYFYYL_SSPDDQIGYY_SSRGTSPAR_SYFTSDYYQL_TMADLVYAL_TSRTLSYYK_TVYSHLLLV_VEHVTFFIY_VFITLCFTL_VLWAHGFEL_VSIWNLDYII_VTPSGTWLTY_VVYRGTTTY_VYFLQSINF_WICLLQFAY_WPVTLACFVL_YANRNRFLY_YDANYFLCW_YFIASFRLF_YIFFASFYY_YIIKLIFLW_YINVFAFPF_YLDAYNMMI_YLYALVYFL_YTVSCLPFTI'
p8
g3
(g5
S'[?]]p\x9c\xef?'
tRp9
tp10
a(S'AELEGIQY_ALRANSAVK_ASKIITLKK_ATEGALNTPK_ATSRTLSYY_CPDGVKHVY_DLFMRIFTI_EEHVQIHTI_EELKKLLEQW_FAYANRNRF_FLLNKEMYL_FLLPSLATV_FLNRFTTTL_FLPRVFSAV_FLQSINFVR_FPPTSFGPL_FPRGQGVPI_FRYMNSQGL_FTYASALWEI_FVDGVPFVV_HLRIAGHHL_HPLADNKFAL_HVTFFIYNK_IELSLIDFYL_ILLIIMRTFK_IMRTFKVSI_IPIQASLPF_IPRRNVATL_IPYNSVTSSI_ISDYDYYRY_ITLATCELY_ITLKKRWQL_KAYNVTQAF_KMQRMLLEK_KTFPPTEPK_KVSIWNLDY_LEYHDVRVV_LIIMRTFKV_LLYDANYFL_LSPRWYFYY_LWLLWPVTL_LWPVTLACF_LYSPIFLIV_MEVTPSGTWL_MGYINVFAF_MIELSLIDFY_MPASWVMRI_NPLLYDANY_NVFAFPFTIY_QELIRQGTDY_QELYSPIFL_QLPQGTTLPK_QWNLVIGFLF_RARSVSPKL_RIRGGDGKMK_RLYYDSMSY_RQLLFVVEV_RTFKVSIWNL_SELVIGAVI_SINFVRIIMR_SPRWYFYYL_SSPDDQIGYY_SSRGTSPAR_SYFTSDYYQL_TLACFVLAAV_TMADLVYAL_TSRTLSYYK_TVYSHLLLV_VEHVTFFIY_VFITLCFTL_VLWAHGFEL_VSIWNLDYII_VTPSGTWLTY_VVYRGTTTY_VYFLQSINF_WICLLQFAY_WPVTLACFVL_YANRNRFLY_YDANYFLCW_YFIASFRLF_YIFFASFYY_YIIKLIFLW_YINVFAFPF_YLDAYNMMI_YLYALVYFL'
p11
g3
(g5
S'E\xd7\xae\xe3o\x9c\xef?'
tRp12
tp13
a(S'AELEGIQY_ALRANSAVK_ASKIITLKK_ATEGALNTPK_ATSRTLSYY_CPDGVKHVY_DLFMRIFTI_EEHVQIHTI_EELKKLLEQW_FAYANRNRF_FLLNKEMYL_FLLPSLATV_FLNRFTTTL_FLPRVFSAV_FLQSINFVR_FPPTSFGPL_FPRGQGVPI_FRYMNSQGL_FTYASALWEI_FVDGVPFVV_HLRIAGHHL_HPLADNKFAL_HVTFFIYNK_IELSLIDFYL_ILLIIMRTFK_IMRTFKVSI_IPIQASLPF_IPRRNVATL_IPYNSVTSSI_ISDYDYYRY_ITLATCELY_ITLKKRWQL_KAYNVTQAF_KMQRMLLEK_KTFPPTEPK_KVSIWNLDY_LEYHDVRVV_LIIMRTFKV_LLYDANYFL_LSPRWYFYY_LWLLWPVTL_LWPVTLACF_LYSPIFLIV_MEVTPSGTWL_MGYINVFAF_MIELSLIDFY_MPASWVMRI_NPLLYDANY_NVFAFPFTIY_QELIRQGTDY_QELYSPIFL_QLPQGTTLPK_QWNLVIGFLF_RARSVSPKL_RIRGGDGKMK_RLYYDSMSY_RQLLFVVEV_RTFKVSIWNL_SELVIGAVI_SINFVRIIMR_SPRWYFYYL_SSPDDQIGYY_SSRGTSPAR_SYFTSDYYQL_TLACFVLAAV_TMADLVYAL_TSRTLSYYK_TVYSHLLLV_VEHVTFFIY_VFITLCFTL_VLWAHGFEL_VSIWNLDYII_VTPSGTWLTY_VVYRGTTTY_VYFLQSINF_WPVTLACFVL_YANRNRFLY_YDANYFLCW_YFIASFRLF_YFTSDYYQLY_YIFFASFYY_YIIKLIFLW_YINVFAFPF_YLDAYNMMI_YLYALVYFL'
p14
g3
(g5
S'D\xd7\xae\xe3o\x9c\xef?'
tRp15
tp16
a(S'AELEGIQY_AFPFTIYSL_ALRANSAVK_ASKIITLKK_ATEGALNTPK_ATSRTLSYY_CPDGVKHVY_DLFMRIFTI_EEHVQIHTI_EELKKLLEQW_FAYANRNRF_FLLNKEMYL_FLLPSLATV_FLNRFTTTL_FLPRVFSAV_FLQSINFVR_FPPTSFGPL_FPRGQGVPI_FRYMNSQGL_FTYASALWEI_FVDGVPFVV_HLRIAGHHL_HPLADNKFAL_HVTFFIYNK_IELSLIDFYL_ILLIIMRTFK_IMRTFKVSI_IPIQASLPF_IPRRNVATL_IPYNSVTSSI_ISDYDYYRY_ITLATCELY_ITLKKRWQL_KAYNVTQAF_KMQRMLLEK_KTFPPTEPK_KVSIWNLDY_LEYHDVRVV_LIIMRTFKV_LLYDANYFL_LSPRWYFYY_LWLLWPVTL_LWPVTLACF_LYSPIFLIV_MEVTPSGTWL_MGYINVFAF_MIELSLIDFY_MPASWVMRI_NPLLYDANY_NVFAFPFTIY_QELIRQGTDY_QELYSPIFL_QLPQGTTLPK_RARSVSPKL_RIRGGDGKMK_RLYYDSMSY_RQLLFVVEV_RTFKVSIWNL_SELVIGAVI_SINFVRIIMR_SPRWYFYYL_SSPDDQIGYY_SSRGTSPAR_SYFTSDYYQL_TMADLVYAL_TSRTLSYYK_TVYSHLLLV_VEHVTFFIY_VFITLCFTL_VLWAHGFEL_VSIWNLDYII_VTPSGTWLTY_VVYRGTTTY_VYFLQSINF_WICLLQFAY_WPVTLACFVL_YANRNRFLY_YDANYFLCW_YFIASFRLF_YIFFASFYY_YIIKLIFLW_YINVFAFPF_YLDAYNMMI_YLYALVYFL_YTVSCLPFTI'
p17
g3
(g5
S'\xbd\x1cv\x8bo\x9c\xef?'
tRp18
tp19
a(S'AELEGIQY_AFPFTIYSL_ALRANSAVK_ASKIITLKK_ATEGALNTPK_ATSRTLSYY_CPDGVKHVY_DLFMRIFTI_EEHVQIHTI_EELKKLLEQW_FAYANRNRF_FLLNKEMYL_FLLPSLATV_FLNRFTTTL_FLPRVFSAV_FLQSINFVR_FPPTSFGPL_FPRGQGVPI_FRYMNSQGL_FTYASALWEI_FVDGVPFVV_HPLADNKFAL_HVTFFIYNK_IELSLIDFYL_ILLIIMRTFK_IMRTFKVSI_IPIQASLPF_IPRRNVATL_IPYNSVTSSI_ISDYDYYRY_ITLATCELY_ITLKKRWQL_KAYNVTQAF_KMQRMLLEK_KTFPPTEPK_KVSIWNLDY_LEYHDVRVV_LIIMRTFKV_LLYDANYFL_LSPRWYFYY_LWLLWPVTL_LWPVTLACF_LYSPIFLIV_MEVTPSGTWL_MGYINVFAF_MIELSLIDFY_MPASWVMRI_NPLLYDANY_NVFAFPFTIY_QELIRQGTDY_QELYSPIFL_QLPQGTTLPK_RARSVSPKL_RIRGGDGKMK_RLYYDSMSY_RQLLFVVEV_RTFKVSIWNL_SELVIGAVI_SINFVRIIMR_SPRWYFYYL_SSPDDQIGYY_SSRGTSPAR_SYFTSDYYQL_TLKKRWQLA_TMADLVYAL_TSRTLSYYK_TVYSHLLLV_VEHVTFFIY_VFITLCFTL_VLWAHGFEL_VSIWNLDYII_VTPSGTWLTY_VVYRGTTTY_VYFLQSINF_WICLLQFAY_WPVTLACFVL_YANRNRFLY_YDANYFLCW_YFIASFRLF_YIFFASFYY_YIIKLIFLW_YINVFAFPF_YLDAYNMMI_YLYALVYFL_YTVSCLPFTI'
p20
g3
(g5
S'\xbc\x1cv\x8bo\x9c\xef?'
tRp21
tp22
a(S'AELEGIQY_AFPFTIYSL_ALRANSAVK_ASKIITLKK_ATEGALNTPK_ATSRTLSYY_CPDGVKHVY_DLFMRIFTI_EEHVQIHTI_EELKKLLEQW_FAYANRNRF_FLLNKEMYL_FLLPSLATV_FLNRFTTTL_FLPRVFSAV_FLQSINFVR_FPPTSFGPL_FPRGQGVPI_FRYMNSQGL_FTYASALWEI_FVDGVPFVV_HPLADNKFAL_HVTFFIYNK_IELSLIDFYL_ILLIIMRTFK_IMRTFKVSI_IPIQASLPF_IPRRNVATL_IPYNSVTSSI_ISDYDYYRY_ITLATCELY_ITLKKRWQL_KAYNVTQAF_KMQRMLLEK_KTFPPTEPK_KVSIWNLDY_LEYHDVRVV_LIIMRTFKV_LLYDANYFL_LSPRWYFYY_LWLLWPVTL_LWPVTLACF_LYSPIFLIV_MEVTPSGTWL_MGYINVFAF_MIELSLIDFY_MPASWVMRI_NPLLYDANY_NVFAFPFTIY_QELIRQGTDY_QELYSPIFL_QLPQGTTLPK_RARSVSPKL_RIRGGDGKMK_RLYYDSMSY_RQLLFVVEV_RTFKVSIWNL_SELVIGAVI_SINFVRIIMR_SPRWYFYYL_SSPDDQIGYY_SSRGTSPAR_SYFTSDYYQL_TLKKRWQLAL_TMADLVYAL_TSRTLSYYK_TVYSHLLLV_VEHVTFFIY_VFITLCFTL_VLWAHGFEL_VSIWNLDYII_VTPSGTWLTY_VVYRGTTTY_VYFLQSINF_WICLLQFAY_WPVTLACFVL_YANRNRFLY_YDANYFLCW_YFIASFRLF_YIFFASFYY_YIIKLIFLW_YINVFAFPF_YLDAYNMMI_YLYALVYFL_YTVSCLPFTI'
p23
g3
(g5
S'\xbc\x1cv\x8bo\x9c\xef?'
tRp24
tp25
a(S'AELEGIQY_AFPFTIYSL_ALRANSAVK_ASKIITLKK_ATEGALNTPK_ATSRTLSYY_CPDGVKHVY_DLFMRIFTI_EEHVQIHTI_EELKKLLEQW_FAYANRNRF_FLLNKEMYL_FLLPSLATV_FLNRFTTTL_FLPRVFSAV_FLQSINFVR_FPPTSFGPL_FPRGQGVPI_FRYMNSQGL_FTYASALWEI_FVDGVPFVV_HLRIAGHHL_HPLADNKFAL_HVTFFIYNK_IELSLIDFYL_ILLIIMRTFK_IMRTFKVSI_IPIQASLPF_IPRRNVATL_IPYNSVTSSI_ISDYDYYRY_ITLATCELY_ITLKKRWQL_KAYNVTQAF_KMQRMLLEK_KTFPPTEPK_KVSIWNLDY_LEYHDVRVV_LIIMRTFKV_LLYDANYFL_LSPRWYFYY_LWLLWPVTL_LWPVTLACF_LYSPIFLIV_MEVTPSGTWL_MGYINVFAF_MIELSLIDFY_MPASWVMRI_NPLLYDANY_NVFAFPFTIY_QELIRQGTDY_QELYSPIFL_QLPQGTTLPK_RARSVSPKL_RIRGGDGKMK_RLYYDSMSY_RQLLFVVEV_RTFKVSIWNL_SELVIGAVI_SINFVRIIMR_SPRWYFYYL_SSPDDQIGYY_SSRGTSPAR_SYFTSDYYQL_TMADLVYAL_TSRTLSYYK_TVYSHLLLV_VEHVTFFIY_VFITLCFTL_VLWAHGFEL_VSIWNLDYII_VTPSGTWLTY_VVYRGTTTY_VYFLQSINF_WPVTLACFVL_YANRNRFLY_YDANYFLCW_YFIASFRLF_YFTSDYYQLY_YIFFASFYY_YIIKLIFLW_YINVFAFPF_YLDAYNMMI_YLYALVYFL_YTVSCLPFTI'
p26
g3
(g5
S'\xbc\x1cv\x8bo\x9c\xef?'
tRp27
tp28
a(S'AELEGIQY_AFPFTIYSL_ALRANSAVK_ASKIITLKK_ATEGALNTPK_ATSRTLSYY_CPDGVKHVY_DLFMRIFTI_EEHVQIHTI_EELKKLLEQW_FAYANRNRF_FLLNKEMYL_FLLPSLATV_FLNRFTTTL_FLPRVFSAV_FLQSINFVR_FPPTSFGPL_FPRGQGVPI_FRYMNSQGL_FTYASALWEI_FVDGVPFVV_HPLADNKFAL_HVTFFIYNK_IELSLIDFYL_ILLIIMRTFK_IMRTFKVSI_IPIQASLPF_IPRRNVATL_IPYNSVTSSI_ISDYDYYRY_ITLATCELY_ITLKKRWQL_KAYNVTQAF_KMQRMLLEK_KTFPPTEPK_KVSIWNLDY_LEYHDVRVV_LIIMRTFKV_LLYDANYFL_LSPRWYFYY_LWLLWPVTL_LWPVTLACF_LYSPIFLIV_MEVTPSGTWL_MGYINVFAF_MIELSLIDFY_MPASWVMRI_NPLLYDANY_NVFAFPFTIY_QELIRQGTDY_QELYSPIFL_QLPQGTTLPK_RARSVSPKL_RIRGGDGKMK_RLYYDSMSY_RQLLFVVEV_RTFKVSIWNL_SELVIGAVI_SINFVRIIMR_SPRWYFYYL_SSPDDQIGYY_SSRGTSPAR_SYFTSDYYQL_TLKKRWQLA_TMADLVYAL_TSRTLSYYK_TVYSHLLLV_VEHVTFFIY_VFITLCFTL_VLWAHGFEL_VSIWNLDYII_VTPSGTWLTY_VVYRGTTTY_VYFLQSINF_WPVTLACFVL_YANRNRFLY_YDANYFLCW_YFIASFRLF_YFTSDYYQLY_YIFFASFYY_YIIKLIFLW_YINVFAFPF_YLDAYNMMI_YLYALVYFL_YTVSCLPFTI'
p29
g3
(g5
S'\xbb\x1cv\x8bo\x9c\xef?'
tRp30
tp31
a(S'AELEGIQY_AFPFTIYSL_ALRANSAVK_ASKIITLKK_ATEGALNTPK_ATSRTLSYY_CPDGVKHVY_DLFMRIFTI_EEHVQIHTI_EELKKLLEQW_FAYANRNRF_FLLNKEMYL_FLLPSLATV_FLNRFTTTL_FLPRVFSAV_FLQSINFVR_FPPTSFGPL_FPRGQGVPI_FRYMNSQGL_FTYASALWEI_FVDGVPFVV_HPLADNKFAL_HVTFFIYNK_IELSLIDFYL_ILLIIMRTFK_IMRTFKVSI_IPIQASLPF_IPRRNVATL_IPYNSVTSSI_ISDYDYYRY_ITLATCELY_ITLKKRWQL_KAYNVTQAF_KMQRMLLEK_KTFPPTEPK_KVSIWNLDY_LEYHDVRVV_LIIMRTFKV_LLYDANYFL_LSPRWYFYY_LWLLWPVTL_LWPVTLACF_LYSPIFLIV_MEVTPSGTWL_MGYINVFAF_MIELSLIDFY_MPASWVMRI_NPLLYDANY_NVFAFPFTIY_QELIRQGTDY_QELYSPIFL_QLPQGTTLPK_RARSVSPKL_RIRGGDGKMK_RLYYDSMSY_RQLLFVVEV_RTFKVSIWNL_SELVIGAVI_SINFVRIIMR_SPRWYFYYL_SSPDDQIGYY_SSRGTSPAR_SYFTSDYYQL_TLKKRWQLAL_TMADLVYAL_TSRTLSYYK_TVYSHLLLV_VEHVTFFIY_VFITLCFTL_VLWAHGFEL_VSIWNLDYII_VTPSGTWLTY_VVYRGTTTY_VYFLQSINF_WPVTLACFVL_YANRNRFLY_YDANYFLCW_YFIASFRLF_YFTSDYYQLY_YIFFASFYY_YIIKLIFLW_YINVFAFPF_YLDAYNMMI_YLYALVYFL_YTVSCLPFTI'
p32
g3
(g5
S'\xbb\x1cv\x8bo\x9c\xef?'
tRp33
tp34
a.