(lp1
(S'FAYANRNRF_FLNRFTTTL_RLYYDSMSY_TVYSHLLLV_YIFFASFYY_YLDAYNMMI'
p2
cnumpy.core.multiarray
scalar
p3
(cnumpy
dtype
p4
(S'f8'
I0
I1
tRp5
(I3
S'<'
NNNI-1
I-1
I0
tbS'\xe3\xdd\x00\x1bK\xfe\xef?'
tRp6
tp7
a(S'FAYANRNRF_FLNRFTTTL_ITLATCELY_TVYSHLLLV_YIFFASFYY_YLDAYNMMI'
p8
g3
(g5
S'\x9dfX\xffJ\xfe\xef?'
tRp9
tp10
a(S'ATSRTLSYY_FAYANRNRF_FLNRFTTTL_TVYSHLLLV_YIFFASFYY_YLDAYNMMI'
p11
g3
(g5
S'\x9bfX\xffJ\xfe\xef?'
tRp12
tp13
a(S'ATSRTLSYY_FAYANRNRF_FLNRFTTTL_ITLATCELY_TVYSHLLLV_YLDAYNMMI'
p14
g3
(g5
S'\x98fX\xffJ\xfe\xef?'
tRp15
tp16
a(S'FAYANRNRF_FVDGVPFVV_RLYYDSMSY_TVYSHLLLV_YIFFASFYY_YLDAYNMMI'
p17
g3
(g5
S'7^s\xbeF\xfe\xef?'
tRp18
tp19
a(S'FAYANRNRF_FVDGVPFVV_ITLATCELY_TVYSHLLLV_YIFFASFYY_YLDAYNMMI'
p20
g3
(g5
S'\xf3\xe6\xca\xa2F\xfe\xef?'
tRp21
tp22
a(S'ATSRTLSYY_FAYANRNRF_FVDGVPFVV_TVYSHLLLV_YIFFASFYY_YLDAYNMMI'
p23
g3
(g5
S'\xf3\xe6\xca\xa2F\xfe\xef?'
tRp24
tp25
a(S'ATSRTLSYY_FAYANRNRF_FVDGVPFVV_ITLATCELY_TVYSHLLLV_YLDAYNMMI'
p26
g3
(g5
S'\xec\xe6\xca\xa2F\xfe\xef?'
tRp27
tp28
a(S'FAYANRNRF_FLNRFTTTL_ITLATCELY_RLYYDSMSY_TVYSHLLLV_YLDAYNMMI'
p29
g3
(g5
S'\xa5\xcb\x1f\xd2\x1a\xfe\xef?'
tRp30
tp31
a(S'FAYANRNRF_FVDGVPFVV_ITLATCELY_RLYYDSMSY_TVYSHLLLV_YLDAYNMMI'
p32
g3
(g5
S'\xfbK\x92u\x16\xfe\xef?'
tRp33
tp34
a.