(lp1
(S'ATSRTLSYY_FAYANRNRF_FLNRFTTTL_FTYASALWEI_SINFVRIIMR_SPRWYFYYL_TVYSHLLLV_YIFFASFYY_YLDAYNMMI'
p2
cnumpy.core.multiarray
scalar
p3
(cnumpy
dtype
p4
(S'f8'
I0
I1
tRp5
(I3
S'<'
NNNI-1
I-1
I0
tbS'w\x0b\xa1\xbeg\xfb\xef?'
tRp6
tp7
a(S'ATSRTLSYY_FAYANRNRF_FLNRFTTTL_FLQSINFVR_FTYASALWEI_SPRWYFYYL_TVYSHLLLV_YIFFASFYY_YLDAYNMMI'
p8
g3
(g5
S'u\x0b\xa1\xbeg\xfb\xef?'
tRp9
tp10
a(S'ATSRTLSYY_FAYANRNRF_FLNRFTTTL_FLQSINFVR_FTYASALWEI_RARSVSPKL_TVYSHLLLV_YIFFASFYY_YLDAYNMMI'
p11
g3
(g5
S'\xf85-KQ\xfb\xef?'
tRp12
tp13
a(S'ATSRTLSYY_FAYANRNRF_FLNRFTTTL_FLQSINFVR_FTYASALWEI_KMQRMLLEK_TVYSHLLLV_YIFFASFYY_YLDAYNMMI'
p14
g3
(g5
S'\xf85-KQ\xfb\xef?'
tRp15
tp16
a(S'ATSRTLSYY_FAYANRNRF_FLNRFTTTL_FTYASALWEI_RARSVSPKL_SINFVRIIMR_TVYSHLLLV_YIFFASFYY_YLDAYNMMI'
p17
g3
(g5
S'\xf75-KQ\xfb\xef?'
tRp18
tp19
a(S'ATSRTLSYY_FAYANRNRF_FLNRFTTTL_FLQSINFVR_FTYASALWEI_SSRGTSPAR_TVYSHLLLV_YIFFASFYY_YLDAYNMMI'
p20
g3
(g5
S'\xf75-KQ\xfb\xef?'
tRp21
tp22
a(S'ASKIITLKK_ATSRTLSYY_FAYANRNRF_FLNRFTTTL_FTYASALWEI_SINFVRIIMR_TVYSHLLLV_YIFFASFYY_YLDAYNMMI'
p23
g3
(g5
S'\xf75-KQ\xfb\xef?'
tRp24
tp25
a(S'ATSRTLSYY_FAYANRNRF_FLNRFTTTL_FTYASALWEI_KMQRMLLEK_SINFVRIIMR_TVYSHLLLV_YIFFASFYY_YLDAYNMMI'
p26
g3
(g5
S'\xf55-KQ\xfb\xef?'
tRp27
tp28
a(S'ASKIITLKK_ATSRTLSYY_FAYANRNRF_FLNRFTTTL_FLQSINFVR_FTYASALWEI_TVYSHLLLV_YIFFASFYY_YLDAYNMMI'
p29
g3
(g5
S'\xf55-KQ\xfb\xef?'
tRp30
tp31
a(S'ATSRTLSYY_FAYANRNRF_FLNRFTTTL_FTYASALWEI_SINFVRIIMR_TSRTLSYYK_TVYSHLLLV_YIFFASFYY_YLDAYNMMI'
p32
g3
(g5
S'\xf45-KQ\xfb\xef?'
tRp33
tp34
a.