(lp1
(S'ATSRTLSYY_FAYANRNRF_FLNRFTTTL_SINFVRIIMR_SPRWYFYYL_TVYSHLLLV_YIFFASFYY_YLDAYNMMI'
p2
cnumpy.core.multiarray
scalar
p3
(cnumpy
dtype
p4
(S'f8'
I0
I1
tRp5
(I3
S'<'
NNNI-1
I-1
I0
tbS';u\xa1U\xd6\xfa\xef?'
tRp6
tp7
a(S'ATSRTLSYY_FAYANRNRF_FLNRFTTTL_FLQSINFVR_SPRWYFYYL_TVYSHLLLV_YIFFASFYY_YLDAYNMMI'
p8
g3
(g5
S';u\xa1U\xd6\xfa\xef?'
tRp9
tp10
a(S'ATSRTLSYY_FAYANRNRF_FLNRFTTTL_FLQSINFVR_FTYASALWEI_TVYSHLLLV_YIFFASFYY_YLDAYNMMI'
p11
g3
(g5
S'\xe4\xd0\xca\xdc\xd0\xfa\xef?'
tRp12
tp13
a(S'ATSRTLSYY_FAYANRNRF_FLNRFTTTL_FTYASALWEI_SINFVRIIMR_TVYSHLLLV_YIFFASFYY_YLDAYNMMI'
p14
g3
(g5
S'\xe3\xd0\xca\xdc\xd0\xfa\xef?'
tRp15
tp16
a(S'ATSRTLSYY_FAYANRNRF_FLNRFTTTL_FLQSINFVR_SINFVRIIMR_TVYSHLLLV_YIFFASFYY_YLDAYNMMI'
p17
g3
(g5
S'c\x84\x179\xc7\xfa\xef?'
tRp18
tp19
a(S'ATSRTLSYY_FAYANRNRF_FLNRFTTTL_FPRGQGVPI_SINFVRIIMR_TVYSHLLLV_YIFFASFYY_YLDAYNMMI'
p20
g3
(g5
S'\rB\xdal\xbd\xfa\xef?'
tRp21
tp22
a(S'ATSRTLSYY_FAYANRNRF_FLNRFTTTL_FLQSINFVR_FPRGQGVPI_TVYSHLLLV_YIFFASFYY_YLDAYNMMI'
p23
g3
(g5
S'\x08B\xdal\xbd\xfa\xef?'
tRp24
tp25
a(S'ATSRTLSYY_FAYANRNRF_FLNRFTTTL_ITLKKRWQL_SINFVRIIMR_TVYSHLLLV_YIFFASFYY_YLDAYNMMI'
p26
g3
(g5
S'\x95\x87\x9c\\\xbb\xfa\xef?'
tRp27
tp28
a(S'ATSRTLSYY_FAYANRNRF_FLNRFTTTL_FLQSINFVR_ITLKKRWQL_TVYSHLLLV_YIFFASFYY_YLDAYNMMI'
p29
g3
(g5
S'\x94\x87\x9c\\\xbb\xfa\xef?'
tRp30
tp31
a(S'ASKIITLKK_ATSRTLSYY_FAYANRNRF_FLNRFTTTL_SINFVRIIMR_TVYSHLLLV_YIFFASFYY_YLDAYNMMI'
p32
g3
(g5
S'4l\x90\x1f\xbb\xfa\xef?'
tRp33
tp34
a.