(lp1
(S'ALRANSAVK_ATSRTLSYY_FAYANRNRF_FLLPSLATV_FLNRFTTTL_FLQSINFVR_FTYASALWEI_HVTFFIYNK_ITLKKRWQL_LLYDANYFL_NVFAFPFTIY_QELYSPIFL_SPRWYFYYL_TMADLVYAL_TVYSHLLLV_YIFFASFYY_YLDAYNMMI'
p2
cnumpy.core.multiarray
scalar
p3
(cnumpy
dtype
p4
(S'f8'
I0
I1
tRp5
(I3
S'<'
NNNI-1
I-1
I0
tbS'\xad\xfb\xf2_\x08\xf1\xef?'
tRp6
tp7
a(S'ALRANSAVK_ATSRTLSYY_FAYANRNRF_FLLPSLATV_FLNRFTTTL_FLQSINFVR_FTYASALWEI_HVTFFIYNK_ITLKKRWQL_NVFAFPFTIY_QELYSPIFL_SPRWYFYYL_TMADLVYAL_TVYSHLLLV_YIFFASFYY_YLDAYNMMI_YLYALVYFL'
p8
g3
(g5
S'\xac\xfb\xf2_\x08\xf1\xef?'
tRp9
tp10
a(S'ALRANSAVK_ATSRTLSYY_FAYANRNRF_FLLPSLATV_FLNRFTTTL_FLQSINFVR_FTYASALWEI_HVTFFIYNK_ITLKKRWQL_NVFAFPFTIY_QELYSPIFL_SPRWYFYYL_TMADLVYAL_TVYSHLLLV_VLWAHGFEL_YIFFASFYY_YLDAYNMMI'
p11
g3
(g5
S'\xa9\xfb\xf2_\x08\xf1\xef?'
tRp12
tp13
a(S'ATSRTLSYY_FAYANRNRF_FLNRFTTTL_FTYASALWEI_HVTFFIYNK_ITLKKRWQL_KTFPPTEPK_NVFAFPFTIY_QELYSPIFL_SINFVRIIMR_SPRWYFYYL_TMADLVYAL_TVYSHLLLV_VLWAHGFEL_YIFFASFYY_YLDAYNMMI_YLYALVYFL'
p14
g3
(g5
S'\xab\xa2\xc9B\x08\xf1\xef?'
tRp15
tp16
a(S'ATSRTLSYY_FAYANRNRF_FLNRFTTTL_FTYASALWEI_HVTFFIYNK_ITLKKRWQL_KTFPPTEPK_LLYDANYFL_NVFAFPFTIY_QELYSPIFL_SINFVRIIMR_SPRWYFYYL_TMADLVYAL_TVYSHLLLV_YIFFASFYY_YLDAYNMMI_YLYALVYFL'
p17
g3
(g5
S'\xab\xa2\xc9B\x08\xf1\xef?'
tRp18
tp19
a(S'ATSRTLSYY_FAYANRNRF_FLNRFTTTL_FLPRVFSAV_FTYASALWEI_HVTFFIYNK_ITLKKRWQL_KTFPPTEPK_NVFAFPFTIY_QELYSPIFL_SINFVRIIMR_SPRWYFYYL_TMADLVYAL_TVYSHLLLV_YIFFASFYY_YLDAYNMMI_YLYALVYFL'
p20
g3
(g5
S'\xa9\xa2\xc9B\x08\xf1\xef?'
tRp21
tp22
a(S'ATSRTLSYY_FAYANRNRF_FLLPSLATV_FLNRFTTTL_FTYASALWEI_HVTFFIYNK_ITLKKRWQL_KTFPPTEPK_NVFAFPFTIY_QELYSPIFL_SINFVRIIMR_SPRWYFYYL_TMADLVYAL_TVYSHLLLV_YIFFASFYY_YLDAYNMMI_YLYALVYFL'
p23
g3
(g5
S'\xa9\xa2\xc9B\x08\xf1\xef?'
tRp24
tp25
a(S'ATSRTLSYY_FAYANRNRF_FLLNKEMYL_FLNRFTTTL_FTYASALWEI_HVTFFIYNK_ITLKKRWQL_KTFPPTEPK_NVFAFPFTIY_QELYSPIFL_SINFVRIIMR_SPRWYFYYL_TMADLVYAL_TVYSHLLLV_YIFFASFYY_YLDAYNMMI_YLYALVYFL'
p26
g3
(g5
S'\xa5\xa2\xc9B\x08\xf1\xef?'
tRp27
tp28
a(S'ALRANSAVK_ATSRTLSYY_FAYANRNRF_FLLPSLATV_FLNRFTTTL_FLQSINFVR_FTYASALWEI_HVTFFIYNK_ITLKKRWQL_LLYDANYFL_NVFAFPFTIY_QELYSPIFL_SPRWYFYYL_TVYSHLLLV_YIFFASFYY_YLDAYNMMI_YLYALVYFL'
p29
g3
(g5
S'i\x90\x95%\x08\xf1\xef?'
tRp30
tp31
a(S'ALRANSAVK_ATSRTLSYY_FAYANRNRF_FLLPSLATV_FLNRFTTTL_FLQSINFVR_FTYASALWEI_HVTFFIYNK_ITLKKRWQL_NVFAFPFTIY_QELYSPIFL_SPRWYFYYL_TVYSHLLLV_VLWAHGFEL_YIFFASFYY_YLDAYNMMI_YLYALVYFL'
p32
g3
(g5
S'c\x90\x95%\x08\xf1\xef?'
tRp33
tp34
a.