(lp1
(S'ATSRTLSYY_FAYANRNRF_FLNRFTTTL_FTYASALWEI_HVTFFIYNK_NVFAFPFTIY_QELYSPIFL_SINFVRIIMR_SPRWYFYYL_TVYSHLLLV_YIFFASFYY_YLDAYNMMI'
p2
cnumpy.core.multiarray
scalar
p3
(cnumpy
dtype
p4
(S'f8'
I0
I1
tRp5
(I3
S'<'
NNNI-1
I-1
I0
tbS'\xa7\x06\xc2\xde\xdd\xfb\xef?'
tRp6
tp7
a(S'ATSRTLSYY_FAYANRNRF_FLNRFTTTL_FLQSINFVR_FTYASALWEI_HVTFFIYNK_NVFAFPFTIY_QELYSPIFL_SPRWYFYYL_TVYSHLLLV_YIFFASFYY_YLDAYNMMI'
p8
g3
(g5
S'\xa7\x06\xc2\xde\xdd\xfb\xef?'
tRp9
tp10
a(S'ATSRTLSYY_FAYANRNRF_FLNRFTTTL_FTYASALWEI_HVTFFIYNK_ITLKKRWQL_QELYSPIFL_SINFVRIIMR_SPRWYFYYL_TVYSHLLLV_YIFFASFYY_YLDAYNMMI'
p11
g3
(g5
S'k\x84i\x80\xd7\xfb\xef?'
tRp12
tp13
a(S'ATSRTLSYY_FAYANRNRF_FLNRFTTTL_FLQSINFVR_FTYASALWEI_HVTFFIYNK_ITLKKRWQL_QELYSPIFL_SPRWYFYYL_TVYSHLLLV_YIFFASFYY_YLDAYNMMI'
p14
g3
(g5
S'i\x84i\x80\xd7\xfb\xef?'
tRp15
tp16
a(S'ATSRTLSYY_FAYANRNRF_FLNRFTTTL_FRYMNSQGL_FTYASALWEI_HVTFFIYNK_QELYSPIFL_SINFVRIIMR_SPRWYFYYL_TVYSHLLLV_YIFFASFYY_YLDAYNMMI'
p17
g3
(g5
S'\xfc\x89 X\xd7\xfb\xef?'
tRp18
tp19
a(S'ATSRTLSYY_FAYANRNRF_FLNRFTTTL_FLQSINFVR_FRYMNSQGL_FTYASALWEI_HVTFFIYNK_QELYSPIFL_SPRWYFYYL_TVYSHLLLV_YIFFASFYY_YLDAYNMMI'
p20
g3
(g5
S'\xf8\x89 X\xd7\xfb\xef?'
tRp21
tp22
a(S'ATSRTLSYY_FAYANRNRF_FLNRFTTTL_FTYASALWEI_HVTFFIYNK_QELYSPIFL_SINFVRIIMR_SPRWYFYYL_TSRTLSYYK_TVYSHLLLV_YIFFASFYY_YLDAYNMMI'
p23
g3
(g5
S'h\x92\xa3\x9a\xd4\xfb\xef?'
tRp24
tp25
a(S'ATSRTLSYY_FAYANRNRF_FLNRFTTTL_FTYASALWEI_HVTFFIYNK_KTFPPTEPK_QELYSPIFL_SINFVRIIMR_SPRWYFYYL_TVYSHLLLV_YIFFASFYY_YLDAYNMMI'
p26
g3
(g5
S'h\x92\xa3\x9a\xd4\xfb\xef?'
tRp27
tp28
a(S'ATSRTLSYY_FAYANRNRF_FLNRFTTTL_FTYASALWEI_HVTFFIYNK_QELYSPIFL_SINFVRIIMR_SPRWYFYYL_SSRGTSPAR_TVYSHLLLV_YIFFASFYY_YLDAYNMMI'
p29
g3
(g5
S'g\x92\xa3\x9a\xd4\xfb\xef?'
tRp30
tp31
a(S'ATSRTLSYY_FAYANRNRF_FLNRFTTTL_FLQSINFVR_FTYASALWEI_HVTFFIYNK_KTFPPTEPK_QELYSPIFL_SPRWYFYYL_TVYSHLLLV_YIFFASFYY_YLDAYNMMI'
p32
g3
(g5
S'g\x92\xa3\x9a\xd4\xfb\xef?'
tRp33
tp34
a.