(lp1
(S'ATSRTLSYY_FAYANRNRF_FLLNKEMYL_FLLPSLATV_FLNRFTTTL_FLPRVFSAV_FLQSINFVR_FTYASALWEI_FVDGVPFVV_HVTFFIYNK_ISDYDYYRY_ITLKKRWQL_KTFPPTEPK_LEYHDVRVV_LLYDANYFL_LSPRWYFYY_MGYINVFAF_NVFAFPFTIY_QELYSPIFL_SINFVRIIMR_SPRWYFYYL_TMADLVYAL_TSRTLSYYK_TVYSHLLLV_VLWAHGFEL_YANRNRFLY_YFIASFRLF_YIFFASFYY_YLDAYNMMI_YLYALVYFL'
p2
cnumpy.core.multiarray
scalar
p3
(cnumpy
dtype
p4
(S'f8'
I0
I1
tRp5
(I3
S'<'
NNNI-1
I-1
I0
tbS'l\xd6\x7f \x13\xd9\xef?'
tRp6
tp7
a(S'ATSRTLSYY_FAYANRNRF_FLLNKEMYL_FLLPSLATV_FLNRFTTTL_FLPRVFSAV_FLQSINFVR_FTYASALWEI_FVDGVPFVV_HVTFFIYNK_ISDYDYYRY_ITLKKRWQL_KTFPPTEPK_LEYHDVRVV_LLYDANYFL_MGYINVFAF_NVFAFPFTIY_QELYSPIFL_SINFVRIIMR_SPRWYFYYL_TMADLVYAL_TSRTLSYYK_TVYSHLLLV_VLWAHGFEL_VTPSGTWLTY_YANRNRFLY_YFIASFRLF_YIFFASFYY_YLDAYNMMI_YLYALVYFL'
p8
g3
(g5
S'\xa1!\x1f\xd0\x12\xd9\xef?'
tRp9
tp10
a(S'ATSRTLSYY_FAYANRNRF_FLLNKEMYL_FLLPSLATV_FLNRFTTTL_FLPRVFSAV_FLQSINFVR_FTYASALWEI_FVDGVPFVV_HVTFFIYNK_ISDYDYYRY_ITLKKRWQL_KTFPPTEPK_LEYHDVRVV_LLYDANYFL_MGYINVFAF_NVFAFPFTIY_QELYSPIFL_SINFVRIIMR_SPRWYFYYL_SSPDDQIGYY_TMADLVYAL_TSRTLSYYK_TVYSHLLLV_VLWAHGFEL_YANRNRFLY_YFIASFRLF_YIFFASFYY_YLDAYNMMI_YLYALVYFL'
p11
g3
(g5
S'\x9f!\x1f\xd0\x12\xd9\xef?'
tRp12
tp13
a(S'ATSRTLSYY_FAYANRNRF_FLLNKEMYL_FLLPSLATV_FLNRFTTTL_FLPRVFSAV_FLQSINFVR_FTYASALWEI_FVDGVPFVV_HVTFFIYNK_ISDYDYYRY_ITLKKRWQL_KTFPPTEPK_LEYHDVRVV_LLYDANYFL_MGYINVFAF_MIELSLIDFY_NVFAFPFTIY_QELYSPIFL_SINFVRIIMR_SPRWYFYYL_TMADLVYAL_TSRTLSYYK_TVYSHLLLV_VLWAHGFEL_YANRNRFLY_YFIASFRLF_YIFFASFYY_YLDAYNMMI_YLYALVYFL'
p14
g3
(g5
S'\x9d!\x1f\xd0\x12\xd9\xef?'
tRp15
tp16
a(S'ATSRTLSYY_FAYANRNRF_FLLNKEMYL_FLLPSLATV_FLNRFTTTL_FLPRVFSAV_FLQSINFVR_FTYASALWEI_FVDGVPFVV_HVTFFIYNK_ISDYDYYRY_ITLKKRWQL_KTFPPTEPK_LEYHDVRVV_LLYDANYFL_LSPRWYFYY_MGYINVFAF_NVFAFPFTIY_QELYSPIFL_SINFVRIIMR_SPRWYFYYL_TMADLVYAL_TSRTLSYYK_TVYSHLLLV_VLWAHGFEL_VYFLQSINF_YANRNRFLY_YIFFASFYY_YLDAYNMMI_YLYALVYFL'
p17
g3
(g5
S'\x9c!\x1f\xd0\x12\xd9\xef?'
tRp18
tp19
a(S'ALRANSAVK_ATSRTLSYY_FAYANRNRF_FLLNKEMYL_FLLPSLATV_FLNRFTTTL_FLPRVFSAV_FLQSINFVR_FTYASALWEI_FVDGVPFVV_HVTFFIYNK_ISDYDYYRY_ITLKKRWQL_KTFPPTEPK_LEYHDVRVV_LLYDANYFL_MGYINVFAF_NVFAFPFTIY_QELYSPIFL_SINFVRIIMR_SPRWYFYYL_TMADLVYAL_TVYSHLLLV_VLWAHGFEL_VTPSGTWLTY_YANRNRFLY_YFIASFRLF_YIFFASFYY_YLDAYNMMI_YLYALVYFL'
p20
g3
(g5
S'\x9c!\x1f\xd0\x12\xd9\xef?'
tRp21
tp22
a(S'ATSRTLSYY_FAYANRNRF_FLLNKEMYL_FLLPSLATV_FLNRFTTTL_FLPRVFSAV_FLQSINFVR_FTYASALWEI_FVDGVPFVV_HVTFFIYNK_ISDYDYYRY_ITLKKRWQL_KTFPPTEPK_LEYHDVRVV_LLYDANYFL_LSPRWYFYY_MGYINVFAF_NVFAFPFTIY_QELYSPIFL_SINFVRIIMR_SPRWYFYYL_SYFIASFRLF_TMADLVYAL_TSRTLSYYK_TVYSHLLLV_VLWAHGFEL_YANRNRFLY_YIFFASFYY_YLDAYNMMI_YLYALVYFL'
p23
g3
(g5
S'\x9b!\x1f\xd0\x12\xd9\xef?'
tRp24
tp25
a(S'ALRANSAVK_ATSRTLSYY_FAYANRNRF_FLLNKEMYL_FLLPSLATV_FLNRFTTTL_FLPRVFSAV_FLQSINFVR_FTYASALWEI_FVDGVPFVV_HVTFFIYNK_ISDYDYYRY_ITLKKRWQL_KTFPPTEPK_LEYHDVRVV_LLYDANYFL_LSPRWYFYY_MGYINVFAF_NVFAFPFTIY_QELYSPIFL_SINFVRIIMR_SPRWYFYYL_TMADLVYAL_TVYSHLLLV_VLWAHGFEL_YANRNRFLY_YFIASFRLF_YIFFASFYY_YLDAYNMMI_YLYALVYFL'
p26
g3
(g5
S'\xb0:\x0e\xac\x11\xd9\xef?'
tRp27
tp28
a(S'ALRANSAVK_ATSRTLSYY_FAYANRNRF_FLLNKEMYL_FLLPSLATV_FLNRFTTTL_FLPRVFSAV_FLQSINFVR_FTYASALWEI_FVDGVPFVV_HVTFFIYNK_ISDYDYYRY_ITLKKRWQL_KTFPPTEPK_LEYHDVRVV_LLYDANYFL_MGYINVFAF_MIELSLIDFY_NVFAFPFTIY_QELYSPIFL_SINFVRIIMR_SPRWYFYYL_TMADLVYAL_TVYSHLLLV_VLWAHGFEL_YANRNRFLY_YFIASFRLF_YIFFASFYY_YLDAYNMMI_YLYALVYFL'
p29
g3
(g5
S'\xe3\x85\xad[\x11\xd9\xef?'
tRp30
tp31
a(S'ALRANSAVK_ATSRTLSYY_FAYANRNRF_FLLNKEMYL_FLLPSLATV_FLNRFTTTL_FLPRVFSAV_FLQSINFVR_FTYASALWEI_FVDGVPFVV_HVTFFIYNK_ISDYDYYRY_ITLKKRWQL_KTFPPTEPK_LEYHDVRVV_LLYDANYFL_LSPRWYFYY_MGYINVFAF_NVFAFPFTIY_QELYSPIFL_SINFVRIIMR_SPRWYFYYL_TMADLVYAL_TVYSHLLLV_VLWAHGFEL_VYFLQSINF_YANRNRFLY_YIFFASFYY_YLDAYNMMI_YLYALVYFL'
p32
g3
(g5
S'\xe3\x85\xad[\x11\xd9\xef?'
tRp33
tp34
a.