(lp1
(S'ATSRTLSYY_FAYANRNRF_FLNRFTTTL_FLQSINFVR_FTYASALWEI_HVTFFIYNK_ISDYDYYRY_ITLKKRWQL_KTFPPTEPK_LLYDANYFL_NVFAFPFTIY_QELYSPIFL_SINFVRIIMR_SPRWYFYYL_TMADLVYAL_TVYSHLLLV_VLWAHGFEL_YIFFASFYY_YLDAYNMMI_YLYALVYFL'
p2
cnumpy.core.multiarray
scalar
p3
(cnumpy
dtype
p4
(S'f8'
I0
I1
tRp5
(I3
S'<'
NNNI-1
I-1
I0
tbS']H{\xc3#\xed\xef?'
tRp6
tp7
a(S'ATSRTLSYY_FAYANRNRF_FLLPSLATV_FLNRFTTTL_FLQSINFVR_FTYASALWEI_HVTFFIYNK_ISDYDYYRY_ITLKKRWQL_KTFPPTEPK_NVFAFPFTIY_QELYSPIFL_SINFVRIIMR_SPRWYFYYL_TMADLVYAL_TVYSHLLLV_VLWAHGFEL_YIFFASFYY_YLDAYNMMI_YLYALVYFL'
p8
g3
(g5
S']H{\xc3#\xed\xef?'
tRp9
tp10
a(S'ATSRTLSYY_FAYANRNRF_FLLNKEMYL_FLNRFTTTL_FLQSINFVR_FTYASALWEI_HVTFFIYNK_ISDYDYYRY_ITLKKRWQL_KTFPPTEPK_NVFAFPFTIY_QELYSPIFL_SINFVRIIMR_SPRWYFYYL_TMADLVYAL_TVYSHLLLV_VLWAHGFEL_YIFFASFYY_YLDAYNMMI_YLYALVYFL'
p11
g3
(g5
S']H{\xc3#\xed\xef?'
tRp12
tp13
a(S'ATSRTLSYY_FAYANRNRF_FLNRFTTTL_FLPRVFSAV_FLQSINFVR_FTYASALWEI_HVTFFIYNK_ISDYDYYRY_ITLKKRWQL_KTFPPTEPK_NVFAFPFTIY_QELYSPIFL_SINFVRIIMR_SPRWYFYYL_TMADLVYAL_TVYSHLLLV_VLWAHGFEL_YIFFASFYY_YLDAYNMMI_YLYALVYFL'
p14
g3
(g5
S'[H{\xc3#\xed\xef?'
tRp15
tp16
a(S'ALRANSAVK_ATSRTLSYY_FAYANRNRF_FLLPSLATV_FLNRFTTTL_FLQSINFVR_FTYASALWEI_HVTFFIYNK_ISDYDYYRY_ITLKKRWQL_NVFAFPFTIY_QELYSPIFL_SINFVRIIMR_SPRWYFYYL_TMADLVYAL_TVYSHLLLV_VLWAHGFEL_YIFFASFYY_YLDAYNMMI_YLYALVYFL'
p17
g3
(g5
S'|\x92\x18&"\xed\xef?'
tRp18
tp19
a(S'ALRANSAVK_ATSRTLSYY_FAYANRNRF_FLLPSLATV_FLNRFTTTL_FLQSINFVR_FTYASALWEI_HVTFFIYNK_ISDYDYYRY_ITLKKRWQL_LLYDANYFL_NVFAFPFTIY_QELYSPIFL_SINFVRIIMR_SPRWYFYYL_TMADLVYAL_TVYSHLLLV_VLWAHGFEL_YIFFASFYY_YLDAYNMMI'
p20
g3
(g5
S'y\x92\x18&"\xed\xef?'
tRp21
tp22
a(S'ALRANSAVK_ATSRTLSYY_FAYANRNRF_FLLPSLATV_FLNRFTTTL_FLQSINFVR_FTYASALWEI_HVTFFIYNK_ISDYDYYRY_ITLKKRWQL_LLYDANYFL_NVFAFPFTIY_QELYSPIFL_SINFVRIIMR_SPRWYFYYL_TVYSHLLLV_VLWAHGFEL_YIFFASFYY_YLDAYNMMI_YLYALVYFL'
p23
g3
(g5
S'\x8b\x96\x1e\xf4!\xed\xef?'
tRp24
tp25
a(S'ATSRTLSYY_FAYANRNRF_FLLNKEMYL_FLNRFTTTL_FLQSINFVR_FTYASALWEI_HVTFFIYNK_ISDYDYYRY_ITLKKRWQL_KTFPPTEPK_LLYDANYFL_NVFAFPFTIY_QELYSPIFL_SINFVRIIMR_SPRWYFYYL_TMADLVYAL_TVYSHLLLV_YIFFASFYY_YLDAYNMMI_YLYALVYFL'
p26
g3
(g5
S'\xe7C\xa8\xc2 \xed\xef?'
tRp27
tp28
a(S'ATSRTLSYY_FAYANRNRF_FLNRFTTTL_FLPRVFSAV_FLQSINFVR_FTYASALWEI_HVTFFIYNK_ISDYDYYRY_ITLKKRWQL_KTFPPTEPK_LLYDANYFL_NVFAFPFTIY_QELYSPIFL_SINFVRIIMR_SPRWYFYYL_TMADLVYAL_TVYSHLLLV_YIFFASFYY_YLDAYNMMI_YLYALVYFL'
p29
g3
(g5
S'\xe5C\xa8\xc2 \xed\xef?'
tRp30
tp31
a(S'ATSRTLSYY_FAYANRNRF_FLLPSLATV_FLNRFTTTL_FLQSINFVR_FTYASALWEI_HVTFFIYNK_ISDYDYYRY_ITLKKRWQL_KTFPPTEPK_LLYDANYFL_NVFAFPFTIY_QELYSPIFL_SINFVRIIMR_SPRWYFYYL_TMADLVYAL_TVYSHLLLV_YIFFASFYY_YLDAYNMMI_YLYALVYFL'
p32
g3
(g5
S'\xe5C\xa8\xc2 \xed\xef?'
tRp33
tp34
a.