(lp1
(S'AELEGIQY_ALRANSAVK_ASKIITLKK_ATSRTLSYY_EEHVQIHTI_FAYANRNRF_FLLNKEMYL_FLLPSLATV_FLNRFTTTL_FLPRVFSAV_FLQSINFVR_FPPTSFGPL_FPRGQGVPI_FTYASALWEI_FVDGVPFVV_HPLADNKFAL_HVTFFIYNK_IELSLIDFYL_ILLIIMRTFK_IMRTFKVSI_IPIQASLPF_IPRRNVATL_ISDYDYYRY_ITLATCELY_ITLKKRWQL_KAYNVTQAF_KMQRMLLEK_KTFPPTEPK_KVSIWNLDY_LEYHDVRVV_LIIMRTFKV_LLYDANYFL_LSPRWYFYY_LWLLWPVTL_LWPVTLACF_LYSPIFLIV_MGYINVFAF_MIELSLIDFY_MPASWVMRI_NVFAFPFTIY_QELIRQGTDY_QELYSPIFL_QLPQGTTLPK_RARSVSPKL_RIRGGDGKMK_RLYYDSMSY_RQLLFVVEV_RTFKVSIWNL_SELVIGAVI_SINFVRIIMR_SPRWYFYYL_SSPDDQIGYY_SSRGTSPAR_SYFTSDYYQL_TLKKRWQLA_TMADLVYAL_TSRTLSYYK_TVYSHLLLV_VEHVTFFIY_VLWAHGFEL_VSIWNLDYII_VTPSGTWLTY_VVYRGTTTY_VYFLQSINF_WPVTLACFVL_YANRNRFLY_YDANYFLCW_YFIASFRLF_YIFFASFYY_YIIKLIFLW_YINVFAFPF_YLDAYNMMI_YLYALVYFL'
p2
cnumpy.core.multiarray
scalar
p3
(cnumpy
dtype
p4
(S'f8'
I0
I1
tRp5
(I3
S'<'
NNNI-1
I-1
I0
tbS'\x88\x1e\x12\xb22\xab\xef?'
tRp6
tp7
a(S'AELEGIQY_ALRANSAVK_ASKIITLKK_ATSRTLSYY_EEHVQIHTI_FAYANRNRF_FLLNKEMYL_FLLPSLATV_FLNRFTTTL_FLPRVFSAV_FLQSINFVR_FPPTSFGPL_FPRGQGVPI_FTYASALWEI_FVDGVPFVV_HPLADNKFAL_HVTFFIYNK_IELSLIDFYL_ILLIIMRTFK_IMRTFKVSI_IPIQASLPF_IPRRNVATL_ISDYDYYRY_ITLATCELY_ITLKKRWQL_KAYNVTQAF_KMQRMLLEK_KTFPPTEPK_KVSIWNLDY_LEYHDVRVV_LIIMRTFKV_LLYDANYFL_LSPRWYFYY_LWLLWPVTL_LWPVTLACF_LYSPIFLIV_MGYINVFAF_MIELSLIDFY_MPASWVMRI_NVFAFPFTIY_QELIRQGTDY_QELYSPIFL_QLPQGTTLPK_RARSVSPKL_RIRGGDGKMK_RLYYDSMSY_RQLLFVVEV_RTFKVSIWNL_SELVIGAVI_SINFVRIIMR_SPRWYFYYL_SSPDDQIGYY_SSRGTSPAR_SYFTSDYYQL_TLKKRWQLAL_TMADLVYAL_TSRTLSYYK_TVYSHLLLV_VEHVTFFIY_VLWAHGFEL_VSIWNLDYII_VTPSGTWLTY_VVYRGTTTY_VYFLQSINF_WPVTLACFVL_YANRNRFLY_YDANYFLCW_YFIASFRLF_YIFFASFYY_YIIKLIFLW_YINVFAFPF_YLDAYNMMI_YLYALVYFL'
p8
g6
tp9
a(S'AELEGIQY_ALRANSAVK_ASKIITLKK_ATSRTLSYY_EEHVQIHTI_FAYANRNRF_FLLNKEMYL_FLLPSLATV_FLNRFTTTL_FLPRVFSAV_FLQSINFVR_FPPTSFGPL_FPRGQGVPI_FTYASALWEI_FVDGVPFVV_HLRIAGHHL_HPLADNKFAL_HVTFFIYNK_IELSLIDFYL_ILLIIMRTFK_IMRTFKVSI_IPIQASLPF_IPRRNVATL_ISDYDYYRY_ITLATCELY_ITLKKRWQL_KAYNVTQAF_KMQRMLLEK_KTFPPTEPK_KVSIWNLDY_LEYHDVRVV_LIIMRTFKV_LLYDANYFL_LSPRWYFYY_LWLLWPVTL_LWPVTLACF_LYSPIFLIV_MGYINVFAF_MIELSLIDFY_MPASWVMRI_NVFAFPFTIY_QELIRQGTDY_QELYSPIFL_QLPQGTTLPK_RARSVSPKL_RIRGGDGKMK_RLYYDSMSY_RQLLFVVEV_RTFKVSIWNL_SELVIGAVI_SINFVRIIMR_SPRWYFYYL_SSPDDQIGYY_SSRGTSPAR_SYFTSDYYQL_TMADLVYAL_TSRTLSYYK_TVYSHLLLV_VEHVTFFIY_VLWAHGFEL_VSIWNLDYII_VTPSGTWLTY_VVYRGTTTY_VYFLQSINF_WPVTLACFVL_YANRNRFLY_YDANYFLCW_YFIASFRLF_YIFFASFYY_YIIKLIFLW_YINVFAFPF_YLDAYNMMI_YLYALVYFL'
p10
g3
(g5
S'\x88\x1e\x12\xb22\xab\xef?'
tRp11
tp12
a(S'AELEGIQY_ALRANSAVK_ASKIITLKK_ATSRTLSYY_EEHVQIHTI_EELKKLLEQW_FAYANRNRF_FLLNKEMYL_FLLPSLATV_FLNRFTTTL_FLPRVFSAV_FLQSINFVR_FPPTSFGPL_FPRGQGVPI_FTYASALWEI_FVDGVPFVV_HPLADNKFAL_HVTFFIYNK_IELSLIDFYL_ILLIIMRTFK_IMRTFKVSI_IPIQASLPF_IPRRNVATL_ISDYDYYRY_ITLATCELY_ITLKKRWQL_KAYNVTQAF_KMQRMLLEK_KTFPPTEPK_KVSIWNLDY_LEYHDVRVV_LIIMRTFKV_LLYDANYFL_LSPRWYFYY_LWLLWPVTL_LWPVTLACF_LYSPIFLIV_MGYINVFAF_MIELSLIDFY_MPASWVMRI_NVFAFPFTIY_QELYSPIFL_QLPQGTTLPK_RARSVSPKL_RIRGGDGKMK_RLYYDSMSY_RQLLFVVEV_RTFKVSIWNL_SELVIGAVI_SINFVRIIMR_SPRWYFYYL_SSPDDQIGYY_SSRGTSPAR_SYFTSDYYQL_TLKKRWQLA_TMADLVYAL_TSRTLSYYK_TVYSHLLLV_VEHVTFFIY_VLWAHGFEL_VSIWNLDYII_VTPSGTWLTY_VVYRGTTTY_VYFLQSINF_WPVTLACFVL_YANRNRFLY_YDANYFLCW_YFIASFRLF_YIFFASFYY_YIIKLIFLW_YINVFAFPF_YLDAYNMMI_YLYALVYFL'
p13
g3
(g5
S'\x88\x1e\x12\xb22\xab\xef?'
tRp14
tp15
a(S'AELEGIQY_ALRANSAVK_ASKIITLKK_ATSRTLSYY_EEHVQIHTI_EELKKLLEQW_FAYANRNRF_FLLNKEMYL_FLLPSLATV_FLNRFTTTL_FLPRVFSAV_FLQSINFVR_FPPTSFGPL_FPRGQGVPI_FTYASALWEI_FVDGVPFVV_HPLADNKFAL_HVTFFIYNK_IELSLIDFYL_ILLIIMRTFK_IMRTFKVSI_IPIQASLPF_IPRRNVATL_ISDYDYYRY_ITLATCELY_ITLKKRWQL_KAYNVTQAF_KMQRMLLEK_KTFPPTEPK_KVSIWNLDY_LEYHDVRVV_LIIMRTFKV_LLYDANYFL_LSPRWYFYY_LWLLWPVTL_LWPVTLACF_LYSPIFLIV_MGYINVFAF_MIELSLIDFY_MPASWVMRI_NVFAFPFTIY_QELYSPIFL_QLPQGTTLPK_RARSVSPKL_RIRGGDGKMK_RLYYDSMSY_RQLLFVVEV_RTFKVSIWNL_SELVIGAVI_SINFVRIIMR_SPRWYFYYL_SSPDDQIGYY_SSRGTSPAR_SYFTSDYYQL_TLKKRWQLAL_TMADLVYAL_TSRTLSYYK_TVYSHLLLV_VEHVTFFIY_VLWAHGFEL_VSIWNLDYII_VTPSGTWLTY_VVYRGTTTY_VYFLQSINF_WPVTLACFVL_YANRNRFLY_YDANYFLCW_YFIASFRLF_YIFFASFYY_YIIKLIFLW_YINVFAFPF_YLDAYNMMI_YLYALVYFL'
p16
g14
tp17
a(S'AELEGIQY_ALRANSAVK_ASKIITLKK_ATSRTLSYY_EEHVQIHTI_EELKKLLEQW_FAYANRNRF_FLLNKEMYL_FLLPSLATV_FLNRFTTTL_FLPRVFSAV_FLQSINFVR_FPPTSFGPL_FPRGQGVPI_FTYASALWEI_FVDGVPFVV_HPLADNKFAL_HVTFFIYNK_IELSLIDFYL_ILLIIMRTFK_IMRTFKVSI_IPIQASLPF_IPRRNVATL_ISDYDYYRY_ITLATCELY_ITLKKRWQL_KAYNVTQAF_KMQRMLLEK_KTFPPTEPK_KVSIWNLDY_LEYHDVRVV_LIIMRTFKV_LLYDANYFL_LSPRWYFYY_LWLLWPVTL_LWPVTLACF_LYSPIFLIV_MGYINVFAF_MIELSLIDFY_MPASWVMRI_NVFAFPFTIY_QELIRQGTDY_QELYSPIFL_QLPQGTTLPK_RARSVSPKL_RIRGGDGKMK_RLYYDSMSY_RQLLFVVEV_RTFKVSIWNL_SELVIGAVI_SINFVRIIMR_SPRWYFYYL_SSPDDQIGYY_SSRGTSPAR_SYFTSDYYQL_TLKKRWQLA_TMADLVYAL_TSRTLSYYK_TVYSHLLLV_VEHVTFFIY_VLWAHGFEL_VSIWNLDYII_VTPSGTWLTY_VVYRGTTTY_VYFLQSINF_WPVTLACFVL_YANRNRFLY_YFIASFRLF_YIFFASFYY_YIIKLIFLW_YINVFAFPF_YLDAYNMMI_YLYALVYFL'
p18
g3
(g5
S'\x88\x1e\x12\xb22\xab\xef?'
tRp19
tp20
a(S'AELEGIQY_ALRANSAVK_ASKIITLKK_ATSRTLSYY_EEHVQIHTI_EELKKLLEQW_FAYANRNRF_FLLNKEMYL_FLLPSLATV_FLNRFTTTL_FLPRVFSAV_FLQSINFVR_FPPTSFGPL_FPRGQGVPI_FTYASALWEI_FVDGVPFVV_HPLADNKFAL_HVTFFIYNK_IELSLIDFYL_ILLIIMRTFK_IMRTFKVSI_IPIQASLPF_IPRRNVATL_ISDYDYYRY_ITLATCELY_ITLKKRWQL_KAYNVTQAF_KMQRMLLEK_KTFPPTEPK_KVSIWNLDY_LEYHDVRVV_LIIMRTFKV_LLYDANYFL_LSPRWYFYY_LWLLWPVTL_LWPVTLACF_LYSPIFLIV_MGYINVFAF_MIELSLIDFY_MPASWVMRI_NVFAFPFTIY_QELIRQGTDY_QELYSPIFL_QLPQGTTLPK_RARSVSPKL_RIRGGDGKMK_RLYYDSMSY_RQLLFVVEV_RTFKVSIWNL_SELVIGAVI_SINFVRIIMR_SPRWYFYYL_SSPDDQIGYY_SSRGTSPAR_SYFTSDYYQL_TLKKRWQLAL_TMADLVYAL_TSRTLSYYK_TVYSHLLLV_VEHVTFFIY_VLWAHGFEL_VSIWNLDYII_VTPSGTWLTY_VVYRGTTTY_VYFLQSINF_WPVTLACFVL_YANRNRFLY_YFIASFRLF_YIFFASFYY_YIIKLIFLW_YINVFAFPF_YLDAYNMMI_YLYALVYFL'
p21
g19
tp22
a(S'AELEGIQY_ALRANSAVK_ASKIITLKK_ATSRTLSYY_EEHVQIHTI_EELKKLLEQW_FAYANRNRF_FLLNKEMYL_FLLPSLATV_FLNRFTTTL_FLPRVFSAV_FLQSINFVR_FPPTSFGPL_FPRGQGVPI_FTYASALWEI_FVDGVPFVV_HLRIAGHHL_HPLADNKFAL_HVTFFIYNK_IELSLIDFYL_ILLIIMRTFK_IMRTFKVSI_IPIQASLPF_IPRRNVATL_ISDYDYYRY_ITLATCELY_ITLKKRWQL_KAYNVTQAF_KMQRMLLEK_KTFPPTEPK_KVSIWNLDY_LEYHDVRVV_LIIMRTFKV_LLYDANYFL_LSPRWYFYY_LWLLWPVTL_LWPVTLACF_LYSPIFLIV_MGYINVFAF_MIELSLIDFY_MPASWVMRI_NVFAFPFTIY_QELYSPIFL_QLPQGTTLPK_RARSVSPKL_RIRGGDGKMK_RLYYDSMSY_RQLLFVVEV_RTFKVSIWNL_SELVIGAVI_SINFVRIIMR_SPRWYFYYL_SSPDDQIGYY_SSRGTSPAR_SYFTSDYYQL_TMADLVYAL_TSRTLSYYK_TVYSHLLLV_VEHVTFFIY_VLWAHGFEL_VSIWNLDYII_VTPSGTWLTY_VVYRGTTTY_VYFLQSINF_WPVTLACFVL_YANRNRFLY_YDANYFLCW_YFIASFRLF_YIFFASFYY_YIIKLIFLW_YINVFAFPF_YLDAYNMMI_YLYALVYFL'
p23
g3
(g5
S'\x88\x1e\x12\xb22\xab\xef?'
tRp24
tp25
a(S'AELEGIQY_ALRANSAVK_ASKIITLKK_ATSRTLSYY_EEHVQIHTI_EELKKLLEQW_FAYANRNRF_FLLNKEMYL_FLLPSLATV_FLNRFTTTL_FLPRVFSAV_FLQSINFVR_FPPTSFGPL_FPRGQGVPI_FTYASALWEI_FVDGVPFVV_HLRIAGHHL_HPLADNKFAL_HVTFFIYNK_IELSLIDFYL_ILLIIMRTFK_IMRTFKVSI_IPIQASLPF_IPRRNVATL_ISDYDYYRY_ITLATCELY_ITLKKRWQL_KAYNVTQAF_KMQRMLLEK_KTFPPTEPK_KVSIWNLDY_LEYHDVRVV_LIIMRTFKV_LLYDANYFL_LSPRWYFYY_LWLLWPVTL_LWPVTLACF_LYSPIFLIV_MGYINVFAF_MIELSLIDFY_MPASWVMRI_NVFAFPFTIY_QELIRQGTDY_QELYSPIFL_QLPQGTTLPK_RARSVSPKL_RIRGGDGKMK_RLYYDSMSY_RQLLFVVEV_RTFKVSIWNL_SELVIGAVI_SINFVRIIMR_SPRWYFYYL_SSPDDQIGYY_SSRGTSPAR_SYFTSDYYQL_TMADLVYAL_TSRTLSYYK_TVYSHLLLV_VEHVTFFIY_VLWAHGFEL_VSIWNLDYII_VTPSGTWLTY_VVYRGTTTY_VYFLQSINF_WPVTLACFVL_YANRNRFLY_YFIASFRLF_YIFFASFYY_YIIKLIFLW_YINVFAFPF_YLDAYNMMI_YLYALVYFL'
p26
g3
(g5
S'\x88\x1e\x12\xb22\xab\xef?'
tRp27
tp28
a(S'AELEGIQY_ALRANSAVK_ASKIITLKK_ATSRTLSYY_DLFMRIFTI_EEHVQIHTI_FAYANRNRF_FLLNKEMYL_FLLPSLATV_FLNRFTTTL_FLPRVFSAV_FLQSINFVR_FPPTSFGPL_FPRGQGVPI_FTYASALWEI_FVDGVPFVV_HPLADNKFAL_HVTFFIYNK_IELSLIDFYL_ILLIIMRTFK_IMRTFKVSI_IPIQASLPF_IPRRNVATL_ISDYDYYRY_ITLATCELY_ITLKKRWQL_KAYNVTQAF_KMQRMLLEK_KTFPPTEPK_KVSIWNLDY_LEYHDVRVV_LLYDANYFL_LSPRWYFYY_LWLLWPVTL_LWPVTLACF_LYSPIFLIV_MGYINVFAF_MIELSLIDFY_MPASWVMRI_NVFAFPFTIY_QELIRQGTDY_QELYSPIFL_QLPQGTTLPK_RARSVSPKL_RIRGGDGKMK_RLYYDSMSY_RQLLFVVEV_RTFKVSIWNL_SELVIGAVI_SINFVRIIMR_SPRWYFYYL_SSPDDQIGYY_SSRGTSPAR_SYFTSDYYQL_TLKKRWQLA_TMADLVYAL_TSRTLSYYK_TVYSHLLLV_VEHVTFFIY_VLWAHGFEL_VSIWNLDYII_VTPSGTWLTY_VVYRGTTTY_VYFLQSINF_WPVTLACFVL_YANRNRFLY_YDANYFLCW_YFIASFRLF_YIFFASFYY_YIIKLIFLW_YINVFAFPF_YLDAYNMMI_YLYALVYFL'
p29
g3
(g5
S'\x88\x1e\x12\xb22\xab\xef?'
tRp30
tp31
a.