(lp1
(S'ATSRTLSYY_FAYANRNRF_FLNRFTTTL_FLQSINFVR_FTYASALWEI_FVDGVPFVV_HVTFFIYNK_ISDYDYYRY_ITLKKRWQL_KTFPPTEPK_LEYHDVRVV_LLYDANYFL_NVFAFPFTIY_QELYSPIFL_SINFVRIIMR_SPRWYFYYL_TMADLVYAL_TVYSHLLLV_VLWAHGFEL_YANRNRFLY_YIFFASFYY_YLDAYNMMI_YLYALVYFL'
p2
cnumpy.core.multiarray
scalar
p3
(cnumpy
dtype
p4
(S'f8'
I0
I1
tRp5
(I3
S'<'
NNNI-1
I-1
I0
tbS'\x80\xce^\xc7\xf2\xee\xef?'
tRp6
tp7
a(S'ATSRTLSYY_FAYANRNRF_FLNRFTTTL_FLPRVFSAV_FLQSINFVR_FTYASALWEI_FVDGVPFVV_HVTFFIYNK_ISDYDYYRY_ITLKKRWQL_KTFPPTEPK_LEYHDVRVV_NVFAFPFTIY_QELYSPIFL_SINFVRIIMR_SPRWYFYYL_TMADLVYAL_TVYSHLLLV_VLWAHGFEL_YANRNRFLY_YIFFASFYY_YLDAYNMMI_YLYALVYFL'
p8
g3
(g5
S'\x80\xce^\xc7\xf2\xee\xef?'
tRp9
tp10
a(S'ATSRTLSYY_FAYANRNRF_FLLPSLATV_FLNRFTTTL_FLQSINFVR_FTYASALWEI_FVDGVPFVV_HVTFFIYNK_ISDYDYYRY_ITLKKRWQL_KTFPPTEPK_LEYHDVRVV_NVFAFPFTIY_QELYSPIFL_SINFVRIIMR_SPRWYFYYL_TMADLVYAL_TVYSHLLLV_VLWAHGFEL_YANRNRFLY_YIFFASFYY_YLDAYNMMI_YLYALVYFL'
p11
g3
(g5
S'\x80\xce^\xc7\xf2\xee\xef?'
tRp12
tp13
a(S'ATSRTLSYY_FAYANRNRF_FLLNKEMYL_FLNRFTTTL_FLQSINFVR_FTYASALWEI_FVDGVPFVV_HVTFFIYNK_ISDYDYYRY_ITLKKRWQL_KTFPPTEPK_LEYHDVRVV_NVFAFPFTIY_QELYSPIFL_SINFVRIIMR_SPRWYFYYL_TMADLVYAL_TVYSHLLLV_VLWAHGFEL_YANRNRFLY_YIFFASFYY_YLDAYNMMI_YLYALVYFL'
p14
g3
(g5
S'\x80\xce^\xc7\xf2\xee\xef?'
tRp15
tp16
a(S'ALRANSAVK_ATSRTLSYY_FAYANRNRF_FLLPSLATV_FLNRFTTTL_FLQSINFVR_FTYASALWEI_FVDGVPFVV_HVTFFIYNK_ISDYDYYRY_ITLKKRWQL_LEYHDVRVV_LLYDANYFL_NVFAFPFTIY_QELYSPIFL_SINFVRIIMR_SPRWYFYYL_TMADLVYAL_TVYSHLLLV_VLWAHGFEL_YANRNRFLY_YIFFASFYY_YLDAYNMMI'
p17
g3
(g5
S"\xd0'\x95\x12\xf1\xee\xef?"
tRp18
tp19
a(S'ALRANSAVK_ATSRTLSYY_FAYANRNRF_FLLPSLATV_FLNRFTTTL_FLQSINFVR_FTYASALWEI_FVDGVPFVV_HVTFFIYNK_ISDYDYYRY_ITLKKRWQL_LEYHDVRVV_NVFAFPFTIY_QELYSPIFL_SINFVRIIMR_SPRWYFYYL_TMADLVYAL_TVYSHLLLV_VLWAHGFEL_YANRNRFLY_YIFFASFYY_YLDAYNMMI_YLYALVYFL'
p20
g3
(g5
S"\xcb'\x95\x12\xf1\xee\xef?"
tRp21
tp22
a(S'ALRANSAVK_ATSRTLSYY_FAYANRNRF_FLLPSLATV_FLNRFTTTL_FLQSINFVR_FTYASALWEI_FVDGVPFVV_HVTFFIYNK_ISDYDYYRY_ITLKKRWQL_LEYHDVRVV_LLYDANYFL_NVFAFPFTIY_QELYSPIFL_SINFVRIIMR_SPRWYFYYL_TVYSHLLLV_VLWAHGFEL_YANRNRFLY_YIFFASFYY_YLDAYNMMI_YLYALVYFL'
p23
g3
(g5
S'\xdd+\x9b\xe0\xf0\xee\xef?'
tRp24
tp25
a(S'ATSRTLSYY_FAYANRNRF_FLNRFTTTL_FLPRVFSAV_FLQSINFVR_FTYASALWEI_FVDGVPFVV_HVTFFIYNK_ISDYDYYRY_ITLKKRWQL_KTFPPTEPK_LEYHDVRVV_LLYDANYFL_NVFAFPFTIY_QELYSPIFL_SINFVRIIMR_SPRWYFYYL_TMADLVYAL_TVYSHLLLV_YANRNRFLY_YIFFASFYY_YLDAYNMMI_YLYALVYFL'
p26
g3
(g5
S'\t\xca\x8b\xc6\xef\xee\xef?'
tRp27
tp28
a(S'ATSRTLSYY_FAYANRNRF_FLLPSLATV_FLNRFTTTL_FLQSINFVR_FTYASALWEI_FVDGVPFVV_HVTFFIYNK_ISDYDYYRY_ITLKKRWQL_KTFPPTEPK_LEYHDVRVV_LLYDANYFL_NVFAFPFTIY_QELYSPIFL_SINFVRIIMR_SPRWYFYYL_TMADLVYAL_TVYSHLLLV_YANRNRFLY_YIFFASFYY_YLDAYNMMI_YLYALVYFL'
p29
g3
(g5
S'\x08\xca\x8b\xc6\xef\xee\xef?'
tRp30
tp31
a(S'ATSRTLSYY_FAYANRNRF_FLLNKEMYL_FLNRFTTTL_FLQSINFVR_FTYASALWEI_FVDGVPFVV_HVTFFIYNK_ISDYDYYRY_ITLKKRWQL_KTFPPTEPK_LEYHDVRVV_LLYDANYFL_NVFAFPFTIY_QELYSPIFL_SINFVRIIMR_SPRWYFYYL_TMADLVYAL_TVYSHLLLV_YANRNRFLY_YIFFASFYY_YLDAYNMMI_YLYALVYFL'
p32
g3
(g5
S'\x08\xca\x8b\xc6\xef\xee\xef?'
tRp33
tp34
a.