(lp1
(S'ALRANSAVK_ATSRTLSYY_EEHVQIHTI_FAYANRNRF_FLLNKEMYL_FLLPSLATV_FLNRFTTTL_FLPRVFSAV_FLQSINFVR_FTYASALWEI_FVDGVPFVV_HVTFFIYNK_ISDYDYYRY_ITLKKRWQL_KTFPPTEPK_KVSIWNLDY_LEYHDVRVV_LLYDANYFL_LSPRWYFYY_MGYINVFAF_NVFAFPFTIY_QELYSPIFL_RARSVSPKL_SINFVRIIMR_SPRWYFYYL_TMADLVYAL_TSRTLSYYK_TVYSHLLLV_VLWAHGFEL_VYFLQSINF_YANRNRFLY_YFIASFRLF_YIFFASFYY_YLDAYNMMI_YLYALVYFL'
p2
cnumpy.core.multiarray
scalar
p3
(cnumpy
dtype
p4
(S'f8'
I0
I1
tRp5
(I3
S'<'
NNNI-1
I-1
I0
tbS'{6\x90\xb0\x10\xb6\xef?'
tRp6
tp7
a(S'ALRANSAVK_ATSRTLSYY_EEHVQIHTI_FAYANRNRF_FLLNKEMYL_FLLPSLATV_FLNRFTTTL_FLPRVFSAV_FLQSINFVR_FTYASALWEI_FVDGVPFVV_HVTFFIYNK_ISDYDYYRY_ITLKKRWQL_KTFPPTEPK_KVSIWNLDY_LEYHDVRVV_LLYDANYFL_MGYINVFAF_MIELSLIDFY_NVFAFPFTIY_QELYSPIFL_RARSVSPKL_SINFVRIIMR_SPRWYFYYL_TMADLVYAL_TSRTLSYYK_TVYSHLLLV_VLWAHGFEL_VYFLQSINF_YANRNRFLY_YFIASFRLF_YIFFASFYY_YLDAYNMMI_YLYALVYFL'
p8
g3
(g5
S'\xb0\x81/`\x10\xb6\xef?'
tRp9
tp10
a(S'ALRANSAVK_ATSRTLSYY_EEHVQIHTI_FAYANRNRF_FLLNKEMYL_FLLPSLATV_FLNRFTTTL_FLPRVFSAV_FLQSINFVR_FTYASALWEI_FVDGVPFVV_HVTFFIYNK_ISDYDYYRY_ITLKKRWQL_KTFPPTEPK_KVSIWNLDY_LEYHDVRVV_LLYDANYFL_MGYINVFAF_NVFAFPFTIY_QELYSPIFL_RARSVSPKL_SINFVRIIMR_SPRWYFYYL_TMADLVYAL_TSRTLSYYK_TVYSHLLLV_VLWAHGFEL_VTPSGTWLTY_VYFLQSINF_YANRNRFLY_YFIASFRLF_YIFFASFYY_YLDAYNMMI_YLYALVYFL'
p11
g3
(g5
S'\xad\x81/`\x10\xb6\xef?'
tRp12
tp13
a(S'ALRANSAVK_ATSRTLSYY_EEHVQIHTI_FAYANRNRF_FLLNKEMYL_FLLPSLATV_FLNRFTTTL_FLPRVFSAV_FLQSINFVR_FTYASALWEI_FVDGVPFVV_HVTFFIYNK_ISDYDYYRY_ITLKKRWQL_KTFPPTEPK_KVSIWNLDY_LEYHDVRVV_LLYDANYFL_MGYINVFAF_NVFAFPFTIY_QELYSPIFL_RARSVSPKL_SINFVRIIMR_SPRWYFYYL_SSPDDQIGYY_TMADLVYAL_TSRTLSYYK_TVYSHLLLV_VLWAHGFEL_VYFLQSINF_YANRNRFLY_YFIASFRLF_YIFFASFYY_YLDAYNMMI_YLYALVYFL'
p14
g3
(g5
S'\xad\x81/`\x10\xb6\xef?'
tRp15
tp16
a(S'ALRANSAVK_ATSRTLSYY_EEHVQIHTI_FAYANRNRF_FLLNKEMYL_FLLPSLATV_FLNRFTTTL_FLPRVFSAV_FLQSINFVR_FTYASALWEI_FVDGVPFVV_HVTFFIYNK_ISDYDYYRY_ITLKKRWQL_KTFPPTEPK_KVSIWNLDY_LEYHDVRVV_LLYDANYFL_LSPRWYFYY_MGYINVFAF_NVFAFPFTIY_QELYSPIFL_RARSVSPKL_SINFVRIIMR_SPRWYFYYL_SYFIASFRLF_TMADLVYAL_TSRTLSYYK_TVYSHLLLV_VLWAHGFEL_VYFLQSINF_YANRNRFLY_YIFFASFYY_YLDAYNMMI_YLYALVYFL'
p17
g3
(g5
S'\xad\x81/`\x10\xb6\xef?'
tRp18
tp19
a(S'ALRANSAVK_ATSRTLSYY_EEHVQIHTI_FAYANRNRF_FLLNKEMYL_FLLPSLATV_FLNRFTTTL_FLPRVFSAV_FLQSINFVR_FTYASALWEI_FVDGVPFVV_HVTFFIYNK_ISDYDYYRY_ITLKKRWQL_KTFPPTEPK_KVSIWNLDY_LEYHDVRVV_LLYDANYFL_LSPRWYFYY_LYSPIFLIV_MGYINVFAF_NVFAFPFTIY_QELYSPIFL_RARSVSPKL_SINFVRIIMR_SPRWYFYYL_TMADLVYAL_TSRTLSYYK_TVYSHLLLV_VLWAHGFEL_YANRNRFLY_YFIASFRLF_YIFFASFYY_YLDAYNMMI_YLYALVYFL'
p20
g3
(g5
S'\xf7\xda\xb8+\x0f\xb6\xef?'
tRp21
tp22
a(S'ALRANSAVK_ATSRTLSYY_EEHVQIHTI_FAYANRNRF_FLLNKEMYL_FLLPSLATV_FLNRFTTTL_FLPRVFSAV_FLQSINFVR_FTYASALWEI_FVDGVPFVV_HVTFFIYNK_ISDYDYYRY_ITLKKRWQL_KMQRMLLEK_KTFPPTEPK_KVSIWNLDY_LEYHDVRVV_LLYDANYFL_LSPRWYFYY_MGYINVFAF_NVFAFPFTIY_QELYSPIFL_SINFVRIIMR_SPRWYFYYL_TMADLVYAL_TSRTLSYYK_TVYSHLLLV_VLWAHGFEL_VYFLQSINF_YANRNRFLY_YFIASFRLF_YIFFASFYY_YLDAYNMMI_YLYALVYFL'
p23
g3
(g5
S'\xe8\xc5\x80\xe7\xf5\xb5\xef?'
tRp24
tp25
a(S'ALRANSAVK_ATSRTLSYY_EEHVQIHTI_FAYANRNRF_FLLNKEMYL_FLLPSLATV_FLNRFTTTL_FLPRVFSAV_FLQSINFVR_FTYASALWEI_FVDGVPFVV_HVTFFIYNK_ISDYDYYRY_ITLKKRWQL_KMQRMLLEK_KTFPPTEPK_KVSIWNLDY_LEYHDVRVV_LLYDANYFL_MGYINVFAF_NVFAFPFTIY_QELYSPIFL_SINFVRIIMR_SPRWYFYYL_SSPDDQIGYY_TMADLVYAL_TSRTLSYYK_TVYSHLLLV_VLWAHGFEL_VYFLQSINF_YANRNRFLY_YFIASFRLF_YIFFASFYY_YLDAYNMMI_YLYALVYFL'
p26
g3
(g5
S'\x1c\x11 \x97\xf5\xb5\xef?'
tRp27
tp28
a(S'ALRANSAVK_ATSRTLSYY_EEHVQIHTI_FAYANRNRF_FLLNKEMYL_FLLPSLATV_FLNRFTTTL_FLPRVFSAV_FLQSINFVR_FTYASALWEI_FVDGVPFVV_HVTFFIYNK_ISDYDYYRY_ITLKKRWQL_KMQRMLLEK_KTFPPTEPK_KVSIWNLDY_LEYHDVRVV_LLYDANYFL_MGYINVFAF_MIELSLIDFY_NVFAFPFTIY_QELYSPIFL_SINFVRIIMR_SPRWYFYYL_TMADLVYAL_TSRTLSYYK_TVYSHLLLV_VLWAHGFEL_VYFLQSINF_YANRNRFLY_YFIASFRLF_YIFFASFYY_YLDAYNMMI_YLYALVYFL'
p29
g3
(g5
S'\x1c\x11 \x97\xf5\xb5\xef?'
tRp30
tp31
a(S'ALRANSAVK_ATSRTLSYY_EEHVQIHTI_FAYANRNRF_FLLNKEMYL_FLLPSLATV_FLNRFTTTL_FLPRVFSAV_FLQSINFVR_FTYASALWEI_FVDGVPFVV_HVTFFIYNK_ISDYDYYRY_ITLKKRWQL_KMQRMLLEK_KTFPPTEPK_KVSIWNLDY_LEYHDVRVV_LLYDANYFL_LSPRWYFYY_MGYINVFAF_NVFAFPFTIY_QELYSPIFL_SINFVRIIMR_SPRWYFYYL_SYFIASFRLF_TMADLVYAL_TSRTLSYYK_TVYSHLLLV_VLWAHGFEL_VYFLQSINF_YANRNRFLY_YIFFASFYY_YLDAYNMMI_YLYALVYFL'
p32
g3
(g5
S'\x1b\x11 \x97\xf5\xb5\xef?'
tRp33
tp34
a.