(lp1
(S'ITLATCELY_SINFVRIIMR_YLDAYNMMI'
p2
cnumpy.core.multiarray
scalar
p3
(cnumpy
dtype
p4
(S'f8'
I0
I1
tRp5
(I3
S'<'
NNNI-1
I-1
I0
tbS'O\x95<p\xbe\xff\xef?'
tRp6
tp7
a(S'RLYYDSMSY_SINFVRIIMR_YLDAYNMMI'
p8
g3
(g5
S'M\x95<p\xbe\xff\xef?'
tRp9
tp10
a(S'FLQSINFVR_RLYYDSMSY_YLDAYNMMI'
p11
g3
(g5
S'L\x95<p\xbe\xff\xef?'
tRp12
tp13
a(S'FLQSINFVR_ITLATCELY_YLDAYNMMI'
p14
g3
(g5
S'L\x95<p\xbe\xff\xef?'
tRp15
tp16
a(S'SINFVRIIMR_YIFFASFYY_YLDAYNMMI'
p17
g3
(g5
S'K\x95<p\xbe\xff\xef?'
tRp18
tp19
a(S'FLQSINFVR_YIFFASFYY_YLDAYNMMI'
p20
g3
(g5
S'I\x95<p\xbe\xff\xef?'
tRp21
tp22
a(S'ATSRTLSYY_SINFVRIIMR_YLDAYNMMI'
p23
g3
(g5
S'H\x95<p\xbe\xff\xef?'
tRp24
tp25
a(S'ATSRTLSYY_FLQSINFVR_YLDAYNMMI'
p26
g3
(g5
S'E\x95<p\xbe\xff\xef?'
tRp27
tp28
a(S'FAYANRNRF_ITLATCELY_YLDAYNMMI'
p29
g3
(g5
S'\x7f*#\xdd\xbb\xff\xef?'
tRp30
tp31
a(S'FAYANRNRF_YIFFASFYY_YLDAYNMMI'
p32
g3
(g5
S'{*#\xdd\xbb\xff\xef?'
tRp33
tp34
a.