(lp1
(S'ATSRTLSYY_FAYANRNRF_FVDGVPFVV_YIFFASFYY_YLDAYNMMI'
p2
cnumpy.core.multiarray
scalar
p3
(cnumpy
dtype
p4
(S'f8'
I0
I1
tRp5
(I3
S'<'
NNNI-1
I-1
I0
tbS'Y0\xff+\x8a\xff\xef?'
tRp6
tp7
a(S'ATSRTLSYY_FAYANRNRF_FLNRFTTTL_YIFFASFYY_YLDAYNMMI'
p8
g3
(g5
S'Y0\xff+\x8a\xff\xef?'
tRp9
tp10
a(S'FAYANRNRF_FVDGVPFVV_ITLATCELY_RLYYDSMSY_YLDAYNMMI'
p11
g3
(g5
S'X0\xff+\x8a\xff\xef?'
tRp12
tp13
a(S'FAYANRNRF_FLNRFTTTL_ITLATCELY_RLYYDSMSY_YLDAYNMMI'
p14
g3
(g5
S'X0\xff+\x8a\xff\xef?'
tRp15
tp16
a(S'ATSRTLSYY_FAYANRNRF_FVDGVPFVV_ITLATCELY_YLDAYNMMI'
p17
g3
(g5
S'X0\xff+\x8a\xff\xef?'
tRp18
tp19
a(S'FAYANRNRF_FVDGVPFVV_ITLATCELY_YIFFASFYY_YLDAYNMMI'
p20
g3
(g5
S'W0\xff+\x8a\xff\xef?'
tRp21
tp22
a(S'FAYANRNRF_FLNRFTTTL_RLYYDSMSY_YIFFASFYY_YLDAYNMMI'
p23
g3
(g5
S'W0\xff+\x8a\xff\xef?'
tRp24
tp25
a(S'FAYANRNRF_FVDGVPFVV_RLYYDSMSY_YIFFASFYY_YLDAYNMMI'
p26
g3
(g5
S'T0\xff+\x8a\xff\xef?'
tRp27
tp28
a(S'FAYANRNRF_FLNRFTTTL_ITLATCELY_YIFFASFYY_YLDAYNMMI'
p29
g3
(g5
S'T0\xff+\x8a\xff\xef?'
tRp30
tp31
a(S'ATSRTLSYY_FAYANRNRF_FLNRFTTTL_ITLATCELY_YLDAYNMMI'
p32
g3
(g5
S'T0\xff+\x8a\xff\xef?'
tRp33
tp34
a.