(lp1
(S'ATSRTLSYY_FAYANRNRF_FLLNKEMYL_FLLPSLATV_FLNRFTTTL_FLPRVFSAV_FLQSINFVR_FTYASALWEI_FVDGVPFVV_HVTFFIYNK_ISDYDYYRY_ITLKKRWQL_KTFPPTEPK_KVSIWNLDY_LEYHDVRVV_LLYDANYFL_LSPRWYFYY_MGYINVFAF_NVFAFPFTIY_QELYSPIFL_SINFVRIIMR_SPRWYFYYL_TMADLVYAL_TSRTLSYYK_TVYSHLLLV_VLWAHGFEL_VYFLQSINF_YANRNRFLY_YFIASFRLF_YIFFASFYY_YLDAYNMMI_YLYALVYFL'
p2
cnumpy.core.multiarray
scalar
p3
(cnumpy
dtype
p4
(S'f8'
I0
I1
tRp5
(I3
S'<'
NNNI-1
I-1
I0
tbS'\xed\x08\x9cz\x17\xb0\xef?'
tRp6
tp7
a(S'ATSRTLSYY_FAYANRNRF_FLLNKEMYL_FLLPSLATV_FLNRFTTTL_FLPRVFSAV_FLQSINFVR_FTYASALWEI_FVDGVPFVV_HVTFFIYNK_ISDYDYYRY_ITLKKRWQL_KTFPPTEPK_KVSIWNLDY_LEYHDVRVV_LLYDANYFL_MGYINVFAF_NVFAFPFTIY_QELYSPIFL_SINFVRIIMR_SPRWYFYYL_SSPDDQIGYY_TMADLVYAL_TSRTLSYYK_TVYSHLLLV_VLWAHGFEL_VYFLQSINF_YANRNRFLY_YFIASFRLF_YIFFASFYY_YLDAYNMMI_YLYALVYFL'
p8
g3
(g5
S'#T;*\x17\xb0\xef?'
tRp9
tp10
a(S'ATSRTLSYY_FAYANRNRF_FLLNKEMYL_FLLPSLATV_FLNRFTTTL_FLPRVFSAV_FLQSINFVR_FTYASALWEI_FVDGVPFVV_HVTFFIYNK_ISDYDYYRY_ITLKKRWQL_KTFPPTEPK_KVSIWNLDY_LEYHDVRVV_LLYDANYFL_MGYINVFAF_MIELSLIDFY_NVFAFPFTIY_QELYSPIFL_SINFVRIIMR_SPRWYFYYL_TMADLVYAL_TSRTLSYYK_TVYSHLLLV_VLWAHGFEL_VYFLQSINF_YANRNRFLY_YFIASFRLF_YIFFASFYY_YLDAYNMMI_YLYALVYFL'
p11
g3
(g5
S'!T;*\x17\xb0\xef?'
tRp12
tp13
a(S'ALRANSAVK_ATSRTLSYY_FAYANRNRF_FLLNKEMYL_FLLPSLATV_FLNRFTTTL_FLPRVFSAV_FLQSINFVR_FTYASALWEI_FVDGVPFVV_HVTFFIYNK_ISDYDYYRY_ITLKKRWQL_KTFPPTEPK_KVSIWNLDY_LEYHDVRVV_LLYDANYFL_MGYINVFAF_NVFAFPFTIY_QELYSPIFL_SINFVRIIMR_SPRWYFYYL_TMADLVYAL_TVYSHLLLV_VLWAHGFEL_VTPSGTWLTY_VYFLQSINF_YANRNRFLY_YFIASFRLF_YIFFASFYY_YLDAYNMMI_YLYALVYFL'
p14
g3
(g5
S'!T;*\x17\xb0\xef?'
tRp15
tp16
a(S'ATSRTLSYY_FAYANRNRF_FLLNKEMYL_FLLPSLATV_FLNRFTTTL_FLPRVFSAV_FLQSINFVR_FTYASALWEI_FVDGVPFVV_HVTFFIYNK_ISDYDYYRY_ITLKKRWQL_KTFPPTEPK_KVSIWNLDY_LEYHDVRVV_LLYDANYFL_MGYINVFAF_NVFAFPFTIY_QELYSPIFL_SINFVRIIMR_SPRWYFYYL_TMADLVYAL_TSRTLSYYK_TVYSHLLLV_VLWAHGFEL_VTPSGTWLTY_VYFLQSINF_YANRNRFLY_YFIASFRLF_YIFFASFYY_YLDAYNMMI_YLYALVYFL'
p17
g3
(g5
S' T;*\x17\xb0\xef?'
tRp18
tp19
a(S'ATSRTLSYY_FAYANRNRF_FLLNKEMYL_FLLPSLATV_FLNRFTTTL_FLPRVFSAV_FLQSINFVR_FTYASALWEI_FVDGVPFVV_HVTFFIYNK_ISDYDYYRY_ITLKKRWQL_KTFPPTEPK_KVSIWNLDY_LEYHDVRVV_LLYDANYFL_LSPRWYFYY_MGYINVFAF_NVFAFPFTIY_QELYSPIFL_SINFVRIIMR_SPRWYFYYL_SYFIASFRLF_TMADLVYAL_TSRTLSYYK_TVYSHLLLV_VLWAHGFEL_VYFLQSINF_YANRNRFLY_YIFFASFYY_YLDAYNMMI_YLYALVYFL'
p20
g3
(g5
S' T;*\x17\xb0\xef?'
tRp21
tp22
a(S'ALRANSAVK_ATSRTLSYY_FAYANRNRF_FLLNKEMYL_FLLPSLATV_FLNRFTTTL_FLPRVFSAV_FLQSINFVR_FTYASALWEI_FVDGVPFVV_HVTFFIYNK_ISDYDYYRY_ITLKKRWQL_KTFPPTEPK_KVSIWNLDY_LEYHDVRVV_LLYDANYFL_LSPRWYFYY_MGYINVFAF_NVFAFPFTIY_QELYSPIFL_SINFVRIIMR_SPRWYFYYL_TMADLVYAL_TVYSHLLLV_VLWAHGFEL_VYFLQSINF_YANRNRFLY_YFIASFRLF_YIFFASFYY_YLDAYNMMI_YLYALVYFL'
p23
g3
(g5
S'+m*\x06\x16\xb0\xef?'
tRp24
tp25
a(S'ATSRTLSYY_FAYANRNRF_FLLNKEMYL_FLLPSLATV_FLNRFTTTL_FLPRVFSAV_FLQSINFVR_FTYASALWEI_FVDGVPFVV_HVTFFIYNK_ISDYDYYRY_ITLKKRWQL_KTFPPTEPK_KVSIWNLDY_LEYHDVRVV_LLYDANYFL_LSPRWYFYY_LYSPIFLIV_MGYINVFAF_NVFAFPFTIY_QELYSPIFL_SINFVRIIMR_SPRWYFYYL_TMADLVYAL_TSRTLSYYK_TVYSHLLLV_VLWAHGFEL_YANRNRFLY_YFIASFRLF_YIFFASFYY_YLDAYNMMI_YLYALVYFL'
p26
g3
(g5
S'i\xad\xc4\xf5\x15\xb0\xef?'
tRp27
tp28
a(S'ALRANSAVK_ATSRTLSYY_FAYANRNRF_FLLNKEMYL_FLLPSLATV_FLNRFTTTL_FLPRVFSAV_FLQSINFVR_FTYASALWEI_FVDGVPFVV_HVTFFIYNK_ISDYDYYRY_ITLKKRWQL_KTFPPTEPK_KVSIWNLDY_LEYHDVRVV_LLYDANYFL_MGYINVFAF_MIELSLIDFY_NVFAFPFTIY_QELYSPIFL_SINFVRIIMR_SPRWYFYYL_TMADLVYAL_TVYSHLLLV_VLWAHGFEL_VYFLQSINF_YANRNRFLY_YFIASFRLF_YIFFASFYY_YLDAYNMMI_YLYALVYFL'
p29
g3
(g5
S'`\xb8\xc9\xb5\x15\xb0\xef?'
tRp30
tp31
a(S'ALRANSAVK_ATSRTLSYY_FAYANRNRF_FLLNKEMYL_FLLPSLATV_FLNRFTTTL_FLPRVFSAV_FLQSINFVR_FTYASALWEI_FVDGVPFVV_HVTFFIYNK_ISDYDYYRY_ITLKKRWQL_KTFPPTEPK_KVSIWNLDY_LEYHDVRVV_LLYDANYFL_LSPRWYFYY_MGYINVFAF_NVFAFPFTIY_QELYSPIFL_SINFVRIIMR_SPRWYFYYL_SYFIASFRLF_TMADLVYAL_TVYSHLLLV_VLWAHGFEL_VYFLQSINF_YANRNRFLY_YIFFASFYY_YLDAYNMMI_YLYALVYFL'
p32
g3
(g5
S'_\xb8\xc9\xb5\x15\xb0\xef?'
tRp33
tp34
a.