(lp1
(S'AELEGIQY_ALRANSAVK_ASKIITLKK_ATEGALNTPK_ATSRTLSYY_EEHVQIHTI_FAYANRNRF_FLLNKEMYL_FLLPSLATV_FLNRFTTTL_FLPRVFSAV_FLQSINFVR_FPRGQGVPI_FTYASALWEI_FVDGVPFVV_HVTFFIYNK_IELSLIDFYL_IMRTFKVSI_ISDYDYYRY_ITLATCELY_ITLKKRWQL_KAYNVTQAF_KMQRMLLEK_KTFPPTEPK_KVSIWNLDY_LEYHDVRVV_LLYDANYFL_LSPRWYFYY_LYSPIFLIV_MGYINVFAF_MIELSLIDFY_MPASWVMRI_NVFAFPFTIY_QELYSPIFL_RARSVSPKL_RLYYDSMSY_RTFKVSIWNL_SELVIGAVI_SINFVRIIMR_SPRWYFYYL_SSPDDQIGYY_SSRGTSPAR_TMADLVYAL_TSRTLSYYK_TVYSHLLLV_VEHVTFFIY_VLWAHGFEL_VSIWNLDYII_VYFLQSINF_YANRNRFLY_YFIASFRLF_YIFFASFYY_YIIKLIFLW_YLDAYNMMI_YLYALVYFL'
p2
cnumpy.core.multiarray
scalar
p3
(cnumpy
dtype
p4
(S'f8'
I0
I1
tRp5
(I3
S'<'
NNNI-1
I-1
I0
tbS"\xd1\xeb\x8a'\xb8\xb5\xef?"
tRp6
tp7
a(S'AELEGIQY_ALRANSAVK_ASKIITLKK_ATSRTLSYY_EEHVQIHTI_FAYANRNRF_FLLNKEMYL_FLLPSLATV_FLNRFTTTL_FLPRVFSAV_FLQSINFVR_FPRGQGVPI_FTYASALWEI_FVDGVPFVV_HVTFFIYNK_IELSLIDFYL_IMRTFKVSI_ISDYDYYRY_ITLATCELY_ITLKKRWQL_KAYNVTQAF_KMQRMLLEK_KTFPPTEPK_KVSIWNLDY_LEYHDVRVV_LLYDANYFL_LSPRWYFYY_LYSPIFLIV_MGYINVFAF_MPASWVMRI_NVFAFPFTIY_QELYSPIFL_QLPQGTTLPK_RARSVSPKL_RLYYDSMSY_RTFKVSIWNL_SELVIGAVI_SINFVRIIMR_SPRWYFYYL_SSPDDQIGYY_SSRGTSPAR_TMADLVYAL_TSRTLSYYK_TVYSHLLLV_VEHVTFFIY_VLWAHGFEL_VSIWNLDYII_VTPSGTWLTY_VYFLQSINF_YANRNRFLY_YFIASFRLF_YIFFASFYY_YIIKLIFLW_YLDAYNMMI_YLYALVYFL'
p8
g3
(g5
S"\xd0\xeb\x8a'\xb8\xb5\xef?"
tRp9
tp10
a(S'AELEGIQY_ALRANSAVK_ASKIITLKK_ATSRTLSYY_EEHVQIHTI_FAYANRNRF_FLLNKEMYL_FLLPSLATV_FLNRFTTTL_FLPRVFSAV_FLQSINFVR_FPRGQGVPI_FTYASALWEI_FVDGVPFVV_HVTFFIYNK_IELSLIDFYL_IMRTFKVSI_ISDYDYYRY_ITLATCELY_ITLKKRWQL_KAYNVTQAF_KMQRMLLEK_KTFPPTEPK_KVSIWNLDY_LEYHDVRVV_LLYDANYFL_LSPRWYFYY_LYSPIFLIV_MGYINVFAF_MIELSLIDFY_MPASWVMRI_NVFAFPFTIY_QELYSPIFL_QLPQGTTLPK_RARSVSPKL_RLYYDSMSY_RTFKVSIWNL_SELVIGAVI_SINFVRIIMR_SPRWYFYYL_SSRGTSPAR_TMADLVYAL_TSRTLSYYK_TVYSHLLLV_VEHVTFFIY_VLWAHGFEL_VSIWNLDYII_VTPSGTWLTY_VYFLQSINF_YANRNRFLY_YFIASFRLF_YIFFASFYY_YIIKLIFLW_YLDAYNMMI_YLYALVYFL'
p11
g3
(g5
S"\xd0\xeb\x8a'\xb8\xb5\xef?"
tRp12
tp13
a(S'AELEGIQY_ALRANSAVK_ASKIITLKK_ATSRTLSYY_EEHVQIHTI_FAYANRNRF_FLLNKEMYL_FLLPSLATV_FLNRFTTTL_FLPRVFSAV_FLQSINFVR_FPRGQGVPI_FTYASALWEI_FVDGVPFVV_HVTFFIYNK_IELSLIDFYL_ILLIIMRTFK_IMRTFKVSI_ISDYDYYRY_ITLATCELY_ITLKKRWQL_KAYNVTQAF_KMQRMLLEK_KTFPPTEPK_KVSIWNLDY_LEYHDVRVV_LLYDANYFL_LSPRWYFYY_LYSPIFLIV_MGYINVFAF_MPASWVMRI_NVFAFPFTIY_QELYSPIFL_RARSVSPKL_RLYYDSMSY_RTFKVSIWNL_SELVIGAVI_SINFVRIIMR_SPRWYFYYL_SSPDDQIGYY_SSRGTSPAR_TMADLVYAL_TSRTLSYYK_TVYSHLLLV_VEHVTFFIY_VLWAHGFEL_VSIWNLDYII_VTPSGTWLTY_VYFLQSINF_YANRNRFLY_YFIASFRLF_YIFFASFYY_YIIKLIFLW_YLDAYNMMI_YLYALVYFL'
p14
g3
(g5
S"\xd0\xeb\x8a'\xb8\xb5\xef?"
tRp15
tp16
a(S'AELEGIQY_ALRANSAVK_ASKIITLKK_ATSRTLSYY_EEHVQIHTI_FAYANRNRF_FLLNKEMYL_FLLPSLATV_FLNRFTTTL_FLPRVFSAV_FLQSINFVR_FPRGQGVPI_FTYASALWEI_FVDGVPFVV_HVTFFIYNK_IELSLIDFYL_ILLIIMRTFK_IMRTFKVSI_ISDYDYYRY_ITLATCELY_ITLKKRWQL_KAYNVTQAF_KMQRMLLEK_KTFPPTEPK_KVSIWNLDY_LEYHDVRVV_LLYDANYFL_LSPRWYFYY_LYSPIFLIV_MGYINVFAF_MIELSLIDFY_MPASWVMRI_NVFAFPFTIY_QELYSPIFL_RARSVSPKL_RLYYDSMSY_RTFKVSIWNL_SELVIGAVI_SINFVRIIMR_SPRWYFYYL_SSRGTSPAR_TMADLVYAL_TSRTLSYYK_TVYSHLLLV_VEHVTFFIY_VLWAHGFEL_VSIWNLDYII_VTPSGTWLTY_VYFLQSINF_YANRNRFLY_YFIASFRLF_YIFFASFYY_YIIKLIFLW_YLDAYNMMI_YLYALVYFL'
p17
g3
(g5
S"\xd0\xeb\x8a'\xb8\xb5\xef?"
tRp18
tp19
a(S'AELEGIQY_ALRANSAVK_ASKIITLKK_ATEGALNTPK_ATSRTLSYY_EEHVQIHTI_FAYANRNRF_FLLNKEMYL_FLLPSLATV_FLNRFTTTL_FLPRVFSAV_FLQSINFVR_FPRGQGVPI_FTYASALWEI_FVDGVPFVV_HVTFFIYNK_IELSLIDFYL_IMRTFKVSI_ISDYDYYRY_ITLATCELY_ITLKKRWQL_KAYNVTQAF_KMQRMLLEK_KTFPPTEPK_KVSIWNLDY_LEYHDVRVV_LLYDANYFL_LSPRWYFYY_LYSPIFLIV_MGYINVFAF_MPASWVMRI_NVFAFPFTIY_QELYSPIFL_RARSVSPKL_RLYYDSMSY_RTFKVSIWNL_SELVIGAVI_SINFVRIIMR_SPRWYFYYL_SSPDDQIGYY_SSRGTSPAR_TMADLVYAL_TSRTLSYYK_TVYSHLLLV_VEHVTFFIY_VLWAHGFEL_VSIWNLDYII_VTPSGTWLTY_VYFLQSINF_YANRNRFLY_YFIASFRLF_YIFFASFYY_YIIKLIFLW_YLDAYNMMI_YLYALVYFL'
p20
g3
(g5
S"\xcf\xeb\x8a'\xb8\xb5\xef?"
tRp21
tp22
a(S'AELEGIQY_ALRANSAVK_ASKIITLKK_ATEGALNTPK_ATSRTLSYY_EEHVQIHTI_FAYANRNRF_FLLNKEMYL_FLLPSLATV_FLNRFTTTL_FLPRVFSAV_FLQSINFVR_FPRGQGVPI_FTYASALWEI_FVDGVPFVV_HVTFFIYNK_IELSLIDFYL_IMRTFKVSI_ISDYDYYRY_ITLATCELY_ITLKKRWQL_KAYNVTQAF_KMQRMLLEK_KTFPPTEPK_KVSIWNLDY_LEYHDVRVV_LLYDANYFL_LSPRWYFYY_LYSPIFLIV_MGYINVFAF_MIELSLIDFY_MPASWVMRI_NVFAFPFTIY_QELYSPIFL_RARSVSPKL_RLYYDSMSY_RTFKVSIWNL_SELVIGAVI_SINFVRIIMR_SPRWYFYYL_SSRGTSPAR_TMADLVYAL_TSRTLSYYK_TVYSHLLLV_VEHVTFFIY_VLWAHGFEL_VSIWNLDYII_VTPSGTWLTY_VYFLQSINF_YANRNRFLY_YFIASFRLF_YIFFASFYY_YIIKLIFLW_YLDAYNMMI_YLYALVYFL'
p23
g3
(g5
S"\xcf\xeb\x8a'\xb8\xb5\xef?"
tRp24
tp25
a(S'AELEGIQY_ALRANSAVK_ASKIITLKK_ATEGALNTPK_ATSRTLSYY_EEHVQIHTI_FAYANRNRF_FLLNKEMYL_FLLPSLATV_FLNRFTTTL_FLPRVFSAV_FLQSINFVR_FPPTSFGPL_FTYASALWEI_FVDGVPFVV_HVTFFIYNK_IELSLIDFYL_IMRTFKVSI_ISDYDYYRY_ITLATCELY_ITLKKRWQL_KAYNVTQAF_KMQRMLLEK_KTFPPTEPK_KVSIWNLDY_LEYHDVRVV_LLYDANYFL_LSPRWYFYY_LYSPIFLIV_MGYINVFAF_MIELSLIDFY_MPASWVMRI_NVFAFPFTIY_QELYSPIFL_RARSVSPKL_RLYYDSMSY_RTFKVSIWNL_SELVIGAVI_SINFVRIIMR_SPRWYFYYL_SSPDDQIGYY_SSRGTSPAR_TMADLVYAL_TSRTLSYYK_TVYSHLLLV_VEHVTFFIY_VLWAHGFEL_VSIWNLDYII_VYFLQSINF_YANRNRFLY_YFIASFRLF_YIFFASFYY_YIIKLIFLW_YLDAYNMMI_YLYALVYFL'
p26
g3
(g5
S'\xc3Nm\\\xb3\xb5\xef?'
tRp27
tp28
a(S'AELEGIQY_ALRANSAVK_ASKIITLKK_ATSRTLSYY_EEHVQIHTI_FAYANRNRF_FLLNKEMYL_FLLPSLATV_FLNRFTTTL_FLPRVFSAV_FLQSINFVR_FPPTSFGPL_FTYASALWEI_FVDGVPFVV_HVTFFIYNK_IELSLIDFYL_IMRTFKVSI_ISDYDYYRY_ITLATCELY_ITLKKRWQL_KAYNVTQAF_KMQRMLLEK_KTFPPTEPK_KVSIWNLDY_LEYHDVRVV_LLYDANYFL_LSPRWYFYY_LYSPIFLIV_MGYINVFAF_MPASWVMRI_NVFAFPFTIY_QELYSPIFL_QLPQGTTLPK_RARSVSPKL_RLYYDSMSY_RTFKVSIWNL_SELVIGAVI_SINFVRIIMR_SPRWYFYYL_SSPDDQIGYY_SSRGTSPAR_TMADLVYAL_TSRTLSYYK_TVYSHLLLV_VEHVTFFIY_VLWAHGFEL_VSIWNLDYII_VTPSGTWLTY_VYFLQSINF_YANRNRFLY_YFIASFRLF_YIFFASFYY_YIIKLIFLW_YLDAYNMMI_YLYALVYFL'
p29
g3
(g5
S'\xc1Nm\\\xb3\xb5\xef?'
tRp30
tp31
a(S'AELEGIQY_ALRANSAVK_ASKIITLKK_ATSRTLSYY_EEHVQIHTI_FAYANRNRF_FLLNKEMYL_FLLPSLATV_FLNRFTTTL_FLPRVFSAV_FLQSINFVR_FPPTSFGPL_FTYASALWEI_FVDGVPFVV_HVTFFIYNK_IELSLIDFYL_IMRTFKVSI_ISDYDYYRY_ITLATCELY_ITLKKRWQL_KAYNVTQAF_KMQRMLLEK_KTFPPTEPK_KVSIWNLDY_LEYHDVRVV_LLYDANYFL_LSPRWYFYY_LYSPIFLIV_MGYINVFAF_MIELSLIDFY_MPASWVMRI_NVFAFPFTIY_QELYSPIFL_QLPQGTTLPK_RARSVSPKL_RLYYDSMSY_RTFKVSIWNL_SELVIGAVI_SINFVRIIMR_SPRWYFYYL_SSRGTSPAR_TMADLVYAL_TSRTLSYYK_TVYSHLLLV_VEHVTFFIY_VLWAHGFEL_VSIWNLDYII_VTPSGTWLTY_VYFLQSINF_YANRNRFLY_YFIASFRLF_YIFFASFYY_YIIKLIFLW_YLDAYNMMI_YLYALVYFL'
p32
g3
(g5
S'\xc1Nm\\\xb3\xb5\xef?'
tRp33
tp34
a.