(lp1
(S'FAYANRNRF_FLNRFTTTL_RLYYDSMSY_SINFVRIIMR_TVYSHLLLV_YIFFASFYY_YLDAYNMMI'
p2
cnumpy.core.multiarray
scalar
p3
(cnumpy
dtype
p4
(S'f8'
I0
I1
tRp5
(I3
S'<'
NNNI-1
I-1
I0
tbS'\xd7\xcb\x1e\xd1\xd7\xfe\xef?'
tRp6
tp7
a(S'FAYANRNRF_FLNRFTTTL_FLQSINFVR_RLYYDSMSY_TVYSHLLLV_YIFFASFYY_YLDAYNMMI'
p8
g3
(g5
S'\xd5\xcb\x1e\xd1\xd7\xfe\xef?'
tRp9
tp10
a(S'ATSRTLSYY_FAYANRNRF_FLNRFTTTL_ITLATCELY_SINFVRIIMR_TVYSHLLLV_YLDAYNMMI'
p11
g3
(g5
S'\x90Tv\xb5\xd7\xfe\xef?'
tRp12
tp13
a(S'FAYANRNRF_FLNRFTTTL_FLQSINFVR_ITLATCELY_TVYSHLLLV_YIFFASFYY_YLDAYNMMI'
p14
g3
(g5
S'\x8fTv\xb5\xd7\xfe\xef?'
tRp15
tp16
a(S'FAYANRNRF_FLNRFTTTL_ITLATCELY_SINFVRIIMR_TVYSHLLLV_YIFFASFYY_YLDAYNMMI'
p17
g3
(g5
S'\x8dTv\xb5\xd7\xfe\xef?'
tRp18
tp19
a(S'ATSRTLSYY_FAYANRNRF_FLNRFTTTL_SINFVRIIMR_TVYSHLLLV_YIFFASFYY_YLDAYNMMI'
p20
g3
(g5
S'\x8cTv\xb5\xd7\xfe\xef?'
tRp21
tp22
a(S'ATSRTLSYY_FAYANRNRF_FLNRFTTTL_FLQSINFVR_ITLATCELY_TVYSHLLLV_YLDAYNMMI'
p23
g3
(g5
S'\x8cTv\xb5\xd7\xfe\xef?'
tRp24
tp25
a(S'ATSRTLSYY_FAYANRNRF_FLNRFTTTL_FLQSINFVR_TVYSHLLLV_YIFFASFYY_YLDAYNMMI'
p26
g3
(g5
S'\x88Tv\xb5\xd7\xfe\xef?'
tRp27
tp28
a(S'FAYANRNRF_FLNRFTTTL_ITLKKRWQL_RLYYDSMSY_TVYSHLLLV_YIFFASFYY_YLDAYNMMI'
p29
g3
(g5
S'-\xde\x10\x9c\xd5\xfe\xef?'
tRp30
tp31
a(S'ATSRTLSYY_FAYANRNRF_FLNRFTTTL_ITLKKRWQL_TVYSHLLLV_YIFFASFYY_YLDAYNMMI'
p32
g3
(g5
S'\xedfh\x80\xd5\xfe\xef?'
tRp33
tp34
a.