(lp1
(S'FAYANRNRF_ITLATCELY_YIFFASFYY_YLDAYNMMI'
p2
cnumpy.core.multiarray
scalar
p3
(cnumpy
dtype
p4
(S'f8'
I0
I1
tRp5
(I3
S'<'
NNNI-1
I-1
I0
tbS'\xe7\xd0S\xbav\xff\xef?'
tRp6
tp7
a(S'FAYANRNRF_ITLATCELY_RLYYDSMSY_YLDAYNMMI'
p8
g3
(g5
S'\xe7\xd0S\xbav\xff\xef?'
tRp9
tp10
a(S'FAYANRNRF_RLYYDSMSY_YIFFASFYY_YLDAYNMMI'
p11
g3
(g5
S'\xe5\xd0S\xbav\xff\xef?'
tRp12
tp13
a(S'ATSRTLSYY_FAYANRNRF_ITLATCELY_YLDAYNMMI'
p14
g3
(g5
S'\xe5\xd0S\xbav\xff\xef?'
tRp15
tp16
a(S'ATSRTLSYY_FAYANRNRF_YIFFASFYY_YLDAYNMMI'
p17
g3
(g5
S'\xe1\xd0S\xbav\xff\xef?'
tRp18
tp19
a(S'FAYANRNRF_FVDGVPFVV_ITLATCELY_YLDAYNMMI'
p20
g3
(g5
S'C+\x7f*i\xff\xef?'
tRp21
tp22
a(S'FAYANRNRF_FLNRFTTTL_YIFFASFYY_YLDAYNMMI'
p23
g3
(g5
S'C+\x7f*i\xff\xef?'
tRp24
tp25
a(S'FAYANRNRF_FLNRFTTTL_ITLATCELY_YLDAYNMMI'
p26
g3
(g5
S'C+\x7f*i\xff\xef?'
tRp27
tp28
a(S'FAYANRNRF_FVDGVPFVV_YIFFASFYY_YLDAYNMMI'
p29
g3
(g5
S'@+\x7f*i\xff\xef?'
tRp30
tp31
a(S'FAYANRNRF_FLQSINFVR_ITLATCELY_YLDAYNMMI'
p32
g3
(g5
S'P\x8f\x0c(g\xff\xef?'
tRp33
tp34
a.