(lp1
(S'ATSRTLSYY_FAYANRNRF_FLLPSLATV_FLNRFTTTL_FLPRVFSAV_FLQSINFVR_FTYASALWEI_FVDGVPFVV_HVTFFIYNK_ISDYDYYRY_ITLKKRWQL_KTFPPTEPK_LEYHDVRVV_LLYDANYFL_LSPRWYFYY_NVFAFPFTIY_QELYSPIFL_SINFVRIIMR_SPRWYFYYL_TMADLVYAL_TVYSHLLLV_VLWAHGFEL_YANRNRFLY_YFIASFRLF_YIFFASFYY_YLDAYNMMI_YLYALVYFL'
p2
cnumpy.core.multiarray
scalar
p3
(cnumpy
dtype
p4
(S'f8'
I0
I1
tRp5
(I3
S'<'
NNNI-1
I-1
I0
tbS'5\xdb\x08\xbe\xdb\xdf\xef?'
tRp6
tp7
a(S'ATSRTLSYY_FAYANRNRF_FLLNKEMYL_FLLPSLATV_FLNRFTTTL_FLQSINFVR_FTYASALWEI_FVDGVPFVV_HVTFFIYNK_ISDYDYYRY_ITLKKRWQL_KTFPPTEPK_LEYHDVRVV_LLYDANYFL_LSPRWYFYY_NVFAFPFTIY_QELYSPIFL_SINFVRIIMR_SPRWYFYYL_TMADLVYAL_TVYSHLLLV_VLWAHGFEL_YANRNRFLY_YFIASFRLF_YIFFASFYY_YLDAYNMMI_YLYALVYFL'
p8
g3
(g5
S'1\xdb\x08\xbe\xdb\xdf\xef?'
tRp9
tp10
a(S'ATSRTLSYY_FAYANRNRF_FLLPSLATV_FLNRFTTTL_FLPRVFSAV_FLQSINFVR_FTYASALWEI_FVDGVPFVV_HVTFFIYNK_ISDYDYYRY_ITLKKRWQL_KTFPPTEPK_LEYHDVRVV_LLYDANYFL_NVFAFPFTIY_QELYSPIFL_SINFVRIIMR_SPRWYFYYL_SSPDDQIGYY_TMADLVYAL_TVYSHLLLV_VLWAHGFEL_YANRNRFLY_YFIASFRLF_YIFFASFYY_YLDAYNMMI_YLYALVYFL'
p11
g3
(g5
S'\xabb\xf7\xf4\xda\xdf\xef?'
tRp12
tp13
a(S'ATSRTLSYY_FAYANRNRF_FLLPSLATV_FLNRFTTTL_FLPRVFSAV_FLQSINFVR_FTYASALWEI_FVDGVPFVV_HVTFFIYNK_ISDYDYYRY_ITLKKRWQL_KTFPPTEPK_LEYHDVRVV_LLYDANYFL_MIELSLIDFY_NVFAFPFTIY_QELYSPIFL_SINFVRIIMR_SPRWYFYYL_TMADLVYAL_TVYSHLLLV_VLWAHGFEL_YANRNRFLY_YFIASFRLF_YIFFASFYY_YLDAYNMMI_YLYALVYFL'
p14
g3
(g5
S'\xabb\xf7\xf4\xda\xdf\xef?'
tRp15
tp16
a(S'ATSRTLSYY_FAYANRNRF_FLLPSLATV_FLNRFTTTL_FLPRVFSAV_FLQSINFVR_FTYASALWEI_FVDGVPFVV_HVTFFIYNK_ISDYDYYRY_ITLKKRWQL_KTFPPTEPK_LEYHDVRVV_LLYDANYFL_LSPRWYFYY_NVFAFPFTIY_QELYSPIFL_SINFVRIIMR_SPRWYFYYL_TMADLVYAL_TVYSHLLLV_VLWAHGFEL_VYFLQSINF_YANRNRFLY_YIFFASFYY_YLDAYNMMI_YLYALVYFL'
p17
g3
(g5
S'\xa9b\xf7\xf4\xda\xdf\xef?'
tRp18
tp19
a(S'ATSRTLSYY_FAYANRNRF_FLLPSLATV_FLNRFTTTL_FLPRVFSAV_FLQSINFVR_FTYASALWEI_FVDGVPFVV_HVTFFIYNK_ISDYDYYRY_ITLKKRWQL_KTFPPTEPK_LEYHDVRVV_LLYDANYFL_NVFAFPFTIY_QELYSPIFL_SINFVRIIMR_SPRWYFYYL_TMADLVYAL_TVYSHLLLV_VLWAHGFEL_VTPSGTWLTY_YANRNRFLY_YFIASFRLF_YIFFASFYY_YLDAYNMMI_YLYALVYFL'
p20
g3
(g5
S'\xa8b\xf7\xf4\xda\xdf\xef?'
tRp21
tp22
a(S'ATSRTLSYY_FAYANRNRF_FLLPSLATV_FLNRFTTTL_FLPRVFSAV_FLQSINFVR_FTYASALWEI_FVDGVPFVV_HVTFFIYNK_ISDYDYYRY_ITLKKRWQL_KTFPPTEPK_LEYHDVRVV_LLYDANYFL_LSPRWYFYY_NVFAFPFTIY_QELYSPIFL_SINFVRIIMR_SPRWYFYYL_SYFIASFRLF_TMADLVYAL_TVYSHLLLV_VLWAHGFEL_YANRNRFLY_YIFFASFYY_YLDAYNMMI_YLYALVYFL'
p23
g3
(g5
S'\xa8b\xf7\xf4\xda\xdf\xef?'
tRp24
tp25
a(S'ATSRTLSYY_FAYANRNRF_FLLNKEMYL_FLLPSLATV_FLNRFTTTL_FLQSINFVR_FTYASALWEI_FVDGVPFVV_HVTFFIYNK_ISDYDYYRY_ITLKKRWQL_KTFPPTEPK_LEYHDVRVV_LLYDANYFL_NVFAFPFTIY_QELYSPIFL_SINFVRIIMR_SPRWYFYYL_TMADLVYAL_TVYSHLLLV_VLWAHGFEL_VTPSGTWLTY_YANRNRFLY_YFIASFRLF_YIFFASFYY_YLDAYNMMI_YLYALVYFL'
p26
g3
(g5
S'\xa8b\xf7\xf4\xda\xdf\xef?'
tRp27
tp28
a(S'ATSRTLSYY_FAYANRNRF_FLLNKEMYL_FLLPSLATV_FLNRFTTTL_FLQSINFVR_FTYASALWEI_FVDGVPFVV_HVTFFIYNK_ISDYDYYRY_ITLKKRWQL_KTFPPTEPK_LEYHDVRVV_LLYDANYFL_MIELSLIDFY_NVFAFPFTIY_QELYSPIFL_SINFVRIIMR_SPRWYFYYL_TMADLVYAL_TVYSHLLLV_VLWAHGFEL_YANRNRFLY_YFIASFRLF_YIFFASFYY_YLDAYNMMI_YLYALVYFL'
p29
g3
(g5
S'\xa7b\xf7\xf4\xda\xdf\xef?'
tRp30
tp31
a(S'ATSRTLSYY_FAYANRNRF_FLLNKEMYL_FLLPSLATV_FLNRFTTTL_FLQSINFVR_FTYASALWEI_FVDGVPFVV_HVTFFIYNK_ISDYDYYRY_ITLKKRWQL_KTFPPTEPK_LEYHDVRVV_LLYDANYFL_LSPRWYFYY_NVFAFPFTIY_QELYSPIFL_SINFVRIIMR_SPRWYFYYL_TMADLVYAL_TVYSHLLLV_VLWAHGFEL_VYFLQSINF_YANRNRFLY_YIFFASFYY_YLDAYNMMI_YLYALVYFL'
p32
g3
(g5
S'\xa7b\xf7\xf4\xda\xdf\xef?'
tRp33
tp34
a.