(lp1
(S'ATSRTLSYY_FAYANRNRF_FLLPSLATV_FLNRFTTTL_FLQSINFVR_FTYASALWEI_HVTFFIYNK_ITLKKRWQL_NVFAFPFTIY_QELYSPIFL_RARSVSPKL_SPRWYFYYL_TVYSHLLLV_YIFFASFYY_YLDAYNMMI'
p2
cnumpy.core.multiarray
scalar
p3
(cnumpy
dtype
p4
(S'f8'
I0
I1
tRp5
(I3
S'<'
NNNI-1
I-1
I0
tbS'\x7f\xbc\xe97\x08\xf8\xef?'
tRp6
tp7
a(S'ATSRTLSYY_FAYANRNRF_FLNRFTTTL_FTYASALWEI_HVTFFIYNK_ITLKKRWQL_NVFAFPFTIY_QELYSPIFL_SINFVRIIMR_SPRWYFYYL_TSRTLSYYK_TVYSHLLLV_YIFFASFYY_YLDAYNMMI_YLYALVYFL'
p8
g3
(g5
S'}\xbc\xe97\x08\xf8\xef?'
tRp9
tp10
a(S'ATSRTLSYY_FAYANRNRF_FLNRFTTTL_FTYASALWEI_HVTFFIYNK_ITLKKRWQL_NVFAFPFTIY_QELYSPIFL_RARSVSPKL_SINFVRIIMR_SPRWYFYYL_TVYSHLLLV_VLWAHGFEL_YIFFASFYY_YLDAYNMMI'
p11
g3
(g5
S'}\xbc\xe97\x08\xf8\xef?'
tRp12
tp13
a(S'ATSRTLSYY_FAYANRNRF_FLNRFTTTL_FTYASALWEI_HVTFFIYNK_ITLKKRWQL_KTFPPTEPK_NVFAFPFTIY_QELYSPIFL_SINFVRIIMR_SPRWYFYYL_TVYSHLLLV_YIFFASFYY_YLDAYNMMI_YLYALVYFL'
p14
g3
(g5
S'}\xbc\xe97\x08\xf8\xef?'
tRp15
tp16
a(S'ATSRTLSYY_FAYANRNRF_FLNRFTTTL_FLQSINFVR_FTYASALWEI_HVTFFIYNK_ITLKKRWQL_NVFAFPFTIY_QELYSPIFL_RARSVSPKL_SPRWYFYYL_TMADLVYAL_TVYSHLLLV_YIFFASFYY_YLDAYNMMI'
p17
g3
(g5
S'}\xbc\xe97\x08\xf8\xef?'
tRp18
tp19
a(S'ATSRTLSYY_FAYANRNRF_FLNRFTTTL_FLQSINFVR_FTYASALWEI_HVTFFIYNK_ITLKKRWQL_LLYDANYFL_NVFAFPFTIY_QELYSPIFL_RARSVSPKL_SPRWYFYYL_TVYSHLLLV_YIFFASFYY_YLDAYNMMI'
p20
g3
(g5
S'}\xbc\xe97\x08\xf8\xef?'
tRp21
tp22
a(S'ATSRTLSYY_FAYANRNRF_FLLPSLATV_FLNRFTTTL_FTYASALWEI_HVTFFIYNK_ITLKKRWQL_NVFAFPFTIY_QELYSPIFL_RARSVSPKL_SINFVRIIMR_SPRWYFYYL_TVYSHLLLV_YIFFASFYY_YLDAYNMMI'
p23
g3
(g5
S'}\xbc\xe97\x08\xf8\xef?'
tRp24
tp25
a(S'ATSRTLSYY_FAYANRNRF_FLNRFTTTL_FTYASALWEI_HVTFFIYNK_ITLKKRWQL_NVFAFPFTIY_QELYSPIFL_RARSVSPKL_SINFVRIIMR_SPRWYFYYL_TMADLVYAL_TVYSHLLLV_YIFFASFYY_YLDAYNMMI'
p26
g3
(g5
S'|\xbc\xe97\x08\xf8\xef?'
tRp27
tp28
a(S'ATSRTLSYY_FAYANRNRF_FLNRFTTTL_FLPRVFSAV_FTYASALWEI_HVTFFIYNK_ITLKKRWQL_NVFAFPFTIY_QELYSPIFL_RARSVSPKL_SINFVRIIMR_SPRWYFYYL_TVYSHLLLV_YIFFASFYY_YLDAYNMMI'
p29
g3
(g5
S'|\xbc\xe97\x08\xf8\xef?'
tRp30
tp31
a(S'ALRANSAVK_ATSRTLSYY_FAYANRNRF_FLLPSLATV_FLNRFTTTL_FLQSINFVR_FTYASALWEI_HVTFFIYNK_ITLKKRWQL_NVFAFPFTIY_QELYSPIFL_SPRWYFYYL_TVYSHLLLV_YIFFASFYY_YLDAYNMMI'
p32
g3
(g5
S'|\xbc\xe97\x08\xf8\xef?'
tRp33
tp34
a.