(lp1
(S'ALRANSAVK_ATSRTLSYY_FAYANRNRF_FLNRFTTTL_FTYASALWEI_HVTFFIYNK_ITLKKRWQL_NVFAFPFTIY_QELYSPIFL_SINFVRIIMR_SPRWYFYYL_TVYSHLLLV_YIFFASFYY_YLDAYNMMI'
p2
cnumpy.core.multiarray
scalar
p3
(cnumpy
dtype
p4
(S'f8'
I0
I1
tRp5
(I3
S'<'
NNNI-1
I-1
I0
tbS'\xd0\xc6[t\t\xfc\xef?'
tRp6
tp7
a(S'ALRANSAVK_ATSRTLSYY_FAYANRNRF_FLNRFTTTL_FLQSINFVR_FTYASALWEI_HVTFFIYNK_ITLKKRWQL_NVFAFPFTIY_QELYSPIFL_SPRWYFYYL_TVYSHLLLV_YIFFASFYY_YLDAYNMMI'
p8
g3
(g5
S'\xd0\xc6[t\t\xfc\xef?'
tRp9
tp10
a(S'ATSRTLSYY_FAYANRNRF_FLNRFTTTL_FTYASALWEI_HVTFFIYNK_ITLKKRWQL_KTFPPTEPK_NVFAFPFTIY_QELYSPIFL_SINFVRIIMR_SPRWYFYYL_TVYSHLLLV_YIFFASFYY_YLDAYNMMI'
p11
g3
(g5
S'\xcf\xc6[t\t\xfc\xef?'
tRp12
tp13
a(S'ATSRTLSYY_FAYANRNRF_FLNRFTTTL_FLQSINFVR_FTYASALWEI_HVTFFIYNK_ITLKKRWQL_NVFAFPFTIY_QELYSPIFL_SPRWYFYYL_TSRTLSYYK_TVYSHLLLV_YIFFASFYY_YLDAYNMMI'
p14
g3
(g5
S'\xcf\xc6[t\t\xfc\xef?'
tRp15
tp16
a(S'ATSRTLSYY_FAYANRNRF_FLNRFTTTL_FTYASALWEI_HVTFFIYNK_ITLKKRWQL_NVFAFPFTIY_QELYSPIFL_SINFVRIIMR_SPRWYFYYL_TSRTLSYYK_TVYSHLLLV_YIFFASFYY_YLDAYNMMI'
p17
g3
(g5
S'\xcd\xc6[t\t\xfc\xef?'
tRp18
tp19
a(S'ATSRTLSYY_FAYANRNRF_FLNRFTTTL_FTYASALWEI_HVTFFIYNK_ITLKKRWQL_NVFAFPFTIY_QELYSPIFL_RARSVSPKL_SINFVRIIMR_SPRWYFYYL_TVYSHLLLV_YIFFASFYY_YLDAYNMMI'
p20
g3
(g5
S'\xcd\xc6[t\t\xfc\xef?'
tRp21
tp22
a(S'ATSRTLSYY_FAYANRNRF_FLNRFTTTL_FLQSINFVR_FTYASALWEI_HVTFFIYNK_ITLKKRWQL_NVFAFPFTIY_QELYSPIFL_RARSVSPKL_SPRWYFYYL_TVYSHLLLV_YIFFASFYY_YLDAYNMMI'
p23
g3
(g5
S'\xcd\xc6[t\t\xfc\xef?'
tRp24
tp25
a(S'ATSRTLSYY_FAYANRNRF_FLNRFTTTL_FLQSINFVR_FTYASALWEI_HVTFFIYNK_ITLKKRWQL_KTFPPTEPK_NVFAFPFTIY_QELYSPIFL_SPRWYFYYL_TVYSHLLLV_YIFFASFYY_YLDAYNMMI'
p26
g3
(g5
S'\xcd\xc6[t\t\xfc\xef?'
tRp27
tp28
a(S'ATSRTLSYY_FAYANRNRF_FLNRFTTTL_FTYASALWEI_HVTFFIYNK_ITLKKRWQL_NVFAFPFTIY_QELYSPIFL_SINFVRIIMR_SPRWYFYYL_SSRGTSPAR_TVYSHLLLV_YIFFASFYY_YLDAYNMMI'
p29
g3
(g5
S'\xcb\xc6[t\t\xfc\xef?'
tRp30
tp31
a(S'ATSRTLSYY_FAYANRNRF_FLNRFTTTL_FTYASALWEI_HVTFFIYNK_ITLKKRWQL_KMQRMLLEK_NVFAFPFTIY_QELYSPIFL_SINFVRIIMR_SPRWYFYYL_TVYSHLLLV_YIFFASFYY_YLDAYNMMI'
p32
g3
(g5
S'\xcb\xc6[t\t\xfc\xef?'
tRp33
tp34
a.