(lp1
(S'ALRANSAVK_ATSRTLSYY_EEHVQIHTI_FAYANRNRF_FLLNKEMYL_FLLPSLATV_FLNRFTTTL_FLPRVFSAV_FLQSINFVR_FTYASALWEI_FVDGVPFVV_HVTFFIYNK_ISDYDYYRY_ITLKKRWQL_KMQRMLLEK_KTFPPTEPK_KVSIWNLDY_LEYHDVRVV_LLYDANYFL_LSPRWYFYY_MGYINVFAF_NVFAFPFTIY_QELYSPIFL_RARSVSPKL_RTFKVSIWNL_SELVIGAVI_SINFVRIIMR_SPRWYFYYL_TMADLVYAL_TSRTLSYYK_TVYSHLLLV_VLWAHGFEL_VYFLQSINF_YANRNRFLY_YFIASFRLF_YIFFASFYY_YLDAYNMMI_YLYALVYFL'
p2
cnumpy.core.multiarray
scalar
p3
(cnumpy
dtype
p4
(S'f8'
I0
I1
tRp5
(I3
S'<'
NNNI-1
I-1
I0
tbS'\xac\x0c\xa4\xa0\xfc\xb9\xef?'
tRp6
tp7
a(S'ALRANSAVK_ATSRTLSYY_EEHVQIHTI_FAYANRNRF_FLLNKEMYL_FLLPSLATV_FLNRFTTTL_FLPRVFSAV_FLQSINFVR_FTYASALWEI_FVDGVPFVV_HVTFFIYNK_ISDYDYYRY_ITLKKRWQL_KMQRMLLEK_KTFPPTEPK_KVSIWNLDY_LEYHDVRVV_LLYDANYFL_MGYINVFAF_NVFAFPFTIY_QELYSPIFL_RARSVSPKL_RTFKVSIWNL_SELVIGAVI_SINFVRIIMR_SPRWYFYYL_SSPDDQIGYY_TMADLVYAL_TSRTLSYYK_TVYSHLLLV_VLWAHGFEL_VYFLQSINF_YANRNRFLY_YFIASFRLF_YIFFASFYY_YLDAYNMMI_YLYALVYFL'
p8
g3
(g5
S'\xe0WCP\xfc\xb9\xef?'
tRp9
tp10
a(S'ALRANSAVK_ATSRTLSYY_EEHVQIHTI_FAYANRNRF_FLLNKEMYL_FLLPSLATV_FLNRFTTTL_FLPRVFSAV_FLQSINFVR_FTYASALWEI_FVDGVPFVV_HVTFFIYNK_ISDYDYYRY_ITLKKRWQL_KMQRMLLEK_KTFPPTEPK_KVSIWNLDY_LEYHDVRVV_LLYDANYFL_MGYINVFAF_MIELSLIDFY_NVFAFPFTIY_QELYSPIFL_RARSVSPKL_RTFKVSIWNL_SELVIGAVI_SINFVRIIMR_SPRWYFYYL_TMADLVYAL_TSRTLSYYK_TVYSHLLLV_VLWAHGFEL_VYFLQSINF_YANRNRFLY_YFIASFRLF_YIFFASFYY_YLDAYNMMI_YLYALVYFL'
p11
g3
(g5
S'\xdfWCP\xfc\xb9\xef?'
tRp12
tp13
a(S'ALRANSAVK_ATSRTLSYY_EEHVQIHTI_FAYANRNRF_FLLNKEMYL_FLLPSLATV_FLNRFTTTL_FLPRVFSAV_FLQSINFVR_FTYASALWEI_FVDGVPFVV_HVTFFIYNK_ISDYDYYRY_ITLKKRWQL_KMQRMLLEK_KTFPPTEPK_KVSIWNLDY_LEYHDVRVV_LLYDANYFL_MGYINVFAF_NVFAFPFTIY_QELYSPIFL_RARSVSPKL_RTFKVSIWNL_SELVIGAVI_SINFVRIIMR_SPRWYFYYL_TMADLVYAL_TSRTLSYYK_TVYSHLLLV_VLWAHGFEL_VTPSGTWLTY_VYFLQSINF_YANRNRFLY_YFIASFRLF_YIFFASFYY_YLDAYNMMI_YLYALVYFL'
p14
g3
(g5
S'\xddWCP\xfc\xb9\xef?'
tRp15
tp16
a(S'ALRANSAVK_ATSRTLSYY_EEHVQIHTI_FAYANRNRF_FLLNKEMYL_FLLPSLATV_FLNRFTTTL_FLPRVFSAV_FLQSINFVR_FTYASALWEI_FVDGVPFVV_HVTFFIYNK_ISDYDYYRY_ITLKKRWQL_KMQRMLLEK_KTFPPTEPK_KVSIWNLDY_LEYHDVRVV_LLYDANYFL_LSPRWYFYY_MGYINVFAF_NVFAFPFTIY_QELYSPIFL_RARSVSPKL_RTFKVSIWNL_SELVIGAVI_SINFVRIIMR_SPRWYFYYL_SYFIASFRLF_TMADLVYAL_TSRTLSYYK_TVYSHLLLV_VLWAHGFEL_VYFLQSINF_YANRNRFLY_YIFFASFYY_YLDAYNMMI_YLYALVYFL'
p17
g3
(g5
S'\xddWCP\xfc\xb9\xef?'
tRp18
tp19
a(S'ALRANSAVK_ATSRTLSYY_EEHVQIHTI_FAYANRNRF_FLLNKEMYL_FLLPSLATV_FLNRFTTTL_FLPRVFSAV_FLQSINFVR_FTYASALWEI_FVDGVPFVV_HVTFFIYNK_ISDYDYYRY_ITLKKRWQL_KTFPPTEPK_KVSIWNLDY_LEYHDVRVV_LLYDANYFL_LSPRWYFYY_MGYINVFAF_NVFAFPFTIY_QELYSPIFL_RARSVSPKL_RTFKVSIWNL_SELVIGAVI_SINFVRIIMR_SPRWYFYYL_SSRGTSPAR_TMADLVYAL_TSRTLSYYK_TVYSHLLLV_VLWAHGFEL_VYFLQSINF_YANRNRFLY_YFIASFRLF_YIFFASFYY_YLDAYNMMI_YLYALVYFL'
p20
g3
(g5
S'+\x86\xb6\x9b\xfb\xb9\xef?'
tRp21
tp22
a(S'ALRANSAVK_ASKIITLKK_ATSRTLSYY_EEHVQIHTI_FAYANRNRF_FLLNKEMYL_FLLPSLATV_FLNRFTTTL_FLPRVFSAV_FLQSINFVR_FTYASALWEI_FVDGVPFVV_HVTFFIYNK_ISDYDYYRY_ITLKKRWQL_KTFPPTEPK_KVSIWNLDY_LEYHDVRVV_LLYDANYFL_LSPRWYFYY_MGYINVFAF_NVFAFPFTIY_QELYSPIFL_RARSVSPKL_RTFKVSIWNL_SELVIGAVI_SINFVRIIMR_SPRWYFYYL_TMADLVYAL_TSRTLSYYK_TVYSHLLLV_VLWAHGFEL_VYFLQSINF_YANRNRFLY_YFIASFRLF_YIFFASFYY_YLDAYNMMI_YLYALVYFL'
p23
g3
(g5
S'(\x86\xb6\x9b\xfb\xb9\xef?'
tRp24
tp25
a(S'ALRANSAVK_ASKIITLKK_ATSRTLSYY_EEHVQIHTI_FAYANRNRF_FLLNKEMYL_FLLPSLATV_FLNRFTTTL_FLPRVFSAV_FLQSINFVR_FTYASALWEI_FVDGVPFVV_HVTFFIYNK_ISDYDYYRY_ITLKKRWQL_KTFPPTEPK_KVSIWNLDY_LEYHDVRVV_LLYDANYFL_LSPRWYFYY_MGYINVFAF_NVFAFPFTIY_QELYSPIFL_RARSVSPKL_RTFKVSIWNL_SELVIGAVI_SINFVRIIMR_SPRWYFYYL_SYFIASFRLF_TMADLVYAL_TSRTLSYYK_TVYSHLLLV_VLWAHGFEL_VYFLQSINF_YANRNRFLY_YIFFASFYY_YLDAYNMMI_YLYALVYFL'
p26
g3
(g5
S'\\\xd1UK\xfb\xb9\xef?'
tRp27
tp28
a(S'ALRANSAVK_ATSRTLSYY_EEHVQIHTI_FAYANRNRF_FLLNKEMYL_FLLPSLATV_FLNRFTTTL_FLPRVFSAV_FLQSINFVR_FTYASALWEI_FVDGVPFVV_HVTFFIYNK_ISDYDYYRY_ITLKKRWQL_KTFPPTEPK_KVSIWNLDY_LEYHDVRVV_LLYDANYFL_MGYINVFAF_NVFAFPFTIY_QELYSPIFL_RARSVSPKL_RTFKVSIWNL_SELVIGAVI_SINFVRIIMR_SPRWYFYYL_SSRGTSPAR_TMADLVYAL_TSRTLSYYK_TVYSHLLLV_VLWAHGFEL_VTPSGTWLTY_VYFLQSINF_YANRNRFLY_YFIASFRLF_YIFFASFYY_YLDAYNMMI_YLYALVYFL'
p29
g3
(g5
S'[\xd1UK\xfb\xb9\xef?'
tRp30
tp31
a(S'ALRANSAVK_ATSRTLSYY_EEHVQIHTI_FAYANRNRF_FLLNKEMYL_FLLPSLATV_FLNRFTTTL_FLPRVFSAV_FLQSINFVR_FTYASALWEI_FVDGVPFVV_HVTFFIYNK_ISDYDYYRY_ITLKKRWQL_KMQRMLLEK_KTFPPTEPK_KVSIWNLDY_LEYHDVRVV_LLYDANYFL_LSPRWYFYY_LYSPIFLIV_MGYINVFAF_NVFAFPFTIY_QELYSPIFL_RARSVSPKL_RTFKVSIWNL_SELVIGAVI_SINFVRIIMR_SPRWYFYYL_TMADLVYAL_TSRTLSYYK_TVYSHLLLV_VLWAHGFEL_YANRNRFLY_YFIASFRLF_YIFFASFYY_YLDAYNMMI_YLYALVYFL'
p32
g3
(g5
S'(\xb1\xcc\x1b\xfb\xb9\xef?'
tRp33
tp34
a.