(lp1
(VFTSDYYQLY_MGYINVFAF_MIAQYTSAL_STFNVPMEK_YLQPRTFLL
p2
cnumpy.core.multiarray
scalar
p3
(cnumpy
dtype
p4
(S'f8'
I0
I1
tRp5
(I3
S'<'
NNNI-1
I-1
I0
tbS'\x05\xa0\x89\x96\xe0\xc9\xef?'
tRp6
tp7
a(VFVDGVPFVV_KLFDRYFKY_MGYINVFAF_STFNVPMEK_YLQPRTFLL
p8
g3
(g5
S'S\xa9\xb7\xf8\xd0\xbc\xef?'
tRp9
tp10
a(VFVDGVPFVV_KLFDRYFKY_MGYINVFAF_VVYRGTTTYK_YLQPRTFLL
p11
g3
(g5
S'D\x04T\xce\xe9\xbb\xef?'
tRp12
tp13
a(VFTSDYYQLY_MGYINVFAF_RTIKVFTTV_STFNVPMEK_YLQPRTFLL
p14
g3
(g5
S'\x85\x01\x92\xf0K\xb7\xef?'
tRp15
tp16
a(VFTSDYYQLY_FVNEFYAYL_MGYINVFAF_STFNVPMEK_YLQPRTFLL
p17
g3
(g5
S',4\x00\x99:\xb6\xef?'
tRp18
tp19
a.