(lp1
(VAEIRASANL_ETISLAGSY_FLAFVVFLL_FLAHIQWMV_FLLNKEMYL_FLPRVFSAV_FLQSINFVR_FPLKLRGTAV_FPRGQGVPI_FRNARNGVL_FSAVGNICY_FTSDYYQLY_FVDGVPFVV_FVNEFYAYL_FVVEVVDKY_HEFCSQHTM_HSYFTSDYY_ILFTRFFYV_ISDYDYYRY_KLFDRYFKY_KTFPPTEPK_LPVNVAFEL_LSYFIASFR_LTDEMIAQY_LVAEWFLAY_LYSPIFLIV_MADQAMTQM_MGYINVFAF_MPYFFTLLL_MSMTYGQQF_MTNRQFHQK_QTMLFTMLR_RIMASLVLAR_RLYYDSMSY_RTIKGTHHW_RTIKVFTTV_SEFSSLPSY_SIIAYTMSL_SMMGFKMNY_SPRWYFYYL_STFNVPMEK_TMADLVYAL_VRFPNITNL_VVYRGTTTYK_VYFLQSINF_VYMPASWVM_YFIASFRLF_YIFFASFYY_YLQPRTFLL
p2
cnumpy.core.multiarray
scalar
p3
(cnumpy
dtype
p4
(S'f8'
I0
I1
tRp5
(I3
S'<'
NNNI-1
I-1
I0
tbS'LH\x13\x90P\xd9\xef?'
tRp6
tp7
a(VAEIRASANL_ETISLAGSY_FLAFVVFLL_FLAHIQWMV_FLLNKEMYL_FLPRVFSAV_FLQSINFVR_FPLKLRGTAV_FPRGQGVPI_FRNARNGVL_FSAVGNICY_FTSDYYQLY_FVDGVPFVV_FVNEFYAYL_FVVEVVDKY_HEFCSQHTM_HSYFTSDYY_ILFTRFFYV_ISDYDYYRY_KLFDRYFKY_KTFPPTEPK_LPVNVAFEL_LSYFIASFR_LTDEMIAQY_LVAEWFLAY_LYSPIFLIV_MADQAMTQM_MGYINVFAF_MPYFFTLLL_MSMTYGQQF_MTNRQFHQK_QTMLFTMLR_RIMASLVLAR_RLYYDSMSY_RTIKGTHHW_RTIKVFTTV_SEFSSLPSY_SIIAYTMSL_SMMGFKMNY_SPRWYFYYL_STFNVPMEK_TMADLVYAL_TYACWHHSI_VRFPNITNL_VVYRGTTTYK_VYFLQSINF_YFIASFRLF_YIFFASFYY_YLQPRTFLL
p8
g3
(g5
S'LH\x13\x90P\xd9\xef?'
tRp9
tp10
a(VAEIRASANL_ETISLAGSY_FLAFVVFLL_FLAHIQWMV_FLLNKEMYL_FLPRVFSAV_FLQSINFVR_FPLKLRGTAV_FPRGQGVPI_FRNARNGVL_FSAVGNICY_FTSDYYQLY_FVDGVPFVV_FVNEFYAYL_FVVEVVDKY_HEFCSQHTM_HSYFTSDYY_ILFTRFFYV_ISDYDYYRY_KLFDRYFKY_KTFPPTEPK_LPVNVAFEL_LSYFIASFR_LTDEMIAQY_LVAEWFLAY_LYSPIFLIV_MADQAMTQM_MGYINVFAF_MPYFFTLLL_MSMTYGQQF_MTNRQFHQK_NYMPYFFTL_QTMLFTMLR_RIMASLVLAR_RLYYDSMSY_RTIKGTHHW_RTIKVFTTV_SEFSSLPSY_SIIAYTMSL_SMMGFKMNY_SPRWYFYYL_STFNVPMEK_TMADLVYAL_VRFPNITNL_VVYRGTTTYK_VYFLQSINF_YFIASFRLF_YIFFASFYY_YLQPRTFLL
p11
g3
(g5
S'LH\x13\x90P\xd9\xef?'
tRp12
tp13
a(VAEIRASANL_ETISLAGSY_FLAFVVFLL_FLAHIQWMV_FLLNKEMYL_FLPRVFSAV_FLQSINFVR_FPLKLRGTAV_FPRGQGVPI_FRNARNGVL_FSAVGNICY_FTSDYYQLY_FVDGVPFVV_FVNEFYAYL_FVVEVVDKY_HEFCSQHTM_HSYFTSDYY_ILFTRFFYV_ISDYDYYRY_KLFDRYFKY_KTFPPTEPK_LPVNVAFEL_LSYFIASFR_LTDEMIAQY_LVAEWFLAY_LYSPIFLIV_MADQAMTQM_MGYINVFAF_MPYFFTLLL_MSMTYGQQF_MTNRQFHQK_MYASAVVLL_QTMLFTMLR_RIMASLVLAR_RLYYDSMSY_RTIKGTHHW_RTIKVFTTV_SEFSSLPSY_SIIAYTMSL_SMMGFKMNY_SPRWYFYYL_STFNVPMEK_TMADLVYAL_VRFPNITNL_VVYRGTTTYK_VYFLQSINF_YFIASFRLF_YIFFASFYY_YLQPRTFLL
p14
g3
(g5
S'LH\x13\x90P\xd9\xef?'
tRp15
tp16
a(VAEIRASANL_ETISLAGSY_FLAFVVFLL_FLAHIQWMV_FLLNKEMYL_FLPRVFSAV_FLQSINFVR_FPLKLRGTAV_FPRGQGVPI_FRNARNGVL_FSAVGNICY_FTSDYYQLY_FVDGVPFVV_FVNEFYAYL_FVVEVVDKY_HEFCSQHTM_HSYFTSDYY_ILFTRFFYV_ISDYDYYRY_KLFDRYFKY_KTFPPTEPK_LPVNVAFEL_LSYFIASFR_LTDEMIAQY_LVAEWFLAY_LWPVTLACF_LYSPIFLIV_MADQAMTQM_MGYINVFAF_MPYFFTLLL_MSMTYGQQF_MTNRQFHQK_QTMLFTMLR_RIMASLVLAR_RLYYDSMSY_RTIKGTHHW_RTIKVFTTV_SEFSSLPSY_SIIAYTMSL_SMMGFKMNY_SPRWYFYYL_STFNVPMEK_TMADLVYAL_VRFPNITNL_VVYRGTTTYK_VYFLQSINF_YFIASFRLF_YIFFASFYY_YLQPRTFLL
p17
g3
(g5
S"'1\xb2\x83O\xd9\xef?"
tRp18
tp19
a.