(lp1
(VETISLAGSY_FRNARNGVL_FTSDYYQLY_FVDGVPFVV_FVNEFYAYL_HSYFTSDYY_KLFDRYFKY_LPVNVAFEL_MGYINVFAF_QTMLFTMLR_STFNVPMEK_VVYRGTTTYK_YFIASFRLF_YLQPRTFLL
p2
cnumpy.core.multiarray
scalar
p3
(cnumpy
dtype
p4
(S'f8'
I0
I1
tRp5
(I3
S'<'
NNNI-1
I-1
I0
tbS'\xefOn\xde\xd3y\xef?'
tRp6
tp7
a(VFPRGQGVPI_FRNARNGVL_FTSDYYQLY_FVDGVPFVV_FVNEFYAYL_KLFDRYFKY_LPVNVAFEL_MGYINVFAF_QTMLFTMLR_RTIKGTHHW_STFNVPMEK_VVYRGTTTYK_YFIASFRLF_YLQPRTFLL
p8
g3
(g5
S'%\xc4\x16\r\x8ay\xef?'
tRp9
tp10
a(VFPLKLRGTAV_FRNARNGVL_FTSDYYQLY_FVDGVPFVV_FVNEFYAYL_KLFDRYFKY_LPVNVAFEL_MGYINVFAF_QTMLFTMLR_RTIKGTHHW_STFNVPMEK_VVYRGTTTYK_YFIASFRLF_YLQPRTFLL
p11
g3
(g5
S'\xd7+\x17\xbc\x88x\xef?'
tRp12
tp13
a(VFPRGQGVPI_FRNARNGVL_FTSDYYQLY_FVDGVPFVV_FVNEFYAYL_KLFDRYFKY_LPVNVAFEL_MGYINVFAF_QTMLFTMLR_RTIKGTHHW_STFNVPMEK_VVYRGTTTYK_VYFLQSINF_YLQPRTFLL
p14
g3
(g5
S'\x0c5\x08\x1dex\xef?'
tRp15
tp16
a(VFPRGQGVPI_FRNARNGVL_FTSDYYQLY_FVDGVPFVV_FVNEFYAYL_KLFDRYFKY_LPVNVAFEL_MGYINVFAF_QTMLFTMLR_RTIKGTHHW_STFNVPMEK_SYFIASFRLF_VVYRGTTTYK_YLQPRTFLL
p17
g3
(g5
S']\x16r\xfd_x\xef?'
tRp18
tp19
a.