(lp1
(VAEIRASANL_ETISLAGSY_FLAHIQWMV_FPRGQGVPI_FRNARNGVL_FTSDYYQLY_FVDGVPFVV_FVNEFYAYL_HSYFTSDYY_ILFTRFFYV_KLFDRYFKY_KTFPPTEPK_LPVNVAFEL_LTDEMIAQY_MGYINVFAF_MPYFFTLLL_QTMLFTMLR_RTIKGTHHW_SIIAYTMSL_STFNVPMEK_TMADLVYAL_VVYRGTTTYK_VYFLQSINF_YFIASFRLF_YLQPRTFLL
p2
cnumpy.core.multiarray
scalar
p3
(cnumpy
dtype
p4
(S'f8'
I0
I1
tRp5
(I3
S'<'
NNNI-1
I-1
I0
tbS'0}n\xb1\x17\xae\xef?'
tRp6
tp7
a(VAEIRASANL_ETISLAGSY_FLAFVVFLL_FLAHIQWMV_FPRGQGVPI_FRNARNGVL_FTSDYYQLY_FVDGVPFVV_FVNEFYAYL_HSYFTSDYY_KLFDRYFKY_KTFPPTEPK_LPVNVAFEL_LTDEMIAQY_MGYINVFAF_MPYFFTLLL_QTMLFTMLR_RTIKGTHHW_SIIAYTMSL_STFNVPMEK_TMADLVYAL_VVYRGTTTYK_VYFLQSINF_YFIASFRLF_YLQPRTFLL
p8
g3
(g5
S'0}n\xb1\x17\xae\xef?'
tRp9
tp10
a(VAEIRASANL_ETISLAGSY_FLAHIQWMV_FPRGQGVPI_FRNARNGVL_FTSDYYQLY_FVDGVPFVV_FVNEFYAYL_HSYFTSDYY_ILFTRFFYV_KLFDRYFKY_KTFPPTEPK_LPVNVAFEL_LTDEMIAQY_LYSPIFLIV_MGYINVFAF_MPYFFTLLL_QTMLFTMLR_RTIKGTHHW_SIIAYTMSL_STFNVPMEK_TMADLVYAL_VVYRGTTTYK_YFIASFRLF_YLQPRTFLL
p11
g3
(g5
S'\x0f\x18\xcf\xd6\xdd\xad\xef?'
tRp12
tp13
a(VAEIRASANL_ETISLAGSY_FLAFVVFLL_FLAHIQWMV_FPRGQGVPI_FRNARNGVL_FTSDYYQLY_FVDGVPFVV_FVNEFYAYL_HSYFTSDYY_KLFDRYFKY_KTFPPTEPK_LPVNVAFEL_LTDEMIAQY_LYSPIFLIV_MGYINVFAF_MPYFFTLLL_QTMLFTMLR_RTIKGTHHW_SIIAYTMSL_STFNVPMEK_TMADLVYAL_VVYRGTTTYK_YFIASFRLF_YLQPRTFLL
p14
g3
(g5
S'\x0f\x18\xcf\xd6\xdd\xad\xef?'
tRp15
tp16
a(VAEIRASANL_ETISLAGSY_FLAHIQWMV_FPRGQGVPI_FRNARNGVL_FTSDYYQLY_FVDGVPFVV_FVNEFYAYL_HSYFTSDYY_ILFTRFFYV_KLFDRYFKY_KTFPPTEPK_LPVNVAFEL_LTDEMIAQY_MGYINVFAF_MPYFFTLLL_QTMLFTMLR_RTIKGTHHW_SIIAYTMSL_STFNVPMEK_TMADLVYAL_VRFPNITNL_VVYRGTTTYK_YFIASFRLF_YLQPRTFLL
p17
g3
(g5
S'\xf0\xbd1\xee\xc7\xad\xef?'
tRp18
tp19
a.