(lp1
(VAEIRASANL_ETISLAGSY_FEYVSQPFL_FLAFVVFLL_FLAHIQWMV_FLLNKEMYL_FLPRVFSAV_FLQSINFVR_FPLKLRGTAV_FPRGQGVPI_FRNARNGVL_FRYMNSQGLL_FSAVGNICY_FTISVTTEI_FTSDYYQLY_FVDGVPFVV_FVNEFYAYL_FVVEVVDKY_GTDLEGNFY_HEFCSQHTM_HSYFTSDYY_ILFTRFFYV_ISDYDYYRY_KLFDRYFKY_KTFPPTEPK_KVKYLYFIK_LPVNVAFEL_LSYFIASFR_LTDEMIAQY_LVAEWFLAY_LYSPIFLIV_MADQAMTQM_MGYINVFAF_MIAQYTSAL_MPYFFTLLL_MSMTYGQQF_MTNRQFHQK_QELYSPIFL_QTMLFTMLR_QYIKWPWYI_RIMASLVLAR_RLYYDSMSY_RTIKGTHHW_RTIKVFTTV_SEFSSLPSY_SIIAYTMSL_SMMGFKMNY_SPRWYFYYL_STFNVPMEK_TMADLVYAL_VLWAHGFEL_VRFPNITNL_VTDVTQLY_VVYRGTTTYK_VYFLQSINF_VYMPASWVM_YADVFHLYL_YEQYIKWPW_YFIASFRLF_YIFFASFYY_YIIKLIFLW_YLQPRTFLL
p2
cnumpy.core.multiarray
scalar
p3
(cnumpy
dtype
p4
(S'f8'
I0
I1
tRp5
(I3
S'<'
NNNI-1
I-1
I0
tbS'\x91\xdfv8O\xb2\xef?'
tRp6
tp7
a(VAEIRASANL_ETISLAGSY_FEYVSQPFL_FLAFVVFLL_FLAHIQWMV_FLLNKEMYL_FLPRVFSAV_FLQSINFVR_FPLKLRGTAV_FPRGQGVPI_FRNARNGVL_FRYMNSQGLL_FSAVGNICY_FTISVTTEI_FTSDYYQLY_FVDGVPFVV_FVNEFYAYL_FVVEVVDKY_GTDLEGNFY_HEFCSQHTM_HSYFTSDYY_ILFTRFFYV_ISDYDYYRY_KLFDRYFKY_KTFPPTEPK_KVKYLYFIK_LPVNVAFEL_LSYFIASFR_LTDEMIAQY_LVAEWFLAY_LYSPIFLIV_MADQAMTQM_MGYINVFAF_MIAQYTSAL_MPYFFTLLL_MSMTYGQQF_MTNRQFHQK_QELYSPIFL_QTMLFTMLR_QYIKWPWYI_RIMASLVLAR_RLYYDSMSY_RTIKGTHHW_RTIKVFTTV_SEFSSLPSY_SIIAYTMSL_SMMGFKMNY_SPRWYFYYL_STFNVPMEK_TMADLVYAL_TYACWHHSI_VLWAHGFEL_VRFPNITNL_VTDVTQLY_VVYRGTTTYK_VYFLQSINF_YADVFHLYL_YEQYIKWPW_YFIASFRLF_YIFFASFYY_YIIKLIFLW_YLQPRTFLL
p8
g3
(g5
S'\x91\xdfv8O\xb2\xef?'
tRp9
tp10
a(VAEIRASANL_ETISLAGSY_FEYVSQPFL_FLAFVVFLL_FLAHIQWMV_FLLNKEMYL_FLPRVFSAV_FLQSINFVR_FPLKLRGTAV_FPRGQGVPI_FRNARNGVL_FRYMNSQGLL_FSAVGNICY_FTISVTTEI_FTSDYYQLY_FVDGVPFVV_FVNEFYAYL_FVVEVVDKY_GTDLEGNFY_HEFCSQHTM_HSYFTSDYY_ILFTRFFYV_ISDYDYYRY_KLFDRYFKY_KTFPPTEPK_KVKYLYFIK_LPVNVAFEL_LSYFIASFR_LTDEMIAQY_LVAEWFLAY_LYSPIFLIV_MADQAMTQM_MGYINVFAF_MIAQYTSAL_MPYFFTLLL_MSMTYGQQF_MTNRQFHQK_NYMPYFFTL_QELYSPIFL_QTMLFTMLR_QYIKWPWYI_RIMASLVLAR_RLYYDSMSY_RTIKGTHHW_RTIKVFTTV_SEFSSLPSY_SIIAYTMSL_SMMGFKMNY_SPRWYFYYL_STFNVPMEK_TMADLVYAL_VLWAHGFEL_VRFPNITNL_VTDVTQLY_VVYRGTTTYK_VYFLQSINF_YADVFHLYL_YEQYIKWPW_YFIASFRLF_YIFFASFYY_YIIKLIFLW_YLQPRTFLL
p11
g3
(g5
S'\x91\xdfv8O\xb2\xef?'
tRp12
tp13
a(VAEIRASANL_ETISLAGSY_FEYVSQPFL_FLAFVVFLL_FLAHIQWMV_FLLNKEMYL_FLPRVFSAV_FLQSINFVR_FPLKLRGTAV_FPRGQGVPI_FRNARNGVL_FRYMNSQGLL_FSAVGNICY_FTISVTTEI_FTSDYYQLY_FVDGVPFVV_FVNEFYAYL_FVVEVVDKY_GTDLEGNFY_HEFCSQHTM_HSYFTSDYY_ILFTRFFYV_ISDYDYYRY_KLFDRYFKY_KTFPPTEPK_KVKYLYFIK_LPVNVAFEL_LSYFIASFR_LTDEMIAQY_LVAEWFLAY_LYSPIFLIV_MADQAMTQM_MGYINVFAF_MIAQYTSAL_MPYFFTLLL_MSMTYGQQF_MTNRQFHQK_MYASAVVLL_QELYSPIFL_QTMLFTMLR_QYIKWPWYI_RIMASLVLAR_RLYYDSMSY_RTIKGTHHW_RTIKVFTTV_SEFSSLPSY_SIIAYTMSL_SMMGFKMNY_SPRWYFYYL_STFNVPMEK_TMADLVYAL_VLWAHGFEL_VRFPNITNL_VTDVTQLY_VVYRGTTTYK_VYFLQSINF_YADVFHLYL_YEQYIKWPW_YFIASFRLF_YIFFASFYY_YIIKLIFLW_YLQPRTFLL
p14
g3
(g5
S'\x91\xdfv8O\xb2\xef?'
tRp15
tp16
a(VAEIRASANL_ETISLAGSY_FEYVSQPFL_FLAFVVFLL_FLAHIQWMV_FLLNKEMYL_FLPRVFSAV_FLQSINFVR_FPLKLRGTAV_FPRGQGVPI_FRNARNGVL_FRYMNSQGLL_FSAVGNICY_FTISVTTEI_FTSDYYQLY_FVDGVPFVV_FVNEFYAYL_FVVEVVDKY_GTDLEGNFY_HEFCSQHTM_HSYFTSDYY_ILFTRFFYV_ISDYDYYRY_KLFDRYFKY_KSAGFPFNK_KTFPPTEPK_LPVNVAFEL_LSYFIASFR_LTDEMIAQY_LVAEWFLAY_LYSPIFLIV_MADQAMTQM_MGYINVFAF_MIAQYTSAL_MPYFFTLLL_MSMTYGQQF_MTNRQFHQK_QELYSPIFL_QTMLFTMLR_QYIKWPWYI_RIMASLVLAR_RLYYDSMSY_RTIKGTHHW_RTIKVFTTV_SEFSSLPSY_SIIAYTMSL_SMMGFKMNY_SPRWYFYYL_STFNVPMEK_TMADLVYAL_VLWAHGFEL_VRFPNITNL_VTDVTQLY_VVYRGTTTYK_VYFLQSINF_VYMPASWVM_YADVFHLYL_YEQYIKWPW_YFIASFRLF_YIFFASFYY_YIIKLIFLW_YLQPRTFLL
p17
g3
(g5
S'\x91\xdfv8O\xb2\xef?'
tRp18
tp19
a.