(lp1
(VFRNARNGVL_FTSDYYQLY_FVNEFYAYL_KLFDRYFKY_MGYINVFAF_STFNVPMEK_YLQPRTFLL
p2
cnumpy.core.multiarray
scalar
p3
(cnumpy
dtype
p4
(S'f8'
I0
I1
tRp5
(I3
S'<'
NNNI-1
I-1
I0
tbS'\xcb\x10\xcb2u\x85\xef?'
tRp6
tp7
a(VFRNARNGVL_FTSDYYQLY_FVNEFYAYL_LPVNVAFEL_MGYINVFAF_STFNVPMEK_YLQPRTFLL
p8
g3
(g5
S'3}\x0c\xb2\xe6\x82\xef?'
tRp9
tp10
a(VFRNARNGVL_FTSDYYQLY_FVNEFYAYL_MGYINVFAF_MPYFFTLLL_STFNVPMEK_YLQPRTFLL
p11
g3
(g5
S'\xef\x86\x1d\xc0\xa7\x82\xef?'
tRp12
tp13
a(VFRNARNGVL_FVDGVPFVV_FVNEFYAYL_KLFDRYFKY_MGYINVFAF_STFNVPMEK_YLQPRTFLL
p14
g3
(g5
S'\xa0\xbe\x8c\xa4\x05~\xef?'
tRp15
tp16
a(VFRNARNGVL_FVDGVPFVV_FVNEFYAYL_KLFDRYFKY_MGYINVFAF_VVYRGTTTYK_YLQPRTFLL
p17
g3
(g5
S'\xdd\xc4\xd6\xe0\xdb|\xef?'
tRp18
tp19
a.