(lp1
(VFRNARNGVL_FVDGVPFVV_FVNEFYAYL_KLFDRYFKY_LPVNVAFEL_MGYINVFAF_STFNVPMEK_YLQPRTFLL
p2
cnumpy.core.multiarray
scalar
p3
(cnumpy
dtype
p4
(S'f8'
I0
I1
tRp5
(I3
S'<'
NNNI-1
I-1
I0
tbS'm\x11D\xb3\x9a\xe9\xee?'
tRp6
tp7
a(VFRNARNGVL_FVDGVPFVV_FVNEFYAYL_KLFDRYFKY_LPVNVAFEL_MGYINVFAF_VVYRGTTTYK_YLQPRTFLL
p8
g3
(g5
S'\x01\xc6/8\xea\xe7\xee?'
tRp9
tp10
a(VFRNARNGVL_FVDGVPFVV_FVNEFYAYL_KLFDRYFKY_MGYINVFAF_MPYFFTLLL_STFNVPMEK_YLQPRTFLL
p11
g3
(g5
S'}N\x86~9\xe7\xee?'
tRp12
tp13
a(VFRNARNGVL_FVDGVPFVV_FVNEFYAYL_KLFDRYFKY_MGYINVFAF_MPYFFTLLL_VVYRGTTTYK_YLQPRTFLL
p14
g3
(g5
S'\x1c\x1f\x9b\x86\x88\xe5\xee?'
tRp15
tp16
a(VFRNARNGVL_FTSDYYQLY_FVDGVPFVV_FVNEFYAYL_KLFDRYFKY_MGYINVFAF_STFNVPMEK_YLQPRTFLL
p17
g3
(g5
S']C\x1d\x8a,\xdb\xee?'
tRp18
tp19
a.