(lp1
(VYLQPRTFLL
p2
cnumpy.core.multiarray
scalar
p3
(cnumpy
dtype
p4
(S'f8'
I0
I1
tRp5
(I3
S'<'
NNNI-1
I-1
I0
tbS'\xbd\xadKs=\x92\xed?'
tRp6
tp7
a(VFVDGVPFVV
p8
g3
(g5
S'?\xd4\xc6\xbehq\xe9?'
tRp9
tp10
a(VFVNEFYAYL
p11
g3
(g5
S' \xd0\xb1\xeb\xc1\\\xe9?'
tRp12
tp13
a(VSIIAYTMSL
p14
g3
(g5
S'\x95\xdf\xadC\xeb\x84\xe8?'
tRp15
tp16
a(VMGYINVFAF
p17
g3
(g5
S'\x07\xcb}\x90\xe8:\xe8?'
tRp18
tp19
a.