(lp1
(VAEIRASANL_ETISLAGSY_FEYVSQPFL_FLAFVVFLL_FLAHIQWMV_FLLNKEMYL_FLPRVFSAV_FLQSINFVR_FPLKLRGTAV_FPRGQGVPI_FRNARNGVL_FRYMNSQGLL_FSAVGNICY_FSNSGSDVLY_FTISVTTEI_FTSDYYQLY_FVDGVPFVV_FVNEFYAYL_FVVEVVDKY_GTDLEGNFY_HEFCSQHTM_HSYFTSDYY_ILFTRFFYV_IPTNFTISV_ISDYDYYRY_KAYNVTQAF_KLFDRYFKY_KTFPPTEPK_KVKYLYFIK_LPVNVAFEL_LSYFIASFR_LTDEMIAQY_LVAEWFLAY_LYSPIFLIV_MADQAMTQM_MGYINVFAF_MIAQYTSAL_MPYFFTLLL_MSMTYGQQF_MTNRQFHQK_QELYSPIFL_QTMLFTMLR_QYIKWPWYI_RIMASLVLAR_RLYYDSMSY_RTIKGTHHW_RTIKVFTTV_RVVRSIFSR_SEFSSLPSY_SIIAYTMSL_SMMGFKMNY_SPRWYFYYL_STFNVPMEK_TMADLVYAL_TTFDSEYCR_VLWAHGFEL_VRFPNITNL_VTDVTQLY_VVYRGTTTYK_VYFLQSINF_VYMPASWVM_YADVFHLYL_YEQYIKWPW_YFIASFRLF_YIFFASFYY_YIIKLIFLW_YLQPRTFLL
p2
cnumpy.core.multiarray
scalar
p3
(cnumpy
dtype
p4
(S'f8'
I0
I1
tRp5
(I3
S'<'
NNNI-1
I-1
I0
tbS'd\xd0\xb7\x97\xf2\xbd\xef?'
tRp6
tp7
a(VAEIRASANL_ETISLAGSY_FEYVSQPFL_FLAFVVFLL_FLAHIQWMV_FLLNKEMYL_FLPRVFSAV_FLQSINFVR_FPLKLRGTAV_FPRGQGVPI_FRNARNGVL_FRYMNSQGLL_FSAVGNICY_FSNSGSDVLY_FTISVTTEI_FTSDYYQLY_FVDGVPFVV_FVNEFYAYL_FVVEVVDKY_GTDLEGNFY_HEFCSQHTM_HSYFTSDYY_ILFTRFFYV_IPTNFTISV_ISDYDYYRY_KAYNVTQAF_KLFDRYFKY_KTFPPTEPK_KVKYLYFIK_LPVNVAFEL_LSYFIASFR_LTDEMIAQY_LVAEWFLAY_LYSPIFLIV_MADQAMTQM_MGYINVFAF_MIAQYTSAL_MPYFFTLLL_MSMTYGQQF_MTNRQFHQK_QELYSPIFL_QTMLFTMLR_QYIKWPWYI_RIMASLVLAR_RLYYDSMSY_RTIKGTHHW_RTIKVFTTV_RVVRSIFSR_SEFSSLPSY_SIIAYTMSL_SMMGFKMNY_SPRWYFYYL_STCMMCYKR_STFNVPMEK_TMADLVYAL_VLWAHGFEL_VRFPNITNL_VTDVTQLY_VVYRGTTTYK_VYFLQSINF_VYMPASWVM_YADVFHLYL_YEQYIKWPW_YFIASFRLF_YIFFASFYY_YIIKLIFLW_YLQPRTFLL
p8
g6
tp9
a(VAEIRASANL_ETISLAGSY_FEYVSQPFL_FLAFVVFLL_FLAHIQWMV_FLLNKEMYL_FLPRVFSAV_FLQSINFVR_FPLKLRGTAV_FPRGQGVPI_FRNARNGVL_FRYMNSQGLL_FSAVGNICY_FSNSGSDVLY_FTISVTTEI_FTSDYYQLY_FVDGVPFVV_FVNEFYAYL_FVVEVVDKY_GTDLEGNFY_HEFCSQHTM_HSYFTSDYY_ILFTRFFYV_IPTNFTISV_ISDYDYYRY_KAYNVTQAF_KLFDRYFKY_KTFPPTEPK_KVKYLYFIK_LPVNVAFEL_LSYFIASFR_LTDEMIAQY_LVAEWFLAY_LYSPIFLIV_MADQAMTQM_MGYINVFAF_MIAQYTSAL_MPYFFTLLL_MSMTYGQQF_MTNRQFHQK_QELYSPIFL_QTMLFTMLR_QYIKWPWYI_RIMASLVLAR_RLYYDSMSY_RTIKGTHHW_RTIKVFTTV_RVVRSIFSR_SEFSSLPSY_SIIAYTMSL_SMMGFKMNY_SPRWYFYYL_STCMMCYKR_STFNVPMEK_TMADLVYAL_TYACWHHSI_VLWAHGFEL_VRFPNITNL_VTDVTQLY_VVYRGTTTYK_VYFLQSINF_YADVFHLYL_YEQYIKWPW_YFIASFRLF_YIFFASFYY_YIIKLIFLW_YLQPRTFLL
p10
g3
(g5
S'd\xd0\xb7\x97\xf2\xbd\xef?'
tRp11
tp12
a(VAEIRASANL_ETISLAGSY_FEYVSQPFL_FLAFVVFLL_FLAHIQWMV_FLLNKEMYL_FLPRVFSAV_FLQSINFVR_FPLKLRGTAV_FPRGQGVPI_FRNARNGVL_FRYMNSQGLL_FSAVGNICY_FSNSGSDVLY_FTISVTTEI_FTSDYYQLY_FVDGVPFVV_FVNEFYAYL_FVVEVVDKY_GTDLEGNFY_HEFCSQHTM_HSYFTSDYY_ILFTRFFYV_IPTNFTISV_ISDYDYYRY_KAYNVTQAF_KLFDRYFKY_KTFPPTEPK_KVKYLYFIK_LPVNVAFEL_LSYFIASFR_LTDEMIAQY_LVAEWFLAY_LYSPIFLIV_MADQAMTQM_MGYINVFAF_MIAQYTSAL_MPYFFTLLL_MSMTYGQQF_MTNRQFHQK_NYMPYFFTL_QELYSPIFL_QTMLFTMLR_QYIKWPWYI_RIMASLVLAR_RLYYDSMSY_RTIKGTHHW_RTIKVFTTV_RVVRSIFSR_SEFSSLPSY_SIIAYTMSL_SMMGFKMNY_SPRWYFYYL_STCMMCYKR_STFNVPMEK_TMADLVYAL_VLWAHGFEL_VRFPNITNL_VTDVTQLY_VVYRGTTTYK_VYFLQSINF_YADVFHLYL_YEQYIKWPW_YFIASFRLF_YIFFASFYY_YIIKLIFLW_YLQPRTFLL
p13
g3
(g5
S'd\xd0\xb7\x97\xf2\xbd\xef?'
tRp14
tp15
a(VAEIRASANL_ETISLAGSY_FEYVSQPFL_FLAFVVFLL_FLAHIQWMV_FLLNKEMYL_FLPRVFSAV_FLQSINFVR_FPLKLRGTAV_FPRGQGVPI_FRNARNGVL_FRYMNSQGLL_FSAVGNICY_FSNSGSDVLY_FTISVTTEI_FTSDYYQLY_FVDGVPFVV_FVNEFYAYL_FVVEVVDKY_GTDLEGNFY_HEFCSQHTM_HSYFTSDYY_ILFTRFFYV_IPTNFTISV_ISDYDYYRY_KAYNVTQAF_KLFDRYFKY_KTFPPTEPK_KVKYLYFIK_LPVNVAFEL_LSYFIASFR_LTDEMIAQY_LVAEWFLAY_LYSPIFLIV_MADQAMTQM_MGYINVFAF_MIAQYTSAL_MPYFFTLLL_MSMTYGQQF_MTNRQFHQK_MYASAVVLL_QELYSPIFL_QTMLFTMLR_QYIKWPWYI_RIMASLVLAR_RLYYDSMSY_RTIKGTHHW_RTIKVFTTV_RVVRSIFSR_SEFSSLPSY_SIIAYTMSL_SMMGFKMNY_SPRWYFYYL_STCMMCYKR_STFNVPMEK_TMADLVYAL_VLWAHGFEL_VRFPNITNL_VTDVTQLY_VVYRGTTTYK_VYFLQSINF_YADVFHLYL_YEQYIKWPW_YFIASFRLF_YIFFASFYY_YIIKLIFLW_YLQPRTFLL
p16
g3
(g5
S'd\xd0\xb7\x97\xf2\xbd\xef?'
tRp17
tp18
a.