(lp1
(VFRNARNGVL_FTSDYYQLY_FVDGVPFVV_FVNEFYAYL_KLFDRYFKY_LPVNVAFEL_MGYINVFAF_QTMLFTMLR_STFNVPMEK_YFIASFRLF_YLQPRTFLL
p2
cnumpy.core.multiarray
scalar
p3
(cnumpy
dtype
p4
(S'f8'
I0
I1
tRp5
(I3
S'<'
NNNI-1
I-1
I0
tbS'\x15\xa9\x05\x9b\xa3\xf0\xee?'
tRp6
tp7
a(VFRNARNGVL_FTSDYYQLY_FVDGVPFVV_FVNEFYAYL_KLFDRYFKY_LPVNVAFEL_MGYINVFAF_QTMLFTMLR_STFNVPMEK_VYFLQSINF_YLQPRTFLL
p8
g3
(g5
S'\xe3\xa7\xf9\x8cc\xee\xee?'
tRp9
tp10
a(VFRNARNGVL_FTSDYYQLY_FVDGVPFVV_FVNEFYAYL_KLFDRYFKY_LPVNVAFEL_MGYINVFAF_QTMLFTMLR_STFNVPMEK_SYFIASFRLF_YLQPRTFLL
p11
g3
(g5
S'HU\x95\x11^\xee\xee?'
tRp12
tp13
a(VFRNARNGVL_FTSDYYQLY_FVDGVPFVV_FVNEFYAYL_KLFDRYFKY_LPVNVAFEL_LYSPIFLIV_MGYINVFAF_QTMLFTMLR_STFNVPMEK_YLQPRTFLL
p14
g3
(g5
S'\xcb\x8a\x10\xf0\xaf\xe9\xee?'
tRp15
tp16
a(VFRNARNGVL_FTSDYYQLY_FVDGVPFVV_FVNEFYAYL_KLFDRYFKY_LPVNVAFEL_MGYINVFAF_QTMLFTMLR_QYIKWPWYI_STFNVPMEK_YLQPRTFLL
p17
g3
(g5
S'\x97\x90\t?\xae\xe2\xee?'
tRp18
tp19
a.