(lp1
(VFRNARNGVL_FTSDYYQLY_FVDGVPFVV_FVNEFYAYL_KLFDRYFKY_LPVNVAFEL_MGYINVFAF_SIIAYTMSL_STFNVPMEK_YLQPRTFLL
p2
cnumpy.core.multiarray
scalar
p3
(cnumpy
dtype
p4
(S'f8'
I0
I1
tRp5
(I3
S'<'
NNNI-1
I-1
I0
tbS'1n\x1d-\xfcy\xef?'
tRp6
tp7
a(VFRNARNGVL_FTSDYYQLY_FVDGVPFVV_FVNEFYAYL_KLFDRYFKY_LPVNVAFEL_MGYINVFAF_SIIAYTMSL_VVYRGTTTYK_YLQPRTFLL
p8
g3
(g5
S')>\xed\x05\xc7x\xef?'
tRp9
tp10
a(VFRNARNGVL_FTSDYYQLY_FVDGVPFVV_FVNEFYAYL_KLFDRYFKY_MGYINVFAF_MPYFFTLLL_SIIAYTMSL_STFNVPMEK_YLQPRTFLL
p11
g3
(g5
S'\t\xb7\xdax\xdfw\xef?'
tRp12
tp13
a(VFRNARNGVL_FTSDYYQLY_FVDGVPFVV_FVNEFYAYL_KLFDRYFKY_MGYINVFAF_MPYFFTLLL_SIIAYTMSL_VVYRGTTTYK_YLQPRTFLL
p14
g3
(g5
S'S}\xe3\xd4\xa9v\xef?'
tRp15
tp16
a(VFRNARNGVL_FTSDYYQLY_FVDGVPFVV_FVNEFYAYL_KLFDRYFKY_LPVNVAFEL_MGYINVFAF_QTMLFTMLR_STFNVPMEK_YLQPRTFLL
p17
g3
(g5
S'\x18&MQYv\xef?'
tRp18
tp19
a.