(lp1
(VFRNARNGVL_FTSDYYQLY_FVDGVPFVV_FVNEFYAYL_KLFDRYFKY_LPVNVAFEL_MGYINVFAF_STFNVPMEK_YLQPRTFLL
p2
cnumpy.core.multiarray
scalar
p3
(cnumpy
dtype
p4
(S'f8'
I0
I1
tRp5
(I3
S'<'
NNNI-1
I-1
I0
tbS'\xb1G\x00\xbc3>\xef?'
tRp6
tp7
a(VFRNARNGVL_FTSDYYQLY_FVDGVPFVV_FVNEFYAYL_KLFDRYFKY_LPVNVAFEL_MGYINVFAF_VVYRGTTTYK_YLQPRTFLL
p8
g3
(g5
S'\xd02;\xd6\xdb<\xef?'
tRp9
tp10
a(VFRNARNGVL_FTSDYYQLY_FVDGVPFVV_FVNEFYAYL_KLFDRYFKY_MGYINVFAF_MPYFFTLLL_STFNVPMEK_YLQPRTFLL
p11
g3
(g5
S'\x98\xff\x94\x0b\x8f<\xef?'
tRp12
tp13
a(VFRNARNGVL_FTSDYYQLY_FVDGVPFVV_FVNEFYAYL_KLFDRYFKY_MGYINVFAF_MPYFFTLLL_VVYRGTTTYK_YLQPRTFLL
p14
g3
(g5
S'\xb8\x04\x8c\x936;\xef?'
tRp15
tp16
a(VFPLCANGQVF_FRNARNGVL_FTSDYYQLY_FVDGVPFVV_FVNEFYAYL_KLFDRYFKY_MGYINVFAF_STFNVPMEK_YLQPRTFLL
p17
g3
(g5
S'\x0b&,\xf9\x9b4\xef?'
tRp18
tp19
a.