(lp1
(VFRNARNGVL_FTSDYYQLY_FVDGVPFVV_FVNEFYAYL_KLFDRYFKY_LPVNVAFEL_MGYINVFAF_QTMLFTMLR_STFNVPMEK_VVYRGTTTYK_YFIASFRLF_YLQPRTFLL
p2
cnumpy.core.multiarray
scalar
p3
(cnumpy
dtype
p4
(S'f8'
I0
I1
tRp5
(I3
S'<'
NNNI-1
I-1
I0
tbS'\xb8)\x80\xb8\x913\xef?'
tRp6
tp7
a(VFRNARNGVL_FTSDYYQLY_FVDGVPFVV_FVNEFYAYL_KLFDRYFKY_LPVNVAFEL_MGYINVFAF_QTMLFTMLR_STFNVPMEK_VVYRGTTTYK_VYFLQSINF_YLQPRTFLL
p8
g3
(g5
S']\xbf2d\xab1\xef?'
tRp9
tp10
a(VFRNARNGVL_FTSDYYQLY_FVDGVPFVV_FVNEFYAYL_KLFDRYFKY_LPVNVAFEL_MGYINVFAF_QTMLFTMLR_STFNVPMEK_SYFIASFRLF_VVYRGTTTYK_YLQPRTFLL
p11
g3
(g5
S'\xbdl\xce\xe8\xa51\xef?'
tRp12
tp13
a(VFRNARNGVL_FTSDYYQLY_FVDGVPFVV_FVNEFYAYL_KLFDRYFKY_LPVNVAFEL_LYSPIFLIV_MGYINVFAF_QTMLFTMLR_STFNVPMEK_VVYRGTTTYK_YLQPRTFLL
p14
g3
(g5
S'\x80q\x9e\xdfI-\xef?'
tRp15
tp16
a(VFRNARNGVL_FTSDYYQLY_FVDGVPFVV_FVNEFYAYL_KLFDRYFKY_KTFPPTEPK_LPVNVAFEL_MGYINVFAF_QTMLFTMLR_STFNVPMEK_YFIASFRLF_YLQPRTFLL
p17
g3
(g5
S'Y\x81_\x7f\x1b-\xef?'
tRp18
tp19
a.