(lp1
(VAEIRASANL_ETISLAGSY_FLAFVVFLL_FLAHIQWMV_FLPRVFSAV_FLQSINFVR_FPRGQGVPI_FRNARNGVL_FSAVGNICY_FTSDYYQLY_FVDGVPFVV_FVNEFYAYL_HSYFTSDYY_ILFTRFFYV_KLFDRYFKY_KTFPPTEPK_LPVNVAFEL_LSYFIASFR_LTDEMIAQY_LYSPIFLIV_MGYINVFAF_MPYFFTLLL_MSMTYGQQF_QTMLFTMLR_RTIKGTHHW_SEFSSLPSY_SIIAYTMSL_SPRWYFYYL_STFNVPMEK_TMADLVYAL_VRFPNITNL_VVYRGTTTYK_VYFLQSINF_YFIASFRLF_YIFFASFYY_YLQPRTFLL
p2
cnumpy.core.multiarray
scalar
p3
(cnumpy
dtype
p4
(S'f8'
I0
I1
tRp5
(I3
S'<'
NNNI-1
I-1
I0
tbS'\xb0h\x14t:\xb1\xef?'
tRp6
tp7
a(VAEIRASANL_ETISLAGSY_FLAFVVFLL_FLAHIQWMV_FLPRVFSAV_FLQSINFVR_FPRGQGVPI_FRNARNGVL_FSAVGNICY_FTSDYYQLY_FVDGVPFVV_FVNEFYAYL_HSYFTSDYY_ILFTRFFYV_KAYNVTQAF_KLFDRYFKY_KTFPPTEPK_LPVNVAFEL_LSYFIASFR_LTDEMIAQY_LYSPIFLIV_MGYINVFAF_MPYFFTLLL_QTMLFTMLR_RTIKGTHHW_SEFSSLPSY_SIIAYTMSL_SPRWYFYYL_STFNVPMEK_TMADLVYAL_VRFPNITNL_VVYRGTTTYK_VYFLQSINF_YFIASFRLF_YIFFASFYY_YLQPRTFLL
p8
g3
(g5
S'\xd5\xd6\xc0N1\xb1\xef?'
tRp9
tp10
a(VAEIRASANL_ETISLAGSY_FLAFVVFLL_FLAHIQWMV_FLPRVFSAV_FLQSINFVR_FPRGQGVPI_FRNARNGVL_FSAVGNICY_FTSDYYQLY_FVDGVPFVV_FVNEFYAYL_HSYFTSDYY_ILFTRFFYV_KLFDRYFKY_KTFPPTEPK_LPVNVAFEL_LSYFIASFR_LTDEMIAQY_MGYINVFAF_MPYFFTLLL_MSMTYGQQF_NYMPYFFTL_QTMLFTMLR_RTIKGTHHW_SEFSSLPSY_SIIAYTMSL_SPRWYFYYL_STFNVPMEK_TMADLVYAL_VRFPNITNL_VVYRGTTTYK_VYFLQSINF_YFIASFRLF_YIFFASFYY_YLQPRTFLL
p11
g3
(g5
S'\x15E\x89M\x18\xb1\xef?'
tRp12
tp13
a(VAEIRASANL_ETISLAGSY_FLAFVVFLL_FLAHIQWMV_FLPRVFSAV_FLQSINFVR_FPRGQGVPI_FRNARNGVL_FSAVGNICY_FTSDYYQLY_FVDGVPFVV_FVNEFYAYL_HSYFTSDYY_ILFTRFFYV_KLFDRYFKY_KTFPPTEPK_LPVNVAFEL_LSYFIASFR_LTDEMIAQY_MGYINVFAF_MPYFFTLLL_MSMTYGQQF_QTMLFTMLR_RTIKGTHHW_SEFSSLPSY_SIIAYTMSL_SPRWYFYYL_STFNVPMEK_TMADLVYAL_VRFPNITNL_VVYRGTTTYK_VYFLQSINF_VYMPASWVM_YFIASFRLF_YIFFASFYY_YLQPRTFLL
p14
g3
(g5
S'\xe1\xb3r\x0f\x18\xb1\xef?'
tRp15
tp16
a(VAEIRASANL_ETISLAGSY_FLAFVVFLL_FLAHIQWMV_FLPRVFSAV_FLQSINFVR_FPRGQGVPI_FRNARNGVL_FSAVGNICY_FTSDYYQLY_FVDGVPFVV_FVNEFYAYL_HSYFTSDYY_ILFTRFFYV_KLFDRYFKY_KTFPPTEPK_LPVNVAFEL_LSYFIASFR_LTDEMIAQY_MGYINVFAF_MPYFFTLLL_MSMTYGQQF_QTMLFTMLR_RTIKGTHHW_SEFSSLPSY_SIIAYTMSL_SPRWYFYYL_STFNVPMEK_TMADLVYAL_TYACWHHSI_VRFPNITNL_VVYRGTTTYK_VYFLQSINF_YFIASFRLF_YIFFASFYY_YLQPRTFLL
p17
g15
tp18
a.