(lp1
(VAEIRASANL_ETISLAGSY_FLAHIQWMV_FLPRVFSAV_FLQSINFVR_FPRGQGVPI_FRNARNGVL_FTSDYYQLY_FVDGVPFVV_FVNEFYAYL_HSYFTSDYY_ILFTRFFYV_KLFDRYFKY_KTFPPTEPK_LPVNVAFEL_LTDEMIAQY_MGYINVFAF_MPYFFTLLL_QTMLFTMLR_RTIKGTHHW_SIIAYTMSL_STFNVPMEK_TMADLVYAL_VVYRGTTTYK_VYFLQSINF_YFIASFRLF_YLQPRTFLL
p2
cnumpy.core.multiarray
scalar
p3
(cnumpy
dtype
p4
(S'f8'
I0
I1
tRp5
(I3
S'<'
NNNI-1
I-1
I0
tbS'5\xd8\xee\xa9\x9ac\xef?'
tRp6
tp7
a(VAEIRASANL_ETISLAGSY_FLAFVVFLL_FLAHIQWMV_FLPRVFSAV_FLQSINFVR_FPRGQGVPI_FRNARNGVL_FTSDYYQLY_FVDGVPFVV_FVNEFYAYL_HSYFTSDYY_KLFDRYFKY_KTFPPTEPK_LPVNVAFEL_LTDEMIAQY_MGYINVFAF_MPYFFTLLL_QTMLFTMLR_RTIKGTHHW_SIIAYTMSL_STFNVPMEK_TMADLVYAL_VVYRGTTTYK_VYFLQSINF_YFIASFRLF_YLQPRTFLL
p8
g3
(g5
S'5\xd8\xee\xa9\x9ac\xef?'
tRp9
tp10
a(VAEIRASANL_ETISLAGSY_FLAFVVFLL_FLAHIQWMV_FLQSINFVR_FPRGQGVPI_FRNARNGVL_FTSDYYQLY_FVDGVPFVV_FVNEFYAYL_HSYFTSDYY_ILFTRFFYV_KLFDRYFKY_KTFPPTEPK_LPVNVAFEL_LTDEMIAQY_MGYINVFAF_MPYFFTLLL_QTMLFTMLR_RTIKGTHHW_SIIAYTMSL_STFNVPMEK_TMADLVYAL_VVYRGTTTYK_VYFLQSINF_YFIASFRLF_YLQPRTFLL
p11
g3
(g5
S'3\x81\xa5\xc73c\xef?'
tRp12
tp13
a(VAEIRASANL_ETISLAGSY_FLAHIQWMV_FLPRVFSAV_FLQSINFVR_FPRGQGVPI_FRNARNGVL_FTSDYYQLY_FVDGVPFVV_FVNEFYAYL_HSYFTSDYY_ILFTRFFYV_KLFDRYFKY_KTFPPTEPK_LPVNVAFEL_LTDEMIAQY_LYSPIFLIV_MGYINVFAF_MPYFFTLLL_QTMLFTMLR_RTIKGTHHW_SIIAYTMSL_STFNVPMEK_TMADLVYAL_VVYRGTTTYK_YFIASFRLF_YLQPRTFLL
p14
g3
(g5
S'H\x9d\xbd\xf2\xdfb\xef?'
tRp15
tp16
a(VAEIRASANL_ETISLAGSY_FLAFVVFLL_FLAHIQWMV_FLPRVFSAV_FLQSINFVR_FPRGQGVPI_FRNARNGVL_FTSDYYQLY_FVDGVPFVV_FVNEFYAYL_HSYFTSDYY_KLFDRYFKY_KTFPPTEPK_LPVNVAFEL_LTDEMIAQY_LYSPIFLIV_MGYINVFAF_MPYFFTLLL_QTMLFTMLR_RTIKGTHHW_SIIAYTMSL_STFNVPMEK_TMADLVYAL_VVYRGTTTYK_YFIASFRLF_YLQPRTFLL
p17
g3
(g5
S'H\x9d\xbd\xf2\xdfb\xef?'
tRp18
tp19
a.