(lp1
(VETISLAGSY_FLQSINFVR_FRNARNGVL_FTSDYYQLY_FVDGVPFVV_FVNEFYAYL_HSYFTSDYY_KLFDRYFKY_LPVNVAFEL_LTDEMIAQY_MGYINVFAF_MIAQYTSAL_QTMLFTMLR_STFNVPMEK_VVYRGTTTYK_YFIASFRLF_YLQPRTFLL
p2
cnumpy.core.multiarray
scalar
p3
(cnumpy
dtype
p4
(S'f8'
I0
I1
tRp5
(I3
S'<'
NNNI-1
I-1
I0
tbS'\x83S\xb2\xe8\xa0\xb1\xef?'
tRp6
tp7
a(VETISLAGSY_FLAHIQWMV_FPRGQGVPI_FRNARNGVL_FTSDYYQLY_FVDGVPFVV_FVNEFYAYL_HSYFTSDYY_KLFDRYFKY_LPVNVAFEL_MGYINVFAF_QTMLFTMLR_RTIKGTHHW_STFNVPMEK_VVYRGTTTYK_YFIASFRLF_YLQPRTFLL
p8
g3
(g5
S'\xd3}\x04\r~\xb1\xef?'
tRp9
tp10
a(VETISLAGSY_FLQSINFVR_FRNARNGVL_FTSDYYQLY_FVDGVPFVV_FVNEFYAYL_HSYFTSDYY_ISDYDYYRY_KLFDRYFKY_LPVNVAFEL_MGYINVFAF_MIAQYTSAL_QTMLFTMLR_STFNVPMEK_VVYRGTTTYK_YFIASFRLF_YLQPRTFLL
p11
g3
(g5
S'\xa5r4&v\xb1\xef?'
tRp12
tp13
a(VETISLAGSY_FLQSINFVR_FRNARNGVL_FTSDYYQLY_FVDGVPFVV_FVNEFYAYL_GTDLEGNFY_HSYFTSDYY_KLFDRYFKY_LPVNVAFEL_MGYINVFAF_MIAQYTSAL_QTMLFTMLR_STFNVPMEK_VVYRGTTTYK_YFIASFRLF_YLQPRTFLL
p14
g12
tp15
a(VETISLAGSY_FLAHIQWMV_FPRGQGVPI_FRNARNGVL_FTSDYYQLY_FVDGVPFVV_FVNEFYAYL_HSYFTSDYY_KLFDRYFKY_LPVNVAFEL_MGYINVFAF_QTMLFTMLR_RTIKGTHHW_STFNVPMEK_SYFIASFRLF_VVYRGTTTYK_YLQPRTFLL
p16
g3
(g5
S'\x9cM\xa0Ll\xb1\xef?'
tRp17
tp18
a.