(lp1
(VFRNARNGVL_FTSDYYQLY_FVDGVPFVV_FVNEFYAYL_KLFDRYFKY_LPVNVAFEL_MGYINVFAF_QTMLFTMLR_RTIKGTHHW_STFNVPMEK_VVYRGTTTYK_YFIASFRLF_YLQPRTFLL
p2
cnumpy.core.multiarray
scalar
p3
(cnumpy
dtype
p4
(S'f8'
I0
I1
tRp5
(I3
S'<'
NNNI-1
I-1
I0
tbS"XP\x04'\x07\\\xef?"
tRp6
tp7
a(VFRNARNGVL_FTSDYYQLY_FVDGVPFVV_FVNEFYAYL_KLFDRYFKY_LPVNVAFEL_MGYINVFAF_QTMLFTMLR_RTIKGTHHW_STFNVPMEK_VVYRGTTTYK_VYFLQSINF_YLQPRTFLL
p8
g3
(g5
S'\xec\x9f2|\xc9Z\xef?'
tRp9
tp10
a(VFRNARNGVL_FTSDYYQLY_FVDGVPFVV_FVNEFYAYL_KLFDRYFKY_LPVNVAFEL_MGYINVFAF_QTMLFTMLR_RTIKGTHHW_STFNVPMEK_SYFIASFRLF_VVYRGTTTYK_YLQPRTFLL
p11
g3
(g5
S'-\x81\x9c\\\xc4Z\xef?'
tRp12
tp13
a(VETISLAGSY_FRNARNGVL_FTSDYYQLY_FVDGVPFVV_FVNEFYAYL_KLFDRYFKY_LPVNVAFEL_MGYINVFAF_QTMLFTMLR_STFNVPMEK_VVYRGTTTYK_YFIASFRLF_YLQPRTFLL
p14
g3
(g5
S'\x0b\x1b\xb3j\xbdX\xef?'
tRp15
tp16
a(VFRNARNGVL_FTSDYYQLY_FVDGVPFVV_FVNEFYAYL_KLFDRYFKY_LPVNVAFEL_MGYINVFAF_MIAQYTSAL_QTMLFTMLR_STFNVPMEK_VVYRGTTTYK_YFIASFRLF_YLQPRTFLL
p17
g3
(g5
S'\xb5\xf1\x9eJ$X\xef?'
tRp18
tp19
a.