(lp1
(VAEIRASANL_ETISLAGSY_FLAFVVFLL_FLAHIQWMV_FLPRVFSAV_FLQSINFVR_FPLKLRGTAV_FPRGQGVPI_FRNARNGVL_FSAVGNICY_FTSDYYQLY_FVDGVPFVV_FVNEFYAYL_FVVEVVDKY_HEFCSQHTM_HSYFTSDYY_ILFTRFFYV_ISDYDYYRY_KLFDRYFKY_KTFPPTEPK_LPVNVAFEL_LSYFIASFR_LTDEMIAQY_LYSPIFLIV_MADQAMTQM_MGYINVFAF_MPYFFTLLL_MSMTYGQQF_QTMLFTMLR_RTIKGTHHW_RTIKVFTTV_SEFSSLPSY_SIIAYTMSL_SMMGFKMNY_SPRWYFYYL_STFNVPMEK_TMADLVYAL_VRFPNITNL_VVYRGTTTYK_VYFLQSINF_YFIASFRLF_YIFFASFYY_YLQPRTFLL
p2
cnumpy.core.multiarray
scalar
p3
(cnumpy
dtype
p4
(S'f8'
I0
I1
tRp5
(I3
S'<'
NNNI-1
I-1
I0
tbS'8\xd2\x9f\x03\xe7\xdc\xef?'
tRp6
tp7
a(VAEIRASANL_ETISLAGSY_FLAFVVFLL_FLAHIQWMV_FLPRVFSAV_FLQSINFVR_FPRGQGVPI_FRNARNGVL_FSAVGNICY_FTSDYYQLY_FVDGVPFVV_FVNEFYAYL_HEFCSQHTM_HSYFTSDYY_ILFTRFFYV_ISDYDYYRY_KLFDRYFKY_KTFPPTEPK_LPVNVAFEL_LSYFIASFR_LTDEMIAQY_LYSPIFLIV_MADQAMTQM_MGYINVFAF_MPYFFTLLL_MSMTYGQQF_MTNRQFHQK_QTMLFTMLR_RIMASLVLAR_RTIKGTHHW_RTIKVFTTV_SEFSSLPSY_SIIAYTMSL_SMMGFKMNY_SPRWYFYYL_STFNVPMEK_TMADLVYAL_VRFPNITNL_VVYRGTTTYK_VYFLQSINF_YFIASFRLF_YIFFASFYY_YLQPRTFLL
p8
g3
(g5
S'C\xbe\xee\xd7\xdc\xdc\xef?'
tRp9
tp10
a(VAEIRASANL_ETISLAGSY_FLAFVVFLL_FLAHIQWMV_FLPRVFSAV_FLQSINFVR_FPRGQGVPI_FRNARNGVL_FSAVGNICY_FTSDYYQLY_FVDGVPFVV_FVNEFYAYL_GTDLEGNFY_HEFCSQHTM_HSYFTSDYY_ILFTRFFYV_KLFDRYFKY_KTFPPTEPK_LPVNVAFEL_LSYFIASFR_LTDEMIAQY_LYSPIFLIV_MADQAMTQM_MGYINVFAF_MPYFFTLLL_MSMTYGQQF_MTNRQFHQK_QTMLFTMLR_RIMASLVLAR_RTIKGTHHW_RTIKVFTTV_SEFSSLPSY_SIIAYTMSL_SMMGFKMNY_SPRWYFYYL_STFNVPMEK_TMADLVYAL_VRFPNITNL_VVYRGTTTYK_VYFLQSINF_YFIASFRLF_YIFFASFYY_YLQPRTFLL
p11
g3
(g5
S'C\xbe\xee\xd7\xdc\xdc\xef?'
tRp12
tp13
a(VAEIRASANL_ETISLAGSY_FEYVSQPFL_FLAFVVFLL_FLAHIQWMV_FLPRVFSAV_FLQSINFVR_FPRGQGVPI_FRNARNGVL_FSAVGNICY_FTSDYYQLY_FVDGVPFVV_FVNEFYAYL_HSYFTSDYY_ILFTRFFYV_ISDYDYYRY_KLFDRYFKY_KTFPPTEPK_LPVNVAFEL_LSYFIASFR_LTDEMIAQY_LYSPIFLIV_MADQAMTQM_MGYINVFAF_MPYFFTLLL_MSMTYGQQF_MTNRQFHQK_QTMLFTMLR_RIMASLVLAR_RTIKGTHHW_RTIKVFTTV_SEFSSLPSY_SIIAYTMSL_SMMGFKMNY_SPRWYFYYL_STFNVPMEK_TMADLVYAL_VRFPNITNL_VVYRGTTTYK_VYFLQSINF_YFIASFRLF_YIFFASFYY_YLQPRTFLL
p14
g3
(g5
S'\x83\xc4\xf7\xa3\xcf\xdc\xef?'
tRp15
tp16
a(VAEIRASANL_ETISLAGSY_FEYVSQPFL_FLAFVVFLL_FLAHIQWMV_FLPRVFSAV_FLQSINFVR_FPLKLRGTAV_FPRGQGVPI_FRNARNGVL_FSAVGNICY_FTSDYYQLY_FVDGVPFVV_FVNEFYAYL_FVVEVVDKY_HSYFTSDYY_ILFTRFFYV_ISDYDYYRY_KLFDRYFKY_KTFPPTEPK_LPVNVAFEL_LSYFIASFR_LTDEMIAQY_LYSPIFLIV_MADQAMTQM_MGYINVFAF_MPYFFTLLL_MSMTYGQQF_QTMLFTMLR_RTIKGTHHW_RTIKVFTTV_SEFSSLPSY_SIIAYTMSL_SMMGFKMNY_SPRWYFYYL_STFNVPMEK_TMADLVYAL_VRFPNITNL_VVYRGTTTYK_VYFLQSINF_YFIASFRLF_YIFFASFYY_YLQPRTFLL
p17
g3
(g5
S'\xb7\xb1\xe5]\xaa\xdc\xef?'
tRp18
tp19
a.