(lp1
(VAEIRASANL_ETISLAGSY_FLAFVVFLL_FLAHIQWMV_FLQSINFVR_FPRGQGVPI_FRNARNGVL_FSAVGNICY_FTSDYYQLY_FVDGVPFVV_FVNEFYAYL_HSYFTSDYY_ILFTRFFYV_KLFDRYFKY_KTFPPTEPK_LPVNVAFEL_LTDEMIAQY_MGYINVFAF_MPYFFTLLL_QTMLFTMLR_RTIKGTHHW_SIIAYTMSL_STFNVPMEK_TMADLVYAL_VVYRGTTTYK_VYFLQSINF_YFIASFRLF_YIFFASFYY_YLQPRTFLL
p2
cnumpy.core.multiarray
scalar
p3
(cnumpy
dtype
p4
(S'f8'
I0
I1
tRp5
(I3
S'<'
NNNI-1
I-1
I0
tbS'\xd3\x80C\xc1\xf6\x9b\xef?'
tRp6
tp7
a(VAEIRASANL_ETISLAGSY_FLAHIQWMV_FLPRVFSAV_FLQSINFVR_FPRGQGVPI_FRNARNGVL_FSAVGNICY_FTSDYYQLY_FVDGVPFVV_FVNEFYAYL_HSYFTSDYY_ILFTRFFYV_KLFDRYFKY_KTFPPTEPK_LPVNVAFEL_LTDEMIAQY_MGYINVFAF_MPYFFTLLL_QTMLFTMLR_RTIKGTHHW_SIIAYTMSL_STFNVPMEK_TMADLVYAL_VVYRGTTTYK_VYFLQSINF_YFIASFRLF_YIFFASFYY_YLQPRTFLL
p8
g3
(g5
S'\x85A\x14\xdb\xe7\x9b\xef?'
tRp9
tp10
a(VAEIRASANL_ETISLAGSY_FLAFVVFLL_FLAHIQWMV_FLPRVFSAV_FLQSINFVR_FPRGQGVPI_FRNARNGVL_FSAVGNICY_FTSDYYQLY_FVDGVPFVV_FVNEFYAYL_HSYFTSDYY_KLFDRYFKY_KTFPPTEPK_LPVNVAFEL_LTDEMIAQY_MGYINVFAF_MPYFFTLLL_QTMLFTMLR_RTIKGTHHW_SIIAYTMSL_STFNVPMEK_TMADLVYAL_VVYRGTTTYK_VYFLQSINF_YFIASFRLF_YIFFASFYY_YLQPRTFLL
p11
g3
(g5
S'\x85A\x14\xdb\xe7\x9b\xef?'
tRp12
tp13
a(VAEIRASANL_ETISLAGSY_FLAHIQWMV_FLPRVFSAV_FLQSINFVR_FPRGQGVPI_FRNARNGVL_FSAVGNICY_FTSDYYQLY_FVDGVPFVV_FVNEFYAYL_HSYFTSDYY_ILFTRFFYV_KLFDRYFKY_KTFPPTEPK_LPVNVAFEL_LTDEMIAQY_LYSPIFLIV_MGYINVFAF_MPYFFTLLL_QTMLFTMLR_RTIKGTHHW_SIIAYTMSL_STFNVPMEK_TMADLVYAL_VVYRGTTTYK_YFIASFRLF_YIFFASFYY_YLQPRTFLL
p14
g3
(g5
S'\xd8\x98.\xc7U\x9b\xef?'
tRp15
tp16
a(VAEIRASANL_ETISLAGSY_FLAFVVFLL_FLAHIQWMV_FLPRVFSAV_FLQSINFVR_FPRGQGVPI_FRNARNGVL_FSAVGNICY_FTSDYYQLY_FVDGVPFVV_FVNEFYAYL_HSYFTSDYY_KLFDRYFKY_KTFPPTEPK_LPVNVAFEL_LTDEMIAQY_LYSPIFLIV_MGYINVFAF_MPYFFTLLL_QTMLFTMLR_RTIKGTHHW_SIIAYTMSL_STFNVPMEK_TMADLVYAL_VVYRGTTTYK_YFIASFRLF_YIFFASFYY_YLQPRTFLL
p17
g3
(g5
S'\xd8\x98.\xc7U\x9b\xef?'
tRp18
tp19
a.