(lp1
(VETISLAGSY_FLQSINFVR_FRNARNGVL_FTSDYYQLY_FVDGVPFVV_FVNEFYAYL_HSYFTSDYY_KLFDRYFKY_LPVNVAFEL_MGYINVFAF_MIAQYTSAL_QTMLFTMLR_STFNVPMEK_VVYRGTTTYK_YFIASFRLF_YLQPRTFLL
p2
cnumpy.core.multiarray
scalar
p3
(cnumpy
dtype
p4
(S'f8'
I0
I1
tRp5
(I3
S'<'
NNNI-1
I-1
I0
tbS'\x01\x142j\xd9\xa3\xef?'
tRp6
tp7
a(VETISLAGSY_FPRGQGVPI_FRNARNGVL_FTSDYYQLY_FVDGVPFVV_FVNEFYAYL_HSYFTSDYY_KLFDRYFKY_LPVNVAFEL_MGYINVFAF_QTMLFTMLR_RTIKGTHHW_STFNVPMEK_VVYRGTTTYK_YFIASFRLF_YLQPRTFLL
p8
g3
(g5
S'\xcd\\\xd6N#\xa3\xef?'
tRp9
tp10
a(VETISLAGSY_FLQSINFVR_FRNARNGVL_FTSDYYQLY_FVDGVPFVV_FVNEFYAYL_HSYFTSDYY_KLFDRYFKY_LPVNVAFEL_LTDEMIAQY_MGYINVFAF_QTMLFTMLR_STFNVPMEK_VVYRGTTTYK_YFIASFRLF_YLQPRTFLL
p11
g3
(g5
S'\x0c/x\x82\xe9\xa2\xef?'
tRp12
tp13
a(VETISLAGSY_FPRGQGVPI_FRNARNGVL_FTSDYYQLY_FVDGVPFVV_FVNEFYAYL_HSYFTSDYY_KLFDRYFKY_LPVNVAFEL_MGYINVFAF_QTMLFTMLR_RTIKGTHHW_STFNVPMEK_SYFIASFRLF_VVYRGTTTYK_YLQPRTFLL
p14
g3
(g5
S'\x11LjD\xdb\xa2\xef?'
tRp15
tp16
a(VETISLAGSY_FPRGQGVPI_FRNARNGVL_FTSDYYQLY_FVDGVPFVV_FVNEFYAYL_HSYFTSDYY_KLFDRYFKY_LPVNVAFEL_MGYINVFAF_QTMLFTMLR_RTIKGTHHW_STFNVPMEK_VVYRGTTTYK_VYFLQSINF_YLQPRTFLL
p17
g3
(g5
S'\x9dMN4\xdb\xa2\xef?'
tRp18
tp19
a.