(lp1
(VAEIRASANL_ETISLAGSY_FLAHIQWMV_FPRGQGVPI_FRNARNGVL_FTSDYYQLY_FVDGVPFVV_FVNEFYAYL_HSYFTSDYY_ILFTRFFYV_KLFDRYFKY_KTFPPTEPK_LPVNVAFEL_LTDEMIAQY_MGYINVFAF_MPYFFTLLL_QTMLFTMLR_RTIKGTHHW_SIIAYTMSL_STFNVPMEK_TMADLVYAL_VVYRGTTTYK_YFIASFRLF_YLQPRTFLL
p2
cnumpy.core.multiarray
scalar
p3
(cnumpy
dtype
p4
(S'f8'
I0
I1
tRp5
(I3
S'<'
NNNI-1
I-1
I0
tbS'-f\xfc\x8f\xec\x99\xef?'
tRp6
tp7
a(VAEIRASANL_ETISLAGSY_FLAFVVFLL_FLAHIQWMV_FPRGQGVPI_FRNARNGVL_FTSDYYQLY_FVDGVPFVV_FVNEFYAYL_HSYFTSDYY_KLFDRYFKY_KTFPPTEPK_LPVNVAFEL_LTDEMIAQY_MGYINVFAF_MPYFFTLLL_QTMLFTMLR_RTIKGTHHW_SIIAYTMSL_STFNVPMEK_TMADLVYAL_VVYRGTTTYK_YFIASFRLF_YLQPRTFLL
p8
g3
(g5
S'-f\xfc\x8f\xec\x99\xef?'
tRp9
tp10
a(VAEIRASANL_ETISLAGSY_FLAHIQWMV_FPRGQGVPI_FRNARNGVL_FTSDYYQLY_FVDGVPFVV_FVNEFYAYL_HSYFTSDYY_ILFTRFFYV_KLFDRYFKY_KVKYLYFIK_LPVNVAFEL_LTDEMIAQY_MGYINVFAF_MPYFFTLLL_QTMLFTMLR_RTIKGTHHW_SIIAYTMSL_STFNVPMEK_TMADLVYAL_VVYRGTTTYK_YFIASFRLF_YLQPRTFLL
p11
g3
(g5
S'?\xf1\xee\x04\x99\x99\xef?'
tRp12
tp13
a(VAEIRASANL_ETISLAGSY_FLAHIQWMV_FPRGQGVPI_FRNARNGVL_FTSDYYQLY_FVDGVPFVV_FVNEFYAYL_HSYFTSDYY_ILFTRFFYV_KLFDRYFKY_KSAGFPFNK_LPVNVAFEL_LTDEMIAQY_MGYINVFAF_MPYFFTLLL_QTMLFTMLR_RTIKGTHHW_SIIAYTMSL_STFNVPMEK_TMADLVYAL_VVYRGTTTYK_YFIASFRLF_YLQPRTFLL
p14
g3
(g5
S'?\xf1\xee\x04\x99\x99\xef?'
tRp15
tp16
a(VAEIRASANL_ETISLAGSY_FLAFVVFLL_FLAHIQWMV_FPRGQGVPI_FRNARNGVL_FTSDYYQLY_FVDGVPFVV_FVNEFYAYL_HSYFTSDYY_KLFDRYFKY_KVKYLYFIK_LPVNVAFEL_LTDEMIAQY_MGYINVFAF_MPYFFTLLL_QTMLFTMLR_RTIKGTHHW_SIIAYTMSL_STFNVPMEK_TMADLVYAL_VVYRGTTTYK_YFIASFRLF_YLQPRTFLL
p17
g3
(g5
S'?\xf1\xee\x04\x99\x99\xef?'
tRp18
tp19
a.