(lp1
(VETISLAGSY_FLAHIQWMV_FPRGQGVPI_FRNARNGVL_FTSDYYQLY_FVDGVPFVV_FVNEFYAYL_HSYFTSDYY_KLFDRYFKY_LPVNVAFEL_MGYINVFAF_QTMLFTMLR_RTIKGTHHW_SIIAYTMSL_STFNVPMEK_TMADLVYAL_VVYRGTTTYK_YFIASFRLF_YLQPRTFLL
p2
cnumpy.core.multiarray
scalar
p3
(cnumpy
dtype
p4
(S'f8'
I0
I1
tRp5
(I3
S'<'
NNNI-1
I-1
I0
tbS'\xd4\x12\x92\x04\x1b\x91\xef?'
tRp6
tp7
a(VETISLAGSY_FLAHIQWMV_FPRGQGVPI_FRNARNGVL_FTSDYYQLY_FVDGVPFVV_FVNEFYAYL_HSYFTSDYY_KLFDRYFKY_LPVNVAFEL_MGYINVFAF_QTMLFTMLR_RTIKGTHHW_SIIAYTMSL_STFNVPMEK_SYFIASFRLF_TMADLVYAL_VVYRGTTTYK_YLQPRTFLL
p8
g3
(g5
S'\x0fv\xc0\xac\xfc\x90\xef?'
tRp9
tp10
a(VETISLAGSY_FLAHIQWMV_FLPRVFSAV_FPRGQGVPI_FRNARNGVL_FTSDYYQLY_FVDGVPFVV_FVNEFYAYL_HSYFTSDYY_KLFDRYFKY_LPVNVAFEL_MGYINVFAF_QTMLFTMLR_RTIKGTHHW_SIIAYTMSL_STFNVPMEK_VVYRGTTTYK_YFIASFRLF_YLQPRTFLL
p11
g3
(g5
S'\x83\xb0}E_\x90\xef?'
tRp12
tp13
a(VETISLAGSY_FLAHIQWMV_FLPRVFSAV_FPRGQGVPI_FRNARNGVL_FTSDYYQLY_FVDGVPFVV_FVNEFYAYL_HSYFTSDYY_KLFDRYFKY_LPVNVAFEL_MGYINVFAF_QTMLFTMLR_RTIKGTHHW_SIIAYTMSL_STFNVPMEK_SYFIASFRLF_VVYRGTTTYK_YLQPRTFLL
p14
g3
(g5
S'8\xc9E\xf2%\x90\xef?'
tRp15
tp16
a(VETISLAGSY_FLAHIQWMV_FPRGQGVPI_FRNARNGVL_FTSDYYQLY_FVDGVPFVV_FVNEFYAYL_HSYFTSDYY_KLFDRYFKY_LPVNVAFEL_MGYINVFAF_QTMLFTMLR_RTIKGTHHW_SIIAYTMSL_STFNVPMEK_VLWAHGFEL_VVYRGTTTYK_YFIASFRLF_YLQPRTFLL
p17
g3
(g5
S's\\\xfcn}\x8f\xef?'
tRp18
tp19
a.