(lp1
(VMGYINVFAF_YLQPRTFLL
p2
cnumpy.core.multiarray
scalar
p3
(cnumpy
dtype
p4
(S'f8'
I0
I1
tRp5
(I3
S'<'
NNNI-1
I-1
I0
tbS'\xd5:T\xba~\xa1\xef?'
tRp6
tp7
a(VLPFNDGVYF_YLQPRTFLL
p8
g3
(g5
S'\xb5\xde\xcb\x88\xdfr\xef?'
tRp9
tp10
a(VFTNVYADSF_YLQPRTFLL
p11
g3
(g5
S'\x0cH\xde=0p\xef?'
tRp12
tp13
a(VFVNEFYAYL_YLQPRTFLL
p14
g3
(g5
S'\xe8+\x00 \xfcR\xef?'
tRp15
tp16
a(VYLQPRTFLL_YVNTFSSTF
p17
g3
(g5
S'\xe5O\xcd\xeczN\xef?'
tRp18
tp19
a.