(lp1
(VAEIRASANL_ETISLAGSY_FLAHIQWMV_FPRGQGVPI_FRNARNGVL_FTSDYYQLY_FVDGVPFVV_FVNEFYAYL_HSYFTSDYY_KLFDRYFKY_LPVNVAFEL_MGYINVFAF_QTMLFTMLR_RTIKGTHHW_SIIAYTMSL_STFNVPMEK_TMADLVYAL_VVYRGTTTYK_YFIASFRLF_YLQPRTFLL
p2
cnumpy.core.multiarray
scalar
p3
(cnumpy
dtype
p4
(S'f8'
I0
I1
tRp5
(I3
S'<'
NNNI-1
I-1
I0
tbS'UO\xcd_\xf5\xa9\xef?'
tRp6
tp7
a(VAEIRASANL_ETISLAGSY_FLAHIQWMV_FPRGQGVPI_FRNARNGVL_FTSDYYQLY_FVDGVPFVV_FVNEFYAYL_HSYFTSDYY_KLFDRYFKY_LPVNVAFEL_MGYINVFAF_QTMLFTMLR_RTIKGTHHW_SIIAYTMSL_STFNVPMEK_SYFIASFRLF_TMADLVYAL_VVYRGTTTYK_YLQPRTFLL
p8
g3
(g5
S'\xe8=\x7fD\xda\xa9\xef?'
tRp9
tp10
a(VETISLAGSY_FLAHIQWMV_FPRGQGVPI_FRNARNGVL_FTSDYYQLY_FVDGVPFVV_FVNEFYAYL_HSYFTSDYY_KLFDRYFKY_LPVNVAFEL_LTDEMIAQY_MGYINVFAF_QTMLFTMLR_RTIKGTHHW_SIIAYTMSL_STFNVPMEK_TMADLVYAL_VVYRGTTTYK_YFIASFRLF_YLQPRTFLL
p11
g3
(g5
S'\xc7\x99\n\x94\xb4\xa9\xef?'
tRp12
tp13
a(VETISLAGSY_FLAHIQWMV_FPRGQGVPI_FRNARNGVL_FTSDYYQLY_FVDGVPFVV_FVNEFYAYL_HSYFTSDYY_KLFDRYFKY_LPVNVAFEL_LTDEMIAQY_MGYINVFAF_QTMLFTMLR_RTIKGTHHW_SIIAYTMSL_STFNVPMEK_SYFIASFRLF_TMADLVYAL_VVYRGTTTYK_YLQPRTFLL
p14
g3
(g5
S'\x84\xd7\x92W\x9a\xa9\xef?'
tRp15
tp16
a(VAEIRASANL_ETISLAGSY_FLAHIQWMV_FLPRVFSAV_FPRGQGVPI_FRNARNGVL_FTSDYYQLY_FVDGVPFVV_FVNEFYAYL_HSYFTSDYY_KLFDRYFKY_LPVNVAFEL_MGYINVFAF_QTMLFTMLR_RTIKGTHHW_SIIAYTMSL_STFNVPMEK_VVYRGTTTYK_YFIASFRLF_YLQPRTFLL
p17
g3
(g5
S'\xbbd\xc8\xd4\x7f\xa9\xef?'
tRp18
tp19
a.