(lp1
(VAEIRASANL_ETISLAGSY_FLAFVVFLL_FLAHIQWMV_FLPRVFSAV_FLQSINFVR_FPRGQGVPI_FRNARNGVL_FSAVGNICY_FTSDYYQLY_FVDGVPFVV_FVNEFYAYL_HSYFTSDYY_ILFTRFFYV_KLFDRYFKY_KTFPPTEPK_LPVNVAFEL_LTDEMIAQY_MGYINVFAF_MPYFFTLLL_QTMLFTMLR_RTIKGTHHW_SEFSSLPSY_SIIAYTMSL_STFNVPMEK_TMADLVYAL_VRFPNITNL_VVYRGTTTYK_VYFLQSINF_YFIASFRLF_YIFFASFYY_YLQPRTFLL
p2
cnumpy.core.multiarray
scalar
p3
(cnumpy
dtype
p4
(S'f8'
I0
I1
tRp5
(I3
S'<'
NNNI-1
I-1
I0
tbS'\xdb\xb8=<\xc7l\xef?'
tRp6
tp7
a(VAEIRASANL_ETISLAGSY_FLAFVVFLL_FLAHIQWMV_FLPRVFSAV_FLQSINFVR_FPRGQGVPI_FRNARNGVL_FSAVGNICY_FTSDYYQLY_FVDGVPFVV_FVNEFYAYL_HSYFTSDYY_ILFTRFFYV_KLFDRYFKY_KTFPPTEPK_LPVNVAFEL_LTDEMIAQY_MGYINVFAF_MPYFFTLLL_QTMLFTMLR_RTIKGTHHW_SIIAYTMSL_STFNVPMEK_TMADLVYAL_VRFPNITNL_VVYRGTTTYK_VYFLQSINF_YEQYIKWPW_YFIASFRLF_YIFFASFYY_YLQPRTFLL
p8
g3
(g5
S'\xc9\xc7X\xa80l\xef?'
tRp9
tp10
a(VAEIRASANL_ETISLAGSY_FLAHIQWMV_FLLNKEMYL_FLPRVFSAV_FLQSINFVR_FPRGQGVPI_FRNARNGVL_FSAVGNICY_FTSDYYQLY_FVDGVPFVV_FVNEFYAYL_HSYFTSDYY_ILFTRFFYV_KLFDRYFKY_KTFPPTEPK_LPVNVAFEL_LTDEMIAQY_MGYINVFAF_MPYFFTLLL_QTMLFTMLR_RTIKGTHHW_SEFSSLPSY_SIIAYTMSL_STFNVPMEK_TMADLVYAL_VRFPNITNL_VVYRGTTTYK_VYFLQSINF_YFIASFRLF_YIFFASFYY_YLQPRTFLL
p11
g3
(g5
S'\x85x\xf7\x98\x88k\xef?'
tRp12
tp13
a(VAEIRASANL_ETISLAGSY_FLAFVVFLL_FLAHIQWMV_FLLNKEMYL_FLPRVFSAV_FLQSINFVR_FPRGQGVPI_FRNARNGVL_FSAVGNICY_FTSDYYQLY_FVDGVPFVV_FVNEFYAYL_HSYFTSDYY_KLFDRYFKY_KTFPPTEPK_LPVNVAFEL_LTDEMIAQY_MGYINVFAF_MPYFFTLLL_QTMLFTMLR_RTIKGTHHW_SEFSSLPSY_SIIAYTMSL_STFNVPMEK_TMADLVYAL_VRFPNITNL_VVYRGTTTYK_VYFLQSINF_YFIASFRLF_YIFFASFYY_YLQPRTFLL
p14
g3
(g5
S'\x85x\xf7\x98\x88k\xef?'
tRp15
tp16
a(VAEIRASANL_ETISLAGSY_FLAHIQWMV_FLPRVFSAV_FLQSINFVR_FPRGQGVPI_FRNARNGVL_FSAVGNICY_FTSDYYQLY_FVDGVPFVV_FVNEFYAYL_HSYFTSDYY_ILFTRFFYV_KLFDRYFKY_KTFPPTEPK_LPVNVAFEL_LTDEMIAQY_MGYINVFAF_MPYFFTLLL_QTMLFTMLR_RTIKGTHHW_SEFSSLPSY_SIIAYTMSL_STFNVPMEK_TMADLVYAL_VLWAHGFEL_VRFPNITNL_VVYRGTTTYK_VYFLQSINF_YFIASFRLF_YIFFASFYY_YLQPRTFLL
p17
g3
(g5
S'\x90\xd8\xcc\xbbnk\xef?'
tRp18
tp19
a.