(lp1
(VFVDGVPFVV_MGYINVFAF_STFNVPMEK_YLQPRTFLL
p2
cnumpy.core.multiarray
scalar
p3
(cnumpy
dtype
p4
(S'f8'
I0
I1
tRp5
(I3
S'<'
NNNI-1
I-1
I0
tbS';\xa1\xcb|Gi\xef?'
tRp6
tp7
a(VFVDGVPFVV_MGYINVFAF_VVYRGTTTYK_YLQPRTFLL
p8
g3
(g5
S'\xb8\xdb\xfc&\xa8g\xef?'
tRp9
tp10
a(VFVNEFYAYL_MGYINVFAF_STFNVPMEK_YLQPRTFLL
p11
g3
(g5
S'\xf4F0\n\xe0`\xef?'
tRp12
tp13
a(VFVNEFYAYL_MGYINVFAF_VVYRGTTTYK_YLQPRTFLL
p14
g3
(g5
S'\x97>=\xa9h_\xef?'
tRp15
tp16
a(VFTSDYYQLY_MGYINVFAF_STFNVPMEK_YLQPRTFLL
p17
g3
(g5
S'\xf0d\xc5\x01\xe7R\xef?'
tRp18
tp19
a.