(lp1
(VFRNARNGVL_FTSDYYQLY_FVNEFYAYL_MGYINVFAF_STFNVPMEK_YLQPRTFLL
p2
cnumpy.core.multiarray
scalar
p3
(cnumpy
dtype
p4
(S'f8'
I0
I1
tRp5
(I3
S'<'
NNNI-1
I-1
I0
tbS'\x00\xb3K>I+\xef?'
tRp6
tp7
a(VFVDGVPFVV_FVNEFYAYL_KLFDRYFKY_MGYINVFAF_STFNVPMEK_YLQPRTFLL
p8
g3
(g5
S'M\x94}-\x17\x1f\xef?'
tRp9
tp10
a(VFVDGVPFVV_FVNEFYAYL_KLFDRYFKY_MGYINVFAF_VVYRGTTTYK_YLQPRTFLL
p11
g3
(g5
S'\x97o\xb2\x89\xaf\x1c\xef?'
tRp12
tp13
a(VFTSDYYQLY_FVNEFYAYL_KLFDRYFKY_MGYINVFAF_STFNVPMEK_YLQPRTFLL
p14
g3
(g5
S'#\xa8\x0c\xf6<\x17\xef?'
tRp15
tp16
a(VFRNARNGVL_FVDGVPFVV_KLFDRYFKY_MGYINVFAF_STFNVPMEK_YLQPRTFLL
p17
g3
(g5
S'WN\xc1{=\x0c\xef?'
tRp18
tp19
a.