(lp1
(S'IITLKKRWQLALSKGVHFV_RWYFYYLGTGPEAGLPYGA_TRGVYYPDKVFRSSVLHST_VKDCVVLHSYFTSDYYQLY_VTQQLIRAAEIRASANLAA'
p2
cnumpy.core.multiarray
scalar
p3
(cnumpy
dtype
p4
(S'f8'
I0
I1
tRp5
(I3
S'<'
NNNI-1
I-1
I0
tbS'\xb5\x1a\x92@\xf3=\xee?'
tRp6
tp7
a(S'PSDFVRATATIPIQASLPF_RWYFYYLGTGPEAGLPYGA_TRGVYYPDKVFRSSVLHST_VKDCVVLHSYFTSDYYQLY_VTQQLIRAAEIRASANLAA'
p8
g3
(g5
S';\xd3\xa6\x88&=\xee?'
tRp9
tp10
a(S'IITLKKRWQLALSKGVHFV_RWYFYYLGTGPEAGLPYGA_SYFTSDYYQLYSTQLSTDT_TRGVYYPDKVFRSSVLHST_VTQQLIRAAEIRASANLAA'
p11
g3
(g5
S'=\x1e\x1e\xf4|4\xee?'
tRp12
tp13
a(S'GAGAALQIPFAMQMAYRFN_IITLKKRWQLALSKGVHFV_RWYFYYLGTGPEAGLPYGA_TRGVYYPDKVFRSSVLHST_VTQQLIRAAEIRASANLAA'
p14
g3
(g5
S'%\x9dG\xacF4\xee?'
tRp15
tp16
a(S'PSDFVRATATIPIQASLPF_RWYFYYLGTGPEAGLPYGA_SYFTSDYYQLYSTQLSTDT_TRGVYYPDKVFRSSVLHST_VTQQLIRAAEIRASANLAA'
p17
g3
(g5
S'ET\x91(#2\xee?'
tRp18
tp19
a(S'GAGAALQIPFAMQMAYRFN_PSDFVRATATIPIQASLPF_RWYFYYLGTGPEAGLPYGA_TRGVYYPDKVFRSSVLHST_VTQQLIRAAEIRASANLAA'
p20
g3
(g5
S'\xcd\xd5\x1f\xd2\xec1\xee?'
tRp21
tp22
a(S'IITLKKRWQLALSKGVHFV_KVFRSSVLHSTQDLFLPFF_NGGDAALALLLLDRLNQLE_RWYFYYLGTGPEAGLPYGA_VTQQLIRAAEIRASANLAA'
p23
g3
(g5
S'\xfdA$\xe4\x05/\xee?'
tRp24
tp25
a(S'IITLKKRWQLALSKGVHFV_NGGDAALALLLLDRLNQLE_RWYFYYLGTGPEAGLPYGA_VKDCVVLHSYFTSDYYQLY_VTQQLIRAAEIRASANLAA'
p26
g3
(g5
S'\xd7A$\xe4\x05/\xee?'
tRp27
tp28
a(S'IITLKKRWQLALSKGVHFV_PKEITVATSRTLSYYKLGA_RWYFYYLGTGPEAGLPYGA_VKDCVVLHSYFTSDYYQLY_VTQQLIRAAEIRASANLAA'
p29
g3
(g5
S'c\x1a\xca}\x92.\xee?'
tRp30
tp31
a(S'IITLKKRWQLALSKGVHFV_RWYFYYLGTGPEAGLPYGA_VEAEVQIDRLITGRLQSLQ_VKDCVVLHSYFTSDYYQLY_VTQQLIRAAEIRASANLAA'
p32
g3
(g5
S'9\x1a\xca}\x92.\xee?'
tRp33
tp34
a.