(lp1
(S'LPIGINITRFQTLLALHRS_TITSGWTFGAGAALQIPFA'
p2
cnumpy.core.multiarray
scalar
p3
(cnumpy
dtype
p4
(S'f8'
I0
I1
tRp5
(I3
S'<'
NNNI-1
I-1
I0
tbS'\xe7\xb8\xce\xc7`\x1f\xec?'
tRp6
tp7
a(S'GAGAALQIPFAMQMAYRFN_TITSGWTFGAGAALQIPFA'
p8
g3
(g5
S'\xa0\tQ\xc1\xf0\x14\xec?'
tRp9
tp10
a(S'GAGAALQIPFAMQMAYRFN_IITLKKRWQLALSKGVHFV'
p11
g3
(g5
S'\xfc\xcdL\xea\x94\x08\xec?'
tRp12
tp13
a(S'IITLKKRWQLALSKGVHFV_NGGDAALALLLLDRLNQLE'
p14
g3
(g5
S'\xff\x8e\xa1\x7f\xd8\xef\xeb?'
tRp15
tp16
a(S'IITLKKRWQLALSKGVHFV_VKDCVVLHSYFTSDYYQLY'
p17
g3
(g5
S'|\xe0\xe4Z\x11\xc4\xeb?'
tRp18
tp19
a(S'IITLKKRWQLALSKGVHFV_PSKRSFIEDLLFNKVTLAD'
p20
g3
(g5
S"+$\xc6'T\xbe\xeb?"
tRp21
tp22
a(S'IITLKKRWQLALSKGVHFV_SYFTSDYYQLYSTQLSTDT'
p23
g3
(g5
S'\x15\xd8\x8eJ\xa2\x91\xeb?'
tRp24
tp25
a(S'LPIGINITRFQTLLALHRS_VTQQLIRAAEIRASANLAA'
p26
g3
(g5
S'a\x12\xea\x86\x05\x8c\xeb?'
tRp27
tp28
a(S'TRGVYYPDKVFRSSVLHST_VTQQLIRAAEIRASANLAA'
p29
g3
(g5
S'\xf9\xa7b3\x1b\x81\xeb?'
tRp30
tp31
a(S'ENQKLIANQFNSAIGKIQD_IITLKKRWQLALSKGVHFV'
p32
g3
(g5
S'4\xbf\xda\xa0\x93~\xeb?'
tRp33
tp34
a.