(lp1
(S'IITLKKRWQLALSKGVHFV_TRGVYYPDKVFRSSVLHST_VKDCVVLHSYFTSDYYQLY_VTQQLIRAAEIRASANLAA'
p2
cnumpy.core.multiarray
scalar
p3
(cnumpy
dtype
p4
(S'f8'
I0
I1
tRp5
(I3
S'<'
NNNI-1
I-1
I0
tbS'\x80\xc3M\x87\x17\xdd\xed?'
tRp6
tp7
a(S'PSDFVRATATIPIQASLPF_TRGVYYPDKVFRSSVLHST_VKDCVVLHSYFTSDYYQLY_VTQQLIRAAEIRASANLAA'
p8
g3
(g5
S'Xxg\x16=\xdc\xed?'
tRp9
tp10
a(S'IITLKKRWQLALSKGVHFV_SYFTSDYYQLYSTQLSTDT_TRGVYYPDKVFRSSVLHST_VTQQLIRAAEIRASANLAA'
p11
g3
(g5
S'X\xcf\xc0\x0b\xa9\xd2\xed?'
tRp12
tp13
a(S'GAGAALQIPFAMQMAYRFN_IITLKKRWQLALSKGVHFV_TRGVYYPDKVFRSSVLHST_VTQQLIRAAEIRASANLAA'
p14
g3
(g5
S'\xcd\xe1\xc3\xce4\xd2\xed?'
tRp15
tp16
a(S'PSDFVRATATIPIQASLPF_SYFTSDYYQLYSTQLSTDT_TRGVYYPDKVFRSSVLHST_VTQQLIRAAEIRASANLAA'
p17
g3
(g5
S'\x13\xd2\x86\xdb,\xd0\xed?'
tRp18
tp19
a(S'GAGAALQIPFAMQMAYRFN_PSDFVRATATIPIQASLPF_TRGVYYPDKVFRSSVLHST_VTQQLIRAAEIRASANLAA'
p20
g3
(g5
S'\x10Ic\x80\xb8\xcf\xed?'
tRp21
tp22
a(S'IITLKKRWQLALSKGVHFV_KVFRSSVLHSTQDLFLPFF_NGGDAALALLLLDRLNQLE_VTQQLIRAAEIRASANLAA'
p23
g3
(g5
S'\xe9\x80\xbdTs\xcd\xed?'
tRp24
tp25
a(S'IITLKKRWQLALSKGVHFV_NGGDAALALLLLDRLNQLE_VKDCVVLHSYFTSDYYQLY_VTQQLIRAAEIRASANLAA'
p26
g3
(g5
S'\xc3\x80\xbdTs\xcd\xed?'
tRp27
tp28
a(S'IITLKKRWQLALSKGVHFV_PKEITVATSRTLSYYKLGA_VKDCVVLHSYFTSDYYQLY_VTQQLIRAAEIRASANLAA'
p29
g3
(g5
S'\x01\x17\xb5\xe8\xfb\xcc\xed?'
tRp30
tp31
a(S'IITLKKRWQLALSKGVHFV_VEAEVQIDRLITGRLQSLQ_VKDCVVLHSYFTSDYYQLY_VTQQLIRAAEIRASANLAA'
p32
g3
(g5
S'\xeb\x16\xb5\xe8\xfb\xcc\xed?'
tRp33
tp34
a.