(lp1
(S'AVFQSASKIITLKKRWQLA_FCTQLNRALTGIAVEQDKN_FNPETNILLNVPLHGTILT_GAISSVLNDILSRLDKVEA_HQPYVVDDPCPIHFYSKWYI_IITLKKRWQLALSKGVHFV_KVFRSSVLHSTQDLFLPFF_NGGDAALALLLLDRLNQLE_PSDFVRATATIPIQASLPF_PSKRSFIEDLLFNKVTLAD_RWYFYYLGTGPEAGLPYGA_SNCVADYSVLYNSASFSTF_SRTLSYYKLGASQRVAGDS_TITSGWTFGAGAALQIPFA_TRGVYYPDKVFRSSVLHST_VKDCVVLHSYFTSDYYQLY_VTQQLIRAAEIRASANLAA_YLYALVYFLQSINFVRIIM_YNYLYRLFRKSNLKPFERD'
p2
cnumpy.core.multiarray
scalar
p3
(cnumpy
dtype
p4
(S'f8'
I0
I1
tRp5
(I3
S'<'
NNNI-1
I-1
I0
tbS'\x97$\x11\xd0\xc0s\xec?'
tRp6
tp7
a(S'AVFQSASKIITLKKRWQLA_FCTQLNRALTGIAVEQDKN_FNPETNILLNVPLHGTILT_IITLKKRWQLALSKGVHFV_KVFRSSVLHSTQDLFLPFF_NGGDAALALLLLDRLNQLE_PSDFVRATATIPIQASLPF_PSKRSFIEDLLFNKVTLAD_RWYFYYLGTGPEAGLPYGA_SNCVADYSVLYNSASFSTF_SRTLSYYKLGASQRVAGDS_TAPAICHDGKAHFPREGVF_TITSGWTFGAGAALQIPFA_TRGVYYPDKVFRSSVLHST_TYTGAIKLDDKDPNFKDQV_VKDCVVLHSYFTSDYYQLY_VTQQLIRAAEIRASANLAA_YLYALVYFLQSINFVRIIM_YNYLYRLFRKSNLKPFERD'
p8
g3
(g5
S'\x95$\x11\xd0\xc0s\xec?'
tRp9
tp10
a(S'AVFQSASKIITLKKRWQLA_FCTQLNRALTGIAVEQDKN_FNPETNILLNVPLHGTILT_GAISSVLNDILSRLDKVEA_IITLKKRWQLALSKGVHFV_KVFRSSVLHSTQDLFLPFF_NGGDAALALLLLDRLNQLE_PSDFVRATATIPIQASLPF_PSKRSFIEDLLFNKVTLAD_RWYFYYLGTGPEAGLPYGA_SNCVADYSVLYNSASFSTF_SRTLSYYKLGASQRVAGDS_TITSGWTFGAGAALQIPFA_TRGVYYPDKVFRSSVLHST_TYTGAIKLDDKDPNFKDQV_VKDCVVLHSYFTSDYYQLY_VTQQLIRAAEIRASANLAA_YLYALVYFLQSINFVRIIM_YNYLYRLFRKSNLKPFERD'
p11
g3
(g5
S'\x95$\x11\xd0\xc0s\xec?'
tRp12
tp13
a(S'AVFQSASKIITLKKRWQLA_FCTQLNRALTGIAVEQDKN_FNPETNILLNVPLHGTILT_GAISSVLNDILSRLDKVEA_IITLKKRWQLALSKGVHFV_KVFRSSVLHSTQDLFLPFF_NGGDAALALLLLDRLNQLE_PSDFVRATATIPIQASLPF_PSKRSFIEDLLFNKVTLAD_RWYFYYLGTGPEAGLPYGA_SNCVADYSVLYNSASFSTF_SRTLSYYKLGASQRVAGDS_TAPAICHDGKAHFPREGVF_TITSGWTFGAGAALQIPFA_TRGVYYPDKVFRSSVLHST_VKDCVVLHSYFTSDYYQLY_VTQQLIRAAEIRASANLAA_YLYALVYFLQSINFVRIIM_YNYLYRLFRKSNLKPFERD'
p14
g3
(g5
S'\x95$\x11\xd0\xc0s\xec?'
tRp15
tp16
a(S'AVFQSASKIITLKKRWQLA_FCTQLNRALTGIAVEQDKN_FNPETNILLNVPLHGTILT_IITLKKRWQLALSKGVHFV_KVFRSSVLHSTQDLFLPFF_NGGDAALALLLLDRLNQLE_PSDFVRATATIPIQASLPF_PSKRSFIEDLLFNKVTLAD_RWYFYYLGTGPEAGLPYGA_SNCVADYSVLYNSASFSTF_SRTLSYYKLGASQRVAGDS_TITSGWTFGAGAALQIPFA_TRGVYYPDKVFRSSVLHST_TYTGAIKLDDKDPNFKDQV_VEAEVQIDRLITGRLQSLQ_VKDCVVLHSYFTSDYYQLY_VTQQLIRAAEIRASANLAA_YLYALVYFLQSINFVRIIM_YNYLYRLFRKSNLKPFERD'
p17
g3
(g5
S'\x93$\x11\xd0\xc0s\xec?'
tRp18
tp19
a(S'AVFQSASKIITLKKRWQLA_FCTQLNRALTGIAVEQDKN_FNPETNILLNVPLHGTILT_IITLKKRWQLALSKGVHFV_KVFRSSVLHSTQDLFLPFF_NGGDAALALLLLDRLNQLE_PSDFVRATATIPIQASLPF_PSKRSFIEDLLFNKVTLAD_RWYFYYLGTGPEAGLPYGA_SNCVADYSVLYNSASFSTF_SRTLSYYKLGASQRVAGDS_TAPAICHDGKAHFPREGVF_TITSGWTFGAGAALQIPFA_TRGVYYPDKVFRSSVLHST_VEAEVQIDRLITGRLQSLQ_VKDCVVLHSYFTSDYYQLY_VTQQLIRAAEIRASANLAA_YLYALVYFLQSINFVRIIM_YNYLYRLFRKSNLKPFERD'
p20
g3
(g5
S'\x93$\x11\xd0\xc0s\xec?'
tRp21
tp22
a(S'AVFQSASKIITLKKRWQLA_FCTQLNRALTGIAVEQDKN_FNPETNILLNVPLHGTILT_HQPYVVDDPCPIHFYSKWYI_IITLKKRWQLALSKGVHFV_KVFRSSVLHSTQDLFLPFF_NGGDAALALLLLDRLNQLE_PSDFVRATATIPIQASLPF_PSKRSFIEDLLFNKVTLAD_RWYFYYLGTGPEAGLPYGA_SNCVADYSVLYNSASFSTF_SRTLSYYKLGASQRVAGDS_TITSGWTFGAGAALQIPFA_TRGVYYPDKVFRSSVLHST_VEAEVQIDRLITGRLQSLQ_VKDCVVLHSYFTSDYYQLY_VTQQLIRAAEIRASANLAA_YLYALVYFLQSINFVRIIM_YNYLYRLFRKSNLKPFERD'
p23
g3
(g5
S'\x93$\x11\xd0\xc0s\xec?'
tRp24
tp25
a(S'AVFQSASKIITLKKRWQLA_FCTQLNRALTGIAVEQDKN_FNPETNILLNVPLHGTILT_HQPYVVDDPCPIHFYSKWYI_IITLKKRWQLALSKGVHFV_KVFRSSVLHSTQDLFLPFF_NGGDAALALLLLDRLNQLE_PSDFVRATATIPIQASLPF_PSKRSFIEDLLFNKVTLAD_RWYFYYLGTGPEAGLPYGA_SNCVADYSVLYNSASFSTF_SRTLSYYKLGASQRVAGDS_TITSGWTFGAGAALQIPFA_TRGVYYPDKVFRSSVLHST_TYTGAIKLDDKDPNFKDQV_VKDCVVLHSYFTSDYYQLY_VTQQLIRAAEIRASANLAA_YLYALVYFLQSINFVRIIM_YNYLYRLFRKSNLKPFERD'
p26
g3
(g5
S'\x93$\x11\xd0\xc0s\xec?'
tRp27
tp28
a(S'AVFQSASKIITLKKRWQLA_FCTQLNRALTGIAVEQDKN_FNPETNILLNVPLHGTILT_HQPYVVDDPCPIHFYSKWYI_IITLKKRWQLALSKGVHFV_KVFRSSVLHSTQDLFLPFF_NGGDAALALLLLDRLNQLE_PSDFVRATATIPIQASLPF_PSKRSFIEDLLFNKVTLAD_RWYFYYLGTGPEAGLPYGA_SNCVADYSVLYNSASFSTF_SRTLSYYKLGASQRVAGDS_TAPAICHDGKAHFPREGVF_TITSGWTFGAGAALQIPFA_TRGVYYPDKVFRSSVLHST_VKDCVVLHSYFTSDYYQLY_VTQQLIRAAEIRASANLAA_YLYALVYFLQSINFVRIIM_YNYLYRLFRKSNLKPFERD'
p29
g3
(g5
S'\x93$\x11\xd0\xc0s\xec?'
tRp30
tp31
a(S'AVFQSASKIITLKKRWQLA_FCTQLNRALTGIAVEQDKN_FNPETNILLNVPLHGTILT_GAISSVLNDILSRLDKVEA_IITLKKRWQLALSKGVHFV_KVFRSSVLHSTQDLFLPFF_NGGDAALALLLLDRLNQLE_PSDFVRATATIPIQASLPF_PSKRSFIEDLLFNKVTLAD_RWYFYYLGTGPEAGLPYGA_SNCVADYSVLYNSASFSTF_SRTLSYYKLGASQRVAGDS_TITSGWTFGAGAALQIPFA_TRGVYYPDKVFRSSVLHST_VEAEVQIDRLITGRLQSLQ_VKDCVVLHSYFTSDYYQLY_VTQQLIRAAEIRASANLAA_YLYALVYFLQSINFVRIIM_YNYLYRLFRKSNLKPFERD'
p32
g3
(g5
S'\x90$\x11\xd0\xc0s\xec?'
tRp33
tp34
a.