(lp1
(S'FCTQLNRALTGIAVEQDKN_IITLKKRWQLALSKGVHFV_PSKRSFIEDLLFNKVTLAD_RWYFYYLGTGPEAGLPYGA_SYFTSDYYQLYSTQLSTDT_TRGVYYPDKVFRSSVLHST_VTQQLIRAAEIRASANLAA'
p2
cnumpy.core.multiarray
scalar
p3
(cnumpy
dtype
p4
(S'f8'
I0
I1
tRp5
(I3
S'<'
NNNI-1
I-1
I0
tbS'\xef\xd1K\x1c\xc8\x92\xee?'
tRp6
tp7
a(S'FCTQLNRALTGIAVEQDKN_IITLKKRWQLALSKGVHFV_PSKRSFIEDLLFNKVTLAD_RWYFYYLGTGPEAGLPYGA_TRGVYYPDKVFRSSVLHST_VKDCVVLHSYFTSDYYQLY_VTQQLIRAAEIRASANLAA'
p8
g3
(g5
S'\xed\xd1K\x1c\xc8\x92\xee?'
tRp9
tp10
a(S'FCTQLNRALTGIAVEQDKN_GAGAALQIPFAMQMAYRFN_IITLKKRWQLALSKGVHFV_PSKRSFIEDLLFNKVTLAD_RWYFYYLGTGPEAGLPYGA_TRGVYYPDKVFRSSVLHST_VTQQLIRAAEIRASANLAA'
p11
g3
(g5
S'\xec\xd1K\x1c\xc8\x92\xee?'
tRp12
tp13
a(S'FCTQLNRALTGIAVEQDKN_PSDFVRATATIPIQASLPF_PSKRSFIEDLLFNKVTLAD_RWYFYYLGTGPEAGLPYGA_TRGVYYPDKVFRSSVLHST_VKDCVVLHSYFTSDYYQLY_VTQQLIRAAEIRASANLAA'
p14
g3
(g5
S"'\x99\xb1\xb9R\x92\xee?"
tRp15
tp16
a(S'FCTQLNRALTGIAVEQDKN_PSDFVRATATIPIQASLPF_PSKRSFIEDLLFNKVTLAD_RWYFYYLGTGPEAGLPYGA_SYFTSDYYQLYSTQLSTDT_TRGVYYPDKVFRSSVLHST_VTQQLIRAAEIRASANLAA'
p17
g3
(g5
S'%\x99\xb1\xb9R\x92\xee?'
tRp18
tp19
a(S'FCTQLNRALTGIAVEQDKN_GAGAALQIPFAMQMAYRFN_PSDFVRATATIPIQASLPF_PSKRSFIEDLLFNKVTLAD_RWYFYYLGTGPEAGLPYGA_TRGVYYPDKVFRSSVLHST_VTQQLIRAAEIRASANLAA'
p20
g3
(g5
S'%\x99\xb1\xb9R\x92\xee?'
tRp21
tp22
a(S'ENQKLIANQFNSAIGKIQD_FCTQLNRALTGIAVEQDKN_IITLKKRWQLALSKGVHFV_RWYFYYLGTGPEAGLPYGA_TRGVYYPDKVFRSSVLHST_VKDCVVLHSYFTSDYYQLY_VTQQLIRAAEIRASANLAA'
p23
g3
(g5
S'\xadh-\xd5\xa6\x91\xee?'
tRp24
tp25
a(S'FCTQLNRALTGIAVEQDKN_FNPETNILLNVPLHGTILT_IITLKKRWQLALSKGVHFV_RWYFYYLGTGPEAGLPYGA_TRGVYYPDKVFRSSVLHST_VKDCVVLHSYFTSDYYQLY_VTQQLIRAAEIRASANLAA'
p26
g3
(g5
S's\x82\x88\x8a}\x91\xee?'
tRp27
tp28
a(S'DQVILLNKHIDAYKTFPPT_FCTQLNRALTGIAVEQDKN_IITLKKRWQLALSKGVHFV_RWYFYYLGTGPEAGLPYGA_TRGVYYPDKVFRSSVLHST_VKDCVVLHSYFTSDYYQLY_VTQQLIRAAEIRASANLAA'
p29
g3
(g5
S'q\x82\x88\x8a}\x91\xee?'
tRp30
tp31
a(S'ENQKLIANQFNSAIGKIQD_FCTQLNRALTGIAVEQDKN_PSDFVRATATIPIQASLPF_RWYFYYLGTGPEAGLPYGA_TRGVYYPDKVFRSSVLHST_VKDCVVLHSYFTSDYYQLY_VTQQLIRAAEIRASANLAA'
p32
g3
(g5
S'\x0f\xec\x08\x080\x91\xee?'
tRp33
tp34
a.