(lp1
(S'AVFQSASKIITLKKRWQLA_FCTQLNRALTGIAVEQDKN_FNPETNILLNVPLHGTILT_IITLKKRWQLALSKGVHFV_RWYFYYLGTGPEAGLPYGA_SNCVADYSVLYNSASFSTF_TRGVYYPDKVFRSSVLHST_VKDCVVLHSYFTSDYYQLY_VTQQLIRAAEIRASANLAA_YLYALVYFLQSINFVRIIM_YNYLYRLFRKSNLKPFERD'
p2
cnumpy.core.multiarray
scalar
p3
(cnumpy
dtype
p4
(S'f8'
I0
I1
tRp5
(I3
S'<'
NNNI-1
I-1
I0
tbS'\x98\xdc\xf5,\x9d\x99\xee?'
tRp6
tp7
a(S'AVFQSASKIITLKKRWQLA_ENQKLIANQFNSAIGKIQD_FCTQLNRALTGIAVEQDKN_IITLKKRWQLALSKGVHFV_RWYFYYLGTGPEAGLPYGA_SNCVADYSVLYNSASFSTF_TRGVYYPDKVFRSSVLHST_VKDCVVLHSYFTSDYYQLY_VTQQLIRAAEIRASANLAA_YLYALVYFLQSINFVRIIM_YNYLYRLFRKSNLKPFERD'
p8
g3
(g5
S'\x94\xdc\xf5,\x9d\x99\xee?'
tRp9
tp10
a(S'AVFQSASKIITLKKRWQLA_FCTQLNRALTGIAVEQDKN_IITLKKRWQLALSKGVHFV_PSKRSFIEDLLFNKVTLAD_RWYFYYLGTGPEAGLPYGA_SNCVADYSVLYNSASFSTF_TRGVYYPDKVFRSSVLHST_VKDCVVLHSYFTSDYYQLY_VTQQLIRAAEIRASANLAA_YLYALVYFLQSINFVRIIM_YNYLYRLFRKSNLKPFERD'
p11
g3
(g5
S'\x90\xdc\xf5,\x9d\x99\xee?'
tRp12
tp13
a(S'AVFQSASKIITLKKRWQLA_DQVILLNKHIDAYKTFPPT_FCTQLNRALTGIAVEQDKN_IITLKKRWQLALSKGVHFV_RWYFYYLGTGPEAGLPYGA_SNCVADYSVLYNSASFSTF_TRGVYYPDKVFRSSVLHST_VKDCVVLHSYFTSDYYQLY_VTQQLIRAAEIRASANLAA_YLYALVYFLQSINFVRIIM_YNYLYRLFRKSNLKPFERD'
p14
g3
(g5
S'\x90\xdc\xf5,\x9d\x99\xee?'
tRp15
tp16
a(S'AVFQSASKIITLKKRWQLA_FCTQLNRALTGIAVEQDKN_IITLKKRWQLALSKGVHFV_PSKRSFIEDLLFNKVTLAD_RWYFYYLGTGPEAGLPYGA_SNCVADYSVLYNSASFSTF_SYFTSDYYQLYSTQLSTDT_TRGVYYPDKVFRSSVLHST_VTQQLIRAAEIRASANLAA_YLYALVYFLQSINFVRIIM_YNYLYRLFRKSNLKPFERD'
p17
g3
(g5
S'\x8d\xdc\xf5,\x9d\x99\xee?'
tRp18
tp19
a(S'AVFQSASKIITLKKRWQLA_FCTQLNRALTGIAVEQDKN_GAGAALQIPFAMQMAYRFN_IITLKKRWQLALSKGVHFV_PSKRSFIEDLLFNKVTLAD_RWYFYYLGTGPEAGLPYGA_SNCVADYSVLYNSASFSTF_TRGVYYPDKVFRSSVLHST_VTQQLIRAAEIRASANLAA_YLYALVYFLQSINFVRIIM_YNYLYRLFRKSNLKPFERD'
p20
g3
(g5
S'\x8d\xdc\xf5,\x9d\x99\xee?'
tRp21
tp22
a(S'AVFQSASKIITLKKRWQLA_FCTQLNRALTGIAVEQDKN_FNPETNILLNVPLHGTILT_GNSPFHPLADNKFALTCFST_IITLKKRWQLALSKGVHFV_RWYFYYLGTGPEAGLPYGA_TRGVYYPDKVFRSSVLHST_VKDCVVLHSYFTSDYYQLY_VTQQLIRAAEIRASANLAA_YLYALVYFLQSINFVRIIM_YNYLYRLFRKSNLKPFERD'
p23
g3
(g5
S'\x8c6hZ\x82\x99\xee?'
tRp24
tp25
a(S'AVFQSASKIITLKKRWQLA_DDKDPNFKDQVILLNKHID_FCTQLNRALTGIAVEQDKN_FNPETNILLNVPLHGTILT_IITLKKRWQLALSKGVHFV_RWYFYYLGTGPEAGLPYGA_TRGVYYPDKVFRSSVLHST_VKDCVVLHSYFTSDYYQLY_VTQQLIRAAEIRASANLAA_YLYALVYFLQSINFVRIIM_YNYLYRLFRKSNLKPFERD'
p26
g24
tp27
a(S'AVFQSASKIITLKKRWQLA_FCTQLNRALTGIAVEQDKN_FNPETNILLNVPLHGTILT_IITLKKRWQLALSKGVHFV_RWYFYYLGTGPEAGLPYGA_TRGVYYPDKVFRSSVLHST_VKDCVVLHSYFTSDYYQLY_VTQQLIRAAEIRASANLAA_YLYALVYFLQSINFVRIIM_YNYLYRLFRKSNLKPFERD_YVGYLQPRTFLLKYNENGT'
p28
g3
(g5
S'\x886hZ\x82\x99\xee?'
tRp29
tp30
a(S'AVFQSASKIITLKKRWQLA_FCTQLNRALTGIAVEQDKN_FNPETNILLNVPLHGTILT_IITLKKRWQLALSKGVHFV_QTNSPRRARSVASQSIIAY_RWYFYYLGTGPEAGLPYGA_TRGVYYPDKVFRSSVLHST_VKDCVVLHSYFTSDYYQLY_VTQQLIRAAEIRASANLAA_YLYALVYFLQSINFVRIIM_YNYLYRLFRKSNLKPFERD'
p31
g3
(g5
S'\x886hZ\x82\x99\xee?'
tRp32
tp33
a.