(lp1
(S'FCTQLNRALTGIAVEQDKN_FNPETNILLNVPLHGTILT_IITLKKRWQLALSKGVHFV_RWYFYYLGTGPEAGLPYGA_TRGVYYPDKVFRSSVLHST_VKDCVVLHSYFTSDYYQLY_VTQQLIRAAEIRASANLAA_YLYALVYFLQSINFVRIIM_YNYLYRLFRKSNLKPFERD'
p2
cnumpy.core.multiarray
scalar
p3
(cnumpy
dtype
p4
(S'f8'
I0
I1
tRp5
(I3
S'<'
NNNI-1
I-1
I0
tbS'\xa3\xedZ:\t\x99\xee?'
tRp6
tp7
a(S'DQVILLNKHIDAYKTFPPT_FCTQLNRALTGIAVEQDKN_IITLKKRWQLALSKGVHFV_RWYFYYLGTGPEAGLPYGA_TRGVYYPDKVFRSSVLHST_VKDCVVLHSYFTSDYYQLY_VTQQLIRAAEIRASANLAA_YLYALVYFLQSINFVRIIM_YNYLYRLFRKSNLKPFERD'
p8
g3
(g5
S'\xa1\xedZ:\t\x99\xee?'
tRp9
tp10
a(S'ENQKLIANQFNSAIGKIQD_FCTQLNRALTGIAVEQDKN_IITLKKRWQLALSKGVHFV_RWYFYYLGTGPEAGLPYGA_TRGVYYPDKVFRSSVLHST_VKDCVVLHSYFTSDYYQLY_VTQQLIRAAEIRASANLAA_YLYALVYFLQSINFVRIIM_YNYLYRLFRKSNLKPFERD'
p11
g3
(g5
S'\x95\xedZ:\t\x99\xee?'
tRp12
tp13
a(S'FCTQLNRALTGIAVEQDKN_IITLKKRWQLALSKGVHFV_PSKRSFIEDLLFNKVTLAD_RWYFYYLGTGPEAGLPYGA_TRGVYYPDKVFRSSVLHST_VKDCVVLHSYFTSDYYQLY_VTQQLIRAAEIRASANLAA_YLYALVYFLQSINFVRIIM_YNYLYRLFRKSNLKPFERD'
p14
g3
(g5
S'\x8f\xedZ:\t\x99\xee?'
tRp15
tp16
a(S'FCTQLNRALTGIAVEQDKN_IITLKKRWQLALSKGVHFV_PSKRSFIEDLLFNKVTLAD_RWYFYYLGTGPEAGLPYGA_SYFTSDYYQLYSTQLSTDT_TRGVYYPDKVFRSSVLHST_VTQQLIRAAEIRASANLAA_YLYALVYFLQSINFVRIIM_YNYLYRLFRKSNLKPFERD'
p17
g3
(g5
S'\x8d\xedZ:\t\x99\xee?'
tRp18
tp19
a(S'FCTQLNRALTGIAVEQDKN_GAGAALQIPFAMQMAYRFN_IITLKKRWQLALSKGVHFV_PSKRSFIEDLLFNKVTLAD_RWYFYYLGTGPEAGLPYGA_TRGVYYPDKVFRSSVLHST_VTQQLIRAAEIRASANLAA_YLYALVYFLQSINFVRIIM_YNYLYRLFRKSNLKPFERD'
p20
g3
(g5
S'\x89\xedZ:\t\x99\xee?'
tRp21
tp22
a(S'ENQKLIANQFNSAIGKIQD_FCTQLNRALTGIAVEQDKN_PSDFVRATATIPIQASLPF_RWYFYYLGTGPEAGLPYGA_TRGVYYPDKVFRSSVLHST_VKDCVVLHSYFTSDYYQLY_VTQQLIRAAEIRASANLAA_YLYALVYFLQSINFVRIIM_YNYLYRLFRKSNLKPFERD'
p23
g3
(g5
S'\xfd\xf0@E\x9c\x98\xee?'
tRp24
tp25
a(S'FCTQLNRALTGIAVEQDKN_PSDFVRATATIPIQASLPF_PSKRSFIEDLLFNKVTLAD_RWYFYYLGTGPEAGLPYGA_TRGVYYPDKVFRSSVLHST_VKDCVVLHSYFTSDYYQLY_VTQQLIRAAEIRASANLAA_YLYALVYFLQSINFVRIIM_YNYLYRLFRKSNLKPFERD'
p26
g3
(g5
S'\xfc\xf0@E\x9c\x98\xee?'
tRp27
tp28
a(S'FCTQLNRALTGIAVEQDKN_PSDFVRATATIPIQASLPF_PSKRSFIEDLLFNKVTLAD_RWYFYYLGTGPEAGLPYGA_SYFTSDYYQLYSTQLSTDT_TRGVYYPDKVFRSSVLHST_VTQQLIRAAEIRASANLAA_YLYALVYFLQSINFVRIIM_YNYLYRLFRKSNLKPFERD'
p29
g3
(g5
S'\xf9\xf0@E\x9c\x98\xee?'
tRp30
tp31
a(S'FCTQLNRALTGIAVEQDKN_GAGAALQIPFAMQMAYRFN_PSDFVRATATIPIQASLPF_PSKRSFIEDLLFNKVTLAD_RWYFYYLGTGPEAGLPYGA_TRGVYYPDKVFRSSVLHST_VTQQLIRAAEIRASANLAA_YLYALVYFLQSINFVRIIM_YNYLYRLFRKSNLKPFERD'
p32
g3
(g5
S'\xf0\xf0@E\x9c\x98\xee?'
tRp33
tp34
a.