(lp1
(S'AVFQSASKIITLKKRWQLA_FCTQLNRALTGIAVEQDKN_FNPETNILLNVPLHGTILT_IITLKKRWQLALSKGVHFV_KVFRSSVLHSTQDLFLPFF_PSDFVRATATIPIQASLPF_RWYFYYLGTGPEAGLPYGA_SNCVADYSVLYNSASFSTF_TRGVYYPDKVFRSSVLHST_VEAEVQIDRLITGRLQSLQ_VKDCVVLHSYFTSDYYQLY_VTQQLIRAAEIRASANLAA_YLYALVYFLQSINFVRIIM_YNYLYRLFRKSNLKPFERD'
p2
cnumpy.core.multiarray
scalar
p3
(cnumpy
dtype
p4
(S'f8'
I0
I1
tRp5
(I3
S'<'
NNNI-1
I-1
I0
tbS'\x03\xb2\x84\x1e\xbfl\xed?'
tRp6
tp7
a(S'AVFQSASKIITLKKRWQLA_FCTQLNRALTGIAVEQDKN_FNPETNILLNVPLHGTILT_GAISSVLNDILSRLDKVEA_IITLKKRWQLALSKGVHFV_KVFRSSVLHSTQDLFLPFF_PSDFVRATATIPIQASLPF_RWYFYYLGTGPEAGLPYGA_SNCVADYSVLYNSASFSTF_TRGVYYPDKVFRSSVLHST_VKDCVVLHSYFTSDYYQLY_VTQQLIRAAEIRASANLAA_YLYALVYFLQSINFVRIIM_YNYLYRLFRKSNLKPFERD'
p8
g3
(g5
S'\xfc\xb1\x84\x1e\xbfl\xed?'
tRp9
tp10
a(S'AVFQSASKIITLKKRWQLA_FCTQLNRALTGIAVEQDKN_FNPETNILLNVPLHGTILT_IITLKKRWQLALSKGVHFV_KVFRSSVLHSTQDLFLPFF_PSDFVRATATIPIQASLPF_RWYFYYLGTGPEAGLPYGA_SNCVADYSVLYNSASFSTF_TRGVYYPDKVFRSSVLHST_TYTGAIKLDDKDPNFKDQV_VKDCVVLHSYFTSDYYQLY_VTQQLIRAAEIRASANLAA_YLYALVYFLQSINFVRIIM_YNYLYRLFRKSNLKPFERD'
p11
g3
(g5
S'\xfb\xb1\x84\x1e\xbfl\xed?'
tRp12
tp13
a(S'AVFQSASKIITLKKRWQLA_FCTQLNRALTGIAVEQDKN_FNPETNILLNVPLHGTILT_IITLKKRWQLALSKGVHFV_KVFRSSVLHSTQDLFLPFF_PSDFVRATATIPIQASLPF_RWYFYYLGTGPEAGLPYGA_SNCVADYSVLYNSASFSTF_TAPAICHDGKAHFPREGVF_TRGVYYPDKVFRSSVLHST_VKDCVVLHSYFTSDYYQLY_VTQQLIRAAEIRASANLAA_YLYALVYFLQSINFVRIIM_YNYLYRLFRKSNLKPFERD'
p14
g3
(g5
S'\xfb\xb1\x84\x1e\xbfl\xed?'
tRp15
tp16
a(S'AVFQSASKIITLKKRWQLA_FCTQLNRALTGIAVEQDKN_FNPETNILLNVPLHGTILT_HQPYVVDDPCPIHFYSKWYI_IITLKKRWQLALSKGVHFV_KVFRSSVLHSTQDLFLPFF_PSDFVRATATIPIQASLPF_RWYFYYLGTGPEAGLPYGA_SNCVADYSVLYNSASFSTF_TRGVYYPDKVFRSSVLHST_VKDCVVLHSYFTSDYYQLY_VTQQLIRAAEIRASANLAA_YLYALVYFLQSINFVRIIM_YNYLYRLFRKSNLKPFERD'
p17
g3
(g5
S'\xfb\xb1\x84\x1e\xbfl\xed?'
tRp18
tp19
a(S'AVFQSASKIITLKKRWQLA_FCTQLNRALTGIAVEQDKN_FNPETNILLNVPLHGTILT_IITLKKRWQLALSKGVHFV_KVFRSSVLHSTQDLFLPFF_NGGDAALALLLLDRLNQLE_PSDFVRATATIPIQASLPF_RWYFYYLGTGPEAGLPYGA_SNCVADYSVLYNSASFSTF_TRGVYYPDKVFRSSVLHST_VKDCVVLHSYFTSDYYQLY_VTQQLIRAAEIRASANLAA_YLYALVYFLQSINFVRIIM_YNYLYRLFRKSNLKPFERD'
p20
g3
(g5
S'\xf8\xb1\x84\x1e\xbfl\xed?'
tRp21
tp22
a(S'AVFQSASKIITLKKRWQLA_FCTQLNRALTGIAVEQDKN_FNPETNILLNVPLHGTILT_IITLKKRWQLALSKGVHFV_KVFRSSVLHSTQDLFLPFF_PKEITVATSRTLSYYKLGA_PSDFVRATATIPIQASLPF_RWYFYYLGTGPEAGLPYGA_SNCVADYSVLYNSASFSTF_TRGVYYPDKVFRSSVLHST_VKDCVVLHSYFTSDYYQLY_VTQQLIRAAEIRASANLAA_YLYALVYFLQSINFVRIIM_YNYLYRLFRKSNLKPFERD'
p23
g3
(g5
S'\xf7\xb1\x84\x1e\xbfl\xed?'
tRp24
tp25
a(S'AVFQSASKIITLKKRWQLA_FCTQLNRALTGIAVEQDKN_FNPETNILLNVPLHGTILT_GAGAALQIPFAMQMAYRFN_IITLKKRWQLALSKGVHFV_NGGDAALALLLLDRLNQLE_PSDFVRATATIPIQASLPF_RWYFYYLGTGPEAGLPYGA_SNCVADYSVLYNSASFSTF_TRGVYYPDKVFRSSVLHST_VKDCVVLHSYFTSDYYQLY_VTQQLIRAAEIRASANLAA_YLYALVYFLQSINFVRIIM_YNYLYRLFRKSNLKPFERD'
p26
g3
(g5
S'%\xdb\xd8\x11\xb3i\xed?'
tRp27
tp28
a(S'AVFQSASKIITLKKRWQLA_FCTQLNRALTGIAVEQDKN_FNPETNILLNVPLHGTILT_GAGAALQIPFAMQMAYRFN_IITLKKRWQLALSKGVHFV_PSDFVRATATIPIQASLPF_RWYFYYLGTGPEAGLPYGA_SNCVADYSVLYNSASFSTF_TRGVYYPDKVFRSSVLHST_VEAEVQIDRLITGRLQSLQ_VKDCVVLHSYFTSDYYQLY_VTQQLIRAAEIRASANLAA_YLYALVYFLQSINFVRIIM_YNYLYRLFRKSNLKPFERD'
p29
g3
(g5
S'\xcb\x85+Z\x8ai\xed?'
tRp30
tp31
a(S'AVFQSASKIITLKKRWQLA_FCTQLNRALTGIAVEQDKN_FNPETNILLNVPLHGTILT_GAGAALQIPFAMQMAYRFN_GAISSVLNDILSRLDKVEA_IITLKKRWQLALSKGVHFV_PSDFVRATATIPIQASLPF_RWYFYYLGTGPEAGLPYGA_SNCVADYSVLYNSASFSTF_TRGVYYPDKVFRSSVLHST_VKDCVVLHSYFTSDYYQLY_VTQQLIRAAEIRASANLAA_YLYALVYFLQSINFVRIIM_YNYLYRLFRKSNLKPFERD'
p32
g3
(g5
S'\xc7\x85+Z\x8ai\xed?'
tRp33
tp34
a.