(lp1
(S'ENQKLIANQFNSAIGKIQD_GAGAALQIPFAMQMAYRFN_GAISSVLNDILSRLDKVEA_HQPYVVDDPCPIHFYSKWYI_IITLKKRWQLALSKGVHFV_KVFRSSVLHSTQDLFLPFF_LPIGINITRFQTLLALHRS_MDLFMRIFTIGTVTLKQGE_NATRFASVYAWNRKRISNC_NGGDAALALLLLDRLNQLE_PSDFVRATATIPIQASLPF_PSKRSFIEDLLFNKVTLAD_QTNSPRRARSVASQSIIAY_RWYFYYLGTGPEAGLPYGA_SYFTSDYYQLYSTQLSTDT_TAPAICHDGKAHFPREGVF_TITSGWTFGAGAALQIPFA_TRGVYYPDKVFRSSVLHST_TYTGAIKLDDKDPNFKDQV_VEAEVQIDRLITGRLQSLQ_VKDCVVLHSYFTSDYYQLY_VRDLPQGFSALEPLVDLPI_VTQQLIRAAEIRASANLAA'
p2
cnumpy.core.multiarray
scalar
p3
(cnumpy
dtype
p4
(S'f8'
I0
I1
tRp5
(I3
S'<'
NNNI-1
I-1
I0
tbS'\xa3Q\xa9K\xa7\x0c\xed?'
tRp6
tp7
a(S'ENQKLIANQFNSAIGKIQD_GAGAALQIPFAMQMAYRFN_GAISSVLNDILSRLDKVEA_HQPYVVDDPCPIHFYSKWYI_IITLKKRWQLALSKGVHFV_KVFRSSVLHSTQDLFLPFF_LPIGINITRFQTLLALHRS_MDLFMRIFTIGTVTLKQGE_NATRFASVYAWNRKRISNC_NGGDAALALLLLDRLNQLE_PRQKRTATKAYNVTQAFGR_PSKRSFIEDLLFNKVTLAD_QTNSPRRARSVASQSIIAY_RWYFYYLGTGPEAGLPYGA_SYFTSDYYQLYSTQLSTDT_TAPAICHDGKAHFPREGVF_TITSGWTFGAGAALQIPFA_TRGVYYPDKVFRSSVLHST_TYTGAIKLDDKDPNFKDQV_VEAEVQIDRLITGRLQSLQ_VKDCVVLHSYFTSDYYQLY_VRDLPQGFSALEPLVDLPI_VTQQLIRAAEIRASANLAA'
p8
g3
(g5
S'\xa1Q\xa9K\xa7\x0c\xed?'
tRp9
tp10
a(S'ENQKLIANQFNSAIGKIQD_GAGAALQIPFAMQMAYRFN_GAISSVLNDILSRLDKVEA_HQPYVVDDPCPIHFYSKWYI_IITLKKRWQLALSKGVHFV_KVFRSSVLHSTQDLFLPFF_LPIGINITRFQTLLALHRS_NATRFASVYAWNRKRISNC_NGGDAALALLLLDRLNQLE_PRQKRTATKAYNVTQAFGR_PSDFVRATATIPIQASLPF_PSKRSFIEDLLFNKVTLAD_QTNSPRRARSVASQSIIAY_RWYFYYLGTGPEAGLPYGA_SYFTSDYYQLYSTQLSTDT_TAPAICHDGKAHFPREGVF_TITSGWTFGAGAALQIPFA_TRGVYYPDKVFRSSVLHST_TYTGAIKLDDKDPNFKDQV_VEAEVQIDRLITGRLQSLQ_VKDCVVLHSYFTSDYYQLY_VRDLPQGFSALEPLVDLPI_VTQQLIRAAEIRASANLAA'
p11
g3
(g5
S'\x9dQ\xa9K\xa7\x0c\xed?'
tRp12
tp13
a(S'ENQKLIANQFNSAIGKIQD_GAGAALQIPFAMQMAYRFN_GAISSVLNDILSRLDKVEA_HQPYVVDDPCPIHFYSKWYI_IITLKKRWQLALSKGVHFV_KVFRSSVLHSTQDLFLPFF_LPIGINITRFQTLLALHRS_MDLFMRIFTIGTVTLKQGE_NATRFASVYAWNRKRISNC_NGGDAALALLLLDRLNQLE_PRQKRTATKAYNVTQAFGR_PSDFVRATATIPIQASLPF_PSKRSFIEDLLFNKVTLAD_RWYFYYLGTGPEAGLPYGA_SYFTSDYYQLYSTQLSTDT_TAPAICHDGKAHFPREGVF_TITSGWTFGAGAALQIPFA_TRGVYYPDKVFRSSVLHST_TYTGAIKLDDKDPNFKDQV_VEAEVQIDRLITGRLQSLQ_VKDCVVLHSYFTSDYYQLY_VRDLPQGFSALEPLVDLPI_VTQQLIRAAEIRASANLAA'
p14
g3
(g5
S'\x9dQ\xa9K\xa7\x0c\xed?'
tRp15
tp16
a(S'DQVILLNKHIDAYKTFPPT_GAGAALQIPFAMQMAYRFN_GAISSVLNDILSRLDKVEA_HQPYVVDDPCPIHFYSKWYI_IITLKKRWQLALSKGVHFV_KVFRSSVLHSTQDLFLPFF_LPIGINITRFQTLLALHRS_MDLFMRIFTIGTVTLKQGE_NATRFASVYAWNRKRISNC_NGGDAALALLLLDRLNQLE_PRQKRTATKAYNVTQAFGR_PSDFVRATATIPIQASLPF_PSKRSFIEDLLFNKVTLAD_RWYFYYLGTGPEAGLPYGA_SYFTSDYYQLYSTQLSTDT_TAPAICHDGKAHFPREGVF_TITSGWTFGAGAALQIPFA_TRGVYYPDKVFRSSVLHST_TYTGAIKLDDKDPNFKDQV_VEAEVQIDRLITGRLQSLQ_VKDCVVLHSYFTSDYYQLY_VRDLPQGFSALEPLVDLPI_VTQQLIRAAEIRASANLAA'
p17
g3
(g5
S'\xd4\xc1\xb1C\xd1\x08\xed?'
tRp18
tp19
a(S'DQVILLNKHIDAYKTFPPT_GAGAALQIPFAMQMAYRFN_GAISSVLNDILSRLDKVEA_HQPYVVDDPCPIHFYSKWYI_IITLKKRWQLALSKGVHFV_KVFRSSVLHSTQDLFLPFF_LPIGINITRFQTLLALHRS_NATRFASVYAWNRKRISNC_NGGDAALALLLLDRLNQLE_PRQKRTATKAYNVTQAFGR_PSDFVRATATIPIQASLPF_PSKRSFIEDLLFNKVTLAD_QTNSPRRARSVASQSIIAY_RWYFYYLGTGPEAGLPYGA_SYFTSDYYQLYSTQLSTDT_TAPAICHDGKAHFPREGVF_TITSGWTFGAGAALQIPFA_TRGVYYPDKVFRSSVLHST_TYTGAIKLDDKDPNFKDQV_VEAEVQIDRLITGRLQSLQ_VKDCVVLHSYFTSDYYQLY_VRDLPQGFSALEPLVDLPI_VTQQLIRAAEIRASANLAA'
p20
g3
(g5
S'\xd3\xc1\xb1C\xd1\x08\xed?'
tRp21
tp22
a(S'DQVILLNKHIDAYKTFPPT_GAGAALQIPFAMQMAYRFN_GAISSVLNDILSRLDKVEA_HQPYVVDDPCPIHFYSKWYI_IITLKKRWQLALSKGVHFV_KVFRSSVLHSTQDLFLPFF_LPIGINITRFQTLLALHRS_MDLFMRIFTIGTVTLKQGE_NATRFASVYAWNRKRISNC_NGGDAALALLLLDRLNQLE_PSDFVRATATIPIQASLPF_PSKRSFIEDLLFNKVTLAD_QTNSPRRARSVASQSIIAY_RWYFYYLGTGPEAGLPYGA_SYFTSDYYQLYSTQLSTDT_TAPAICHDGKAHFPREGVF_TITSGWTFGAGAALQIPFA_TRGVYYPDKVFRSSVLHST_TYTGAIKLDDKDPNFKDQV_VEAEVQIDRLITGRLQSLQ_VKDCVVLHSYFTSDYYQLY_VRDLPQGFSALEPLVDLPI_VTQQLIRAAEIRASANLAA'
p23
g3
(g5
S'\xd0\xc1\xb1C\xd1\x08\xed?'
tRp24
tp25
a(S'DQVILLNKHIDAYKTFPPT_GAGAALQIPFAMQMAYRFN_GAISSVLNDILSRLDKVEA_HQPYVVDDPCPIHFYSKWYI_IITLKKRWQLALSKGVHFV_KVFRSSVLHSTQDLFLPFF_LPIGINITRFQTLLALHRS_MDLFMRIFTIGTVTLKQGE_NATRFASVYAWNRKRISNC_NGGDAALALLLLDRLNQLE_PRQKRTATKAYNVTQAFGR_PSKRSFIEDLLFNKVTLAD_QTNSPRRARSVASQSIIAY_RWYFYYLGTGPEAGLPYGA_SYFTSDYYQLYSTQLSTDT_TAPAICHDGKAHFPREGVF_TITSGWTFGAGAALQIPFA_TRGVYYPDKVFRSSVLHST_TYTGAIKLDDKDPNFKDQV_VEAEVQIDRLITGRLQSLQ_VKDCVVLHSYFTSDYYQLY_VRDLPQGFSALEPLVDLPI_VTQQLIRAAEIRASANLAA'
p26
g3
(g5
S'\xd0\xc1\xb1C\xd1\x08\xed?'
tRp27
tp28
a(S'DQVILLNKHIDAYKTFPPT_FEYVSQPFLMDLEGKQGNF_GAGAALQIPFAMQMAYRFN_GAISSVLNDILSRLDKVEA_HQPYVVDDPCPIHFYSKWYI_IITLKKRWQLALSKGVHFV_KVFRSSVLHSTQDLFLPFF_LPIGINITRFQTLLALHRS_NATRFASVYAWNRKRISNC_NGGDAALALLLLDRLNQLE_PSDFVRATATIPIQASLPF_PSKRSFIEDLLFNKVTLAD_QTNSPRRARSVASQSIIAY_RWYFYYLGTGPEAGLPYGA_SYFTSDYYQLYSTQLSTDT_TAPAICHDGKAHFPREGVF_TITSGWTFGAGAALQIPFA_TRGVYYPDKVFRSSVLHST_TYTGAIKLDDKDPNFKDQV_VEAEVQIDRLITGRLQSLQ_VKDCVVLHSYFTSDYYQLY_VRDLPQGFSALEPLVDLPI_VTQQLIRAAEIRASANLAA'
p29
g3
(g5
S'\xb5(4\xf4b\xfc\xec?'
tRp30
tp31
a(S'DQVILLNKHIDAYKTFPPT_FEYVSQPFLMDLEGKQGNF_GAGAALQIPFAMQMAYRFN_GAISSVLNDILSRLDKVEA_HQPYVVDDPCPIHFYSKWYI_IITLKKRWQLALSKGVHFV_KVFRSSVLHSTQDLFLPFF_LPIGINITRFQTLLALHRS_MDLFMRIFTIGTVTLKQGE_NATRFASVYAWNRKRISNC_NGGDAALALLLLDRLNQLE_PSKRSFIEDLLFNKVTLAD_QTNSPRRARSVASQSIIAY_RWYFYYLGTGPEAGLPYGA_SYFTSDYYQLYSTQLSTDT_TAPAICHDGKAHFPREGVF_TITSGWTFGAGAALQIPFA_TRGVYYPDKVFRSSVLHST_TYTGAIKLDDKDPNFKDQV_VEAEVQIDRLITGRLQSLQ_VKDCVVLHSYFTSDYYQLY_VRDLPQGFSALEPLVDLPI_VTQQLIRAAEIRASANLAA'
p32
g3
(g5
S'\xb4(4\xf4b\xfc\xec?'
tRp33
tp34
a.