(lp1
(S'KVFRSSVLHSTQDLFLPFF_MDLFMRIFTIGTVTLKQGE_NGGDAALALLLLDRLNQLE_RWYFYYLGTGPEAGLPYGA_TRGVYYPDKVFRSSVLHST_TYTGAIKLDDKDPNFKDQV_VKDCVVLHSYFTSDYYQLY_VTQQLIRAAEIRASANLAA'
p2
cnumpy.core.multiarray
scalar
p3
(cnumpy
dtype
p4
(S'f8'
I0
I1
tRp5
(I3
S'<'
NNNI-1
I-1
I0
tbS'\x05\x0e\x9bi\xb8z\xed?'
tRp6
tp7
a(S'KVFRSSVLHSTQDLFLPFF_MDLFMRIFTIGTVTLKQGE_NGGDAALALLLLDRLNQLE_RWYFYYLGTGPEAGLPYGA_TAPAICHDGKAHFPREGVF_TRGVYYPDKVFRSSVLHST_VKDCVVLHSYFTSDYYQLY_VTQQLIRAAEIRASANLAA'
p8
g6
tp9
a(S'KVFRSSVLHSTQDLFLPFF_NGGDAALALLLLDRLNQLE_PRQKRTATKAYNVTQAFGR_RWYFYYLGTGPEAGLPYGA_TRGVYYPDKVFRSSVLHST_VEAEVQIDRLITGRLQSLQ_VKDCVVLHSYFTSDYYQLY_VTQQLIRAAEIRASANLAA'
p10
g3
(g5
S'\x04\x0e\x9bi\xb8z\xed?'
tRp11
tp12
a(S'HQPYVVDDPCPIHFYSKWYI_KVFRSSVLHSTQDLFLPFF_NGGDAALALLLLDRLNQLE_QTNSPRRARSVASQSIIAY_RWYFYYLGTGPEAGLPYGA_TRGVYYPDKVFRSSVLHST_VKDCVVLHSYFTSDYYQLY_VTQQLIRAAEIRASANLAA'
p13
g3
(g5
S'\x04\x0e\x9bi\xb8z\xed?'
tRp14
tp15
a(S'HQPYVVDDPCPIHFYSKWYI_KVFRSSVLHSTQDLFLPFF_MDLFMRIFTIGTVTLKQGE_NGGDAALALLLLDRLNQLE_RWYFYYLGTGPEAGLPYGA_TRGVYYPDKVFRSSVLHST_VKDCVVLHSYFTSDYYQLY_VTQQLIRAAEIRASANLAA'
p16
g3
(g5
S'\x04\x0e\x9bi\xb8z\xed?'
tRp17
tp18
a(S'KVFRSSVLHSTQDLFLPFF_NGGDAALALLLLDRLNQLE_QTNSPRRARSVASQSIIAY_RWYFYYLGTGPEAGLPYGA_TRGVYYPDKVFRSSVLHST_TYTGAIKLDDKDPNFKDQV_VKDCVVLHSYFTSDYYQLY_VTQQLIRAAEIRASANLAA'
p19
g3
(g5
S'\x03\x0e\x9bi\xb8z\xed?'
tRp20
tp21
a(S'KVFRSSVLHSTQDLFLPFF_NGGDAALALLLLDRLNQLE_QTNSPRRARSVASQSIIAY_RWYFYYLGTGPEAGLPYGA_TAPAICHDGKAHFPREGVF_TRGVYYPDKVFRSSVLHST_VKDCVVLHSYFTSDYYQLY_VTQQLIRAAEIRASANLAA'
p22
g20
tp23
a(S'HQPYVVDDPCPIHFYSKWYI_KVFRSSVLHSTQDLFLPFF_NGGDAALALLLLDRLNQLE_PRQKRTATKAYNVTQAFGR_RWYFYYLGTGPEAGLPYGA_TRGVYYPDKVFRSSVLHST_VKDCVVLHSYFTSDYYQLY_VTQQLIRAAEIRASANLAA'
p24
g3
(g5
S'\x03\x0e\x9bi\xb8z\xed?'
tRp25
tp26
a(S'GAISSVLNDILSRLDKVEA_KVFRSSVLHSTQDLFLPFF_NGGDAALALLLLDRLNQLE_PRQKRTATKAYNVTQAFGR_RWYFYYLGTGPEAGLPYGA_TRGVYYPDKVFRSSVLHST_VKDCVVLHSYFTSDYYQLY_VTQQLIRAAEIRASANLAA'
p27
g3
(g5
S'\x03\x0e\x9bi\xb8z\xed?'
tRp28
tp29
a(S'KVFRSSVLHSTQDLFLPFF_NGGDAALALLLLDRLNQLE_PRQKRTATKAYNVTQAFGR_RWYFYYLGTGPEAGLPYGA_TRGVYYPDKVFRSSVLHST_TYTGAIKLDDKDPNFKDQV_VKDCVVLHSYFTSDYYQLY_VTQQLIRAAEIRASANLAA'
p30
g3
(g5
S'\x01\x0e\x9bi\xb8z\xed?'
tRp31
tp32
a.