(lp1
(S'PRQKRTATKAYNVTQAFGR_RWYFYYLGTGPEAGLPYGA_TRGVYYPDKVFRSSVLHST_VKDCVVLHSYFTSDYYQLY_VTQQLIRAAEIRASANLAA'
p2
cnumpy.core.multiarray
scalar
p3
(cnumpy
dtype
p4
(S'f8'
I0
I1
tRp5
(I3
S'<'
NNNI-1
I-1
I0
tbS'\x98\x91\xdb\xf3\xbf\x02\xef?'
tRp6
tp7
a(S'QTNSPRRARSVASQSIIAY_RWYFYYLGTGPEAGLPYGA_TRGVYYPDKVFRSSVLHST_VKDCVVLHSYFTSDYYQLY_VTQQLIRAAEIRASANLAA'
p8
g3
(g5
S'\x94\x91\xdb\xf3\xbf\x02\xef?'
tRp9
tp10
a(S'FCTQLNRALTGIAVEQDKN_RWYFYYLGTGPEAGLPYGA_TRGVYYPDKVFRSSVLHST_VKDCVVLHSYFTSDYYQLY_VTQQLIRAAEIRASANLAA'
p11
g3
(g5
S'\xcdV\xb5\x89X\x02\xef?'
tRp12
tp13
a(S'FCTQLNRALTGIAVEQDKN_KVFRSSVLHSTQDLFLPFF_RWYFYYLGTGPEAGLPYGA_TRGVYYPDKVFRSSVLHST_VTQQLIRAAEIRASANLAA'
p14
g3
(g5
S'\x1c\xff$\x98 \x00\xef?'
tRp15
tp16
a(S'KVFRSSVLHSTQDLFLPFF_PRQKRTATKAYNVTQAFGR_RWYFYYLGTGPEAGLPYGA_TRGVYYPDKVFRSSVLHST_VTQQLIRAAEIRASANLAA'
p17
g3
(g5
S'+\x91\x90]\x03\xff\xee?'
tRp18
tp19
a(S'KVFRSSVLHSTQDLFLPFF_QTNSPRRARSVASQSIIAY_RWYFYYLGTGPEAGLPYGA_TRGVYYPDKVFRSSVLHST_VTQQLIRAAEIRASANLAA'
p20
g3
(g5
S'(\x91\x90]\x03\xff\xee?'
tRp21
tp22
a(S'KVFRSSVLHSTQDLFLPFF_MDLFMRIFTIGTVTLKQGE_RWYFYYLGTGPEAGLPYGA_TRGVYYPDKVFRSSVLHST_VTQQLIRAAEIRASANLAA'
p23
g3
(g5
S'%\x91\x90]\x03\xff\xee?'
tRp24
tp25
a(S'FCTQLNRALTGIAVEQDKN_RWYFYYLGTGPEAGLPYGA_SYFTSDYYQLYSTQLSTDT_TRGVYYPDKVFRSSVLHST_VTQQLIRAAEIRASANLAA'
p26
g3
(g5
S'\xd9\x12\xf6\x0c\xe7\xfe\xee?'
tRp27
tp28
a(S'FCTQLNRALTGIAVEQDKN_GAGAALQIPFAMQMAYRFN_RWYFYYLGTGPEAGLPYGA_TRGVYYPDKVFRSSVLHST_VTQQLIRAAEIRASANLAA'
p29
g3
(g5
S'\xd0\x12\xf6\x0c\xe7\xfe\xee?'
tRp30
tp31
a(S'FCTQLNRALTGIAVEQDKN_KVFRSSVLHSTQDLFLPFF_LPIGINITRFQTLLALHRS_TRGVYYPDKVFRSSVLHST_VTQQLIRAAEIRASANLAA'
p32
g3
(g5
S'\xe17\xa2\x81\xb6\xfd\xee?'
tRp33
tp34
a.