(lp1
(S'FCTQLNRALTGIAVEQDKN_VKDCVVLHSYFTSDYYQLY_VTQQLIRAAEIRASANLAA'
p2
cnumpy.core.multiarray
scalar
p3
(cnumpy
dtype
p4
(S'f8'
I0
I1
tRp5
(I3
S'<'
NNNI-1
I-1
I0
tbS'\xc1\xc0\x98\xec\xbf\xcc\xef?'
tRp6
tp7
a(S'FCTQLNRALTGIAVEQDKN_KVFRSSVLHSTQDLFLPFF_VTQQLIRAAEIRASANLAA'
p8
g3
(g5
S'\xbf\xc0\x98\xec\xbf\xcc\xef?'
tRp9
tp10
a(S'FCTQLNRALTGIAVEQDKN_VRDLPQGFSALEPLVDLPI_VTQQLIRAAEIRASANLAA'
p11
g3
(g5
S'\xe5O\x1a3\x0e\xcc\xef?'
tRp12
tp13
a(S'FCTQLNRALTGIAVEQDKN_SYFTSDYYQLYSTQLSTDT_VTQQLIRAAEIRASANLAA'
p14
g3
(g5
S'\xe3O\x1a3\x0e\xcc\xef?'
tRp15
tp16
a(S'FCTQLNRALTGIAVEQDKN_GAGAALQIPFAMQMAYRFN_VTQQLIRAAEIRASANLAA'
p17
g3
(g5
S'\xe3O\x1a3\x0e\xcc\xef?'
tRp18
tp19
a(S'PRQKRTATKAYNVTQAFGR_VKDCVVLHSYFTSDYYQLY_VTQQLIRAAEIRASANLAA'
p20
g3
(g5
S'\xecl\x1a5\xe5\xca\xef?'
tRp21
tp22
a(S'KVFRSSVLHSTQDLFLPFF_PRQKRTATKAYNVTQAFGR_VTQQLIRAAEIRASANLAA'
p23
g3
(g5
S'\xe5l\x1a5\xe5\xca\xef?'
tRp24
tp25
a(S'KVFRSSVLHSTQDLFLPFF_MDLFMRIFTIGTVTLKQGE_VTQQLIRAAEIRASANLAA'
p26
g3
(g5
S'\xe5l\x1a5\xe5\xca\xef?'
tRp27
tp28
a(S'KVFRSSVLHSTQDLFLPFF_QTNSPRRARSVASQSIIAY_VTQQLIRAAEIRASANLAA'
p29
g3
(g5
S'\xe4l\x1a5\xe5\xca\xef?'
tRp30
tp31
a(S'QTNSPRRARSVASQSIIAY_VKDCVVLHSYFTSDYYQLY_VTQQLIRAAEIRASANLAA'
p32
g3
(g5
S'\xe3l\x1a5\xe5\xca\xef?'
tRp33
tp34
a.