(lp1
(S'KVFRSSVLHSTQDLFLPFF_VTQQLIRAAEIRASANLAA'
p2
cnumpy.core.multiarray
scalar
p3
(cnumpy
dtype
p4
(S'f8'
I0
I1
tRp5
(I3
S'<'
NNNI-1
I-1
I0
tbS'\xa1\xe1\r\xe5\x9b\xc5\xef?'
tRp6
tp7
a(S'VKDCVVLHSYFTSDYYQLY_VTQQLIRAAEIRASANLAA'
p8
g3
(g5
S'\x9f\xe1\r\xe5\x9b\xc5\xef?'
tRp9
tp10
a(S'VRDLPQGFSALEPLVDLPI_VTQQLIRAAEIRASANLAA'
p11
g3
(g5
S't\xdc\x15\x10\xfd\xc3\xef?'
tRp12
tp13
a(S'SYFTSDYYQLYSTQLSTDT_VTQQLIRAAEIRASANLAA'
p14
g3
(g5
S'q\xdc\x15\x10\xfd\xc3\xef?'
tRp15
tp16
a(S'GAGAALQIPFAMQMAYRFN_VTQQLIRAAEIRASANLAA'
p17
g3
(g5
S'e\xdc\x15\x10\xfd\xc3\xef?'
tRp18
tp19
a(S'FCTQLNRALTGIAVEQDKN_VKDCVVLHSYFTSDYYQLY'
p20
g3
(g5
S'\xa0\xdd\xe8n\x19\xc1\xef?'
tRp21
tp22
a(S'FCTQLNRALTGIAVEQDKN_KVFRSSVLHSTQDLFLPFF'
p23
g3
(g5
S'\x9d\xdd\xe8n\x19\xc1\xef?'
tRp24
tp25
a(S'FCTQLNRALTGIAVEQDKN_SYFTSDYYQLYSTQLSTDT'
p26
g3
(g5
S'\x91\x82i\xa4 \xc0\xef?'
tRp27
tp28
a(S'FCTQLNRALTGIAVEQDKN_VRDLPQGFSALEPLVDLPI'
p29
g3
(g5
S'\x8f\x82i\xa4 \xc0\xef?'
tRp30
tp31
a(S'FCTQLNRALTGIAVEQDKN_GAGAALQIPFAMQMAYRFN'
p32
g3
(g5
S'\x84\x82i\xa4 \xc0\xef?'
tRp33
tp34
a.