(lp1
(S'PRQKRTATKAYNVTQAFGR_TRGVYYPDKVFRSSVLHST_VKDCVVLHSYFTSDYYQLY_VTQQLIRAAEIRASANLAA'
p2
cnumpy.core.multiarray
scalar
p3
(cnumpy
dtype
p4
(S'f8'
I0
I1
tRp5
(I3
S'<'
NNNI-1
I-1
I0
tbS'cq\xca\x08\x19\xe6\xee?'
tRp6
tp7
a(S'QTNSPRRARSVASQSIIAY_TRGVYYPDKVFRSSVLHST_VKDCVVLHSYFTSDYYQLY_VTQQLIRAAEIRASANLAA'
p8
g3
(g5
S'[q\xca\x08\x19\xe6\xee?'
tRp9
tp10
a(S'FCTQLNRALTGIAVEQDKN_TRGVYYPDKVFRSSVLHST_VKDCVVLHSYFTSDYYQLY_VTQQLIRAAEIRASANLAA'
p11
g3
(g5
S'\x8d\xff\x16V\xd7\xe3\xee?'
tRp12
tp13
a(S'KVFRSSVLHSTQDLFLPFF_QTNSPRRARSVASQSIIAY_TRGVYYPDKVFRSSVLHST_VTQQLIRAAEIRASANLAA'
p14
g3
(g5
S'\xf9p\x7fr\\\xe2\xee?'
tRp15
tp16
a(S'KVFRSSVLHSTQDLFLPFF_PRQKRTATKAYNVTQAFGR_TRGVYYPDKVFRSSVLHST_VTQQLIRAAEIRASANLAA'
p17
g3
(g5
S'\xf8p\x7fr\\\xe2\xee?'
tRp18
tp19
a(S'KVFRSSVLHSTQDLFLPFF_MDLFMRIFTIGTVTLKQGE_TRGVYYPDKVFRSSVLHST_VTQQLIRAAEIRASANLAA'
p20
g3
(g5
S'\xf7p\x7fr\\\xe2\xee?'
tRp21
tp22
a(S'FCTQLNRALTGIAVEQDKN_KVFRSSVLHSTQDLFLPFF_TRGVYYPDKVFRSSVLHST_VTQQLIRAAEIRASANLAA'
p23
g3
(g5
S'\xe0\xa7\x86d\x9f\xe1\xee?'
tRp24
tp25
a(S'FCTQLNRALTGIAVEQDKN_SYFTSDYYQLYSTQLSTDT_TRGVYYPDKVFRSSVLHST_VTQQLIRAAEIRASANLAA'
p26
g3
(g5
S"\rK'\x1c\x1f\xe0\xee?"
tRp27
tp28
a(S'FCTQLNRALTGIAVEQDKN_GAGAALQIPFAMQMAYRFN_TRGVYYPDKVFRSSVLHST_VTQQLIRAAEIRASANLAA'
p29
g3
(g5
S"\x03K'\x1c\x1f\xe0\xee?"
tRp30
tp31
a(S'FCTQLNRALTGIAVEQDKN_TRGVYYPDKVFRSSVLHST_VRDLPQGFSALEPLVDLPI_VTQQLIRAAEIRASANLAA'
p32
g3
(g5
S'8\xeaP\xf1\xbe\xdd\xee?'
tRp33
tp34
a.