(lp1
(S'KVFRSSVLHSTQDLFLPFF'
p2
cnumpy.core.multiarray
scalar
p3
(cnumpy
dtype
p4
(S'f8'
I0
I1
tRp5
(I3
S'<'
NNNI-1
I-1
I0
tbS'-\x9d\xfefO\xb8\xef?'
tRp6
tp7
a(S'VKDCVVLHSYFTSDYYQLY'
p8
g3
(g5
S',\x9d\xfefO\xb8\xef?'
tRp9
tp10
a(S'VRDLPQGFSALEPLVDLPI'
p11
g3
(g5
S'\x17\xa4S\x92;\xb6\xef?'
tRp12
tp13
a(S'SYFTSDYYQLYSTQLSTDT'
p14
g3
(g5
S'\x11\xa4S\x92;\xb6\xef?'
tRp15
tp16
a(S'GAGAALQIPFAMQMAYRFN'
p17
g3
(g5
S'\x0b\xa4S\x92;\xb6\xef?'
tRp18
tp19
a(S'VTQQLIRAAEIRASANLAA'
p20
g3
(g5
S'{\xa4\xeb\xc3\x88\xb0\xef?'
tRp21
tp22
a(S'FCTQLNRALTGIAVEQDKN'
p23
g3
(g5
S'\xf0$~\x99%\xab\xef?'
tRp24
tp25
a(S'LPIGINITRFQTLLALHRS'
p26
g3
(g5
S'\x8f(\xc9\xce@\xa9\xef?'
tRp27
tp28
a(S'PRQKRTATKAYNVTQAFGR'
p29
g3
(g5
S'\xe8\x83\xab\x83\xf9\xa6\xef?'
tRp30
tp31
a(S'QTNSPRRARSVASQSIIAY'
p32
g3
(g5
S'\xe3\x83\xab\x83\xf9\xa6\xef?'
tRp33
tp34
a.