(lp1
(S'KVFRSSVLHSTQDLFLPFF_NGGDAALALLLLDRLNQLE_QTNSPRRARSVASQSIIAY_RWYFYYLGTGPEAGLPYGA_TRGVYYPDKVFRSSVLHST_VKDCVVLHSYFTSDYYQLY_VTQQLIRAAEIRASANLAA'
p2
cnumpy.core.multiarray
scalar
p3
(cnumpy
dtype
p4
(S'f8'
I0
I1
tRp5
(I3
S'<'
NNNI-1
I-1
I0
tbS'\xc8\xbfI\x80\x86E\xee?'
tRp6
tp7
a(S'KVFRSSVLHSTQDLFLPFF_NGGDAALALLLLDRLNQLE_PRQKRTATKAYNVTQAFGR_RWYFYYLGTGPEAGLPYGA_TRGVYYPDKVFRSSVLHST_VKDCVVLHSYFTSDYYQLY_VTQQLIRAAEIRASANLAA'
p8
g3
(g5
S'\xc8\xbfI\x80\x86E\xee?'
tRp9
tp10
a(S'KVFRSSVLHSTQDLFLPFF_MDLFMRIFTIGTVTLKQGE_NGGDAALALLLLDRLNQLE_RWYFYYLGTGPEAGLPYGA_TRGVYYPDKVFRSSVLHST_VKDCVVLHSYFTSDYYQLY_VTQQLIRAAEIRASANLAA'
p11
g3
(g5
S'\xc5\xbfI\x80\x86E\xee?'
tRp12
tp13
a(S'KVFRSSVLHSTQDLFLPFF_PRQKRTATKAYNVTQAFGR_RWYFYYLGTGPEAGLPYGA_TRGVYYPDKVFRSSVLHST_TYTGAIKLDDKDPNFKDQV_VKDCVVLHSYFTSDYYQLY_VTQQLIRAAEIRASANLAA'
p14
g3
(g5
S'\x89\xed\x04Q\x8aA\xee?'
tRp15
tp16
a(S'KVFRSSVLHSTQDLFLPFF_PRQKRTATKAYNVTQAFGR_RWYFYYLGTGPEAGLPYGA_TAPAICHDGKAHFPREGVF_TRGVYYPDKVFRSSVLHST_VKDCVVLHSYFTSDYYQLY_VTQQLIRAAEIRASANLAA'
p17
g3
(g5
S'\x89\xed\x04Q\x8aA\xee?'
tRp18
tp19
a(S'HQPYVVDDPCPIHFYSKWYI_KVFRSSVLHSTQDLFLPFF_PRQKRTATKAYNVTQAFGR_RWYFYYLGTGPEAGLPYGA_TRGVYYPDKVFRSSVLHST_VKDCVVLHSYFTSDYYQLY_VTQQLIRAAEIRASANLAA'
p20
g3
(g5
S'\x89\xed\x04Q\x8aA\xee?'
tRp21
tp22
a(S'KVFRSSVLHSTQDLFLPFF_PRQKRTATKAYNVTQAFGR_RWYFYYLGTGPEAGLPYGA_TRGVYYPDKVFRSSVLHST_VEAEVQIDRLITGRLQSLQ_VKDCVVLHSYFTSDYYQLY_VTQQLIRAAEIRASANLAA'
p23
g3
(g5
S'\x85\xed\x04Q\x8aA\xee?'
tRp24
tp25
a(S'GAISSVLNDILSRLDKVEA_KVFRSSVLHSTQDLFLPFF_PRQKRTATKAYNVTQAFGR_RWYFYYLGTGPEAGLPYGA_TRGVYYPDKVFRSSVLHST_VKDCVVLHSYFTSDYYQLY_VTQQLIRAAEIRASANLAA'
p26
g3
(g5
S'\x81\xed\x04Q\x8aA\xee?'
tRp27
tp28
a(S'KVFRSSVLHSTQDLFLPFF_NGGDAALALLLLDRLNQLE_QTNSPRRARSVASQSIIAY_RWYFYYLGTGPEAGLPYGA_SYFTSDYYQLYSTQLSTDT_TRGVYYPDKVFRSSVLHST_VTQQLIRAAEIRASANLAA'
p29
g3
(g5
S'\xa5\x0b\x1c\xc1sA\xee?'
tRp30
tp31
a(S'GAGAALQIPFAMQMAYRFN_KVFRSSVLHSTQDLFLPFF_NGGDAALALLLLDRLNQLE_QTNSPRRARSVASQSIIAY_RWYFYYLGTGPEAGLPYGA_TRGVYYPDKVFRSSVLHST_VTQQLIRAAEIRASANLAA'
p32
g3
(g5
S'\xa4\x0b\x1c\xc1sA\xee?'
tRp33
tp34
a.