(lp1
(S'KVFRSSVLHSTQDLFLPFF_NGGDAALALLLLDRLNQLE_QTNSPRRARSVASQSIIAY_RWYFYYLGTGPEAGLPYGA_SYFTSDYYQLYSTQLSTDT_TRGVYYPDKVFRSSVLHST_TYTGAIKLDDKDPNFKDQV_VKDCVVLHSYFTSDYYQLY_VTQQLIRAAEIRASANLAA'
p2
cnumpy.core.multiarray
scalar
p3
(cnumpy
dtype
p4
(S'f8'
I0
I1
tRp5
(I3
S'<'
NNNI-1
I-1
I0
tbS'\xa9o|<\xf1\xa6\xed?'
tRp6
tp7
a(S'KVFRSSVLHSTQDLFLPFF_NGGDAALALLLLDRLNQLE_QTNSPRRARSVASQSIIAY_RWYFYYLGTGPEAGLPYGA_SYFTSDYYQLYSTQLSTDT_TAPAICHDGKAHFPREGVF_TRGVYYPDKVFRSSVLHST_VKDCVVLHSYFTSDYYQLY_VTQQLIRAAEIRASANLAA'
p8
g3
(g5
S'\xa9o|<\xf1\xa6\xed?'
tRp9
tp10
a(S'HQPYVVDDPCPIHFYSKWYI_KVFRSSVLHSTQDLFLPFF_NGGDAALALLLLDRLNQLE_QTNSPRRARSVASQSIIAY_RWYFYYLGTGPEAGLPYGA_SYFTSDYYQLYSTQLSTDT_TRGVYYPDKVFRSSVLHST_VKDCVVLHSYFTSDYYQLY_VTQQLIRAAEIRASANLAA'
p11
g3
(g5
S'\xa9o|<\xf1\xa6\xed?'
tRp12
tp13
a(S'GAISSVLNDILSRLDKVEA_KVFRSSVLHSTQDLFLPFF_NGGDAALALLLLDRLNQLE_PRQKRTATKAYNVTQAFGR_RWYFYYLGTGPEAGLPYGA_SYFTSDYYQLYSTQLSTDT_TRGVYYPDKVFRSSVLHST_VKDCVVLHSYFTSDYYQLY_VTQQLIRAAEIRASANLAA'
p14
g3
(g5
S'\xa4o|<\xf1\xa6\xed?'
tRp15
tp16
a(S'KVFRSSVLHSTQDLFLPFF_NGGDAALALLLLDRLNQLE_PRQKRTATKAYNVTQAFGR_RWYFYYLGTGPEAGLPYGA_SYFTSDYYQLYSTQLSTDT_TRGVYYPDKVFRSSVLHST_TYTGAIKLDDKDPNFKDQV_VKDCVVLHSYFTSDYYQLY_VTQQLIRAAEIRASANLAA'
p17
g3
(g5
S'\xa3o|<\xf1\xa6\xed?'
tRp18
tp19
a(S'HQPYVVDDPCPIHFYSKWYI_KVFRSSVLHSTQDLFLPFF_NGGDAALALLLLDRLNQLE_PRQKRTATKAYNVTQAFGR_RWYFYYLGTGPEAGLPYGA_SYFTSDYYQLYSTQLSTDT_TRGVYYPDKVFRSSVLHST_VKDCVVLHSYFTSDYYQLY_VTQQLIRAAEIRASANLAA'
p20
g3
(g5
S'\xa3o|<\xf1\xa6\xed?'
tRp21
tp22
a(S'KVFRSSVLHSTQDLFLPFF_MDLFMRIFTIGTVTLKQGE_NGGDAALALLLLDRLNQLE_RWYFYYLGTGPEAGLPYGA_SYFTSDYYQLYSTQLSTDT_TRGVYYPDKVFRSSVLHST_TYTGAIKLDDKDPNFKDQV_VKDCVVLHSYFTSDYYQLY_VTQQLIRAAEIRASANLAA'
p23
g3
(g5
S'\xa1o|<\xf1\xa6\xed?'
tRp24
tp25
a(S'KVFRSSVLHSTQDLFLPFF_MDLFMRIFTIGTVTLKQGE_NGGDAALALLLLDRLNQLE_RWYFYYLGTGPEAGLPYGA_SYFTSDYYQLYSTQLSTDT_TAPAICHDGKAHFPREGVF_TRGVYYPDKVFRSSVLHST_VKDCVVLHSYFTSDYYQLY_VTQQLIRAAEIRASANLAA'
p26
g3
(g5
S'\xa1o|<\xf1\xa6\xed?'
tRp27
tp28
a(S'HQPYVVDDPCPIHFYSKWYI_KVFRSSVLHSTQDLFLPFF_MDLFMRIFTIGTVTLKQGE_NGGDAALALLLLDRLNQLE_RWYFYYLGTGPEAGLPYGA_SYFTSDYYQLYSTQLSTDT_TRGVYYPDKVFRSSVLHST_VKDCVVLHSYFTSDYYQLY_VTQQLIRAAEIRASANLAA'
p29
g3
(g5
S'\xa1o|<\xf1\xa6\xed?'
tRp30
tp31
a(S'GAGAALQIPFAMQMAYRFN_HQPYVVDDPCPIHFYSKWYI_KVFRSSVLHSTQDLFLPFF_NGGDAALALLLLDRLNQLE_PRQKRTATKAYNVTQAFGR_RWYFYYLGTGPEAGLPYGA_TRGVYYPDKVFRSSVLHST_VKDCVVLHSYFTSDYYQLY_VTQQLIRAAEIRASANLAA'
p32
g3
(g5
S'\xa0o|<\xf1\xa6\xed?'
tRp33
tp34
a.