(lp1
(S'AEIRASANL_ATSRTLSYY_FAYANRNRF_FEYVSQPFL_FLNRFTTTL_FLQSINFVR_FPQSAPHGV_HVTFFIYNK_LTDEMIAQY_MGYINVFAF_MPASWVMRI_SIIAYTMSL_SINFVRIIMR_TVYSHLLLV_YANRNRFLY_YEQYIKWPW_YFIASFRLF_YLQPRTFLL_YLYALVYFL'
p2
cnumpy.core.multiarray
scalar
p3
(cnumpy
dtype
p4
(S'f8'
I0
I1
tRp5
(I3
S'<'
NNNI-1
I-1
I0
tbS'\xabs\x1aTJ\xe6\xef?'
tRp6
tp7
a(S'AEIRASANL_ATSRTLSYY_FAYANRNRF_FEYVSQPFL_FLNRFTTTL_FLQSINFVR_FPQSAPHGV_HVTFFIYNK_ISDYDYYRY_MGYINVFAF_MPASWVMRI_SIIAYTMSL_SINFVRIIMR_TVYSHLLLV_YANRNRFLY_YEQYIKWPW_YFIASFRLF_YLQPRTFLL_YLYALVYFL'
p8
g3
(g5
S'\xa8s\x1aTJ\xe6\xef?'
tRp9
tp10
a(S'AEIRASANL_ATSRTLSYY_FAYANRNRF_FEYVSQPFL_FLNRFTTTL_FLQSINFVR_FPQSAPHGV_HVTFFIYNK_LTDEMIAQY_MGYINVFAF_MPASWVMRI_SIIAYTMSL_SINFVRIIMR_TVYSHLLLV_VYFLQSINF_YANRNRFLY_YEQYIKWPW_YLQPRTFLL_YLYALVYFL'
p11
g3
(g5
S'\x83\x98\xd2mE\xe6\xef?'
tRp12
tp13
a(S'AEIRASANL_ATSRTLSYY_FAYANRNRF_FEYVSQPFL_FLNRFTTTL_FLQSINFVR_FPQSAPHGV_HVTFFIYNK_ISDYDYYRY_MGYINVFAF_MPASWVMRI_SIIAYTMSL_SINFVRIIMR_TVYSHLLLV_VYFLQSINF_YANRNRFLY_YEQYIKWPW_YLQPRTFLL_YLYALVYFL'
p14
g3
(g5
S'\x81\x98\xd2mE\xe6\xef?'
tRp15
tp16
a(S'AEIRASANL_ATSRTLSYY_FAYANRNRF_FEYVSQPFL_FLNRFTTTL_FLQSINFVR_FPQSAPHGV_HVTFFIYNK_ISDYDYYRY_MGYINVFAF_MPASWVMRI_SIIAYTMSL_SINFVRIIMR_SYFIASFRLF_TVYSHLLLV_YANRNRFLY_YEQYIKWPW_YLQPRTFLL_YLYALVYFL'
p17
g3
(g5
S'\x81\x98\xd2mE\xe6\xef?'
tRp18
tp19
a(S'AEIRASANL_ATSRTLSYY_FAYANRNRF_FEYVSQPFL_FLNRFTTTL_FLQSINFVR_FPQSAPHGV_HVTFFIYNK_LTDEMIAQY_MGYINVFAF_MPASWVMRI_SIIAYTMSL_SINFVRIIMR_SYFIASFRLF_TVYSHLLLV_YANRNRFLY_YEQYIKWPW_YLQPRTFLL_YLYALVYFL'
p20
g3
(g5
S'\x80\x98\xd2mE\xe6\xef?'
tRp21
tp22
a(S'AEIRASANL_ATSRTLSYY_FAYANRNRF_FEYVSQPFL_FLNRFTTTL_FLQSINFVR_FPQSAPHGV_LTDEMIAQY_MGYINVFAF_MPASWVMRI_MTSCCSCLK_SIIAYTMSL_SINFVRIIMR_TVYSHLLLV_YANRNRFLY_YEQYIKWPW_YFIASFRLF_YLQPRTFLL_YLYALVYFL'
p23
g3
(g5
S'QF\xb9\xc7C\xe6\xef?'
tRp24
tp25
a(S'AEIRASANL_ATSRTLSYY_FAYANRNRF_FEYVSQPFL_FLNRFTTTL_FLQSINFVR_FPQSAPHGV_ISDYDYYRY_MGYINVFAF_MPASWVMRI_MTSCCSCLK_SIIAYTMSL_SINFVRIIMR_TVYSHLLLV_YANRNRFLY_YEQYIKWPW_YFIASFRLF_YLQPRTFLL_YLYALVYFL'
p26
g3
(g5
S'QF\xb9\xc7C\xe6\xef?'
tRp27
tp28
a(S'AEIRASANL_ATSRTLSYY_FAYANRNRF_FEYVSQPFL_FLNRFTTTL_FLQSINFVR_FPQSAPHGV_LTDEMIAQY_MGYINVFAF_MPASWVMRI_MTSCCSCLK_SIIAYTMSL_SINFVRIIMR_TVYSHLLLV_VYFLQSINF_YANRNRFLY_YEQYIKWPW_YLQPRTFLL_YLYALVYFL'
p29
g3
(g5
S'+kq\xe1>\xe6\xef?'
tRp30
tp31
a(S'AEIRASANL_ATSRTLSYY_FAYANRNRF_FEYVSQPFL_FLNRFTTTL_FLQSINFVR_FPQSAPHGV_LTDEMIAQY_MGYINVFAF_MPASWVMRI_MTSCCSCLK_SIIAYTMSL_SINFVRIIMR_SYFIASFRLF_TVYSHLLLV_YANRNRFLY_YEQYIKWPW_YLQPRTFLL_YLYALVYFL'
p32
g3
(g5
S'+kq\xe1>\xe6\xef?'
tRp33
tp34
a.