(lp1
(S'FAYANRNRF_FLQSINFVR_YFIASFRLF_YLQPRTFLL_YLYALVYFL'
p2
cnumpy.core.multiarray
scalar
p3
(cnumpy
dtype
p4
(S'f8'
I0
I1
tRp5
(I3
S'<'
NNNI-1
I-1
I0
tbS"g'L`\xf7\xbe\xef?"
tRp6
tp7
a(S'FAYANRNRF_SINFVRIIMR_YFIASFRLF_YLQPRTFLL_YLYALVYFL'
p8
g3
(g5
S'\x89\xef\x83n\xd8\xbe\xef?'
tRp9
tp10
a(S'FAYANRNRF_FLNRFTTTL_FLQSINFVR_YFIASFRLF_YLQPRTFLL'
p11
g3
(g5
S'\x1fx\xe1\xa5{\xbe\xef?'
tRp12
tp13
a(S'FAYANRNRF_FLNRFTTTL_SINFVRIIMR_YFIASFRLF_YLQPRTFLL'
p14
g3
(g5
S'\x13\xbcuwm\xbe\xef?'
tRp15
tp16
a(S'FAYANRNRF_FEYVSQPFL_FLNRFTTTL_YFIASFRLF_YLQPRTFLL'
p17
g3
(g5
S'XX\xbd\x83f\xbe\xef?'
tRp18
tp19
a(S'FAYANRNRF_FEYVSQPFL_YFIASFRLF_YLQPRTFLL_YLYALVYFL'
p20
g3
(g5
S'\xec~{\x9b\xe3\xbd\xef?'
tRp21
tp22
a(S'FAYANRNRF_FLQSINFVR_SYFIASFRLF_YLQPRTFLL_YLYALVYFL'
p23
g3
(g5
S'\xe5\xd5YX\xdb\xbd\xef?'
tRp24
tp25
a(S'FAYANRNRF_FLQSINFVR_VYFLQSINF_YLQPRTFLL_YLYALVYFL'
p26
g3
(g5
S'\xcf\xd5YX\xdb\xbd\xef?'
tRp27
tp28
a(S'FAYANRNRF_SINFVRIIMR_SYFIASFRLF_YLQPRTFLL_YLYALVYFL'
p29
g3
(g5
S'\x04\x9e\x91f\xbc\xbd\xef?'
tRp30
tp31
a(S'FAYANRNRF_SINFVRIIMR_VYFLQSINF_YLQPRTFLL_YLYALVYFL'
p32
g3
(g5
S'\xf1\x9d\x91f\xbc\xbd\xef?'
tRp33
tp34
a.