(lp1
(S'ATSRTLSYY_FAYANRNRF_FEYVSQPFL_FLNRFTTTL_FLQSINFVR_FPQSAPHGV_LTDEMIAQY_MGYINVFAF_MPASWVMRI_SIIAYTMSL_SINFVRIIMR_TVYSHLLLV_YANRNRFLY_YEQYIKWPW_YFIASFRLF_YLQPRTFLL_YLYALVYFL'
p2
cnumpy.core.multiarray
scalar
p3
(cnumpy
dtype
p4
(S'f8'
I0
I1
tRp5
(I3
S'<'
NNNI-1
I-1
I0
tbS'\xb0(\xcf\xa5.\xde\xef?'
tRp6
tp7
a(S'ATSRTLSYY_FAYANRNRF_FEYVSQPFL_FLNRFTTTL_FLQSINFVR_FPQSAPHGV_LTDEMIAQY_MGYINVFAF_MPASWVMRI_SIIAYTMSL_SINFVRIIMR_SYFIASFRLF_TVYSHLLLV_YANRNRFLY_YEQYIKWPW_YLQPRTFLL_YLYALVYFL'
p8
g3
(g5
S"\x0f'\xac\x1c(\xde\xef?"
tRp9
tp10
a(S'ATSRTLSYY_FAYANRNRF_FEYVSQPFL_FLNRFTTTL_FLQSINFVR_FPQSAPHGV_LTDEMIAQY_MGYINVFAF_MPASWVMRI_SIIAYTMSL_SINFVRIIMR_TVYSHLLLV_VYFLQSINF_YANRNRFLY_YEQYIKWPW_YLQPRTFLL_YLYALVYFL'
p11
g3
(g5
S"\r'\xac\x1c(\xde\xef?"
tRp12
tp13
a(S'ATSRTLSYY_FAYANRNRF_FEYVSQPFL_FLNRFTTTL_FLQSINFVR_FPQSAPHGV_ISDYDYYRY_MGYINVFAF_MPASWVMRI_SIIAYTMSL_SINFVRIIMR_TVYSHLLLV_YANRNRFLY_YEQYIKWPW_YFIASFRLF_YLQPRTFLL_YLYALVYFL'
p14
g3
(g5
S'l\x00\xac\xef$\xde\xef?'
tRp15
tp16
a(S'ATSRTLSYY_FAYANRNRF_FEYVSQPFL_FLNRFTTTL_FLQSINFVR_FPQSAPHGV_ISDYDYYRY_MGYINVFAF_MPASWVMRI_SIIAYTMSL_SINFVRIIMR_SYFIASFRLF_TVYSHLLLV_YANRNRFLY_YEQYIKWPW_YLQPRTFLL_YLYALVYFL'
p17
g3
(g5
S'\xcb\xfe\x88f\x1e\xde\xef?'
tRp18
tp19
a(S'ATSRTLSYY_FAYANRNRF_FEYVSQPFL_FLNRFTTTL_FLQSINFVR_FPQSAPHGV_ISDYDYYRY_MGYINVFAF_MPASWVMRI_SIIAYTMSL_SINFVRIIMR_TVYSHLLLV_VYFLQSINF_YANRNRFLY_YEQYIKWPW_YLQPRTFLL_YLYALVYFL'
p20
g3
(g5
S'\xc9\xfe\x88f\x1e\xde\xef?'
tRp21
tp22
a(S'AELEGIQY_ATSRTLSYY_FAYANRNRF_FEYVSQPFL_FLNRFTTTL_FLQSINFVR_FPQSAPHGV_LTDEMIAQY_MGYINVFAF_MPASWVMRI_SIIAYTMSL_SINFVRIIMR_TVYSHLLLV_YANRNRFLY_YFIASFRLF_YLQPRTFLL_YLYALVYFL'
p23
g3
(g5
S'\x03\xf7\xfeK\xd1\xdd\xef?'
tRp24
tp25
a(S'ATSRTLSYY_FAYANRNRF_FEYVSQPFL_FLNRFTTTL_FLQSINFVR_FPQSAPHGV_LTDEMIAQY_MGYINVFAF_MPASWVMRI_SIIAYTMSL_SINFVRIIMR_TVYSHLLLV_VEHVTFFIY_YANRNRFLY_YFIASFRLF_YLQPRTFLL_YLYALVYFL'
p26
g3
(g5
S'q8\x0cZ\xcf\xdd\xef?'
tRp27
tp28
a(S'AELEGIQY_ATSRTLSYY_FAYANRNRF_FEYVSQPFL_FLNRFTTTL_FLQSINFVR_FPQSAPHGV_LTDEMIAQY_MGYINVFAF_MPASWVMRI_SIIAYTMSL_SINFVRIIMR_SYFIASFRLF_TVYSHLLLV_YANRNRFLY_YLQPRTFLL_YLYALVYFL'
p29
g3
(g5
S'\xb8R\x0f\xe3\xca\xdd\xef?'
tRp30
tp31
a(S'AELEGIQY_ATSRTLSYY_FAYANRNRF_FEYVSQPFL_FLNRFTTTL_FLQSINFVR_FPQSAPHGV_LTDEMIAQY_MGYINVFAF_MPASWVMRI_SIIAYTMSL_SINFVRIIMR_TVYSHLLLV_VYFLQSINF_YANRNRFLY_YLQPRTFLL_YLYALVYFL'
p32
g3
(g5
S'\xb5R\x0f\xe3\xca\xdd\xef?'
tRp33
tp34
a.