(lp1
(S'AEIRASANL_ALRANSAVK_ATSRTLSYY_FAYANRNRF_FEYVSQPFL_FLNRFTTTL_FLQSINFVR_FPQSAPHGV_FTYASALWEI_HVTFFIYNK_IPRRNVATL_IPTNFTISV_ITLATCELY_LLYDANYFL_LTDEMIAQY_LYSPIFLIV_MGYINVFAF_MPASWVMRI_NVFAFPFTIY_SIIAYTMSL_SINFVRIIMR_TMADLVYAL_TSRTLSYYK_TVYSHLLLV_VRFPNITNL_VYFLQSINF_WTAGAAAYY_YANRNRFLY_YEQYIKWPW_YFIASFRLF_YIFFASFYY_YLDAYNMMI_YLQPRTFLL_YLYALVYFL'
p2
cnumpy.core.multiarray
scalar
p3
(cnumpy
dtype
p4
(S'f8'
I0
I1
tRp5
(I3
S'<'
NNNI-1
I-1
I0
tbS'\xbd.\x19\x89z\xcf\xef?'
tRp6
tp7
a(S'AEIRASANL_ALRANSAVK_ATSRTLSYY_FAYANRNRF_FEYVSQPFL_FLNRFTTTL_FLQSINFVR_FPQSAPHGV_FTYASALWEI_IPRRNVATL_IPTNFTISV_ITLATCELY_LLYDANYFL_LTDEMIAQY_LYSPIFLIV_MGYINVFAF_MPASWVMRI_MTSCCSCLK_NVFAFPFTIY_SIIAYTMSL_SINFVRIIMR_TMADLVYAL_TSRTLSYYK_TVYSHLLLV_VRFPNITNL_VYFLQSINF_WTAGAAAYY_YANRNRFLY_YEQYIKWPW_YFIASFRLF_YIFFASFYY_YLDAYNMMI_YLQPRTFLL_YLYALVYFL'
p8
g3
(g5
S'W,\xa8\xb7w\xcf\xef?'
tRp9
tp10
a(S'AEIRASANL_ALRANSAVK_ATSRTLSYY_FAYANRNRF_FEYVSQPFL_FLNRFTTTL_FLQSINFVR_FPQSAPHGV_FTYASALWEI_HVTFFIYNK_IPRRNVATL_IPTNFTISV_ISDYDYYRY_ITLATCELY_LLYDANYFL_LYSPIFLIV_MGYINVFAF_MPASWVMRI_NVFAFPFTIY_SIIAYTMSL_SINFVRIIMR_TMADLVYAL_TSRTLSYYK_TVYSHLLLV_VRFPNITNL_VYFLQSINF_WTAGAAAYY_YANRNRFLY_YEQYIKWPW_YFIASFRLF_YIFFASFYY_YLDAYNMMI_YLQPRTFLL_YLYALVYFL'
p11
g3
(g5
S'`/\x05\x9ao\xcf\xef?'
tRp12
tp13
a(S'AEIRASANL_ALRANSAVK_ATSRTLSYY_FAYANRNRF_FEYVSQPFL_FLNRFTTTL_FLQSINFVR_FPQSAPHGV_FTYASALWEI_HVTFFIYNK_IPRRNVATL_IPTNFTISV_ITLATCELY_LLYDANYFL_LTDEMIAQY_MGYINVFAF_MPASWVMRI_NVFAFPFTIY_NYNYLYRLF_SIIAYTMSL_SINFVRIIMR_TMADLVYAL_TSRTLSYYK_TVYSHLLLV_VRFPNITNL_VYFLQSINF_WTAGAAAYY_YANRNRFLY_YEQYIKWPW_YFIASFRLF_YIFFASFYY_YLDAYNMMI_YLQPRTFLL_YLYALVYFL'
p14
g3
(g5
S's0SlR\xcf\xef?'
tRp15
tp16
a(S'AEIRASANL_ALRANSAVK_ATSRTLSYY_FAYANRNRF_FEYVSQPFL_FLNRFTTTL_FLQSINFVR_FPQSAPHGV_FTYASALWEI_HVTFFIYNK_IPRRNVATL_IPTNFTISV_ITLATCELY_LLYDANYFL_LTDEMIAQY_LWPVTLACF_MGYINVFAF_MPASWVMRI_NVFAFPFTIY_SIIAYTMSL_SINFVRIIMR_TMADLVYAL_TSRTLSYYK_TVYSHLLLV_VRFPNITNL_VYFLQSINF_WTAGAAAYY_YANRNRFLY_YEQYIKWPW_YFIASFRLF_YIFFASFYY_YLDAYNMMI_YLQPRTFLL_YLYALVYFL'
p17
g3
(g5
S'\xc5a\xfcEQ\xcf\xef?'
tRp18
tp19
a(S'AEIRASANL_ALRANSAVK_ATSRTLSYY_FAYANRNRF_FEYVSQPFL_FLNRFTTTL_FLQSINFVR_FPQSAPHGV_FTYASALWEI_HVTFFIYNK_IPRRNVATL_IPTNFTISV_ITLATCELY_LLYDANYFL_LTDEMIAQY_LWLLWPVTL_MGYINVFAF_MPASWVMRI_NVFAFPFTIY_SIIAYTMSL_SINFVRIIMR_TMADLVYAL_TSRTLSYYK_TVYSHLLLV_VRFPNITNL_VYFLQSINF_WTAGAAAYY_YANRNRFLY_YEQYIKWPW_YFIASFRLF_YIFFASFYY_YLDAYNMMI_YLQPRTFLL_YLYALVYFL'
p20
g3
(g5
S'\xc5a\xfcEQ\xcf\xef?'
tRp21
tp22
a(S'AEIRASANL_ALRANSAVK_ATSRTLSYY_FAYANRNRF_FEYVSQPFL_FLNRFTTTL_FLQSINFVR_FPQSAPHGV_FTYASALWEI_IPRRNVATL_IPTNFTISV_ITLATCELY_LLYDANYFL_LTDEMIAQY_MGYINVFAF_MPASWVMRI_MTSCCSCLK_NVFAFPFTIY_NYNYLYRLF_SIIAYTMSL_SINFVRIIMR_TMADLVYAL_TSRTLSYYK_TVYSHLLLV_VRFPNITNL_VYFLQSINF_WTAGAAAYY_YANRNRFLY_YEQYIKWPW_YFIASFRLF_YIFFASFYY_YLDAYNMMI_YLQPRTFLL_YLYALVYFL'
p23
g3
(g5
S'\x10.\xe2\x9aO\xcf\xef?'
tRp24
tp25
a(S'AEIRASANL_ALRANSAVK_ATSRTLSYY_FAYANRNRF_FEYVSQPFL_FLNRFTTTL_FLQSINFVR_FPQSAPHGV_FTNVYADSF_FTYASALWEI_HVTFFIYNK_IPRRNVATL_IPTNFTISV_ITLATCELY_LLYDANYFL_LTDEMIAQY_MGYINVFAF_MPASWVMRI_NVFAFPFTIY_SIIAYTMSL_SINFVRIIMR_TMADLVYAL_TSRTLSYYK_TVYSHLLLV_VRFPNITNL_VYFLQSINF_YANRNRFLY_YEQYIKWPW_YFIASFRLF_YIFFASFYY_YIIKLIFLW_YLDAYNMMI_YLQPRTFLL_YLYALVYFL'
p26
g3
(g5
S'\x13\xcc\xfc?D\xcf\xef?'
tRp27
tp28
a(S'AEIRASANL_ALRANSAVK_ATSRTLSYY_FAYANRNRF_FEYVSQPFL_FLNRFTTTL_FLQSINFVR_FPQSAPHGV_FTNVYADSF_FTYASALWEI_IPRRNVATL_IPTNFTISV_ITLATCELY_LLYDANYFL_LTDEMIAQY_MGYINVFAF_MPASWVMRI_MTSCCSCLK_NVFAFPFTIY_SIIAYTMSL_SINFVRIIMR_TMADLVYAL_TSRTLSYYK_TVYSHLLLV_VRFPNITNL_VYFLQSINF_YANRNRFLY_YEQYIKWPW_YFIASFRLF_YIFFASFYY_YIIKLIFLW_YLDAYNMMI_YLQPRTFLL_YLYALVYFL'
p29
g3
(g5
S'\x11\xac\xa1\xc8>\xcf\xef?'
tRp30
tp31
a(S'AEIRASANL_ALRANSAVK_ATSRTLSYY_FAYANRNRF_FEYVSQPFL_FLNRFTTTL_FLQSINFVR_FPQSAPHGV_FTNVYADSF_FTYASALWEI_HVTFFIYNK_IPRRNVATL_IPTNFTISV_ISDYDYYRY_ITLATCELY_LLYDANYFL_MGYINVFAF_MPASWVMRI_NVFAFPFTIY_SIIAYTMSL_SINFVRIIMR_TMADLVYAL_TSRTLSYYK_TVYSHLLLV_VRFPNITNL_VYFLQSINF_YANRNRFLY_YEQYIKWPW_YFIASFRLF_YIFFASFYY_YIIKLIFLW_YLDAYNMMI_YLQPRTFLL_YLYALVYFL'
p32
g3
(g5
S'\xc3\xb3\xa0\xad=\xcf\xef?'
tRp33
tp34
a.