(lp1
(S'AEIRASANL_ATSRTLSYY_FAYANRNRF_FEYVSQPFL_FLNRFTTTL_FLQSINFVR_FPQSAPHGV_HVTFFIYNK_IPRRNVATL_LTDEMIAQY_MGYINVFAF_MPASWVMRI_SIIAYTMSL_SINFVRIIMR_TVYSHLLLV_VRFPNITNL_YANRNRFLY_YEQYIKWPW_YFIASFRLF_YLDAYNMMI_YLQPRTFLL_YLYALVYFL'
p2
cnumpy.core.multiarray
scalar
p3
(cnumpy
dtype
p4
(S'f8'
I0
I1
tRp5
(I3
S'<'
NNNI-1
I-1
I0
tbS'\x83\xbde/-\xd2\xef?'
tRp6
tp7
a(S'AEIRASANL_ATSRTLSYY_FAYANRNRF_FEYVSQPFL_FLNRFTTTL_FLQSINFVR_FPQSAPHGV_IPRRNVATL_LTDEMIAQY_MGYINVFAF_MPASWVMRI_MTSCCSCLK_SIIAYTMSL_SINFVRIIMR_TVYSHLLLV_VRFPNITNL_YANRNRFLY_YEQYIKWPW_YFIASFRLF_YLDAYNMMI_YLQPRTFLL_YLYALVYFL'
p8
g3
(g5
S'\x83\x15xm$\xd2\xef?'
tRp9
tp10
a(S'AEIRASANL_ATSRTLSYY_FAYANRNRF_FEYVSQPFL_FLNRFTTTL_FLQSINFVR_FPQSAPHGV_HVTFFIYNK_IPRRNVATL_ISDYDYYRY_MGYINVFAF_MPASWVMRI_SIIAYTMSL_SINFVRIIMR_TVYSHLLLV_VRFPNITNL_YANRNRFLY_YEQYIKWPW_YFIASFRLF_YLDAYNMMI_YLQPRTFLL_YLYALVYFL'
p11
g3
(g5
S'\xe7O\xa9\xb9#\xd2\xef?'
tRp12
tp13
a(S'AEIRASANL_ATSRTLSYY_FAYANRNRF_FEYVSQPFL_FLNRFTTTL_FLQSINFVR_FPQSAPHGV_IPRRNVATL_ISDYDYYRY_MGYINVFAF_MPASWVMRI_MTSCCSCLK_SIIAYTMSL_SINFVRIIMR_TVYSHLLLV_VRFPNITNL_YANRNRFLY_YEQYIKWPW_YFIASFRLF_YLDAYNMMI_YLQPRTFLL_YLYALVYFL'
p14
g3
(g5
S'\xe4\xa7\xbb\xf7\x1a\xd2\xef?'
tRp15
tp16
a(S'AEIRASANL_ATSRTLSYY_FAYANRNRF_FEYVSQPFL_FLNRFTTTL_FLQSINFVR_FPPTSFGPL_FPQSAPHGV_HVTFFIYNK_LTDEMIAQY_MGYINVFAF_MPASWVMRI_SIIAYTMSL_SINFVRIIMR_TVYSHLLLV_VRFPNITNL_YANRNRFLY_YEQYIKWPW_YFIASFRLF_YLDAYNMMI_YLQPRTFLL_YLYALVYFL'
p17
g3
(g5
S'\x08{\xf3(\xe1\xd1\xef?'
tRp18
tp19
a(S'AEIRASANL_ATSRTLSYY_FAYANRNRF_FEYVSQPFL_FLNRFTTTL_FLQSINFVR_FPQSAPHGV_HVTFFIYNK_LTDEMIAQY_MGYINVFAF_MPASWVMRI_SIIAYTMSL_SINFVRIIMR_TSRTLSYYK_TVYSHLLLV_VRFPNITNL_YANRNRFLY_YEQYIKWPW_YFIASFRLF_YLDAYNMMI_YLQPRTFLL_YLYALVYFL'
p20
g3
(g5
S'\x01\xff\x91\n\xdb\xd1\xef?'
tRp21
tp22
a(S'AEIRASANL_ATSRTLSYY_FAYANRNRF_FEYVSQPFL_FLNRFTTTL_FLQSINFVR_FPQSAPHGV_HVTFFIYNK_IPIQASLPF_LTDEMIAQY_MGYINVFAF_MPASWVMRI_SIIAYTMSL_SINFVRIIMR_TVYSHLLLV_VRFPNITNL_YANRNRFLY_YEQYIKWPW_YFIASFRLF_YLDAYNMMI_YLQPRTFLL_YLYALVYFL'
p23
g3
(g5
S'\x9b\xf7\x06\xbe\xd9\xd1\xef?'
tRp24
tp25
a(S'AEIRASANL_ATSRTLSYY_FAYANRNRF_FEYVSQPFL_FLNRFTTTL_FLQSINFVR_FPPTSFGPL_FPQSAPHGV_LTDEMIAQY_MGYINVFAF_MPASWVMRI_MTSCCSCLK_SIIAYTMSL_SINFVRIIMR_TVYSHLLLV_VRFPNITNL_YANRNRFLY_YEQYIKWPW_YFIASFRLF_YLDAYNMMI_YLQPRTFLL_YLYALVYFL'
p26
g3
(g5
S'\x0c\xd3\x05g\xd8\xd1\xef?'
tRp27
tp28
a(S'AEIRASANL_ATSRTLSYY_FAYANRNRF_FEYVSQPFL_FLNRFTTTL_FLQSINFVR_FPQSAPHGV_LTDEMIAQY_MGYINVFAF_MPASWVMRI_MTSCCSCLK_SIIAYTMSL_SINFVRIIMR_TSRTLSYYK_TVYSHLLLV_VRFPNITNL_YANRNRFLY_YEQYIKWPW_YFIASFRLF_YLDAYNMMI_YLQPRTFLL_YLYALVYFL'
p29
g3
(g5
S'\x15f\xfc \xd8\xd1\xef?'
tRp30
tp31
a(S'AEIRASANL_ATSRTLSYY_FAYANRNRF_FEYVSQPFL_FLNRFTTTL_FLQSINFVR_FPPTSFGPL_FPQSAPHGV_HVTFFIYNK_ISDYDYYRY_MGYINVFAF_MPASWVMRI_SIIAYTMSL_SINFVRIIMR_TVYSHLLLV_VRFPNITNL_YANRNRFLY_YEQYIKWPW_YFIASFRLF_YLDAYNMMI_YLQPRTFLL_YLYALVYFL'
p32
g3
(g5
S'g\r7\xb3\xd7\xd1\xef?'
tRp33
tp34
a.