(lp1
(S'ATSRTLSYY_FAYANRNRF_FLNRFTTTL_MGYINVFAF_SIIAYTMSL_SINFVRIIMR_TVYSHLLLV_YANRNRFLY_YFIASFRLF_YLQPRTFLL_YLYALVYFL'
p2
cnumpy.core.multiarray
scalar
p3
(cnumpy
dtype
p4
(S'f8'
I0
I1
tRp5
(I3
S'<'
NNNI-1
I-1
I0
tbS'\x10^\xb6\xe5x\x9d\xef?'
tRp6
tp7
a(S'ATSRTLSYY_FAYANRNRF_FLNRFTTTL_MGYINVFAF_SIIAYTMSL_SINFVRIIMR_SYFIASFRLF_TVYSHLLLV_YANRNRFLY_YLQPRTFLL_YLYALVYFL'
p8
g3
(g5
S'U,\xa1\xd8n\x9d\xef?'
tRp9
tp10
a(S'ATSRTLSYY_FAYANRNRF_FLNRFTTTL_MGYINVFAF_SIIAYTMSL_SINFVRIIMR_TVYSHLLLV_VYFLQSINF_YANRNRFLY_YLQPRTFLL_YLYALVYFL'
p11
g3
(g5
S'S,\xa1\xd8n\x9d\xef?'
tRp12
tp13
a(S'ATSRTLSYY_FAYANRNRF_FLNRFTTTL_FLQSINFVR_MGYINVFAF_SIIAYTMSL_TVYSHLLLV_YANRNRFLY_YFIASFRLF_YLQPRTFLL_YLYALVYFL'
p14
g3
(g5
S'x\xbfJ\xd83\x9d\xef?'
tRp15
tp16
a(S'ATSRTLSYY_FAYANRNRF_FLNRFTTTL_FLQSINFVR_MGYINVFAF_SIIAYTMSL_SYFIASFRLF_TVYSHLLLV_YANRNRFLY_YLQPRTFLL_YLYALVYFL'
p17
g3
(g5
S'\xc3\x0e\xec\xd5)\x9d\xef?'
tRp18
tp19
a(S'ATSRTLSYY_FAYANRNRF_FLNRFTTTL_FLQSINFVR_MGYINVFAF_SIIAYTMSL_TVYSHLLLV_VYFLQSINF_YANRNRFLY_YLQPRTFLL_YLYALVYFL'
p20
g3
(g5
S'\xc0\x0e\xec\xd5)\x9d\xef?'
tRp21
tp22
a(S'FAYANRNRF_FEYVSQPFL_FLNRFTTTL_FPQSAPHGV_MGYINVFAF_SIIAYTMSL_SINFVRIIMR_YANRNRFLY_YFIASFRLF_YLQPRTFLL_YLYALVYFL'
p23
g3
(g5
S'K\xb9\xe7\xd2\x8d\x9b\xef?'
tRp24
tp25
a(S'ATSRTLSYY_FAYANRNRF_FLNRFTTTL_FLQSINFVR_FPQSAPHGV_MGYINVFAF_SIIAYTMSL_YANRNRFLY_YFIASFRLF_YLQPRTFLL_YLYALVYFL'
p26
g3
(g5
S'\xfc\xc5\x03\xb5|\x9a\xef?'
tRp27
tp28
a(S'ATSRTLSYY_FAYANRNRF_FLNRFTTTL_FPQSAPHGV_MGYINVFAF_SIIAYTMSL_SINFVRIIMR_YANRNRFLY_YFIASFRLF_YLQPRTFLL_YLYALVYFL'
p29
g3
(g5
S'\xd82\xf9\xe4J\x9a\xef?'
tRp30
tp31
a(S'AEIRASANL_FAYANRNRF_FLNRFTTTL_FPQSAPHGV_MGYINVFAF_SIIAYTMSL_SINFVRIIMR_YANRNRFLY_YFIASFRLF_YLQPRTFLL_YLYALVYFL'
p32
g3
(g5
S'\x0fDB\xe8 \x9a\xef?'
tRp33
tp34
a.