(lp1
(S'AEIRASANL_AELEGIQY_ALRANSAVK_ASKIITLKK_ATSRTLSYY_CNDPFLGVYY_CPDGVKHVY_DLFMRIFTI_EEHVQIHTI_EILDITPCSF_FAYANRNRF_FCNDPFLGVY_FEYVSQPFL_FLAFLLFLV_FLLNKEMYL_FLLPSLATV_FLNRFTTTL_FLPRVFSAV_FLQSINFVR_FPNITNLCPF_FPPTSFGPL_FPQSAPHGV_FTNVYADSF_FTYASALWEI_FVDGVPFVV_FVFKNIDGY_GVYFASTEK_HPLADNKFAL_HVTFFIYNK_IELSLIDFYL_IMRTFKVSI_IPIQASLPF_IPRRNVATL_IPTNFTISV_ISDYDYYRY_ITLATCELY_ITLKKRWQL_KMQRMLLEK_KVSIWNLDY_LEYHDVRVV_LIIMRTFKV_LLYDANYFL_LNDLCFTNVY_LPFFSNVTW_LPFNDGVYF_LPPAYTNSF_LTDEMIAQY_LWLLWPVTL_LWPVTLACF_LYNSASFSTF_LYSPIFLIV_MGYINVFAF_MIELSLIDFY_MPASWVMRI_MTSCCSCLK_NSASFSTFK_NSIAIPTNF_NVFAFPFTIY_NVYADSFVIR_NYNYLYRLF_QELYSPIFL_QPTESIVRF_QPYRVVVLSF_QWNLVIGFLF_QYIKWPWYI_RARSVSPKL_RISNCVADY_RLFRKSNLK_RLYYDSMSY_RQLLFVVEV_RTFKVSIWNL_SIIAYTMSL_SINFVRIIMR_SLIDFYLCFL_SQSIIAYTM_TLKSFTVEK_TMADLVYAL_TPINLVRDL_TSRTLSYYK_TVYSHLLLV_VEHVTFFIY_VLWAHGFEL_VRFPNITNL_VSIWNLDYII_VVYRGTTTY_VYFLQSINF_VYYPDKVFR_WPVTLACFVL_WTAGAAAYY_YANRNRFLY_YEQYIKWPW_YFIASFRLF_YIFFASFYY_YIIKLIFLW_YLDAYNMMI_YLQPRTFLL_YLYALVYFL'
p2
cnumpy.core.multiarray
scalar
p3
(cnumpy
dtype
p4
(S'f8'
I0
I1
tRp5
(I3
S'<'
NNNI-1
I-1
I0
tbS'`\xbc\xa3\xbd\x98\x9d\xef?'
tRp6
tp7
a(S'AEIRASANL_AELEGIQY_ALRANSAVK_ASKIITLKK_ATSRTLSYY_CNDPFLGVYY_CPDGVKHVY_DLFMRIFTI_EEHVQIHTI_EILDITPCSF_FAYANRNRF_FCNDPFLGVY_FEYVSQPFL_FLAFLLFLV_FLLNKEMYL_FLLPSLATV_FLNRFTTTL_FLPRVFSAV_FLQSINFVR_FPNITNLCPF_FPPTSFGPL_FPQSAPHGV_FTNVYADSF_FTYASALWEI_FVDGVPFVV_FVFKNIDGY_GVYFASTEK_HPLADNKFAL_HVTFFIYNK_IELSLIDFYL_IMRTFKVSI_IPIQASLPF_IPRRNVATL_IPTNFTISV_ISDYDYYRY_ITLATCELY_ITLKKRWQL_KMQRMLLEK_KVSIWNLDY_LEYHDVRVV_LIIMRTFKV_LLYDANYFL_LNDLCFTNVY_LPFFSNVTW_LPFNDGVYF_LPPAYTNSF_LTDEMIAQY_LWLLWPVTL_LWPVTLACF_LYNSASFSTF_LYSPIFLIV_MGYINVFAF_MIELSLIDFY_MPASWVMRI_MTSCCSCLK_NPLLYDANY_NSASFSTFK_NSIAIPTNF_NVFAFPFTIY_NVYADSFVIR_NYNYLYRLF_QELYSPIFL_QPYRVVVLSF_QWNLVIGFLF_QYIKWPWYI_RARSVSPKL_RISNCVADY_RLFRKSNLK_RLYYDSMSY_RQLLFVVEV_RTFKVSIWNL_SIIAYTMSL_SINFVRIIMR_SLIDFYLCFL_SQSIIAYTM_TLKSFTVEK_TMADLVYAL_TPINLVRDL_TSRTLSYYK_TVYSHLLLV_VEHVTFFIY_VLWAHGFEL_VRFPNITNL_VSIWNLDYII_VVYRGTTTY_VYFLQSINF_VYYPDKVFR_WPVTLACFVL_WTAGAAAYY_YANRNRFLY_YEQYIKWPW_YFIASFRLF_YIFFASFYY_YIIKLIFLW_YLDAYNMMI_YLQPRTFLL_YLYALVYFL'
p8
g3
(g5
S'`\xbc\xa3\xbd\x98\x9d\xef?'
tRp9
tp10
a(S'AEIRASANL_AELEGIQY_ALRANSAVK_ASKIITLKK_ATSRTLSYY_CNDPFLGVYY_CPDGVKHVY_DLFMRIFTI_EEHVQIHTI_EILDITPCSF_FAYANRNRF_FCNDPFLGVY_FEYVSQPFL_FLAFLLFLV_FLLNKEMYL_FLLPSLATV_FLNRFTTTL_FLPRVFSAV_FLQSINFVR_FPNITNLCPF_FPPTSFGPL_FPQSAPHGV_FTNVYADSF_FTYASALWEI_FVDGVPFVV_FVFKNIDGY_GVYFASTEK_HPLADNKFAL_HVTFFIYNK_IELSLIDFYL_IMRTFKVSI_IPIQASLPF_IPRRNVATL_IPTNFTISV_ISDYDYYRY_ITLATCELY_ITLKKRWQL_KMQRMLLEK_KVSIWNLDY_LEYHDVRVV_LIIMRTFKV_LLYDANYFL_LNDLCFTNVY_LPFFSNVTW_LPFNDGVYF_LPPAYTNSF_LPQGFSAL_LTDEMIAQY_LWLLWPVTL_LWPVTLACF_LYNSASFSTF_LYSPIFLIV_MGYINVFAF_MIELSLIDFY_MPASWVMRI_MTSCCSCLK_NSASFSTFK_NSIAIPTNF_NVFAFPFTIY_NVYADSFVIR_NYNYLYRLF_QELYSPIFL_QPTESIVRF_QPYRVVVLSF_QWNLVIGFLF_QYIKWPWYI_RARSVSPKL_RISNCVADY_RLFRKSNLK_RLYYDSMSY_RQLLFVVEV_RTFKVSIWNL_SIIAYTMSL_SINFVRIIMR_SLIDFYLCFL_SQSIIAYTM_TLKSFTVEK_TMADLVYAL_TSRTLSYYK_TVYSHLLLV_VEHVTFFIY_VLWAHGFEL_VRFPNITNL_VSIWNLDYII_VVYRGTTTY_VYFLQSINF_VYYPDKVFR_WPVTLACFVL_WTAGAAAYY_YANRNRFLY_YEQYIKWPW_YFIASFRLF_YIFFASFYY_YIIKLIFLW_YLDAYNMMI_YLQPRTFLL_YLYALVYFL'
p11
g6
tp12
a(S'AEIRASANL_AELEGIQY_ALRANSAVK_ASKIITLKK_ATSRTLSYY_CNDPFLGVYY_CPDGVKHVY_DLFMRIFTI_EEHVQIHTI_EILDITPCSF_FAYANRNRF_FCNDPFLGVY_FEYVSQPFL_FLAFLLFLV_FLLNKEMYL_FLLPSLATV_FLNRFTTTL_FLPRVFSAV_FLQSINFVR_FPNITNLCPF_FPPTSFGPL_FPQSAPHGV_FTNVYADSF_FTYASALWEI_FVDGVPFVV_FVFKNIDGY_GVYFASTEK_HPLADNKFAL_HVTFFIYNK_IELSLIDFYL_IMRTFKVSI_IPIQASLPF_IPRRNVATL_IPTNFTISV_ISDYDYYRY_ITLATCELY_ITLKKRWQL_KMQRMLLEK_KVSIWNLDY_LEYHDVRVV_LIIMRTFKV_LLYDANYFL_LNDLCFTNVY_LPFFSNVTW_LPFNDGVYF_LPPAYTNSF_LPQGFSAL_LTDEMIAQY_LWLLWPVTL_LWPVTLACF_LYNSASFSTF_LYSPIFLIV_MGYINVFAF_MIELSLIDFY_MPASWVMRI_MTSCCSCLK_NPLLYDANY_NSASFSTFK_NSIAIPTNF_NVFAFPFTIY_NVYADSFVIR_NYNYLYRLF_QELYSPIFL_QPYRVVVLSF_QWNLVIGFLF_QYIKWPWYI_RARSVSPKL_RISNCVADY_RLFRKSNLK_RLYYDSMSY_RQLLFVVEV_RTFKVSIWNL_SIIAYTMSL_SINFVRIIMR_SLIDFYLCFL_SQSIIAYTM_TLKSFTVEK_TMADLVYAL_TSRTLSYYK_TVYSHLLLV_VEHVTFFIY_VLWAHGFEL_VRFPNITNL_VSIWNLDYII_VVYRGTTTY_VYFLQSINF_VYYPDKVFR_WPVTLACFVL_WTAGAAAYY_YANRNRFLY_YEQYIKWPW_YFIASFRLF_YIFFASFYY_YIIKLIFLW_YLDAYNMMI_YLQPRTFLL_YLYALVYFL'
p13
g9
tp14
a(S'AEIRASANL_AELEGIQY_AFPFTIYSL_ALRANSAVK_ASKIITLKK_ATSRTLSYY_CNDPFLGVYY_CPDGVKHVY_DLFMRIFTI_EEHVQIHTI_EILDITPCSF_FAYANRNRF_FCNDPFLGVY_FEYVSQPFL_FLAFLLFLV_FLLNKEMYL_FLLPSLATV_FLNRFTTTL_FLPRVFSAV_FLQSINFVR_FPNITNLCPF_FPPTSFGPL_FPQSAPHGV_FTNVYADSF_FTYASALWEI_FVDGVPFVV_FVFKNIDGY_GVYFASTEK_HPLADNKFAL_HVTFFIYNK_IELSLIDFYL_IMRTFKVSI_IPIQASLPF_IPRRNVATL_IPTNFTISV_ISDYDYYRY_ITLATCELY_ITLKKRWQL_KMQRMLLEK_KVSIWNLDY_LEYHDVRVV_LIIMRTFKV_LLYDANYFL_LNDLCFTNVY_LPFFSNVTW_LPFNDGVYF_LPPAYTNSF_LTDEMIAQY_LWPVTLACF_LYNSASFSTF_LYSPIFLIV_MGYINVFAF_MIELSLIDFY_MPASWVMRI_MTSCCSCLK_NSASFSTFK_NSIAIPTNF_NVFAFPFTIY_NVYADSFVIR_NYNYLYRLF_QELYSPIFL_QPTESIVRF_QPYRVVVLSF_QWNLVIGFLF_QYIKWPWYI_RARSVSPKL_RISNCVADY_RLFRKSNLK_RLYYDSMSY_RQLLFVVEV_RTFKVSIWNL_SIIAYTMSL_SINFVRIIMR_SLIDFYLCFL_SQSIIAYTM_TLKSFTVEK_TMADLVYAL_TPINLVRDL_TSRTLSYYK_TVYSHLLLV_VEHVTFFIY_VLWAHGFEL_VRFPNITNL_VSIWNLDYII_VVYRGTTTY_VYFLQSINF_VYYPDKVFR_WPVTLACFVL_WTAGAAAYY_YANRNRFLY_YEQYIKWPW_YFIASFRLF_YIFFASFYY_YIIKLIFLW_YLDAYNMMI_YLQPRTFLL_YLYALVYFL'
p15
g3
(g5
S'`\xbc\xa3\xbd\x98\x9d\xef?'
tRp16
tp17
a(S'AEIRASANL_AELEGIQY_AFPFTIYSL_ALRANSAVK_ASKIITLKK_ATSRTLSYY_CNDPFLGVYY_CPDGVKHVY_DLFMRIFTI_EEHVQIHTI_EILDITPCSF_FAYANRNRF_FCNDPFLGVY_FEYVSQPFL_FLAFLLFLV_FLLNKEMYL_FLLPSLATV_FLNRFTTTL_FLPRVFSAV_FLQSINFVR_FPNITNLCPF_FPPTSFGPL_FPQSAPHGV_FTNVYADSF_FTYASALWEI_FVDGVPFVV_FVFKNIDGY_GVYFASTEK_HPLADNKFAL_HVTFFIYNK_IELSLIDFYL_IMRTFKVSI_IPIQASLPF_IPRRNVATL_IPTNFTISV_ISDYDYYRY_ITLATCELY_ITLKKRWQL_KMQRMLLEK_KVSIWNLDY_LEYHDVRVV_LIIMRTFKV_LLYDANYFL_LNDLCFTNVY_LPFFSNVTW_LPFNDGVYF_LPPAYTNSF_LTDEMIAQY_LWPVTLACF_LYNSASFSTF_LYSPIFLIV_MGYINVFAF_MIELSLIDFY_MPASWVMRI_MTSCCSCLK_NPLLYDANY_NSASFSTFK_NSIAIPTNF_NVFAFPFTIY_NVYADSFVIR_NYNYLYRLF_QELYSPIFL_QPYRVVVLSF_QWNLVIGFLF_QYIKWPWYI_RARSVSPKL_RISNCVADY_RLFRKSNLK_RLYYDSMSY_RQLLFVVEV_RTFKVSIWNL_SIIAYTMSL_SINFVRIIMR_SLIDFYLCFL_SQSIIAYTM_TLKSFTVEK_TMADLVYAL_TPINLVRDL_TSRTLSYYK_TVYSHLLLV_VEHVTFFIY_VLWAHGFEL_VRFPNITNL_VSIWNLDYII_VVYRGTTTY_VYFLQSINF_VYYPDKVFR_WPVTLACFVL_WTAGAAAYY_YANRNRFLY_YEQYIKWPW_YFIASFRLF_YIFFASFYY_YIIKLIFLW_YLDAYNMMI_YLQPRTFLL_YLYALVYFL'
p18
g3
(g5
S'`\xbc\xa3\xbd\x98\x9d\xef?'
tRp19
tp20
a(S'AEIRASANL_AELEGIQY_AFPFTIYSL_ALRANSAVK_ASKIITLKK_ATSRTLSYY_CNDPFLGVYY_CPDGVKHVY_DLFMRIFTI_EEHVQIHTI_EILDITPCSF_FAYANRNRF_FCNDPFLGVY_FEYVSQPFL_FLAFLLFLV_FLLNKEMYL_FLLPSLATV_FLNRFTTTL_FLPRVFSAV_FLQSINFVR_FPNITNLCPF_FPPTSFGPL_FPQSAPHGV_FTNVYADSF_FTYASALWEI_FVDGVPFVV_FVFKNIDGY_GVYFASTEK_HPLADNKFAL_HVTFFIYNK_IELSLIDFYL_IMRTFKVSI_IPIQASLPF_IPRRNVATL_IPTNFTISV_ISDYDYYRY_ITLATCELY_ITLKKRWQL_KMQRMLLEK_KVSIWNLDY_LEYHDVRVV_LIIMRTFKV_LLYDANYFL_LNDLCFTNVY_LPFFSNVTW_LPFNDGVYF_LPPAYTNSF_LPQGFSAL_LTDEMIAQY_LWPVTLACF_LYNSASFSTF_LYSPIFLIV_MGYINVFAF_MIELSLIDFY_MPASWVMRI_MTSCCSCLK_NSASFSTFK_NSIAIPTNF_NVFAFPFTIY_NVYADSFVIR_NYNYLYRLF_QELYSPIFL_QPTESIVRF_QPYRVVVLSF_QWNLVIGFLF_QYIKWPWYI_RARSVSPKL_RISNCVADY_RLFRKSNLK_RLYYDSMSY_RQLLFVVEV_RTFKVSIWNL_SIIAYTMSL_SINFVRIIMR_SLIDFYLCFL_SQSIIAYTM_TLKSFTVEK_TMADLVYAL_TSRTLSYYK_TVYSHLLLV_VEHVTFFIY_VLWAHGFEL_VRFPNITNL_VSIWNLDYII_VVYRGTTTY_VYFLQSINF_VYYPDKVFR_WPVTLACFVL_WTAGAAAYY_YANRNRFLY_YEQYIKWPW_YFIASFRLF_YIFFASFYY_YIIKLIFLW_YLDAYNMMI_YLQPRTFLL_YLYALVYFL'
p21
g16
tp22
a(S'AEIRASANL_AELEGIQY_AFPFTIYSL_ALRANSAVK_ASKIITLKK_ATSRTLSYY_CNDPFLGVYY_CPDGVKHVY_DLFMRIFTI_EEHVQIHTI_EILDITPCSF_FAYANRNRF_FCNDPFLGVY_FEYVSQPFL_FLAFLLFLV_FLLNKEMYL_FLLPSLATV_FLNRFTTTL_FLPRVFSAV_FLQSINFVR_FPNITNLCPF_FPPTSFGPL_FPQSAPHGV_FTNVYADSF_FTYASALWEI_FVDGVPFVV_FVFKNIDGY_GVYFASTEK_HPLADNKFAL_HVTFFIYNK_IELSLIDFYL_IMRTFKVSI_IPIQASLPF_IPRRNVATL_IPTNFTISV_ISDYDYYRY_ITLATCELY_ITLKKRWQL_KMQRMLLEK_KVSIWNLDY_LEYHDVRVV_LIIMRTFKV_LLYDANYFL_LNDLCFTNVY_LPFFSNVTW_LPFNDGVYF_LPPAYTNSF_LPQGFSAL_LTDEMIAQY_LWPVTLACF_LYNSASFSTF_LYSPIFLIV_MGYINVFAF_MIELSLIDFY_MPASWVMRI_MTSCCSCLK_NPLLYDANY_NSASFSTFK_NSIAIPTNF_NVFAFPFTIY_NVYADSFVIR_NYNYLYRLF_QELYSPIFL_QPYRVVVLSF_QWNLVIGFLF_QYIKWPWYI_RARSVSPKL_RISNCVADY_RLFRKSNLK_RLYYDSMSY_RQLLFVVEV_RTFKVSIWNL_SIIAYTMSL_SINFVRIIMR_SLIDFYLCFL_SQSIIAYTM_TLKSFTVEK_TMADLVYAL_TSRTLSYYK_TVYSHLLLV_VEHVTFFIY_VLWAHGFEL_VRFPNITNL_VSIWNLDYII_VVYRGTTTY_VYFLQSINF_VYYPDKVFR_WPVTLACFVL_WTAGAAAYY_YANRNRFLY_YEQYIKWPW_YFIASFRLF_YIFFASFYY_YIIKLIFLW_YLDAYNMMI_YLQPRTFLL_YLYALVYFL'
p23
g19
tp24
a(S'AEIRASANL_AELEGIQY_AFPFTIYSL_ALRANSAVK_ASKIITLKK_ATSRTLSYY_CNDPFLGVYY_CPDGVKHVY_DLFMRIFTI_EEHVQIHTI_EILDITPCSF_FAYANRNRF_FCNDPFLGVY_FEYVSQPFL_FLAFLLFLV_FLLNKEMYL_FLLPSLATV_FLNRFTTTL_FLPRVFSAV_FLQSINFVR_FPNITNLCPF_FPPTSFGPL_FPQSAPHGV_FTNVYADSF_FTYASALWEI_FVDGVPFVV_FVFKNIDGY_GVYFASTEK_HPLADNKFAL_HVTFFIYNK_IELSLIDFYL_IMRTFKVSI_IPIQASLPF_IPRRNVATL_IPTNFTISV_ISDYDYYRY_ITLATCELY_ITLKKRWQL_KMQRMLLEK_KVSIWNLDY_LEYHDVRVV_LIIMRTFKV_LLYDANYFL_LNDLCFTNVY_LPFFSNVTW_LPFNDGVYF_LPPAYTNSF_LPQGFSAL_LTDEMIAQY_LWLLWPVTL_LYNSASFSTF_LYSPIFLIV_MGYINVFAF_MIELSLIDFY_MPASWVMRI_MTSCCSCLK_NSASFSTFK_NSIAIPTNF_NVFAFPFTIY_NVYADSFVIR_NYNYLYRLF_QELYSPIFL_QPTESIVRF_QPYRVVVLSF_QWNLVIGFLF_QYIKWPWYI_RARSVSPKL_RISNCVADY_RLFRKSNLK_RLYYDSMSY_RQLLFVVEV_RTFKVSIWNL_SIIAYTMSL_SINFVRIIMR_SLIDFYLCFL_SQSIIAYTM_TLKSFTVEK_TMADLVYAL_TSRTLSYYK_TVYSHLLLV_VEHVTFFIY_VLWAHGFEL_VRFPNITNL_VSIWNLDYII_VVYRGTTTY_VYFLQSINF_VYYPDKVFR_WPVTLACFVL_WTAGAAAYY_YANRNRFLY_YEQYIKWPW_YFIASFRLF_YIFFASFYY_YIIKLIFLW_YLDAYNMMI_YLQPRTFLL_YLYALVYFL'
p25
g3
(g5
S'`\xbc\xa3\xbd\x98\x9d\xef?'
tRp26
tp27
a(S'AEIRASANL_AELEGIQY_AFPFTIYSL_ALRANSAVK_ASKIITLKK_ATSRTLSYY_CNDPFLGVYY_CPDGVKHVY_DLFMRIFTI_EEHVQIHTI_EILDITPCSF_FAYANRNRF_FCNDPFLGVY_FEYVSQPFL_FLAFLLFLV_FLLNKEMYL_FLLPSLATV_FLNRFTTTL_FLPRVFSAV_FLQSINFVR_FPNITNLCPF_FPPTSFGPL_FPQSAPHGV_FTNVYADSF_FTYASALWEI_FVDGVPFVV_FVFKNIDGY_GVYFASTEK_HPLADNKFAL_HVTFFIYNK_IELSLIDFYL_IMRTFKVSI_IPIQASLPF_IPRRNVATL_IPTNFTISV_IPYNSVTSSI_ISDYDYYRY_ITLATCELY_ITLKKRWQL_KMQRMLLEK_KVSIWNLDY_LEYHDVRVV_LIIMRTFKV_LLYDANYFL_LNDLCFTNVY_LPFFSNVTW_LPFNDGVYF_LPPAYTNSF_LTDEMIAQY_LWLLWPVTL_LYNSASFSTF_LYSPIFLIV_MGYINVFAF_MIELSLIDFY_MPASWVMRI_MTSCCSCLK_NSASFSTFK_NSIAIPTNF_NVFAFPFTIY_NVYADSFVIR_NYNYLYRLF_QELYSPIFL_QPTESIVRF_QPYRVVVLSF_QWNLVIGFLF_QYIKWPWYI_RARSVSPKL_RISNCVADY_RLFRKSNLK_RLYYDSMSY_RQLLFVVEV_RTFKVSIWNL_SIIAYTMSL_SINFVRIIMR_SLIDFYLCFL_SQSIIAYTM_TLKSFTVEK_TMADLVYAL_TSRTLSYYK_TVYSHLLLV_VEHVTFFIY_VLWAHGFEL_VRFPNITNL_VSIWNLDYII_VVYRGTTTY_VYFLQSINF_VYYPDKVFR_WPVTLACFVL_WTAGAAAYY_YANRNRFLY_YEQYIKWPW_YFIASFRLF_YIFFASFYY_YIIKLIFLW_YLDAYNMMI_YLQPRTFLL_YLYALVYFL'
p28
g26
tp29
a.