(lp1
(S'FAYANRNRF_FLNRFTTTL_SINFVRIIMR_YANRNRFLY_YFIASFRLF_YLQPRTFLL_YLYALVYFL'
p2
cnumpy.core.multiarray
scalar
p3
(cnumpy
dtype
p4
(S'f8'
I0
I1
tRp5
(I3
S'<'
NNNI-1
I-1
I0
tbS'}\x93#A}\x96\xef?'
tRp6
tp7
a(S'FAYANRNRF_FLNRFTTTL_FLQSINFVR_YANRNRFLY_YFIASFRLF_YLQPRTFLL_YLYALVYFL'
p8
g3
(g5
S'\x1b\x1f\x8c#2\x96\xef?'
tRp9
tp10
a(S'FAYANRNRF_FLNRFTTTL_SINFVRIIMR_SYFIASFRLF_YANRNRFLY_YLQPRTFLL_YLYALVYFL'
p11
g3
(g5
S"\x10\x99=Y'\x95\xef?"
tRp12
tp13
a(S'FAYANRNRF_FLNRFTTTL_SINFVRIIMR_VYFLQSINF_YANRNRFLY_YLQPRTFLL_YLYALVYFL'
p14
g3
(g5
S"\x0b\x99=Y'\x95\xef?"
tRp15
tp16
a(S'FAYANRNRF_FLNRFTTTL_SIIAYTMSL_SINFVRIIMR_YANRNRFLY_YFIASFRLF_YLQPRTFLL'
p17
g3
(g5
S'\x9d\x90@\x7f\xf9\x94\xef?'
tRp18
tp19
a(S'FAYANRNRF_FLNRFTTTL_FLQSINFVR_SYFIASFRLF_YANRNRFLY_YLQPRTFLL_YLYALVYFL'
p20
g3
(g5
S'\xb3$\xa6;\xdc\x94\xef?'
tRp21
tp22
a(S'FAYANRNRF_FLNRFTTTL_FLQSINFVR_VYFLQSINF_YANRNRFLY_YLQPRTFLL_YLYALVYFL'
p23
g3
(g5
S'\xab$\xa6;\xdc\x94\xef?'
tRp24
tp25
a(S'FAYANRNRF_FLNRFTTTL_FLQSINFVR_SIIAYTMSL_YANRNRFLY_YFIASFRLF_YLQPRTFLL'
p26
g3
(g5
S'\x10\xac\xd0q\xb9\x94\xef?'
tRp27
tp28
a(S'FAYANRNRF_SIIAYTMSL_SINFVRIIMR_YANRNRFLY_YFIASFRLF_YLQPRTFLL_YLYALVYFL'
p29
g3
(g5
S'\xd8vhM\x9d\x94\xef?'
tRp30
tp31
a(S'FAYANRNRF_FLQSINFVR_SIIAYTMSL_YANRNRFLY_YFIASFRLF_YLQPRTFLL_YLYALVYFL'
p32
g3
(g5
S'k\x1dg\x83\\\x94\xef?'
tRp33
tp34
a.