(lp1
(S'ATSRTLSYY_FAYANRNRF_FLNRFTTTL_FPQSAPHGV_MGYINVFAF_SIIAYTMSL_SINFVRIIMR_TVYSHLLLV_YANRNRFLY_YFIASFRLF_YLQPRTFLL_YLYALVYFL'
p2
cnumpy.core.multiarray
scalar
p3
(cnumpy
dtype
p4
(S'f8'
I0
I1
tRp5
(I3
S'<'
NNNI-1
I-1
I0
tbS'e\x9a\xcc\xd3\\\xae\xef?'
tRp6
tp7
a(S'ATSRTLSYY_FAYANRNRF_FLNRFTTTL_FPQSAPHGV_MGYINVFAF_SIIAYTMSL_SINFVRIIMR_SYFIASFRLF_TVYSHLLLV_YANRNRFLY_YLQPRTFLL_YLYALVYFL'
p8
g3
(g5
S'C\xf2\xa8#T\xae\xef?'
tRp9
tp10
a(S'ATSRTLSYY_FAYANRNRF_FLNRFTTTL_FPQSAPHGV_MGYINVFAF_SIIAYTMSL_SINFVRIIMR_TVYSHLLLV_VYFLQSINF_YANRNRFLY_YLQPRTFLL_YLYALVYFL'
p11
g3
(g5
S'A\xf2\xa8#T\xae\xef?'
tRp12
tp13
a(S'ATSRTLSYY_FAYANRNRF_FLNRFTTTL_FLQSINFVR_FPQSAPHGV_MGYINVFAF_SIIAYTMSL_TVYSHLLLV_YANRNRFLY_YFIASFRLF_YLQPRTFLL_YLYALVYFL'
p14
g3
(g5
S'\x95\xda\x99!\x15\xae\xef?'
tRp15
tp16
a(S'ATSRTLSYY_FAYANRNRF_FLNRFTTTL_FLQSINFVR_FPQSAPHGV_MGYINVFAF_SIIAYTMSL_SYFIASFRLF_TVYSHLLLV_YANRNRFLY_YLQPRTFLL_YLYALVYFL'
p17
g3
(g5
S'|\xb3,|\x0c\xae\xef?'
tRp18
tp19
a(S'ATSRTLSYY_FAYANRNRF_FLNRFTTTL_FLQSINFVR_FPQSAPHGV_MGYINVFAF_SIIAYTMSL_TVYSHLLLV_VYFLQSINF_YANRNRFLY_YLQPRTFLL_YLYALVYFL'
p20
g3
(g5
S'y\xb3,|\x0c\xae\xef?'
tRp21
tp22
a(S'FAYANRNRF_FEYVSQPFL_FLNRFTTTL_FPQSAPHGV_MGYINVFAF_SIIAYTMSL_SINFVRIIMR_TVYSHLLLV_YANRNRFLY_YFIASFRLF_YLQPRTFLL_YLYALVYFL'
p23
g3
(g5
S'\xab34\xfb\xe7\xad\xef?'
tRp24
tp25
a(S'ATSRTLSYY_FAYANRNRF_FEYVSQPFL_FLNRFTTTL_MGYINVFAF_SIIAYTMSL_SINFVRIIMR_TVYSHLLLV_YANRNRFLY_YFIASFRLF_YLQPRTFLL_YLYALVYFL'
p26
g3
(g5
S'\x85Lv\x03\xc6\xad\xef?'
tRp27
tp28
a(S'ATSRTLSYY_FAYANRNRF_FEYVSQPFL_FLNRFTTTL_MGYINVFAF_SIIAYTMSL_SINFVRIIMR_SYFIASFRLF_TVYSHLLLV_YANRNRFLY_YLQPRTFLL_YLYALVYFL'
p29
g3
(g5
S'\xc3\xc4#\x97\xbb\xad\xef?'
tRp30
tp31
a(S'ATSRTLSYY_FAYANRNRF_FEYVSQPFL_FLNRFTTTL_MGYINVFAF_SIIAYTMSL_SINFVRIIMR_TVYSHLLLV_VYFLQSINF_YANRNRFLY_YLQPRTFLL_YLYALVYFL'
p32
g3
(g5
S'\xc0\xc4#\x97\xbb\xad\xef?'
tRp33
tp34
a.