(lp1
(S'ATSRTLSYY_FAYANRNRF_FEYVSQPFL_FLNRFTTTL_FPQSAPHGV_MGYINVFAF_SIIAYTMSL_SINFVRIIMR_TVYSHLLLV_YANRNRFLY_YFIASFRLF_YLQPRTFLL_YLYALVYFL'
p2
cnumpy.core.multiarray
scalar
p3
(cnumpy
dtype
p4
(S'f8'
I0
I1
tRp5
(I3
S'<'
NNNI-1
I-1
I0
tbS'Mz\x7f\x96\xb6\xbc\xef?'
tRp6
tp7
a(S'ATSRTLSYY_FAYANRNRF_FEYVSQPFL_FLNRFTTTL_FPQSAPHGV_MGYINVFAF_SIIAYTMSL_SINFVRIIMR_SYFIASFRLF_TVYSHLLLV_YANRNRFLY_YLQPRTFLL_YLYALVYFL'
p8
g3
(g5
S'%|\x1e\x87\xad\xbc\xef?'
tRp9
tp10
a(S'ATSRTLSYY_FAYANRNRF_FEYVSQPFL_FLNRFTTTL_FPQSAPHGV_MGYINVFAF_SIIAYTMSL_SINFVRIIMR_TVYSHLLLV_VYFLQSINF_YANRNRFLY_YLQPRTFLL_YLYALVYFL'
p11
g3
(g5
S'#|\x1e\x87\xad\xbc\xef?'
tRp12
tp13
a(S'ATSRTLSYY_FAYANRNRF_FEYVSQPFL_FLNRFTTTL_FLQSINFVR_FPQSAPHGV_MGYINVFAF_SIIAYTMSL_TVYSHLLLV_YANRNRFLY_YFIASFRLF_YLQPRTFLL_YLYALVYFL'
p14
g3
(g5
S'\xa3zw\x11\x89\xbc\xef?'
tRp15
tp16
a(S'ATSRTLSYY_FAYANRNRF_FEYVSQPFL_FLNRFTTTL_FLQSINFVR_FPQSAPHGV_MGYINVFAF_SIIAYTMSL_TVYSHLLLV_VYFLQSINF_YANRNRFLY_YLQPRTFLL_YLYALVYFL'
p17
g3
(g5
S'y|\x16\x02\x80\xbc\xef?'
tRp18
tp19
a(S'ATSRTLSYY_FAYANRNRF_FEYVSQPFL_FLNRFTTTL_FLQSINFVR_FPQSAPHGV_MGYINVFAF_SIIAYTMSL_SYFIASFRLF_TVYSHLLLV_YANRNRFLY_YLQPRTFLL_YLYALVYFL'
p20
g3
(g5
S'y|\x16\x02\x80\xbc\xef?'
tRp21
tp22
a(S'ATSRTLSYY_FAYANRNRF_FLNRFTTTL_FPQSAPHGV_MGYINVFAF_MPASWVMRI_SIIAYTMSL_SINFVRIIMR_TVYSHLLLV_YANRNRFLY_YFIASFRLF_YLQPRTFLL_YLYALVYFL'
p23
g3
(g5
S'\xc4\xc9l>/\xbc\xef?'
tRp24
tp25
a(S'ATSRTLSYY_FAYANRNRF_FLNRFTTTL_FPQSAPHGV_MGYINVFAF_MPASWVMRI_SIIAYTMSL_SINFVRIIMR_SYFIASFRLF_TVYSHLLLV_YANRNRFLY_YLQPRTFLL_YLYALVYFL'
p26
g3
(g5
S"1\xc8\xf9P'\xbc\xef?"
tRp27
tp28
a(S'ATSRTLSYY_FAYANRNRF_FLNRFTTTL_FPQSAPHGV_MGYINVFAF_MPASWVMRI_SIIAYTMSL_SINFVRIIMR_TVYSHLLLV_VYFLQSINF_YANRNRFLY_YLQPRTFLL_YLYALVYFL'
p29
g3
(g5
S"-\xc8\xf9P'\xbc\xef?"
tRp30
tp31
a(S'ATSRTLSYY_FAYANRNRF_FLNRFTTTL_FLQSINFVR_FPQSAPHGV_MGYINVFAF_MPASWVMRI_SIIAYTMSL_TVYSHLLLV_YANRNRFLY_YFIASFRLF_YLQPRTFLL_YLYALVYFL'
p32
g3
(g5
S'G\xd6\xaf\x12\x07\xbc\xef?'
tRp33
tp34
a.