(lp1
(S'ATSRTLSYY_FAYANRNRF_FLNRFTTTL_FLQSINFVR_MGYINVFAF_SIIAYTMSL_YANRNRFLY_YFIASFRLF_YLQPRTFLL_YLYALVYFL'
p2
cnumpy.core.multiarray
scalar
p3
(cnumpy
dtype
p4
(S'f8'
I0
I1
tRp5
(I3
S'<'
NNNI-1
I-1
I0
tbS'a\x8a\xfcJW\x87\xef?'
tRp6
tp7
a(S'ATSRTLSYY_FAYANRNRF_FLNRFTTTL_MGYINVFAF_SIIAYTMSL_SINFVRIIMR_YANRNRFLY_YFIASFRLF_YLQPRTFLL_YLYALVYFL'
p8
g3
(g5
S'\xf0\xf0+\xdf!\x87\xef?'
tRp9
tp10
a(S'ATSRTLSYY_FAYANRNRF_FLNRFTTTL_FLQSINFVR_MGYINVFAF_SIIAYTMSL_SYFIASFRLF_YANRNRFLY_YLQPRTFLL_YLYALVYFL'
p11
g3
(g5
S';\x12\r\xd1\xc9\x85\xef?'
tRp12
tp13
a(S'ATSRTLSYY_FAYANRNRF_FLNRFTTTL_FLQSINFVR_MGYINVFAF_SIIAYTMSL_VYFLQSINF_YANRNRFLY_YLQPRTFLL_YLYALVYFL'
p14
g3
(g5
S'9\x12\r\xd1\xc9\x85\xef?'
tRp15
tp16
a(S'ATSRTLSYY_FAYANRNRF_FLNRFTTTL_MGYINVFAF_SIIAYTMSL_SINFVRIIMR_SYFIASFRLF_YANRNRFLY_YLQPRTFLL_YLYALVYFL'
p17
g3
(g5
S'\xc7\xf7\x85Z\x94\x85\xef?'
tRp18
tp19
a(S'ATSRTLSYY_FAYANRNRF_FLNRFTTTL_MGYINVFAF_SIIAYTMSL_SINFVRIIMR_VYFLQSINF_YANRNRFLY_YLQPRTFLL_YLYALVYFL'
p20
g3
(g5
S'\xc4\xf7\x85Z\x94\x85\xef?'
tRp21
tp22
a(S'FAYANRNRF_FLNRFTTTL_FPQSAPHGV_MGYINVFAF_SIIAYTMSL_SINFVRIIMR_YANRNRFLY_YFIASFRLF_YLQPRTFLL_YLYALVYFL'
p23
g3
(g5
S'\xe7\xb6\xa2\xba\x02\x85\xef?'
tRp24
tp25
a(S'ATSRTLSYY_FAYANRNRF_FLNRFTTTL_FLQSINFVR_LLYDANYFL_MGYINVFAF_YANRNRFLY_YFIASFRLF_YLQPRTFLL_YLYALVYFL'
p26
g3
(g5
S'\xec\xc0\xb7LS\x84\xef?'
tRp27
tp28
a(S'ATSRTLSYY_FAYANRNRF_FLNRFTTTL_FLQSINFVR_MGYINVFAF_TMADLVYAL_YANRNRFLY_YFIASFRLF_YLQPRTFLL_YLYALVYFL'
p29
g3
(g5
S'\xf9\xe5\x88\xca"\x84\xef?'
tRp30
tp31
a(S'ATSRTLSYY_FAYANRNRF_FLNRFTTTL_LLYDANYFL_MGYINVFAF_SINFVRIIMR_YANRNRFLY_YFIASFRLF_YLQPRTFLL_YLYALVYFL'
p32
g3
(g5
S'_\x82}D\x1e\x84\xef?'
tRp33
tp34
a.