(lp1
(S'FAYANRNRF_FPQSAPHGV_YFIASFRLF_YLQPRTFLL'
p2
cnumpy.core.multiarray
scalar
p3
(cnumpy
dtype
p4
(S'f8'
I0
I1
tRp5
(I3
S'<'
NNNI-1
I-1
I0
tbS'\xdb\xa1\xf7\x83\x04\xf0\xef?'
tRp6
tp7
a(S'FAYANRNRF_FPQSAPHGV_SYFIASFRLF_YLQPRTFLL'
p8
g3
(g5
S'Etf\x97\xf4\xef\xef?'
tRp9
tp10
a(S'FAYANRNRF_FPQSAPHGV_VYFLQSINF_YLQPRTFLL'
p11
g3
(g5
S'-tf\x97\xf4\xef\xef?'
tRp12
tp13
a(S'FAYANRNRF_FLQSINFVR_YFIASFRLF_YLQPRTFLL'
p14
g3
(g5
S'U\xe6\xf7\xd4\xa9\xef\xef?'
tRp15
tp16
a(S'FAYANRNRF_SINFVRIIMR_YFIASFRLF_YLQPRTFLL'
p17
g3
(g5
S'\x95\xe5,\x18\xa3\xef\xef?'
tRp18
tp19
a(S'FAYANRNRF_FLQSINFVR_SYFIASFRLF_YLQPRTFLL'
p20
g3
(g5
S'\xa3\xb1k?\xa2\xef\xef?'
tRp21
tp22
a(S'FAYANRNRF_FLQSINFVR_VYFLQSINF_YLQPRTFLL'
p23
g3
(g5
S'\x93\xb1k?\xa2\xef\xef?'
tRp24
tp25
a(S'FAYANRNRF_SINFVRIIMR_SYFIASFRLF_YLQPRTFLL'
p26
g3
(g5
S'\xe8\xb0\xa0\x82\x9b\xef\xef?'
tRp27
tp28
a(S'FAYANRNRF_SINFVRIIMR_VYFLQSINF_YLQPRTFLL'
p29
g3
(g5
S'\xd7\xb0\xa0\x82\x9b\xef\xef?'
tRp30
tp31
a(S'FAYANRNRF_FEYVSQPFL_YFIASFRLF_YLQPRTFLL'
p32
g3
(g5
S'P\x1a\xbf\xcc~\xef\xef?'
tRp33
tp34
a.