(lp1
(S'ASEFSSLPSYAAFATAQEAYEQAVA_AYVNTFSSTFNVPMEKLKTLVATAE_CFVDDIVKTDGTLMIERFVSLAIDA_CLYRNRDVDTDFVNEFYAYLRKHFS_DFTEERLKLFDRYFKYWDQTYHPNC_DTDFVNEFYAYLRKHFSMMILSDDA_DYPKCDRAMPNMLRIMASLVLARKH_EKVNINIVGDFKLNEEIAIILASFS_ESPFVMMSAPPAQYELKHGTFTCAS_FGLVAEWFLAYILFTRFFYVLGLAA_FKIYSKHTPINLVRDLPQGFSALEP_FLHFLPRVFSAVGNICYTPSKLIEY_FRNARNGVLITEGSVKGLQPSVGPK_GAGAALQIPFAMQMAYRFNGIGVTQ_GIATVREVLSDRELHLSWEVGKPRP_GLMWLSYFIASFRLFARTRSMWSFN_GVSFSTFEEAALCTFLLNKEMYLKL_GVYDYLVSTQEFRYMNSQGLLPPKN_GWTAGAAAYYVGYLQPRTFLLKYNE_HLDGEVITFDNLKTLLSLREVRTIK_IICISTKHFYWFFSNYLKRRVVFNG_IPKDMTYRRLISMMGFKMNYQVNGY_ITGGVVQLTSQWLTNIFGTVYEKLK_KPRQKRTATKAYNVTQAFGRRGPEQ_LDISASIVAGGIVAIVVTCLAYYFM_LDSKVGGNYNYLYRLFRKSNLKPFE_LNRVCTNYMPYFFTLLLQLCTFTRS_LQSLQTYVTQQLIRAAEIRASANLA_LTDEMIAQYTSALLAGTITSGWTFG_NNLVVMAYITGGVVQLTSQWLTNIF_NRNRFLYIIKLIFLWLLWPVTLACF_PLIQPIGALDISASIVAGGIVAIVV_QPTESIVRFPNITNLCPFGEVFNAT_QSAVKRTIKGTHHWLLLTILTSLLV_SIKNFKSVLYYQNNVFMSEAKCWTE_SQSIIAYTMSLGAENSVAYSNNSIA_SSANNCTFEYVSQPFLMDLEGKQGN_TDTPKGPKVKYLYFIKGLNNLNRGM_TFCAGSTFISDEVARDLSLQFKRPI_TFYLTNDVSFLAHIQWMVMFTPLVP_TITQMNLKYAISAKNRARTVAGVSI_TITSGWTFGAGAALQIPFAMQMAYR_TSQWLTNIFGTVYEKLKPVLDWLEE_VRKIFVDGVPFVVSTGYHFRELGVV_VTSAMQTMLFTMLRKLDNDALNNII_VVFVLWAHGFELTSMKYFVKIGPER_WESGVKDCVVLHSYFTSDYYQLYST_YESLRPDTRYVLMDGSIIQFPNTYL'
p2
(lp3
cnumpy.core.multiarray
scalar
p4
(cnumpy
dtype
p5
(S'f8'
I0
I1
tRp6
(I3
S'<'
NNNI-1
I-1
I0
tbS'\xb9\xd8\xe8\xf9qa\xef?'
tRp7
a(dp8
S'mhc2'
p9
g4
(g6
S'Ou_\x1a5\xe5\xee?'
tRp10
sS'mhc1'
p11
g4
(g6
S'#<r\xd9\xae\xdd\xef?'
tRp12
satp13
a(S'ASEFSSLPSYAAFATAQEAYEQAVA_AYVNTFSSTFNVPMEKLKTLVATAE_CFVDDIVKTDGTLMIERFVSLAIDA_CLYRNRDVDTDFVNEFYAYLRKHFS_DFTEERLKLFDRYFKYWDQTYHPNC_DTDFVNEFYAYLRKHFSMMILSDDA_DYPKCDRAMPNMLRIMASLVLARKH_EKVNINIVGDFKLNEEIAIILASFS_ESPFVMMSAPPAQYELKHGTFTCAS_FGLVAEWFLAYILFTRFFYVLGLAA_FKIYSKHTPINLVRDLPQGFSALEP_FLHFLPRVFSAVGNICYTPSKLIEY_FRNARNGVLITEGSVKGLQPSVGPK_GAGAALQIPFAMQMAYRFNGIGVTQ_GIATVREVLSDRELHLSWEVGKPRP_GLMWLSYFIASFRLFARTRSMWSFN_GVSFSTFEEAALCTFLLNKEMYLKL_GVYDYLVSTQEFRYMNSQGLLPPKN_GWTAGAAAYYVGYLQPRTFLLKYNE_HLDGEVITFDNLKTLLSLREVRTIK_IICISTKHFYWFFSNYLKRRVVFNG_IPKDMTYRRLISMMGFKMNYQVNGY_ITGGVVQLTSQWLTNIFGTVYEKLK_KPRQKRTATKAYNVTQAFGRRGPEQ_LDISASIVAGGIVAIVVTCLAYYFM_LDSKVGGNYNYLYRLFRKSNLKPFE_LQSLQTYVTQQLIRAAEIRASANLA_LTDEMIAQYTSALLAGTITSGWTFG_NNLVVMAYITGGVVQLTSQWLTNIF_NRNRFLYIIKLIFLWLLWPVTLACF_PLIQPIGALDISASIVAGGIVAIVV_QPTESIVRFPNITNLCPFGEVFNAT_QSAVKRTIKGTHHWLLLTILTSLLV_SIKNFKSVLYYQNNVFMSEAKCWTE_SQSIIAYTMSLGAENSVAYSNNSIA_SSANNCTFEYVSQPFLMDLEGKQGN_TDTPKGPKVKYLYFIKGLNNLNRGM_TFCAGSTFISDEVARDLSLQFKRPI_TFYLTNDVSFLAHIQWMVMFTPLVP_TITQMNLKYAISAKNRARTVAGVSI_TITSGWTFGAGAALQIPFAMQMAYR_TSQWLTNIFGTVYEKLKPVLDWLEE_TTNIVTRCLNRVCTNYMPYFFTLLL_VRKIFVDGVPFVVSTGYHFRELGVV_VTSAMQTMLFTMLRKLDNDALNNII_VVFVLWAHGFELTSMKYFVKIGPER_WESGVKDCVVLHSYFTSDYYQLYST_YESLRPDTRYVLMDGSIIQFPNTYL'
p14
(lp15
g4
(g6
S'\xd4\x97)npa\xef?'
tRp16
a(dp17
g9
g4
(g6
S'Ou_\x1a5\xe5\xee?'
tRp18
sg11
g4
(g6
S'X\xba\xf3\xc1\xab\xdd\xef?'
tRp19
satp20
a(S'ASEFSSLPSYAAFATAQEAYEQAVA_AYVNTFSSTFNVPMEKLKTLVATAE_CFVDDIVKTDGTLMIERFVSLAIDA_CIMSDRDLYDKLQFTSLEIPRRNVA_CLYRNRDVDTDFVNEFYAYLRKHFS_DFTEERLKLFDRYFKYWDQTYHPNC_DTDFVNEFYAYLRKHFSMMILSDDA_DYPKCDRAMPNMLRIMASLVLARKH_EKVNINIVGDFKLNEEIAIILASFS_ESPFVMMSAPPAQYELKHGTFTCAS_FGLVAEWFLAYILFTRFFYVLGLAA_FKIYSKHTPINLVRDLPQGFSALEP_FLHFLPRVFSAVGNICYTPSKLIEY_FRNARNGVLITEGSVKGLQPSVGPK_GAGAALQIPFAMQMAYRFNGIGVTQ_GIATVREVLSDRELHLSWEVGKPRP_GLMWLSYFIASFRLFARTRSMWSFN_GVSFSTFEEAALCTFLLNKEMYLKL_GVYDYLVSTQEFRYMNSQGLLPPKN_GWTAGAAAYYVGYLQPRTFLLKYNE_HLDGEVITFDNLKTLLSLREVRTIK_IICISTKHFYWFFSNYLKRRVVFNG_IPKDMTYRRLISMMGFKMNYQVNGY_KPRQKRTATKAYNVTQAFGRRGPEQ_LDISASIVAGGIVAIVVTCLAYYFM_LDSKVGGNYNYLYRLFRKSNLKPFE_LNRVCTNYMPYFFTLLLQLCTFTRS_LQSLQTYVTQQLIRAAEIRASANLA_LTDEMIAQYTSALLAGTITSGWTFG_NNLVVMAYITGGVVQLTSQWLTNIF_NRNRFLYIIKLIFLWLLWPVTLACF_PLIQPIGALDISASIVAGGIVAIVV_QPTESIVRFPNITNLCPFGEVFNAT_QSAVKRTIKGTHHWLLLTILTSLLV_SIKNFKSVLYYQNNVFMSEAKCWTE_SQSIIAYTMSLGAENSVAYSNNSIA_SSANNCTFEYVSQPFLMDLEGKQGN_TDTPKGPKVKYLYFIKGLNNLNRGM_TFCAGSTFISDEVARDLSLQFKRPI_TFYLTNDVSFLAHIQWMVMFTPLVP_TITQMNLKYAISAKNRARTVAGVSI_TITSGWTFGAGAALQIPFAMQMAYR_TSQWLTNIFGTVYEKLKPVLDWLEE_VRKIFVDGVPFVVSTGYHFRELGVV_VTSAMQTMLFTMLRKLDNDALNNII_VVFVLWAHGFELTSMKYFVKIGPER_WESGVKDCVVLHSYFTSDYYQLYST_YESLRPDTRYVLMDGSIIQFPNTYL'
p21
(lp22
g4
(g6
S'u0\xe2kea\xef?'
tRp23
a(dp24
S'mhc2'
p25
g4
(g6
S'\xed[\xb2\xfe\xf9\xe4\xee?'
tRp26
sS'mhc1'
p27
g4
(g6
S'\xfd\x04\x12\xd9\xd0\xdd\xef?'
tRp28
satp29
a(S'ASEFSSLPSYAAFATAQEAYEQAVA_AYVNTFSSTFNVPMEKLKTLVATAE_CFVDDIVKTDGTLMIERFVSLAIDA_CIMSDRDLYDKLQFTSLEIPRRNVA_DFTEERLKLFDRYFKYWDQTYHPNC_DTDFVNEFYAYLRKHFSMMILSDDA_DYPKCDRAMPNMLRIMASLVLARKH_EKVNINIVGDFKLNEEIAIILASFS_ESPFVMMSAPPAQYELKHGTFTCAS_FGLVAEWFLAYILFTRFFYVLGLAA_FKIYSKHTPINLVRDLPQGFSALEP_FLHFLPRVFSAVGNICYTPSKLIEY_FRNARNGVLITEGSVKGLQPSVGPK_GAGAALQIPFAMQMAYRFNGIGVTQ_GIATVREVLSDRELHLSWEVGKPRP_GLMWLSYFIASFRLFARTRSMWSFN_GVSFSTFEEAALCTFLLNKEMYLKL_GVYDYLVSTQEFRYMNSQGLLPPKN_GWTAGAAAYYVGYLQPRTFLLKYNE_HLDGEVITFDNLKTLLSLREVRTIK_IICISTKHFYWFFSNYLKRRVVFNG_IPKDMTYRRLISMMGFKMNYQVNGY_ITGGVVQLTSQWLTNIFGTVYEKLK_KPRQKRTATKAYNVTQAFGRRGPEQ_LDISASIVAGGIVAIVVTCLAYYFM_LDSKVGGNYNYLYRLFRKSNLKPFE_LNRVCTNYMPYFFTLLLQLCTFTRS_LQSLQTYVTQQLIRAAEIRASANLA_LTDEMIAQYTSALLAGTITSGWTFG_NNLVVMAYITGGVVQLTSQWLTNIF_NRNRFLYIIKLIFLWLLWPVTLACF_PLIQPIGALDISASIVAGGIVAIVV_QPTESIVRFPNITNLCPFGEVFNAT_QSAVKRTIKGTHHWLLLTILTSLLV_SIKNFKSVLYYQNNVFMSEAKCWTE_SQSIIAYTMSLGAENSVAYSNNSIA_SSANNCTFEYVSQPFLMDLEGKQGN_TDTPKGPKVKYLYFIKGLNNLNRGM_TFCAGSTFISDEVARDLSLQFKRPI_TFYLTNDVSFLAHIQWMVMFTPLVP_TITQMNLKYAISAKNRARTVAGVSI_TITSGWTFGAGAALQIPFAMQMAYR_TSQWLTNIFGTVYEKLKPVLDWLEE_VRKIFVDGVPFVVSTGYHFRELGVV_VTSAMQTMLFTMLRKLDNDALNNII_VVFVLWAHGFELTSMKYFVKIGPER_WESGVKDCVVLHSYFTSDYYQLYST_YESLRPDTRYVLMDGSIIQFPNTYL'
p30
(lp31
g4
(g6
S'\xefr\x958ea\xef?'
tRp32
a(dp33
S'mhc2'
p34
g4
(g6
S'\xe1\xe0\x18\x98\xf9\xe4\xee?'
tRp35
sS'mhc1'
p36
g4
(g6
S'\xfd\x04\x12\xd9\xd0\xdd\xef?'
tRp37
satp38
a(S'ASEFSSLPSYAAFATAQEAYEQAVA_AYVNTFSSTFNVPMEKLKTLVATAE_CFVDDIVKTDGTLMIERFVSLAIDA_CLYRNRDVDTDFVNEFYAYLRKHFS_DFTEERLKLFDRYFKYWDQTYHPNC_DTDFVNEFYAYLRKHFSMMILSDDA_DYPKCDRAMPNMLRIMASLVLARKH_EKVNINIVGDFKLNEEIAIILASFS_ESPFVMMSAPPAQYELKHGTFTCAS_FGLVAEWFLAYILFTRFFYVLGLAA_FKIYSKHTPINLVRDLPQGFSALEP_FLHFLPRVFSAVGNICYTPSKLIEY_FRNARNGVLITEGSVKGLQPSVGPK_GAGAALQIPFAMQMAYRFNGIGVTQ_GIATVREVLSDRELHLSWEVGKPRP_GLMWLSYFIASFRLFARTRSMWSFN_GVSFSTFEEAALCTFLLNKEMYLKL_GVYDYLVSTQEFRYMNSQGLLPPKN_GWTAGAAAYYVGYLQPRTFLLKYNE_HLDGEVITFDNLKTLLSLREVRTIK_IICISTKHFYWFFSNYLKRRVVFNG_IPKDMTYRRLISMMGFKMNYQVNGY_KPRQKRTATKAYNVTQAFGRRGPEQ_LDISASIVAGGIVAIVVTCLAYYFM_LDSKVGGNYNYLYRLFRKSNLKPFE_LNRVCTNYMPYFFTLLLQLCTFTRS_LQSLQTYVTQQLIRAAEIRASANLA_LTDEMIAQYTSALLAGTITSGWTFG_NNLVVMAYITGGVVQLTSQWLTNIF_NRNRFLYIIKLIFLWLLWPVTLACF_PLIQPIGALDISASIVAGGIVAIVV_QPTESIVRFPNITNLCPFGEVFNAT_QSAVKRTIKGTHHWLLLTILTSLLV_RSEDKRAKVTSAMQTMLFTMLRKLD_SIKNFKSVLYYQNNVFMSEAKCWTE_SQSIIAYTMSLGAENSVAYSNNSIA_SSANNCTFEYVSQPFLMDLEGKQGN_TDTPKGPKVKYLYFIKGLNNLNRGM_TFCAGSTFISDEVARDLSLQFKRPI_TFYLTNDVSFLAHIQWMVMFTPLVP_TITQMNLKYAISAKNRARTVAGVSI_TITSGWTFGAGAALQIPFAMQMAYR_TSQWLTNIFGTVYEKLKPVLDWLEE_VRKIFVDGVPFVVSTGYHFRELGVV_VTSAMQTMLFTMLRKLDNDALNNII_VVFVLWAHGFELTSMKYFVKIGPER_WESGVKDCVVLHSYFTSDYYQLYST_YESLRPDTRYVLMDGSIIQFPNTYL'
p39
(lp40
g4
(g6
S'\x86*/\xfaca\xef?'
tRp41
a(dp42
S'mhc2'
p43
g4
(g6
S'\xe8\x18\xec\x1a\x19\xe5\xee?'
tRp44
sS'mhc1'
p45
g4
(g6
S'#<r\xd9\xae\xdd\xef?'
tRp46
satp47
a.