(lp1
(S'ASEFSSLPSYAAFATAQEAYEQAVA_ATKYLVQQESPFVMMSAPPAQYELK_AYVNTFSSTFNVPMEKLKTLVATAE_CFVDDIVKTDGTLMIERFVSLAIDA_CIMSDRDLYDKLQFTSLEIPRRNVA_CLYRNRDVDTDFVNEFYAYLRKHFS_DFTEERLKLFDRYFKYWDQTYHPNC_DKVEAEVQIDRLITGRLQSLQTYVT_DTDFVNEFYAYLRKHFSMMILSDDA_DYPKCDRAMPNMLRIMASLVLARKH_EKVNINIVGDFKLNEEIAIILASFS_ESPFVMMSAPPAQYELKHGTFTCAS_FGLVAEWFLAYILFTRFFYVLGLAA_FKIYSKHTPINLVRDLPQGFSALEP_FLHFLPRVFSAVGNICYTPSKLIEY_FRNARNGVLITEGSVKGLQPSVGPK_GAGAALQIPFAMQMAYRFNGIGVTQ_GDAVVYRGTTTYKLNVGDYFVLTSH_GIATVREVLSDRELHLSWEVGKPRP_GLMWLSYFIASFRLFARTRSMWSFN_GVSFSTFEEAALCTFLLNKEMYLKL_GVYDYLVSTQEFRYMNSQGLLPPKN_GWTAGAAAYYVGYLQPRTFLLKYNE_HLDGEVITFDNLKTLLSLREVRTIK_ICSTMTNRQFHQKLLKSIAATRGAT_IICISTKHFYWFFSNYLKRRVVFNG_IPKDMTYRRLISMMGFKMNYQVNGY_ITGGVVQLTSQWLTNIFGTVYEKLK_KPRQKRTATKAYNVTQAFGRRGPEQ_LDISASIVAGGIVAIVVTCLAYYFM_LDSKVGGNYNYLYRLFRKSNLKPFE_LNRVCTNYMPYFFTLLLQLCTFTRS_LQSLQTYVTQQLIRAAEIRASANLA_LTDEMIAQYTSALLAGTITSGWTFG_NFGAISSVLNDILSRLDKVEAEVQI_NFKDQVILLNKHIDAYKTFPPTEPK_NNLVVMAYITGGVVQLTSQWLTNIF_NRATLQAIASEFSSLPSYAAFATAQ_NRNRFLYIIKLIFLWLLWPVTLACF_NVLEGSVAYESLRPDTRYVLMDGSI_PDSATLVSDIDITFLKKDAPYIVGD_PLIQPIGALDISASIVAGGIVAIVV_PVPYCYDTNVLEGSVAYESLRPDTR_QPTESIVRFPNITNLCPFGEVFNAT_QSAVKRTIKGTHHWLLLTILTSLLV_RSEDKRAKVTSAMQTMLFTMLRKLD_SIKNFKSVLYYQNNVFMSEAKCWTE_SQSIIAYTMSLGAENSVAYSNNSIA_SSANNCTFEYVSQPFLMDLEGKQGN_TDTPKGPKVKYLYFIKGLNNLNRGM_TFCAGSTFISDEVARDLSLQFKRPI_TFYLTNDVSFLAHIQWMVMFTPLVP_TITQMNLKYAISAKNRARTVAGVSI_TITSGWTFGAGAALQIPFAMQMAYR_TLATHGLAAVNSVPWDTIANYAKPF_TSQWLTNIFGTVYEKLKPVLDWLEE_VLLFLAFVVFLLVTLAILTALRLCA_VRKIFVDGVPFVVSTGYHFRELGVV_VTSAMQTMLFTMLRKLDNDALNNII_VVFVLWAHGFELTSMKYFVKIGPER_VVNAANVYLKHGGGVAGALNKATNN_WESGVKDCVVLHSYFTSDYYQLYST_YAYLRKHFSMMILSDDAVVCFNSTY_YESLRPDTRYVLMDGSIIQFPNTYL_YTMADLVYALRHFDEGNCDTLKEIL'
p2
(lp3
cnumpy.core.multiarray
scalar
p4
(cnumpy
dtype
p5
(S'f8'
I0
I1
tRp6
(I3
S'<'
NNNI-1
I-1
I0
tbS'\x06\xce\x9co\x99B\xef?'
tRp7
a(dp8
S'mhc2'
p9
g4
(g6
S'c\xf3\xde\xa0"\xf2\xee?'
tRp10
sS'mhc1'
p11
g4
(g6
S'\xa9\xa8Z>\x10\x93\xef?'
tRp12
satp13
a(S'ASEFSSLPSYAAFATAQEAYEQAVA_ATKYLVQQESPFVMMSAPPAQYELK_AYVNTFSSTFNVPMEKLKTLVATAE_CFVDDIVKTDGTLMIERFVSLAIDA_CIMSDRDLYDKLQFTSLEIPRRNVA_CLYRNRDVDTDFVNEFYAYLRKHFS_DFTEERLKLFDRYFKYWDQTYHPNC_DKVEAEVQIDRLITGRLQSLQTYVT_DTDFVNEFYAYLRKHFSMMILSDDA_DYPKCDRAMPNMLRIMASLVLARKH_EKVNINIVGDFKLNEEIAIILASFS_ESPFVMMSAPPAQYELKHGTFTCAS_FGLVAEWFLAYILFTRFFYVLGLAA_FKIYSKHTPINLVRDLPQGFSALEP_FLHFLPRVFSAVGNICYTPSKLIEY_FRNARNGVLITEGSVKGLQPSVGPK_GAGAALQIPFAMQMAYRFNGIGVTQ_GDAVVYRGTTTYKLNVGDYFVLTSH_GIATVREVLSDRELHLSWEVGKPRP_GLMWLSYFIASFRLFARTRSMWSFN_GVSFSTFEEAALCTFLLNKEMYLKL_GVYDYLVSTQEFRYMNSQGLLPPKN_GWTAGAAAYYVGYLQPRTFLLKYNE_HLDGEVITFDNLKTLLSLREVRTIK_ICSTMTNRQFHQKLLKSIAATRGAT_IICISTKHFYWFFSNYLKRRVVFNG_IPKDMTYRRLISMMGFKMNYQVNGY_ITGGVVQLTSQWLTNIFGTVYEKLK_KPRQKRTATKAYNVTQAFGRRGPEQ_LDISASIVAGGIVAIVVTCLAYYFM_LDSKVGGNYNYLYRLFRKSNLKPFE_LNRVCTNYMPYFFTLLLQLCTFTRS_LQSLQTYVTQQLIRAAEIRASANLA_LTDEMIAQYTSALLAGTITSGWTFG_NFKDQVILLNKHIDAYKTFPPTEPK_NNLVVMAYITGGVVQLTSQWLTNIF_NRATLQAIASEFSSLPSYAAFATAQ_NRNRFLYIIKLIFLWLLWPVTLACF_NVLEGSVAYESLRPDTRYVLMDGSI_PDSATLVSDIDITFLKKDAPYIVGD_PLIQPIGALDISASIVAGGIVAIVV_PVPYCYDTNVLEGSVAYESLRPDTR_QPTESIVRFPNITNLCPFGEVFNAT_QSAVKRTIKGTHHWLLLTILTSLLV_RSEDKRAKVTSAMQTMLFTMLRKLD_SIKNFKSVLYYQNNVFMSEAKCWTE_SQSIIAYTMSLGAENSVAYSNNSIA_SSANNCTFEYVSQPFLMDLEGKQGN_TDTPKGPKVKYLYFIKGLNNLNRGM_TFCAGSTFISDEVARDLSLQFKRPI_TFYLTNDVSFLAHIQWMVMFTPLVP_TITQMNLKYAISAKNRARTVAGVSI_TITSGWTFGAGAALQIPFAMQMAYR_TLATHGLAAVNSVPWDTIANYAKPF_TSQWLTNIFGTVYEKLKPVLDWLEE_VLLFLAFVVFLLVTLAILTALRLCA_VRKIFVDGVPFVVSTGYHFRELGVV_VTSAMQTMLFTMLRKLDNDALNNII_VVFVLWAHGFELTSMKYFVKIGPER_VVNAANVYLKHGGGVAGALNKATNN_WESGVKDCVVLHSYFTSDYYQLYST_YAYLRKHFSMMILSDDAVVCFNSTY_YESLRPDTRYVLMDGSIIQFPNTYL_YSQLMCQPILLLDQALVSDVGDSAE_YTMADLVYALRHFDEGNCDTLKEIL'
p14
(lp15
g4
(g6
S'\x04\xce\x9co\x99B\xef?'
tRp16
a(dp17
S'mhc2'
p18
g4
(g6
S'`\xf3\xde\xa0"\xf2\xee?'
tRp19
sS'mhc1'
p20
g4
(g6
S'\xa8\xa8Z>\x10\x93\xef?'
tRp21
satp22
a(S'ASEFSSLPSYAAFATAQEAYEQAVA_ATKYLVQQESPFVMMSAPPAQYELK_AYVNTFSSTFNVPMEKLKTLVATAE_CFVDDIVKTDGTLMIERFVSLAIDA_CIMSDRDLYDKLQFTSLEIPRRNVA_CLYRNRDVDTDFVNEFYAYLRKHFS_DFTEERLKLFDRYFKYWDQTYHPNC_DKVEAEVQIDRLITGRLQSLQTYVT_DTDFVNEFYAYLRKHFSMMILSDDA_DYPKCDRAMPNMLRIMASLVLARKH_EKVNINIVGDFKLNEEIAIILASFS_ESPFVMMSAPPAQYELKHGTFTCAS_FGLVAEWFLAYILFTRFFYVLGLAA_FKIYSKHTPINLVRDLPQGFSALEP_FLHFLPRVFSAVGNICYTPSKLIEY_FRNARNGVLITEGSVKGLQPSVGPK_GAGAALQIPFAMQMAYRFNGIGVTQ_GDAVVYRGTTTYKLNVGDYFVLTSH_GIATVREVLSDRELHLSWEVGKPRP_GLMWLSYFIASFRLFARTRSMWSFN_GVSFSTFEEAALCTFLLNKEMYLKL_GVYDYLVSTQEFRYMNSQGLLPPKN_GWTAGAAAYYVGYLQPRTFLLKYNE_HLDGEVITFDNLKTLLSLREVRTIK_ICSTMTNRQFHQKLLKSIAATRGAT_IICISTKHFYWFFSNYLKRRVVFNG_IPKDMTYRRLISMMGFKMNYQVNGY_ITGGVVQLTSQWLTNIFGTVYEKLK_KPRQKRTATKAYNVTQAFGRRGPEQ_LDISASIVAGGIVAIVVTCLAYYFM_LDSKVGGNYNYLYRLFRKSNLKPFE_LNRVCTNYMPYFFTLLLQLCTFTRS_LQSLQTYVTQQLIRAAEIRASANLA_LTDEMIAQYTSALLAGTITSGWTFG_NFKDQVILLNKHIDAYKTFPPTEPK_NNLVVMAYITGGVVQLTSQWLTNIF_NRATLQAIASEFSSLPSYAAFATAQ_NRNRFLYIIKLIFLWLLWPVTLACF_NVLEGSVAYESLRPDTRYVLMDGSI_PDSATLVSDIDITFLKKDAPYIVGD_PLIQPIGALDISASIVAGGIVAIVV_PVPYCYDTNVLEGSVAYESLRPDTR_QPTESIVRFPNITNLCPFGEVFNAT_QSAVKRTIKGTHHWLLLTILTSLLV_RSEDKRAKVTSAMQTMLFTMLRKLD_SIKNFKSVLYYQNNVFMSEAKCWTE_SQSIIAYTMSLGAENSVAYSNNSIA_SSANNCTFEYVSQPFLMDLEGKQGN_TDTPKGPKVKYLYFIKGLNNLNRGM_TFCAGSTFISDEVARDLSLQFKRPI_TFYLTNDVSFLAHIQWMVMFTPLVP_TITQMNLKYAISAKNRARTVAGVSI_TITSGWTFGAGAALQIPFAMQMAYR_TLATHGLAAVNSVPWDTIANYAKPF_TQAPTHLSVDTKFKTEGLCVDIPGI_TSQWLTNIFGTVYEKLKPVLDWLEE_VLLFLAFVVFLLVTLAILTALRLCA_VRKIFVDGVPFVVSTGYHFRELGVV_VTSAMQTMLFTMLRKLDNDALNNII_VVFVLWAHGFELTSMKYFVKIGPER_VVNAANVYLKHGGGVAGALNKATNN_WESGVKDCVVLHSYFTSDYYQLYST_YAYLRKHFSMMILSDDAVVCFNSTY_YESLRPDTRYVLMDGSIIQFPNTYL_YTMADLVYALRHFDEGNCDTLKEIL'
p23
(lp24
g4
(g6
S'\x04\xce\x9co\x99B\xef?'
tRp25
a(dp26
S'mhc2'
p27
g4
(g6
S'`\xf3\xde\xa0"\xf2\xee?'
tRp28
sS'mhc1'
p29
g4
(g6
S'\xa8\xa8Z>\x10\x93\xef?'
tRp30
satp31
a(S'ASEFSSLPSYAAFATAQEAYEQAVA_ATKYLVQQESPFVMMSAPPAQYELK_AYVNTFSSTFNVPMEKLKTLVATAE_CFVDDIVKTDGTLMIERFVSLAIDA_CIMSDRDLYDKLQFTSLEIPRRNVA_CLYRNRDVDTDFVNEFYAYLRKHFS_DFTEERLKLFDRYFKYWDQTYHPNC_DKVEAEVQIDRLITGRLQSLQTYVT_DTDFVNEFYAYLRKHFSMMILSDDA_DYPKCDRAMPNMLRIMASLVLARKH_EKVNINIVGDFKLNEEIAIILASFS_ESPFVMMSAPPAQYELKHGTFTCAS_FGLVAEWFLAYILFTRFFYVLGLAA_FKIYSKHTPINLVRDLPQGFSALEP_FLHFLPRVFSAVGNICYTPSKLIEY_FRNARNGVLITEGSVKGLQPSVGPK_GAGAALQIPFAMQMAYRFNGIGVTQ_GDAVVYRGTTTYKLNVGDYFVLTSH_GIATVREVLSDRELHLSWEVGKPRP_GLMWLSYFIASFRLFARTRSMWSFN_GVSFSTFEEAALCTFLLNKEMYLKL_GVYDYLVSTQEFRYMNSQGLLPPKN_GWTAGAAAYYVGYLQPRTFLLKYNE_HLDGEVITFDNLKTLLSLREVRTIK_ICSTMTNRQFHQKLLKSIAATRGAT_IICISTKHFYWFFSNYLKRRVVFNG_IPKDMTYRRLISMMGFKMNYQVNGY_ISRQRLTKYTMADLVYALRHFDEGN_ITGGVVQLTSQWLTNIFGTVYEKLK_KPRQKRTATKAYNVTQAFGRRGPEQ_LDISASIVAGGIVAIVVTCLAYYFM_LDSKVGGNYNYLYRLFRKSNLKPFE_LNRVCTNYMPYFFTLLLQLCTFTRS_LQSLQTYVTQQLIRAAEIRASANLA_LTDEMIAQYTSALLAGTITSGWTFG_NFKDQVILLNKHIDAYKTFPPTEPK_NNLVVMAYITGGVVQLTSQWLTNIF_NRATLQAIASEFSSLPSYAAFATAQ_NRNRFLYIIKLIFLWLLWPVTLACF_NVLEGSVAYESLRPDTRYVLMDGSI_PDSATLVSDIDITFLKKDAPYIVGD_PLIQPIGALDISASIVAGGIVAIVV_PVPYCYDTNVLEGSVAYESLRPDTR_QPTESIVRFPNITNLCPFGEVFNAT_QSAVKRTIKGTHHWLLLTILTSLLV_RSEDKRAKVTSAMQTMLFTMLRKLD_SIKNFKSVLYYQNNVFMSEAKCWTE_SQSIIAYTMSLGAENSVAYSNNSIA_SSANNCTFEYVSQPFLMDLEGKQGN_TDTPKGPKVKYLYFIKGLNNLNRGM_TFCAGSTFISDEVARDLSLQFKRPI_TFYLTNDVSFLAHIQWMVMFTPLVP_TITQMNLKYAISAKNRARTVAGVSI_TITSGWTFGAGAALQIPFAMQMAYR_TLATHGLAAVNSVPWDTIANYAKPF_TSQWLTNIFGTVYEKLKPVLDWLEE_VLLFLAFVVFLLVTLAILTALRLCA_VRKIFVDGVPFVVSTGYHFRELGVV_VTSAMQTMLFTMLRKLDNDALNNII_VVFVLWAHGFELTSMKYFVKIGPER_VVNAANVYLKHGGGVAGALNKATNN_WESGVKDCVVLHSYFTSDYYQLYST_YAYLRKHFSMMILSDDAVVCFNSTY_YESLRPDTRYVLMDGSIIQFPNTYL_YSQLMCQPILLLDQALVSDVGDSAE'
p32
(lp33
g4
(g6
S'\x04\xce\x9co\x99B\xef?'
tRp34
a(dp35
S'mhc2'
p36
g4
(g6
S'_\xf3\xde\xa0"\xf2\xee?'
tRp37
sS'mhc1'
p38
g4
(g6
S'\xa8\xa8Z>\x10\x93\xef?'
tRp39
satp40
a(S'ASEFSSLPSYAAFATAQEAYEQAVA_ATKYLVQQESPFVMMSAPPAQYELK_AYVNTFSSTFNVPMEKLKTLVATAE_CFVDDIVKTDGTLMIERFVSLAIDA_CIMSDRDLYDKLQFTSLEIPRRNVA_CLYRNRDVDTDFVNEFYAYLRKHFS_DFTEERLKLFDRYFKYWDQTYHPNC_DKVEAEVQIDRLITGRLQSLQTYVT_DTDFVNEFYAYLRKHFSMMILSDDA_DYPKCDRAMPNMLRIMASLVLARKH_EKVNINIVGDFKLNEEIAIILASFS_ESPFVMMSAPPAQYELKHGTFTCAS_FGLVAEWFLAYILFTRFFYVLGLAA_FKIYSKHTPINLVRDLPQGFSALEP_FLHFLPRVFSAVGNICYTPSKLIEY_FRNARNGVLITEGSVKGLQPSVGPK_GAGAALQIPFAMQMAYRFNGIGVTQ_GDAVVYRGTTTYKLNVGDYFVLTSH_GIATVREVLSDRELHLSWEVGKPRP_GLMWLSYFIASFRLFARTRSMWSFN_GVSFSTFEEAALCTFLLNKEMYLKL_GVYDYLVSTQEFRYMNSQGLLPPKN_GWTAGAAAYYVGYLQPRTFLLKYNE_HLDGEVITFDNLKTLLSLREVRTIK_ICSTMTNRQFHQKLLKSIAATRGAT_IDINGNLHPDSATLVSDIDITFLKK_IICISTKHFYWFFSNYLKRRVVFNG_IPKDMTYRRLISMMGFKMNYQVNGY_ISRQRLTKYTMADLVYALRHFDEGN_ITGGVVQLTSQWLTNIFGTVYEKLK_KPRQKRTATKAYNVTQAFGRRGPEQ_LDISASIVAGGIVAIVVTCLAYYFM_LDSKVGGNYNYLYRLFRKSNLKPFE_LNRVCTNYMPYFFTLLLQLCTFTRS_LQSLQTYVTQQLIRAAEIRASANLA_LTDEMIAQYTSALLAGTITSGWTFG_NFKDQVILLNKHIDAYKTFPPTEPK_NNLVVMAYITGGVVQLTSQWLTNIF_NRATLQAIASEFSSLPSYAAFATAQ_NRNRFLYIIKLIFLWLLWPVTLACF_NVLEGSVAYESLRPDTRYVLMDGSI_PLIQPIGALDISASIVAGGIVAIVV_PVPYCYDTNVLEGSVAYESLRPDTR_QPTESIVRFPNITNLCPFGEVFNAT_QSAVKRTIKGTHHWLLLTILTSLLV_RSEDKRAKVTSAMQTMLFTMLRKLD_SIKNFKSVLYYQNNVFMSEAKCWTE_SQSIIAYTMSLGAENSVAYSNNSIA_SSANNCTFEYVSQPFLMDLEGKQGN_TDTPKGPKVKYLYFIKGLNNLNRGM_TFCAGSTFISDEVARDLSLQFKRPI_TFYLTNDVSFLAHIQWMVMFTPLVP_TITQMNLKYAISAKNRARTVAGVSI_TITSGWTFGAGAALQIPFAMQMAYR_TLATHGLAAVNSVPWDTIANYAKPF_TSQWLTNIFGTVYEKLKPVLDWLEE_VLLFLAFVVFLLVTLAILTALRLCA_VRKIFVDGVPFVVSTGYHFRELGVV_VTSAMQTMLFTMLRKLDNDALNNII_VVFVLWAHGFELTSMKYFVKIGPER_VVNAANVYLKHGGGVAGALNKATNN_WESGVKDCVVLHSYFTSDYYQLYST_YAYLRKHFSMMILSDDAVVCFNSTY_YESLRPDTRYVLMDGSIIQFPNTYL_YSQLMCQPILLLDQALVSDVGDSAE'
p41
(lp42
g4
(g6
S'\x04\xce\x9co\x99B\xef?'
tRp43
a(dp44
S'mhc2'
p45
g4
(g6
S'_\xf3\xde\xa0"\xf2\xee?'
tRp46
sS'mhc1'
p47
g4
(g6
S'\xa8\xa8Z>\x10\x93\xef?'
tRp48
satp49
a.