(lp1
(S'DTDFVNEFYAYLRKHFSMMILSDDA_GLMWLSYFIASFRLFARTRSMWSFN_GVYDYLVSTQEFRYMNSQGLLPPKN_GWTAGAAAYYVGYLQPRTFLLKYNE_IICISTKHFYWFFSNYLKRRVVFNG_IPKDMTYRRLISMMGFKMNYQVNGY_LQSLQTYVTQQLIRAAEIRASANLA_QPTESIVRFPNITNLCPFGEVFNAT_SIKNFKSVLYYQNNVFMSEAKCWTE_TDTPKGPKVKYLYFIKGLNNLNRGM_TFYLTNDVSFLAHIQWMVMFTPLVP_TITSGWTFGAGAALQIPFAMQMAYR_TSQWLTNIFGTVYEKLKPVLDWLEE_VRKIFVDGVPFVVSTGYHFRELGVV_YESLRPDTRYVLMDGSIIQFPNTYL'
p2
(lp3
cnumpy.core.multiarray
scalar
p4
(cnumpy
dtype
p5
(S'f8'
I0
I1
tRp6
(I3
S'<'
NNNI-1
I-1
I0
tbS'\xfe\x80&\xfbRT\xef?'
tRp7
a(dp8
S'mhc2'
p9
g4
(g6
S'\xb4\x83\xd1(\x8f0\xef?'
tRp10
sS'mhc1'
p11
g4
(g6
S'H~{\xcd\x16x\xef?'
tRp12
satp13
a(S'DTDFVNEFYAYLRKHFSMMILSDDA_FGLVAEWFLAYILFTRFFYVLGLAA_GLMWLSYFIASFRLFARTRSMWSFN_GVSFSTFEEAALCTFLLNKEMYLKL_GVYDYLVSTQEFRYMNSQGLLPPKN_GWTAGAAAYYVGYLQPRTFLLKYNE_IICISTKHFYWFFSNYLKRRVVFNG_IPKDMTYRRLISMMGFKMNYQVNGY_LQSLQTYVTQQLIRAAEIRASANLA_QPTESIVRFPNITNLCPFGEVFNAT_SIKNFKSVLYYQNNVFMSEAKCWTE_TITSGWTFGAGAALQIPFAMQMAYR_TSQWLTNIFGTVYEKLKPVLDWLEE_VRKIFVDGVPFVVSTGYHFRELGVV_YESLRPDTRYVLMDGSIIQFPNTYL'
p14
(lp15
g4
(g6
S'P\xb0\x97\x1c\x05R\xef?'
tRp16
a(dp17
S'mhc2'
p18
g4
(g6
S'4\xa9\x15n\xfc\x0e\xef?'
tRp19
sS'mhc1'
p20
g4
(g6
S'k\xb7\x19\xcb\r\x95\xef?'
tRp21
satp22
a(S'DTDFVNEFYAYLRKHFSMMILSDDA_FDNLKTLLSLREVRTIKVFTTVDNI_GLMWLSYFIASFRLFARTRSMWSFN_GVYDYLVSTQEFRYMNSQGLLPPKN_GWTAGAAAYYVGYLQPRTFLLKYNE_IICISTKHFYWFFSNYLKRRVVFNG_IPKDMTYRRLISMMGFKMNYQVNGY_LQSLQTYVTQQLIRAAEIRASANLA_QPTESIVRFPNITNLCPFGEVFNAT_SIKNFKSVLYYQNNVFMSEAKCWTE_TFYLTNDVSFLAHIQWMVMFTPLVP_TITSGWTFGAGAALQIPFAMQMAYR_TSQWLTNIFGTVYEKLKPVLDWLEE_VRKIFVDGVPFVVSTGYHFRELGVV_YESLRPDTRYVLMDGSIIQFPNTYL'
p23
(lp24
g4
(g6
S',\x91\xf4]QQ\xef?'
tRp25
a(dp26
S'mhc2'
p27
g4
(g6
S'\x04\xf2\xb0\x82\xba+\xef?'
tRp28
sS'mhc1'
p29
g4
(g6
S'U089\xe8v\xef?'
tRp30
satp31
a(S'DTDFVNEFYAYLRKHFSMMILSDDA_FDNLKTLLSLREVRTIKVFTTVDNI_GLMWLSYFIASFRLFARTRSMWSFN_GVSFSTFEEAALCTFLLNKEMYLKL_GVYDYLVSTQEFRYMNSQGLLPPKN_GWTAGAAAYYVGYLQPRTFLLKYNE_IICISTKHFYWFFSNYLKRRVVFNG_IPKDMTYRRLISMMGFKMNYQVNGY_LQSLQTYVTQQLIRAAEIRASANLA_QPTESIVRFPNITNLCPFGEVFNAT_SIKNFKSVLYYQNNVFMSEAKCWTE_TITSGWTFGAGAALQIPFAMQMAYR_TSQWLTNIFGTVYEKLKPVLDWLEE_VRKIFVDGVPFVVSTGYHFRELGVV_YESLRPDTRYVLMDGSIIQFPNTYL'
p32
(lp33
g4
(g6
S'o7\xf3\xed2Q\xef?'
tRp34
a(dp35
S'mhc2'
p36
g4
(g6
S'\x0b\xf2\xb0\x82\xba+\xef?'
tRp37
sS'mhc1'
p38
g4
(g6
S'\xd3|5Y\xabv\xef?'
tRp39
satp40
a(S'DTDFVNEFYAYLRKHFSMMILSDDA_GLMWLSYFIASFRLFARTRSMWSFN_GVSFSTFEEAALCTFLLNKEMYLKL_GVYDYLVSTQEFRYMNSQGLLPPKN_GWTAGAAAYYVGYLQPRTFLLKYNE_IICISTKHFYWFFSNYLKRRVVFNG_IPKDMTYRRLISMMGFKMNYQVNGY_LQSLQTYVTQQLIRAAEIRASANLA_QPTESIVRFPNITNLCPFGEVFNAT_SIKNFKSVLYYQNNVFMSEAKCWTE_TITSGWTFGAGAALQIPFAMQMAYR_TSQWLTNIFGTVYEKLKPVLDWLEE_VRKIFVDGVPFVVSTGYHFRELGVV_VVFVLWAHGFELTSMKYFVKIGPER_YESLRPDTRYVLMDGSIIQFPNTYL'
p41
(lp42
g4
(g6
S'\xab\xd2\xa00tP\xef?'
tRp43
a(dp44
S'mhc2'
p45
g4
(g6
S'\x03\x06$\xddW \xef?'
tRp46
sS'mhc1'
p47
g4
(g6
S'S\x9f\x1d\x84\x90\x80\xef?'
tRp48
satp49
a.