(lp1
(S'DTDFVNEFYAYLRKHFSMMILSDDA_GLMWLSYFIASFRLFARTRSMWSFN_GVYDYLVSTQEFRYMNSQGLLPPKN_GWTAGAAAYYVGYLQPRTFLLKYNE_IICISTKHFYWFFSNYLKRRVVFNG_IPKDMTYRRLISMMGFKMNYQVNGY_LQSLQTYVTQQLIRAAEIRASANLA_QPTESIVRFPNITNLCPFGEVFNAT_TFYLTNDVSFLAHIQWMVMFTPLVP_TSQWLTNIFGTVYEKLKPVLDWLEE_VRKIFVDGVPFVVSTGYHFRELGVV_YESLRPDTRYVLMDGSIIQFPNTYL'
p2
(lp3
cnumpy.core.multiarray
scalar
p4
(cnumpy
dtype
p5
(S'f8'
I0
I1
tRp6
(I3
S'<'
NNNI-1
I-1
I0
tbS'\xf0r\x19]Rt\xef?'
tRp7
a(dp8
S'mhc2'
p9
g4
(g6
S'x\x11&\x99\xc17\xef?'
tRp10
sS'mhc1'
p11
g4
(g6
S'h\xd4\x0c!\xe3\xb0\xef?'
tRp12
satp13
a(S'DTDFVNEFYAYLRKHFSMMILSDDA_EKVNINIVGDFKLNEEIAIILASFS_GLMWLSYFIASFRLFARTRSMWSFN_GVYDYLVSTQEFRYMNSQGLLPPKN_GWTAGAAAYYVGYLQPRTFLLKYNE_IICISTKHFYWFFSNYLKRRVVFNG_IPKDMTYRRLISMMGFKMNYQVNGY_LQSLQTYVTQQLIRAAEIRASANLA_QPTESIVRFPNITNLCPFGEVFNAT_TSQWLTNIFGTVYEKLKPVLDWLEE_VRKIFVDGVPFVVSTGYHFRELGVV_YESLRPDTRYVLMDGSIIQFPNTYL'
p14
(lp15
g4
(g6
S'>f\xbd~\xb9s\xef?'
tRp16
a(dp17
S'mhc2'
p18
g4
(g6
S'\xc8\x14\xb0\xbd\x9aY\xef?'
tRp19
sS'mhc1'
p20
g4
(g6
S'\xb4\xb7\xca?\xd8\x8d\xef?'
tRp21
satp22
a(S'DTDFVNEFYAYLRKHFSMMILSDDA_GLMWLSYFIASFRLFARTRSMWSFN_GVSFSTFEEAALCTFLLNKEMYLKL_GVYDYLVSTQEFRYMNSQGLLPPKN_GWTAGAAAYYVGYLQPRTFLLKYNE_IICISTKHFYWFFSNYLKRRVVFNG_IPKDMTYRRLISMMGFKMNYQVNGY_LQSLQTYVTQQLIRAAEIRASANLA_QPTESIVRFPNITNLCPFGEVFNAT_TSQWLTNIFGTVYEKLKPVLDWLEE_VRKIFVDGVPFVVSTGYHFRELGVV_YESLRPDTRYVLMDGSIIQFPNTYL'
p23
(lp24
g4
(g6
S'>x\xbb\xd2\xb4s\xef?'
tRp25
a(dp26
g9
g4
(g6
S'}\x11&\x99\xc17\xef?'
tRp27
sg11
g4
(g6
S'\xff\xdeP\x0c\xa8\xaf\xef?'
tRp28
satp29
a(S'DTDFVNEFYAYLRKHFSMMILSDDA_EAALCTFLLNKEMYLKLRSDVLLPL_GLMWLSYFIASFRLFARTRSMWSFN_GVYDYLVSTQEFRYMNSQGLLPPKN_GWTAGAAAYYVGYLQPRTFLLKYNE_IICISTKHFYWFFSNYLKRRVVFNG_IPKDMTYRRLISMMGFKMNYQVNGY_LQSLQTYVTQQLIRAAEIRASANLA_QPTESIVRFPNITNLCPFGEVFNAT_TSQWLTNIFGTVYEKLKPVLDWLEE_VRKIFVDGVPFVVSTGYHFRELGVV_YESLRPDTRYVLMDGSIIQFPNTYL'
p30
(lp31
g4
(g6
S'\xf6\n\x8e<\xdfo\xef?'
tRp32
a(dp33
g9
g4
(g6
S'm\x11&\x99\xc17\xef?'
tRp34
sg11
g4
(g6
S'\x80\x04\xf6\xdf\xfc\xa7\xef?'
tRp35
satp36
a(S'DTDFVNEFYAYLRKHFSMMILSDDA_FGLVAEWFLAYILFTRFFYVLGLAA_GWTAGAAAYYVGYLQPRTFLLKYNE_IICISTKHFYWFFSNYLKRRVVFNG_IPKDMTYRRLISMMGFKMNYQVNGY_LQSLQTYVTQQLIRAAEIRASANLA_MGYINVFAFPFTIYSLLLCRMNSRN_SIKNFKSVLYYQNNVFMSEAKCWTE_TSQWLTNIFGTVYEKLKPVLDWLEE_VRKIFVDGVPFVVSTGYHFRELGVV_YESLRPDTRYVLMDGSIIQFPNTYL_YQTSNFRVQPTESIVRFPNITNLCP'
p37
(lp38
g4
(g6
S'\xd6\x19\xce\x82[o\xef?'
tRp39
a(dp40
S'mhc2'
p41
g4
(g6
S'\xcdOJ??(\xef?'
tRp42
sS'mhc1'
p43
g4
(g6
S'\xdf\xe3Q\xc6w\xb6\xef?'
tRp44
satp45
a.