(lp1
(S'DTDFVNEFYAYLRKHFSMMILSDDA_GWTAGAAAYYVGYLQPRTFLLKYNE_IICISTKHFYWFFSNYLKRRVVFNG_IPKDMTYRRLISMMGFKMNYQVNGY_LQSLQTYVTQQLIRAAEIRASANLA_MGYINVFAFPFTIYSLLLCRMNSRN_VRKIFVDGVPFVVSTGYHFRELGVV_YESLRPDTRYVLMDGSIIQFPNTYL'
p2
(lp3
cnumpy.core.multiarray
scalar
p4
(cnumpy
dtype
p5
(S'f8'
I0
I1
tRp6
(I3
S'<'
NNNI-1
I-1
I0
tbS'\xa4\xdc]J\xe1w\xef?'
tRp7
a(dp8
S'mhc2'
p9
g4
(g6
S'\x83\xfc\x8c\x05\xa3G\xef?'
tRp10
sS'mhc1'
p11
g4
(g6
S'\xc5\xbc.\x8f\x1f\xa8\xef?'
tRp12
satp13
a(S'DTDFVNEFYAYLRKHFSMMILSDDA_IICISTKHFYWFFSNYLKRRVVFNG_IPKDMTYRRLISMMGFKMNYQVNGY_LQSLQTYVTQQLIRAAEIRASANLA_MGYINVFAFPFTIYSLLLCRMNSRN_VRKIFVDGVPFVVSTGYHFRELGVV_YESLRPDTRYVLMDGSIIQFPNTYL_YYVGYLQPRTFLLKYNENGTITDAV'
p14
(lp15
g4
(g6
S'\xa2\xdc]J\xe1w\xef?'
tRp16
a(dp17
S'mhc2'
p18
g4
(g6
S'\x80\xfc\x8c\x05\xa3G\xef?'
tRp19
sS'mhc1'
p20
g4
(g6
S'\xc5\xbc.\x8f\x1f\xa8\xef?'
tRp21
satp22
a(S'DTDFVNEFYAYLRKHFSMMILSDDA_GLMWLSYFIASFRLFARTRSMWSFN_GWTAGAAAYYVGYLQPRTFLLKYNE_IICISTKHFYWFFSNYLKRRVVFNG_IPKDMTYRRLISMMGFKMNYQVNGY_LQSLQTYVTQQLIRAAEIRASANLA_VRKIFVDGVPFVVSTGYHFRELGVV_YESLRPDTRYVLMDGSIIQFPNTYL'
p23
(lp24
g4
(g6
S'\xf5\xc6\x17t\xb2v\xef?'
tRp25
a(dp26
S'mhc2'
p27
g4
(g6
S'\xf3\x81\xe0\xdeWT\xef?'
tRp28
sS'mhc1'
p29
g4
(g6
S'\xf7\x0bO\t\r\x99\xef?'
tRp30
satp31
a(S'DTDFVNEFYAYLRKHFSMMILSDDA_GWTAGAAAYYVGYLQPRTFLLKYNE_IICISTKHFYWFFSNYLKRRVVFNG_IPKDMTYRRLISMMGFKMNYQVNGY_LQSLQTYVTQQLIRAAEIRASANLA_MGYINVFAFPFTIYSLLLCRMNSRN_TSQWLTNIFGTVYEKLKPVLDWLEE_VRKIFVDGVPFVVSTGYHFRELGVV'
p32
(lp33
g4
(g6
S'\xa0\t\rC\x90s\xef?'
tRp34
a(dp35
S'mhc2'
p36
g4
(g6
S'S3VPu7\xef?'
tRp37
sS'mhc1'
p38
g4
(g6
S'\xed\xdf\xc35\xab\xaf\xef?'
tRp39
satp40
a(S'DTDFVNEFYAYLRKHFSMMILSDDA_IICISTKHFYWFFSNYLKRRVVFNG_IPKDMTYRRLISMMGFKMNYQVNGY_LQSLQTYVTQQLIRAAEIRASANLA_MGYINVFAFPFTIYSLLLCRMNSRN_TSQWLTNIFGTVYEKLKPVLDWLEE_VRKIFVDGVPFVVSTGYHFRELGVV_YYVGYLQPRTFLLKYNENGTITDAV'
p41
(lp42
g4
(g6
S'\x9e\t\rC\x90s\xef?'
tRp43
a(dp44
S'mhc2'
p45
g4
(g6
S'P3VPu7\xef?'
tRp46
sS'mhc1'
p47
g4
(g6
S'\xed\xdf\xc35\xab\xaf\xef?'
tRp48
satp49
a.