(lp1
(S'DTDFVNEFYAYLRKHFSMMILSDDA_GLMWLSYFIASFRLFARTRSMWSFN_GVYDYLVSTQEFRYMNSQGLLPPKN_GWTAGAAAYYVGYLQPRTFLLKYNE_IICISTKHFYWFFSNYLKRRVVFNG_IPKDMTYRRLISMMGFKMNYQVNGY_LQSLQTYVTQQLIRAAEIRASANLA_QPTESIVRFPNITNLCPFGEVFNAT_TSQWLTNIFGTVYEKLKPVLDWLEE_VRKIFVDGVPFVVSTGYHFRELGVV_YESLRPDTRYVLMDGSIIQFPNTYL'
p2
(lp3
cnumpy.core.multiarray
scalar
p4
(cnumpy
dtype
p5
(S'f8'
I0
I1
tRp6
(I3
S'<'
NNNI-1
I-1
I0
tbS'\x04\xe8^N\xafR\xef?'
tRp7
a(dp8
S'mhc2'
p9
g4
(g6
S'K\xf2h\xff\xe3%\xef?'
tRp10
sS'mhc1'
p11
g4
(g6
S'\xbd\xddT\x9dz\x7f\xef?'
tRp12
satp13
a(S'DTDFVNEFYAYLRKHFSMMILSDDA_GWTAGAAAYYVGYLQPRTFLLKYNE_IICISTKHFYWFFSNYLKRRVVFNG_IPKDMTYRRLISMMGFKMNYQVNGY_LQSLQTYVTQQLIRAAEIRASANLA_MGYINVFAFPFTIYSLLLCRMNSRN_SIKNFKSVLYYQNNVFMSEAKCWTE_TSQWLTNIFGTVYEKLKPVLDWLEE_VRKIFVDGVPFVVSTGYHFRELGVV_YESLRPDTRYVLMDGSIIQFPNTYL_YQTSNFRVQPTESIVRFPNITNLCP'
p14
(lp15
g4
(g6
S'\xfelD\x90NO\xef?'
tRp16
a(dp17
S'mhc2'
p18
g4
(g6
S'\xd3OJ??(\xef?'
tRp19
sS'mhc1'
p20
g4
(g6
S'(\x8a>\xe1]v\xef?'
tRp21
satp22
a(S'DTDFVNEFYAYLRKHFSMMILSDDA_IICISTKHFYWFFSNYLKRRVVFNG_IPKDMTYRRLISMMGFKMNYQVNGY_LQSLQTYVTQQLIRAAEIRASANLA_MGYINVFAFPFTIYSLLLCRMNSRN_SIKNFKSVLYYQNNVFMSEAKCWTE_TSQWLTNIFGTVYEKLKPVLDWLEE_VRKIFVDGVPFVVSTGYHFRELGVV_YESLRPDTRYVLMDGSIIQFPNTYL_YQTSNFRVQPTESIVRFPNITNLCP_YYVGYLQPRTFLLKYNENGTITDAV'
p23
(lp24
g4
(g6
S'\xfclD\x90NO\xef?'
tRp25
a(dp26
S'mhc2'
p27
g4
(g6
S'\xcfOJ??(\xef?'
tRp28
sS'mhc1'
p29
g4
(g6
S'(\x8a>\xe1]v\xef?'
tRp30
satp31
a(S'DTDFVNEFYAYLRKHFSMMILSDDA_EAALCTFLLNKEMYLKLRSDVLLPL_GLMWLSYFIASFRLFARTRSMWSFN_GVYDYLVSTQEFRYMNSQGLLPPKN_GWTAGAAAYYVGYLQPRTFLLKYNE_IICISTKHFYWFFSNYLKRRVVFNG_IPKDMTYRRLISMMGFKMNYQVNGY_LQSLQTYVTQQLIRAAEIRASANLA_QPTESIVRFPNITNLCPFGEVFNAT_VRKIFVDGVPFVVSTGYHFRELGVV_YESLRPDTRYVLMDGSIIQFPNTYL'
p32
(lp33
g4
(g6
S'\x96A\xc8z\x80M\xef?'
tRp34
a(dp35
S'mhc2'
p36
g4
(g6
S'\xcdl\x1f\x84\xa2\xfa\xee?'
tRp37
sS'mhc1'
p38
g4
(g6
S'`\x16qq^\xa0\xef?'
tRp39
satp40
a(S'DTDFVNEFYAYLRKHFSMMILSDDA_GLMWLSYFIASFRLFARTRSMWSFN_GVSFSTFEEAALCTFLLNKEMYLKL_GVYDYLVSTQEFRYMNSQGLLPPKN_GWTAGAAAYYVGYLQPRTFLLKYNE_IICISTKHFYWFFSNYLKRRVVFNG_IPKDMTYRRLISMMGFKMNYQVNGY_LQSLQTYVTQQLIRAAEIRASANLA_QPTESIVRFPNITNLCPFGEVFNAT_VRKIFVDGVPFVVSTGYHFRELGVV_YESLRPDTRYVLMDGSIIQFPNTYL'
p41
(lp42
g4
(g6
S"\x8aC'\x9c\x1eM\xef?"
tRp43
a(dp44
g36
g4
(g6
S'G\xca\x84\xf4\xb8\xf1\xee?'
tRp45
sg38
g4
(g6
S'\xcd\xbc\xc9C\x84\xa8\xef?'
tRp46
satp47
a.