(lp1
(S'DTDFVNEFYAYLRKHFSMMILSDDA_EKVNINIVGDFKLNEEIAIILASFS_GLMWLSYFIASFRLFARTRSMWSFN_GVYDYLVSTQEFRYMNSQGLLPPKN_GWTAGAAAYYVGYLQPRTFLLKYNE_IICISTKHFYWFFSNYLKRRVVFNG_IPKDMTYRRLISMMGFKMNYQVNGY_LQSLQTYVTQQLIRAAEIRASANLA_QPTESIVRFPNITNLCPFGEVFNAT_TITSGWTFGAGAALQIPFAMQMAYR_TSQWLTNIFGTVYEKLKPVLDWLEE_VRKIFVDGVPFVVSTGYHFRELGVV_YESLRPDTRYVLMDGSIIQFPNTYL'
p2
(lp3
cnumpy.core.multiarray
scalar
p4
(cnumpy
dtype
p5
(S'f8'
I0
I1
tRp6
(I3
S'<'
NNNI-1
I-1
I0
tbS'\xc5{\xec.;\x8f\xef?'
tRp7
a(dp8
S'mhc2'
p9
g4
(g6
S'\x05\xe91\x9f\xa4\x89\xef?'
tRp10
sS'mhc1'
p11
g4
(g6
S'\x85\x0e\xa7\xbe\xd1\x94\xef?'
tRp12
satp13
a(S'DTDFVNEFYAYLRKHFSMMILSDDA_FKIYSKHTPINLVRDLPQGFSALEP_GLMWLSYFIASFRLFARTRSMWSFN_GVYDYLVSTQEFRYMNSQGLLPPKN_GWTAGAAAYYVGYLQPRTFLLKYNE_IICISTKHFYWFFSNYLKRRVVFNG_IPKDMTYRRLISMMGFKMNYQVNGY_LQSLQTYVTQQLIRAAEIRASANLA_QPTESIVRFPNITNLCPFGEVFNAT_TFYLTNDVSFLAHIQWMVMFTPLVP_TSQWLTNIFGTVYEKLKPVLDWLEE_VRKIFVDGVPFVVSTGYHFRELGVV_YESLRPDTRYVLMDGSIIQFPNTYL'
p14
(lp15
g4
(g6
S'\x1e\x9b\xaf\x06-\x8f\xef?'
tRp16
a(dp17
S'mhc2'
p18
g4
(g6
S'g\xd1rC\x94Y\xef?'
tRp19
sS'mhc1'
p20
g4
(g6
S'\xd4d\xec\xc9\xc5\xc4\xef?'
tRp21
satp22
a(S'DTDFVNEFYAYLRKHFSMMILSDDA_GLMWLSYFIASFRLFARTRSMWSFN_GVSFSTFEEAALCTFLLNKEMYLKL_GVYDYLVSTQEFRYMNSQGLLPPKN_GWTAGAAAYYVGYLQPRTFLLKYNE_IICISTKHFYWFFSNYLKRRVVFNG_IPKDMTYRRLISMMGFKMNYQVNGY_LQSLQTYVTQQLIRAAEIRASANLA_QPTESIVRFPNITNLCPFGEVFNAT_TITSGWTFGAGAALQIPFAMQMAYR_TSQWLTNIFGTVYEKLKPVLDWLEE_VRKIFVDGVPFVVSTGYHFRELGVV_YESLRPDTRYVLMDGSIIQFPNTYL'
p23
(lp24
g4
(g6
S'\xbc\xd7>\xc1\xeb\x8e\xef?'
tRp25
a(dp26
S'mhc2'
p27
g4
(g6
S'Y\xd0)\xe5\xceg\xef?'
tRp28
sS'mhc1'
p29
g4
(g6
S'\x1f\xdfS\x9d\x08\xb6\xef?'
tRp30
satp31
a(S'DTDFVNEFYAYLRKHFSMMILSDDA_GLMWLSYFIASFRLFARTRSMWSFN_GVYDYLVSTQEFRYMNSQGLLPPKN_GWTAGAAAYYVGYLQPRTFLLKYNE_IICISTKHFYWFFSNYLKRRVVFNG_IPKDMTYRRLISMMGFKMNYQVNGY_LQSLQTYVTQQLIRAAEIRASANLA_QPTESIVRFPNITNLCPFGEVFNAT_TFYLTNDVSFLAHIQWMVMFTPLVP_TITSGWTFGAGAALQIPFAMQMAYR_TSQWLTNIFGTVYEKLKPVLDWLEE_VRKIFVDGVPFVVSTGYHFRELGVV_YESLRPDTRYVLMDGSIIQFPNTYL'
p32
(lp33
g4
(g6
S'\x92\xc6\x81\x84\xd4\x8e\xef?'
tRp34
a(dp35
S'mhc2'
p36
g4
(g6
S'S\xd0)\xe5\xceg\xef?'
tRp37
sS'mhc1'
p38
g4
(g6
S'\xd1\xbc\xd9#\xda\xb5\xef?'
tRp39
satp40
a(S'DTDFVNEFYAYLRKHFSMMILSDDA_EKVNINIVGDFKLNEEIAIILASFS_FGLVAEWFLAYILFTRFFYVLGLAA_GLMWLSYFIASFRLFARTRSMWSFN_GVYDYLVSTQEFRYMNSQGLLPPKN_GWTAGAAAYYVGYLQPRTFLLKYNE_IICISTKHFYWFFSNYLKRRVVFNG_IPKDMTYRRLISMMGFKMNYQVNGY_LQSLQTYVTQQLIRAAEIRASANLA_QPTESIVRFPNITNLCPFGEVFNAT_TSQWLTNIFGTVYEKLKPVLDWLEE_VRKIFVDGVPFVVSTGYHFRELGVV_YESLRPDTRYVLMDGSIIQFPNTYL'
p41
(lp42
g4
(g6
S'\x16\x8ey\xdd[\x8e\xef?'
tRp43
a(dp44
S'mhc2'
p45
g4
(g6
S'\xc3\x14\xb0\xbd\x9aY\xef?'
tRp46
sS'mhc1'
p47
g4
(g6
S'h\x07C\xfd\x1c\xc3\xef?'
tRp48
satp49
a.