(lp1
(S'DTDFVNEFYAYLRKHFSMMILSDDA_IICISTKHFYWFFSNYLKRRVVFNG_IPKDMTYRRLISMMGFKMNYQVNGY_LQSLQTYVTQQLIRAAEIRASANLA_VRKIFVDGVPFVVSTGYHFRELGVV_YYVGYLQPRTFLLKYNENGTITDAV'
p2
(lp3
cnumpy.core.multiarray
scalar
p4
(cnumpy
dtype
p5
(S'f8'
I0
I1
tRp6
(I3
S'<'
NNNI-1
I-1
I0
tbS'v\xd2b\x1c\xd9\x95\xef?'
tRp7
a(dp8
S'mhc2'
p9
g4
(g6
S'\xe0\xda}\x00@s\xef?'
tRp10
sS'mhc1'
p11
g4
(g6
S'\x0b\xcaG8r\xb8\xef?'
tRp12
satp13
a(S'DTDFVNEFYAYLRKHFSMMILSDDA_GWTAGAAAYYVGYLQPRTFLLKYNE_IICISTKHFYWFFSNYLKRRVVFNG_IPKDMTYRRLISMMGFKMNYQVNGY_LQSLQTYVTQQLIRAAEIRASANLA_VRKIFVDGVPFVVSTGYHFRELGVV'
p14
(lp15
g4
(g6
S's\xd2b\x1c\xd9\x95\xef?'
tRp16
a(dp17
S'mhc2'
p18
g4
(g6
S'\xdb\xda}\x00@s\xef?'
tRp19
sS'mhc1'
p20
g4
(g6
S'\x0b\xcaG8r\xb8\xef?'
tRp21
satp22
a(S'DTDFVNEFYAYLRKHFSMMILSDDA_IICISTKHFYWFFSNYLKRRVVFNG_IPKDMTYRRLISMMGFKMNYQVNGY_LQSLQTYVTQQLIRAAEIRASANLA_YESLRPDTRYVLMDGSIIQFPNTYL_YYVGYLQPRTFLLKYNENGTITDAV'
p23
(lp24
g4
(g6
S'\x1f\xf8\xa5\xbdR\x8f\xef?'
tRp25
a(dp26
S'mhc2'
p27
g4
(g6
S'Kn\xc8\xfe6\x87\xef?'
tRp28
sS'mhc1'
p29
g4
(g6
S'\xf3\x81\x83|n\x97\xef?'
tRp30
satp31
a(S'DTDFVNEFYAYLRKHFSMMILSDDA_GWTAGAAAYYVGYLQPRTFLLKYNE_IICISTKHFYWFFSNYLKRRVVFNG_IPKDMTYRRLISMMGFKMNYQVNGY_LQSLQTYVTQQLIRAAEIRASANLA_YESLRPDTRYVLMDGSIIQFPNTYL'
p32
(lp33
g4
(g6
S'\x1f\xf8\xa5\xbdR\x8f\xef?'
tRp34
a(dp35
S'mhc2'
p36
g4
(g6
S'Kn\xc8\xfe6\x87\xef?'
tRp37
sS'mhc1'
p38
g4
(g6
S'\xf3\x81\x83|n\x97\xef?'
tRp39
satp40
a(S'DTDFVNEFYAYLRKHFSMMILSDDA_GAGAALQIPFAMQMAYRFNGIGVTQ_GWTAGAAAYYVGYLQPRTFLLKYNE_IPKDMTYRRLISMMGFKMNYQVNGY_LQSLQTYVTQQLIRAAEIRASANLA_YESLRPDTRYVLMDGSIIQFPNTYL'
p41
(lp42
g4
(g6
S'\x1e7\xbf\xcf\xcc\x8c\xef?'
tRp43
a(dp44
S'mhc2'
p45
g4
(g6
S',\x12\x9c\xdf\x04E\xef?'
tRp46
sS'mhc1'
p47
g4
(g6
S'\x10\\\xe2\xbf\x94\xd4\xef?'
tRp48
satp49
a.