(lp1
(S'AIPTNFTISVTTEILPVSMTKTSVD_ASEFSSLPSYAAFATAQEAYEQAVA_AYVNTFSSTFNVPMEKLKTLVATAE_CFVDDIVKTDGTLMIERFVSLAIDA_DTDFVNEFYAYLRKHFSMMILSDDA_DYPKCDRAMPNMLRIMASLVLARKH_EKVNINIVGDFKLNEEIAIILASFS_ESPFVMMSAPPAQYELKHGTFTCAS_FGLVAEWFLAYILFTRFFYVLGLAA_FKIYSKHTPINLVRDLPQGFSALEP_FLHFLPRVFSAVGNICYTPSKLIEY_FRNARNGVLITEGSVKGLQPSVGPK_GAGAALQIPFAMQMAYRFNGIGVTQ_GIATVREVLSDRELHLSWEVGKPRP_GLMWLSYFIASFRLFARTRSMWSFN_GVSFSTFEEAALCTFLLNKEMYLKL_GVYDYLVSTQEFRYMNSQGLLPPKN_GWTAGAAAYYVGYLQPRTFLLKYNE_HLDGEVITFDNLKTLLSLREVRTIK_IICISTKHFYWFFSNYLKRRVVFNG_IKWDLLKYDFTEERLKLFDRYFKYW_IPKDMTYRRLISMMGFKMNYQVNGY_KPRQKRTATKAYNVTQAFGRRGPEQ_LDISASIVAGGIVAIVVTCLAYYFM_LDSKVGGNYNYLYRLFRKSNLKPFE_LQSLQTYVTQQLIRAAEIRASANLA_NNLVVMAYITGGVVQLTSQWLTNIF_NRNRFLYIIKLIFLWLLWPVTLACF_PLIQPIGALDISASIVAGGIVAIVV_QPTESIVRFPNITNLCPFGEVFNAT_SIKNFKSVLYYQNNVFMSEAKCWTE_SQSIIAYTMSLGAENSVAYSNNSIA_SSANNCTFEYVSQPFLMDLEGKQGN_TDTPKGPKVKYLYFIKGLNNLNRGM_TFCAGSTFISDEVARDLSLQFKRPI_TFYLTNDVSFLAHIQWMVMFTPLVP_TITQMNLKYAISAKNRARTVAGVSI_TITSGWTFGAGAALQIPFAMQMAYR_TSQWLTNIFGTVYEKLKPVLDWLEE_VRKIFVDGVPFVVSTGYHFRELGVV_VVFVLWAHGFELTSMKYFVKIGPER_WESGVKDCVVLHSYFTSDYYQLYST_YESLRPDTRYVLMDGSIIQFPNTYL'
p2
(lp3
cnumpy.core.multiarray
scalar
p4
(cnumpy
dtype
p5
(S'f8'
I0
I1
tRp6
(I3
S'<'
NNNI-1
I-1
I0
tbS'j\xe5\xb4\xca\x05\x80\xef?'
tRp7
a(dp8
S'mhc2'
p9
g4
(g6
S'\xdcG\x9bI\xbd\x1c\xef?'
tRp10
sS'mhc1'
p11
g4
(g6
S'\xf9\x82\xceKN\xe3\xef?'
tRp12
satp13
a(S'AIPTNFTISVTTEILPVSMTKTSVD_ASEFSSLPSYAAFATAQEAYEQAVA_AYVNTFSSTFNVPMEKLKTLVATAE_CFVDDIVKTDGTLMIERFVSLAIDA_DFTEERLKLFDRYFKYWDQTYHPNC_DTDFVNEFYAYLRKHFSMMILSDDA_DYPKCDRAMPNMLRIMASLVLARKH_EKVNINIVGDFKLNEEIAIILASFS_ESPFVMMSAPPAQYELKHGTFTCAS_FGLVAEWFLAYILFTRFFYVLGLAA_FKIYSKHTPINLVRDLPQGFSALEP_FLHFLPRVFSAVGNICYTPSKLIEY_FRNARNGVLITEGSVKGLQPSVGPK_GAGAALQIPFAMQMAYRFNGIGVTQ_GIATVREVLSDRELHLSWEVGKPRP_GLMWLSYFIASFRLFARTRSMWSFN_GVSFSTFEEAALCTFLLNKEMYLKL_GVYDYLVSTQEFRYMNSQGLLPPKN_GWTAGAAAYYVGYLQPRTFLLKYNE_HLDGEVITFDNLKTLLSLREVRTIK_IICISTKHFYWFFSNYLKRRVVFNG_IPKDMTYRRLISMMGFKMNYQVNGY_KPRQKRTATKAYNVTQAFGRRGPEQ_LDISASIVAGGIVAIVVTCLAYYFM_LDSKVGGNYNYLYRLFRKSNLKPFE_LQSLQTYVTQQLIRAAEIRASANLA_NNLVVMAYITGGVVQLTSQWLTNIF_NRNRFLYIIKLIFLWLLWPVTLACF_PLIQPIGALDISASIVAGGIVAIVV_QPTESIVRFPNITNLCPFGEVFNAT_SIKNFKSVLYYQNNVFMSEAKCWTE_SQSIIAYTMSLGAENSVAYSNNSIA_SSANNCTFEYVSQPFLMDLEGKQGN_TDTPKGPKVKYLYFIKGLNNLNRGM_TFCAGSTFISDEVARDLSLQFKRPI_TFYLTNDVSFLAHIQWMVMFTPLVP_TITQMNLKYAISAKNRARTVAGVSI_TITSGWTFGAGAALQIPFAMQMAYR_TSQWLTNIFGTVYEKLKPVLDWLEE_VRKIFVDGVPFVVSTGYHFRELGVV_VVFVLWAHGFELTSMKYFVKIGPER_WESGVKDCVVLHSYFTSDYYQLYST_YESLRPDTRYVLMDGSIIQFPNTYL'
p14
(lp15
g4
(g6
S'j\xe5\xb4\xca\x05\x80\xef?'
tRp16
a(dp17
S'mhc2'
p18
g4
(g6
S'\xdcG\x9bI\xbd\x1c\xef?'
tRp19
sS'mhc1'
p20
g4
(g6
S'\xf8\x82\xceKN\xe3\xef?'
tRp21
satp22
a(S'AIPTNFTISVTTEILPVSMTKTSVD_ASEFSSLPSYAAFATAQEAYEQAVA_ATKYLVQQESPFVMMSAPPAQYELK_AYVNTFSSTFNVPMEKLKTLVATAE_CFVDDIVKTDGTLMIERFVSLAIDA_DTDFVNEFYAYLRKHFSMMILSDDA_DYPKCDRAMPNMLRIMASLVLARKH_EKVNINIVGDFKLNEEIAIILASFS_FGLVAEWFLAYILFTRFFYVLGLAA_FKIYSKHTPINLVRDLPQGFSALEP_FLHFLPRVFSAVGNICYTPSKLIEY_FRNARNGVLITEGSVKGLQPSVGPK_GAGAALQIPFAMQMAYRFNGIGVTQ_GIATVREVLSDRELHLSWEVGKPRP_GLMWLSYFIASFRLFARTRSMWSFN_GVSFSTFEEAALCTFLLNKEMYLKL_GVYDYLVSTQEFRYMNSQGLLPPKN_GWTAGAAAYYVGYLQPRTFLLKYNE_HLDGEVITFDNLKTLLSLREVRTIK_IICISTKHFYWFFSNYLKRRVVFNG_IKWDLLKYDFTEERLKLFDRYFKYW_IPKDMTYRRLISMMGFKMNYQVNGY_KPRQKRTATKAYNVTQAFGRRGPEQ_LDISASIVAGGIVAIVVTCLAYYFM_LDSKVGGNYNYLYRLFRKSNLKPFE_LQSLQTYVTQQLIRAAEIRASANLA_NNLVVMAYITGGVVQLTSQWLTNIF_NRNRFLYIIKLIFLWLLWPVTLACF_PLIQPIGALDISASIVAGGIVAIVV_QPTESIVRFPNITNLCPFGEVFNAT_SIKNFKSVLYYQNNVFMSEAKCWTE_SQSIIAYTMSLGAENSVAYSNNSIA_SSANNCTFEYVSQPFLMDLEGKQGN_TDTPKGPKVKYLYFIKGLNNLNRGM_TFCAGSTFISDEVARDLSLQFKRPI_TFYLTNDVSFLAHIQWMVMFTPLVP_TITQMNLKYAISAKNRARTVAGVSI_TITSGWTFGAGAALQIPFAMQMAYR_TSQWLTNIFGTVYEKLKPVLDWLEE_VRKIFVDGVPFVVSTGYHFRELGVV_VVFVLWAHGFELTSMKYFVKIGPER_WESGVKDCVVLHSYFTSDYYQLYST_YESLRPDTRYVLMDGSIIQFPNTYL'
p23
(lp24
g4
(g6
S'jWp\xa6\x04\x80\xef?'
tRp25
a(dp26
S'mhc2'
p27
g4
(g6
S'\xdcG\x9bI\xbd\x1c\xef?'
tRp28
sS'mhc1'
p29
g4
(g6
S'\xf8fE\x03L\xe3\xef?'
tRp30
satp31
a(S'AIPTNFTISVTTEILPVSMTKTSVD_ASEFSSLPSYAAFATAQEAYEQAVA_ATKYLVQQESPFVMMSAPPAQYELK_AYVNTFSSTFNVPMEKLKTLVATAE_CFVDDIVKTDGTLMIERFVSLAIDA_DFTEERLKLFDRYFKYWDQTYHPNC_DTDFVNEFYAYLRKHFSMMILSDDA_DYPKCDRAMPNMLRIMASLVLARKH_EKVNINIVGDFKLNEEIAIILASFS_FGLVAEWFLAYILFTRFFYVLGLAA_FKIYSKHTPINLVRDLPQGFSALEP_FLHFLPRVFSAVGNICYTPSKLIEY_FRNARNGVLITEGSVKGLQPSVGPK_GAGAALQIPFAMQMAYRFNGIGVTQ_GIATVREVLSDRELHLSWEVGKPRP_GLMWLSYFIASFRLFARTRSMWSFN_GVSFSTFEEAALCTFLLNKEMYLKL_GVYDYLVSTQEFRYMNSQGLLPPKN_GWTAGAAAYYVGYLQPRTFLLKYNE_HLDGEVITFDNLKTLLSLREVRTIK_IICISTKHFYWFFSNYLKRRVVFNG_IPKDMTYRRLISMMGFKMNYQVNGY_KPRQKRTATKAYNVTQAFGRRGPEQ_LDISASIVAGGIVAIVVTCLAYYFM_LDSKVGGNYNYLYRLFRKSNLKPFE_LQSLQTYVTQQLIRAAEIRASANLA_NNLVVMAYITGGVVQLTSQWLTNIF_NRNRFLYIIKLIFLWLLWPVTLACF_PLIQPIGALDISASIVAGGIVAIVV_QPTESIVRFPNITNLCPFGEVFNAT_SIKNFKSVLYYQNNVFMSEAKCWTE_SQSIIAYTMSLGAENSVAYSNNSIA_SSANNCTFEYVSQPFLMDLEGKQGN_TDTPKGPKVKYLYFIKGLNNLNRGM_TFCAGSTFISDEVARDLSLQFKRPI_TFYLTNDVSFLAHIQWMVMFTPLVP_TITQMNLKYAISAKNRARTVAGVSI_TITSGWTFGAGAALQIPFAMQMAYR_TSQWLTNIFGTVYEKLKPVLDWLEE_VRKIFVDGVPFVVSTGYHFRELGVV_VVFVLWAHGFELTSMKYFVKIGPER_WESGVKDCVVLHSYFTSDYYQLYST_YESLRPDTRYVLMDGSIIQFPNTYL'
p32
(lp33
g4
(g6
S'hWp\xa6\x04\x80\xef?'
tRp34
a(dp35
S'mhc2'
p36
g4
(g6
S'\xdcG\x9bI\xbd\x1c\xef?'
tRp37
sS'mhc1'
p38
g4
(g6
S'\xf5fE\x03L\xe3\xef?'
tRp39
satp40
a(S'ASEFSSLPSYAAFATAQEAYEQAVA_AYVNTFSSTFNVPMEKLKTLVATAE_CFVDDIVKTDGTLMIERFVSLAIDA_DFTEERLKLFDRYFKYWDQTYHPNC_DTDFVNEFYAYLRKHFSMMILSDDA_DYPKCDRAMPNMLRIMASLVLARKH_EKVNINIVGDFKLNEEIAIILASFS_ESPFVMMSAPPAQYELKHGTFTCAS_FGLVAEWFLAYILFTRFFYVLGLAA_FKIYSKHTPINLVRDLPQGFSALEP_FLHFLPRVFSAVGNICYTPSKLIEY_FRNARNGVLITEGSVKGLQPSVGPK_GAGAALQIPFAMQMAYRFNGIGVTQ_GIATVREVLSDRELHLSWEVGKPRP_GLMWLSYFIASFRLFARTRSMWSFN_GVSFSTFEEAALCTFLLNKEMYLKL_GVYDYLVSTQEFRYMNSQGLLPPKN_GWTAGAAAYYVGYLQPRTFLLKYNE_HLDGEVITFDNLKTLLSLREVRTIK_IICISTKHFYWFFSNYLKRRVVFNG_IPKDMTYRRLISMMGFKMNYQVNGY_KPRQKRTATKAYNVTQAFGRRGPEQ_LDISASIVAGGIVAIVVTCLAYYFM_LDSKVGGNYNYLYRLFRKSNLKPFE_LQSLQTYVTQQLIRAAEIRASANLA_NNLVVMAYITGGVVQLTSQWLTNIF_NRNRFLYIIKLIFLWLLWPVTLACF_PLIQPIGALDISASIVAGGIVAIVV_QPTESIVRFPNITNLCPFGEVFNAT_QSAVKRTIKGTHHWLLLTILTSLLV_SIKNFKSVLYYQNNVFMSEAKCWTE_SQSIIAYTMSLGAENSVAYSNNSIA_SSANNCTFEYVSQPFLMDLEGKQGN_TDTPKGPKVKYLYFIKGLNNLNRGM_TFCAGSTFISDEVARDLSLQFKRPI_TFYLTNDVSFLAHIQWMVMFTPLVP_TITQMNLKYAISAKNRARTVAGVSI_TITSGWTFGAGAALQIPFAMQMAYR_TSQWLTNIFGTVYEKLKPVLDWLEE_VRKIFVDGVPFVVSTGYHFRELGVV_VVFVLWAHGFELTSMKYFVKIGPER_WESGVKDCVVLHSYFTSDYYQLYST_YESLRPDTRYVLMDGSIIQFPNTYL'
p41
(lp42
g4
(g6
S'\x9bD\xc3o\x97\x7f\xef?'
tRp43
a(dp44
S'mhc2'
p45
g4
(g6
S'\xdbG\x9bI\xbd\x1c\xef?'
tRp46
sS'mhc1'
p47
g4
(g6
S'[A\xeb\x95q\xe2\xef?'
tRp48
satp49
a.