(lp1
(S'DTDFVNEFYAYLRKHFSMMILSDDA_IPKDMTYRRLISMMGFKMNYQVNGY'
p2
(lp3
cnumpy.core.multiarray
scalar
p4
(cnumpy
dtype
p5
(S'f8'
I0
I1
tRp6
(I3
S'<'
NNNI-1
I-1
I0
tbS'\xdeTA\xa0\x91\x00\xef?'
tRp7
a(dp8
S'mhc2'
p9
g4
(g6
S'\x10\x0b\xd4\xb0\xac\xfe\xee?'
tRp10
sS'mhc1'
p11
g4
(g6
S'\xab\x9e\xae\x8fv\x02\xef?'
tRp12
satp13
a(S'CLYRNRDVDTDFVNEFYAYLRKHFS_IPKDMTYRRLISMMGFKMNYQVNGY'
p14
(lp15
g4
(g6
S'v\x8b\xe7\xaeJ\xe8\xee?'
tRp16
a(dp17
S'mhc2'
p18
g4
(g6
S'0x \xce\x1e\xce\xee?'
tRp19
sS'mhc1'
p20
g4
(g6
S'\xbd\x9e\xae\x8fv\x02\xef?'
tRp21
satp22
a(S'IPKDMTYRRLISMMGFKMNYQVNGY_VRKIFVDGVPFVVSTGYHFRELGVV'
p23
(lp24
g4
(g6
S'\x06\xbd\xce\x8c\xd6\xba\xee?'
tRp25
a(dp26
S'mhc2'
p27
g4
(g6
S'\xe3\x019\xbbW\xa6\xee?'
tRp28
sS'mhc1'
p29
g4
(g6
S'(xd^U\xcf\xee?'
tRp30
satp31
a(S'IPKDMTYRRLISMMGFKMNYQVNGY_TSQWLTNIFGTVYEKLKPVLDWLEE'
p32
(lp33
g4
(g6
S'2`\xd0\x95=\x8f\xee?'
tRp34
a(dp35
S'mhc2'
p36
g4
(g6
S'\xa8\x9c\x8b\xddC)\xef?'
tRp37
sS'mhc1'
p38
g4
(g6
S'\xbd#\x15N7\xf5\xed?'
tRp39
satp40
a(S'DTDFVNEFYAYLRKHFSMMILSDDA_YFNMVYMPASWVMRIMTWLDMVDTS'
p41
(lp42
g4
(g6
S':\xb5\xb2\x1aG\x81\xee?'
tRp43
a(dp44
S'mhc2'
p45
g4
(g6
S'uj=\x02;W\xee?'
tRp46
sS'mhc1'
p47
g4
(g6
S"\xff\xff'3S\xab\xee?"
tRp48
satp49
a.