(lp1
(S'DTDFVNEFYAYLRKHFSMMILSDDA_IPKDMTYRRLISMMGFKMNYQVNGY_LQSLQTYVTQQLIRAAEIRASANLA_YYVGYLQPRTFLLKYNENGTITDAV'
p2
(lp3
cnumpy.core.multiarray
scalar
p4
(cnumpy
dtype
p5
(S'f8'
I0
I1
tRp6
(I3
S'<'
NNNI-1
I-1
I0
tbS'\xd0o\x1c\xc6\x99\xc7\xef?'
tRp7
a(dp8
S'mhc2'
p9
g4
(g6
S'\xdb{\xbb\xed\x05\x9c\xef?'
tRp10
sS'mhc1'
p11
g4
(g6
S'\xc5c}\x9e-\xf3\xef?'
tRp12
satp13
a(S'DTDFVNEFYAYLRKHFSMMILSDDA_IPKDMTYRRLISMMGFKMNYQVNGY_TQQLIRAAEIRASANLAATKMSECV_YYVGYLQPRTFLLKYNENGTITDAV'
p14
(lp15
g4
(g6
S'\xceo\x1c\xc6\x99\xc7\xef?'
tRp16
a(dp17
S'mhc2'
p18
g4
(g6
S'\xed{\xbb\xed\x05\x9c\xef?'
tRp19
sS'mhc1'
p20
g4
(g6
S'\xb0c}\x9e-\xf3\xef?'
tRp21
satp22
a(S'DTDFVNEFYAYLRKHFSMMILSDDA_GWTAGAAAYYVGYLQPRTFLLKYNE_IPKDMTYRRLISMMGFKMNYQVNGY_LQSLQTYVTQQLIRAAEIRASANLA'
p23
(lp24
g4
(g6
S'\xceo\x1c\xc6\x99\xc7\xef?'
tRp25
a(dp26
g9
g4
(g6
S'\xd8{\xbb\xed\x05\x9c\xef?'
tRp27
sg11
g4
(g6
S'\xc5c}\x9e-\xf3\xef?'
tRp28
satp29
a(S'DTDFVNEFYAYLRKHFSMMILSDDA_GWTAGAAAYYVGYLQPRTFLLKYNE_IPKDMTYRRLISMMGFKMNYQVNGY_TQQLIRAAEIRASANLAATKMSECV'
p30
(lp31
g4
(g6
S'\xcco\x1c\xc6\x99\xc7\xef?'
tRp32
a(dp33
g18
g4
(g6
S'\xe8{\xbb\xed\x05\x9c\xef?'
tRp34
sg20
g4
(g6
S'\xb0c}\x9e-\xf3\xef?'
tRp35
satp36
a(S'AIAMACLVGLMWLSYFIASFRLFAR_DTDFVNEFYAYLRKHFSMMILSDDA_IPKDMTYRRLISMMGFKMNYQVNGY_TQQLIRAAEIRASANLAATKMSECV'
p37
(lp38
g4
(g6
S'\x00\x9f\xf0\x96\x81\xc5\xef?'
tRp39
a(dp40
S'mhc2'
p41
g4
(g6
S'\xeb{\xbb\xed\x05\x9c\xef?'
tRp42
sS'mhc1'
p43
g4
(g6
S'\x15\xc2%@\xfd\xee\xef?'
tRp44
satp45
a.