(lp1
(S'DTDFVNEFYAYLRKHFSMMILSDDA_IPKDMTYRRLISMMGFKMNYQVNGY_LQSLQTYVTQQLIRAAEIRASANLA_VRKIFVDGVPFVVSTGYHFRELGVV_YYVGYLQPRTFLLKYNENGTITDAV'
p2
(lp3
cnumpy.core.multiarray
scalar
p4
(cnumpy
dtype
p5
(S'f8'
I0
I1
tRp6
(I3
S'<'
NNNI-1
I-1
I0
tbS'\xc4\xf2\xb5\x82\x00[\xef?'
tRp7
a(dp8
S'mhc2'
p9
g4
(g6
S',\xa1\xf7\xbe\x94\x08\xef?'
tRp10
sS'mhc1'
p11
g4
(g6
S']DtFl\xad\xef?'
tRp12
satp13
a(S'DTDFVNEFYAYLRKHFSMMILSDDA_GWTAGAAAYYVGYLQPRTFLLKYNE_IPKDMTYRRLISMMGFKMNYQVNGY_LQSLQTYVTQQLIRAAEIRASANLA_VRKIFVDGVPFVVSTGYHFRELGVV'
p14
(lp15
g4
(g6
S'\xc2\xf2\xb5\x82\x00[\xef?'
tRp16
a(dp17
S'mhc2'
p18
g4
(g6
S"'\xa1\xf7\xbe\x94\x08\xef?"
tRp19
sS'mhc1'
p20
g4
(g6
S']DtFl\xad\xef?'
tRp21
satp22
a(S'DTDFVNEFYAYLRKHFSMMILSDDA_IPKDMTYRRLISMMGFKMNYQVNGY_LQSLQTYVTQQLIRAAEIRASANLA_YESLRPDTRYVLMDGSIIQFPNTYL_YYVGYLQPRTFLLKYNENGTITDAV'
p23
(lp24
g4
(g6
S'\xce,\x9cz\tX\xef?'
tRp25
a(dp26
S'mhc2'
p27
g4
(g6
S'x\x13ps\x8c#\xef?'
tRp28
sS'mhc1'
p29
g4
(g6
S'%F\xc8\x81\x86\x8c\xef?'
tRp30
satp31
a(S'DTDFVNEFYAYLRKHFSMMILSDDA_GWTAGAAAYYVGYLQPRTFLLKYNE_IPKDMTYRRLISMMGFKMNYQVNGY_LQSLQTYVTQQLIRAAEIRASANLA_YESLRPDTRYVLMDGSIIQFPNTYL'
p32
(lp33
g4
(g6
S'\xca,\x9cz\tX\xef?'
tRp34
a(dp35
S'mhc2'
p36
g4
(g6
S'o\x13ps\x8c#\xef?'
tRp37
sS'mhc1'
p38
g4
(g6
S'%F\xc8\x81\x86\x8c\xef?'
tRp39
satp40
a(S'DTDFVNEFYAYLRKHFSMMILSDDA_GWTAGAAAYYVGYLQPRTFLLKYNE_IICISTKHFYWFFSNYLKRRVVFNG_IPKDMTYRRLISMMGFKMNYQVNGY_LQSLQTYVTQQLIRAAEIRASANLA'
p41
(lp42
g4
(g6
S'\xf4\xfc\xce\xf3HT\xef?'
tRp43
a(dp44
S'mhc2'
p45
g4
(g6
S'\x9cG\xfd\xbeO-\xef?'
tRp46
sS'mhc1'
p47
g4
(g6
S'K\xb2\xa0(B{\xef?'
tRp48
satp49
a.