(lp1
(S'DTDFVNEFYAYLRKHFSMMILSDDA_DYPKCDRAMPNMLRIMASLVLARKH_EKVNINIVGDFKLNEEIAIILASFS_FGLVAEWFLAYILFTRFFYVLGLAA_FRNARNGVLITEGSVKGLQPSVGPK_GLMWLSYFIASFRLFARTRSMWSFN_GVYDYLVSTQEFRYMNSQGLLPPKN_GWTAGAAAYYVGYLQPRTFLLKYNE_IICISTKHFYWFFSNYLKRRVVFNG_IPKDMTYRRLISMMGFKMNYQVNGY_LDISASIVAGGIVAIVVTCLAYYFM_LQSLQTYVTQQLIRAAEIRASANLA_PLIQPIGALDISASIVAGGIVAIVV_QPTESIVRFPNITNLCPFGEVFNAT_SIKNFKSVLYYQNNVFMSEAKCWTE_TDTPKGPKVKYLYFIKGLNNLNRGM_TFCAGSTFISDEVARDLSLQFKRPI_TFYLTNDVSFLAHIQWMVMFTPLVP_TITQMNLKYAISAKNRARTVAGVSI_TITSGWTFGAGAALQIPFAMQMAYR_TSQWLTNIFGTVYEKLKPVLDWLEE_VRKIFVDGVPFVVSTGYHFRELGVV_VVFVLWAHGFELTSMKYFVKIGPER_WESGVKDCVVLHSYFTSDYYQLYST_YESLRPDTRYVLMDGSIIQFPNTYL'
p2
(lp3
cnumpy.core.multiarray
scalar
p4
(cnumpy
dtype
p5
(S'f8'
I0
I1
tRp6
(I3
S'<'
NNNI-1
I-1
I0
tbS'f\xda\xfe:7\x96\xef?'
tRp7
a(dp8
S'mhc2'
p9
g4
(g6
S'\x08\x83\xc2/\x92M\xef?'
tRp10
sS'mhc1'
p11
g4
(g6
S'\xc31;F\xdc\xde\xef?'
tRp12
satp13
a(S'DTDFVNEFYAYLRKHFSMMILSDDA_DYPKCDRAMPNMLRIMASLVLARKH_ESPFVMMSAPPAQYELKHGTFTCAS_FRNARNGVLITEGSVKGLQPSVGPK_GLMWLSYFIASFRLFARTRSMWSFN_GVSFSTFEEAALCTFLLNKEMYLKL_GVYDYLVSTQEFRYMNSQGLLPPKN_GWTAGAAAYYVGYLQPRTFLLKYNE_IICISTKHFYWFFSNYLKRRVVFNG_IPKDMTYRRLISMMGFKMNYQVNGY_LDISASIVAGGIVAIVVTCLAYYFM_LQSLQTYVTQQLIRAAEIRASANLA_PLIQPIGALDISASIVAGGIVAIVV_QPTESIVRFPNITNLCPFGEVFNAT_SIKNFKSVLYYQNNVFMSEAKCWTE_TDTPKGPKVKYLYFIKGLNNLNRGM_TFCAGSTFISDEVARDLSLQFKRPI_TFYLTNDVSFLAHIQWMVMFTPLVP_TITQMNLKYAISAKNRARTVAGVSI_TITSGWTFGAGAALQIPFAMQMAYR_TSQWLTNIFGTVYEKLKPVLDWLEE_VRKIFVDGVPFVVSTGYHFRELGVV_VVFVLWAHGFELTSMKYFVKIGPER_WESGVKDCVVLHSYFTSDYYQLYST_YESLRPDTRYVLMDGSIIQFPNTYL'
p14
(lp15
g4
(g6
S'M\xd5\xfe\xef&\x93\xef?'
tRp16
a(dp17
S'mhc2'
p18
g4
(g6
S'[\xf2n\xf1\x9bM\xef?'
tRp19
sS'mhc1'
p20
g4
(g6
S'?\xb8\x8e\xee\xb1\xd8\xef?'
tRp21
satp22
a(S'ATKYLVQQESPFVMMSAPPAQYELK_DTDFVNEFYAYLRKHFSMMILSDDA_DYPKCDRAMPNMLRIMASLVLARKH_FRNARNGVLITEGSVKGLQPSVGPK_GLMWLSYFIASFRLFARTRSMWSFN_GVSFSTFEEAALCTFLLNKEMYLKL_GVYDYLVSTQEFRYMNSQGLLPPKN_GWTAGAAAYYVGYLQPRTFLLKYNE_IICISTKHFYWFFSNYLKRRVVFNG_IPKDMTYRRLISMMGFKMNYQVNGY_LDISASIVAGGIVAIVVTCLAYYFM_LQSLQTYVTQQLIRAAEIRASANLA_PLIQPIGALDISASIVAGGIVAIVV_QPTESIVRFPNITNLCPFGEVFNAT_SIKNFKSVLYYQNNVFMSEAKCWTE_TDTPKGPKVKYLYFIKGLNNLNRGM_TFCAGSTFISDEVARDLSLQFKRPI_TFYLTNDVSFLAHIQWMVMFTPLVP_TITQMNLKYAISAKNRARTVAGVSI_TITSGWTFGAGAALQIPFAMQMAYR_TSQWLTNIFGTVYEKLKPVLDWLEE_VRKIFVDGVPFVVSTGYHFRELGVV_VVFVLWAHGFELTSMKYFVKIGPER_WESGVKDCVVLHSYFTSDYYQLYST_YESLRPDTRYVLMDGSIIQFPNTYL'
p23
(lp24
g4
(g6
S'\xbb\x97\x05\xe5\x15\x93\xef?'
tRp25
a(dp26
g18
g4
(g6
S'[\xf2n\xf1\x9bM\xef?'
tRp27
sg20
g4
(g6
S'\x1b=\x9c\xd8\x8f\xd8\xef?'
tRp28
satp29
a(S'DTDFVNEFYAYLRKHFSMMILSDDA_DYPKCDRAMPNMLRIMASLVLARKH_FRNARNGVLITEGSVKGLQPSVGPK_GLMWLSYFIASFRLFARTRSMWSFN_GVSFSTFEEAALCTFLLNKEMYLKL_GVYDYLVSTQEFRYMNSQGLLPPKN_GWTAGAAAYYVGYLQPRTFLLKYNE_IICISTKHFYWFFSNYLKRRVVFNG_IPKDMTYRRLISMMGFKMNYQVNGY_LDISASIVAGGIVAIVVTCLAYYFM_LQSLQTYVTQQLIRAAEIRASANLA_NRATLQAIASEFSSLPSYAAFATAQ_PLIQPIGALDISASIVAGGIVAIVV_QPTESIVRFPNITNLCPFGEVFNAT_SIKNFKSVLYYQNNVFMSEAKCWTE_TDTPKGPKVKYLYFIKGLNNLNRGM_TFCAGSTFISDEVARDLSLQFKRPI_TFYLTNDVSFLAHIQWMVMFTPLVP_TITQMNLKYAISAKNRARTVAGVSI_TITSGWTFGAGAALQIPFAMQMAYR_TSQWLTNIFGTVYEKLKPVLDWLEE_VRKIFVDGVPFVVSTGYHFRELGVV_VVFVLWAHGFELTSMKYFVKIGPER_WESGVKDCVVLHSYFTSDYYQLYST_YESLRPDTRYVLMDGSIIQFPNTYL'
p30
(lp31
g4
(g6
S'>\xb6\xea\xb8\x0b\x93\xef?'
tRp32
a(dp33
S'mhc2'
p34
g4
(g6
S'Sb\x92\xac\x83M\xef?'
tRp35
sS'mhc1'
p36
g4
(g6
S'(\nC\xc5\x93\xd8\xef?'
tRp37
satp38
a(S'ASEFSSLPSYAAFATAQEAYEQAVA_DTDFVNEFYAYLRKHFSMMILSDDA_DYPKCDRAMPNMLRIMASLVLARKH_FRNARNGVLITEGSVKGLQPSVGPK_GLMWLSYFIASFRLFARTRSMWSFN_GVSFSTFEEAALCTFLLNKEMYLKL_GVYDYLVSTQEFRYMNSQGLLPPKN_GWTAGAAAYYVGYLQPRTFLLKYNE_IICISTKHFYWFFSNYLKRRVVFNG_IPKDMTYRRLISMMGFKMNYQVNGY_LDISASIVAGGIVAIVVTCLAYYFM_LQSLQTYVTQQLIRAAEIRASANLA_PLIQPIGALDISASIVAGGIVAIVV_QPTESIVRFPNITNLCPFGEVFNAT_SIKNFKSVLYYQNNVFMSEAKCWTE_TDTPKGPKVKYLYFIKGLNNLNRGM_TFCAGSTFISDEVARDLSLQFKRPI_TFYLTNDVSFLAHIQWMVMFTPLVP_TITQMNLKYAISAKNRARTVAGVSI_TITSGWTFGAGAALQIPFAMQMAYR_TSQWLTNIFGTVYEKLKPVLDWLEE_VRKIFVDGVPFVVSTGYHFRELGVV_VVFVLWAHGFELTSMKYFVKIGPER_WESGVKDCVVLHSYFTSDYYQLYST_YESLRPDTRYVLMDGSIIQFPNTYL'
p39
(lp40
g4
(g6
S'<\xb6\xea\xb8\x0b\x93\xef?'
tRp41
a(dp42
g34
g4
(g6
S'Pb\x92\xac\x83M\xef?'
tRp43
sg36
g4
(g6
S'(\nC\xc5\x93\xd8\xef?'
tRp44
satp45
a.