(lp1
(S'ASEFSSLPSYAAFATAQEAYEQAVA_DTDFVNEFYAYLRKHFSMMILSDDA_DYPKCDRAMPNMLRIMASLVLARKH_EKVNINIVGDFKLNEEIAIILASFS_FGLVAEWFLAYILFTRFFYVLGLAA_FKIYSKHTPINLVRDLPQGFSALEP_FRNARNGVLITEGSVKGLQPSVGPK_GAGAALQIPFAMQMAYRFNGIGVTQ_GLMWLSYFIASFRLFARTRSMWSFN_GVSFSTFEEAALCTFLLNKEMYLKL_GVYDYLVSTQEFRYMNSQGLLPPKN_GWTAGAAAYYVGYLQPRTFLLKYNE_IICISTKHFYWFFSNYLKRRVVFNG_IPKDMTYRRLISMMGFKMNYQVNGY_LDISASIVAGGIVAIVVTCLAYYFM_LQSLQTYVTQQLIRAAEIRASANLA_NNLVVMAYITGGVVQLTSQWLTNIF_PLIQPIGALDISASIVAGGIVAIVV_QPTESIVRFPNITNLCPFGEVFNAT_SIKNFKSVLYYQNNVFMSEAKCWTE_SQSIIAYTMSLGAENSVAYSNNSIA_TDTPKGPKVKYLYFIKGLNNLNRGM_TFCAGSTFISDEVARDLSLQFKRPI_TFYLTNDVSFLAHIQWMVMFTPLVP_TITQMNLKYAISAKNRARTVAGVSI_TITSGWTFGAGAALQIPFAMQMAYR_TSQWLTNIFGTVYEKLKPVLDWLEE_VRKIFVDGVPFVVSTGYHFRELGVV_VVFVLWAHGFELTSMKYFVKIGPER_WESGVKDCVVLHSYFTSDYYQLYST_YESLRPDTRYVLMDGSIIQFPNTYL'
p2
(lp3
cnumpy.core.multiarray
scalar
p4
(cnumpy
dtype
p5
(S'f8'
I0
I1
tRp6
(I3
S'<'
NNNI-1
I-1
I0
tbS'\xcc\x93m\xea\xc4S\xef?'
tRp7
a(dp8
S'mhc2'
p9
g4
(g6
S'\xa1\xca\x96X\xfb\xed\xee?'
tRp10
sS'mhc1'
p11
g4
(g6
S'\xf8\\D|\x8e\xb9\xef?'
tRp12
satp13
a(S'ASEFSSLPSYAAFATAQEAYEQAVA_DTDFVNEFYAYLRKHFSMMILSDDA_DYPKCDRAMPNMLRIMASLVLARKH_EKVNINIVGDFKLNEEIAIILASFS_FGLVAEWFLAYILFTRFFYVLGLAA_FKIYSKHTPINLVRDLPQGFSALEP_FRNARNGVLITEGSVKGLQPSVGPK_GAGAALQIPFAMQMAYRFNGIGVTQ_GLMWLSYFIASFRLFARTRSMWSFN_GVSFSTFEEAALCTFLLNKEMYLKL_GVYDYLVSTQEFRYMNSQGLLPPKN_GWTAGAAAYYVGYLQPRTFLLKYNE_IICISTKHFYWFFSNYLKRRVVFNG_IPKDMTYRRLISMMGFKMNYQVNGY_LDISASIVAGGIVAIVVTCLAYYFM_LNRVCTNYMPYFFTLLLQLCTFTRS_LQSLQTYVTQQLIRAAEIRASANLA_NNLVVMAYITGGVVQLTSQWLTNIF_PLIQPIGALDISASIVAGGIVAIVV_QPTESIVRFPNITNLCPFGEVFNAT_SIKNFKSVLYYQNNVFMSEAKCWTE_TDTPKGPKVKYLYFIKGLNNLNRGM_TFCAGSTFISDEVARDLSLQFKRPI_TFYLTNDVSFLAHIQWMVMFTPLVP_TITQMNLKYAISAKNRARTVAGVSI_TITSGWTFGAGAALQIPFAMQMAYR_TSQWLTNIFGTVYEKLKPVLDWLEE_VRKIFVDGVPFVVSTGYHFRELGVV_VVFVLWAHGFELTSMKYFVKIGPER_WESGVKDCVVLHSYFTSDYYQLYST_YESLRPDTRYVLMDGSIIQFPNTYL'
p14
(lp15
g4
(g6
S'\xf9G\xb7\xd9yS\xef?'
tRp16
a(dp17
S'mhc2'
p18
g4
(g6
S'\r\t-\xc6_\xea\xee?'
tRp19
sS'mhc1'
p20
g4
(g6
S'\xe5\x86A\xed\x93\xbc\xef?'
tRp21
satp22
a(S'ASEFSSLPSYAAFATAQEAYEQAVA_DTDFVNEFYAYLRKHFSMMILSDDA_DYPKCDRAMPNMLRIMASLVLARKH_EKVNINIVGDFKLNEEIAIILASFS_FGLVAEWFLAYILFTRFFYVLGLAA_FKIYSKHTPINLVRDLPQGFSALEP_FRNARNGVLITEGSVKGLQPSVGPK_GAGAALQIPFAMQMAYRFNGIGVTQ_GLMWLSYFIASFRLFARTRSMWSFN_GVSFSTFEEAALCTFLLNKEMYLKL_GVYDYLVSTQEFRYMNSQGLLPPKN_GWTAGAAAYYVGYLQPRTFLLKYNE_IICISTKHFYWFFSNYLKRRVVFNG_IPKDMTYRRLISMMGFKMNYQVNGY_LDISASIVAGGIVAIVVTCLAYYFM_LQSLQTYVTQQLIRAAEIRASANLA_NNLVVMAYITGGVVQLTSQWLTNIF_PLIQPIGALDISASIVAGGIVAIVV_QPTESIVRFPNITNLCPFGEVFNAT_SIKNFKSVLYYQNNVFMSEAKCWTE_TDTPKGPKVKYLYFIKGLNNLNRGM_TFCAGSTFISDEVARDLSLQFKRPI_TFYLTNDVSFLAHIQWMVMFTPLVP_TITQMNLKYAISAKNRARTVAGVSI_TITSGWTFGAGAALQIPFAMQMAYR_TSQWLTNIFGTVYEKLKPVLDWLEE_TTNIVTRCLNRVCTNYMPYFFTLLL_VRKIFVDGVPFVVSTGYHFRELGVV_VVFVLWAHGFELTSMKYFVKIGPER_WESGVKDCVVLHSYFTSDYYQLYST_YESLRPDTRYVLMDGSIIQFPNTYL'
p23
(lp24
g4
(g6
S'+\xa04\rwS\xef?'
tRp25
a(dp26
S'mhc2'
p27
g4
(g6
S'\x0f\t-\xc6_\xea\xee?'
tRp28
sS'mhc1'
p29
g4
(g6
S'G7<T\x8e\xbc\xef?'
tRp30
satp31
a(S'ASEFSSLPSYAAFATAQEAYEQAVA_DTDFVNEFYAYLRKHFSMMILSDDA_DYPKCDRAMPNMLRIMASLVLARKH_EKVNINIVGDFKLNEEIAIILASFS_FGLVAEWFLAYILFTRFFYVLGLAA_FKIYSKHTPINLVRDLPQGFSALEP_FRNARNGVLITEGSVKGLQPSVGPK_GAGAALQIPFAMQMAYRFNGIGVTQ_GLMWLSYFIASFRLFARTRSMWSFN_GVYDYLVSTQEFRYMNSQGLLPPKN_GWTAGAAAYYVGYLQPRTFLLKYNE_IICISTKHFYWFFSNYLKRRVVFNG_IPKDMTYRRLISMMGFKMNYQVNGY_LDISASIVAGGIVAIVVTCLAYYFM_LNRVCTNYMPYFFTLLLQLCTFTRS_LQSLQTYVTQQLIRAAEIRASANLA_NNLVVMAYITGGVVQLTSQWLTNIF_PLIQPIGALDISASIVAGGIVAIVV_QPTESIVRFPNITNLCPFGEVFNAT_SIKNFKSVLYYQNNVFMSEAKCWTE_SQSIIAYTMSLGAENSVAYSNNSIA_TDTPKGPKVKYLYFIKGLNNLNRGM_TFCAGSTFISDEVARDLSLQFKRPI_TFYLTNDVSFLAHIQWMVMFTPLVP_TITQMNLKYAISAKNRARTVAGVSI_TITSGWTFGAGAALQIPFAMQMAYR_TSQWLTNIFGTVYEKLKPVLDWLEE_VRKIFVDGVPFVVSTGYHFRELGVV_VVFVLWAHGFELTSMKYFVKIGPER_WESGVKDCVVLHSYFTSDYYQLYST_YESLRPDTRYVLMDGSIIQFPNTYL'
p32
(lp33
g4
(g6
S'\xa2V\xeb+YS\xef?'
tRp34
a(dp35
S'mhc2'
p36
g4
(g6
S'\xa1\xca\x96X\xfb\xed\xee?'
tRp37
sS'mhc1'
p38
g4
(g6
S'\xa4\xe2?\xff\xb6\xb8\xef?'
tRp39
satp40
a(S'ASEFSSLPSYAAFATAQEAYEQAVA_DTDFVNEFYAYLRKHFSMMILSDDA_DYPKCDRAMPNMLRIMASLVLARKH_EKVNINIVGDFKLNEEIAIILASFS_FGLVAEWFLAYILFTRFFYVLGLAA_FKIYSKHTPINLVRDLPQGFSALEP_FRNARNGVLITEGSVKGLQPSVGPK_GAGAALQIPFAMQMAYRFNGIGVTQ_GLMWLSYFIASFRLFARTRSMWSFN_GVYDYLVSTQEFRYMNSQGLLPPKN_GWTAGAAAYYVGYLQPRTFLLKYNE_IICISTKHFYWFFSNYLKRRVVFNG_IPKDMTYRRLISMMGFKMNYQVNGY_LDISASIVAGGIVAIVVTCLAYYFM_LQSLQTYVTQQLIRAAEIRASANLA_NNLVVMAYITGGVVQLTSQWLTNIF_PLIQPIGALDISASIVAGGIVAIVV_QPTESIVRFPNITNLCPFGEVFNAT_SIKNFKSVLYYQNNVFMSEAKCWTE_SQSIIAYTMSLGAENSVAYSNNSIA_TDTPKGPKVKYLYFIKGLNNLNRGM_TFCAGSTFISDEVARDLSLQFKRPI_TFYLTNDVSFLAHIQWMVMFTPLVP_TITQMNLKYAISAKNRARTVAGVSI_TITSGWTFGAGAALQIPFAMQMAYR_TSQWLTNIFGTVYEKLKPVLDWLEE_TTNIVTRCLNRVCTNYMPYFFTLLL_VRKIFVDGVPFVVSTGYHFRELGVV_VVFVLWAHGFELTSMKYFVKIGPER_WESGVKDCVVLHSYFTSDYYQLYST_YESLRPDTRYVLMDGSIIQFPNTYL'
p41
(lp42
g4
(g6
S'\xe7\xa9\x96\xf8VS\xef?'
tRp43
a(dp44
S'mhc2'
p45
g4
(g6
S'\xa1\xca\x96X\xfb\xed\xee?'
tRp46
sS'mhc1'
p47
g4
(g6
S'-\x89\x96\x98\xb2\xb8\xef?'
tRp48
satp49
a.