(lp1
(S'ASEFSSLPSYAAFATAQEAYEQAVA_AYVNTFSSTFNVPMEKLKTLVATAE_CFVDDIVKTDGTLMIERFVSLAIDA_CLYRNRDVDTDFVNEFYAYLRKHFS_DFTEERLKLFDRYFKYWDQTYHPNC_DKVEAEVQIDRLITGRLQSLQTYVT_DTDFVNEFYAYLRKHFSMMILSDDA_DYPKCDRAMPNMLRIMASLVLARKH_EKVNINIVGDFKLNEEIAIILASFS_ESPFVMMSAPPAQYELKHGTFTCAS_FGLVAEWFLAYILFTRFFYVLGLAA_FKIYSKHTPINLVRDLPQGFSALEP_FLHFLPRVFSAVGNICYTPSKLIEY_FRNARNGVLITEGSVKGLQPSVGPK_GAGAALQIPFAMQMAYRFNGIGVTQ_GIATVREVLSDRELHLSWEVGKPRP_GLMWLSYFIASFRLFARTRSMWSFN_GVSFSTFEEAALCTFLLNKEMYLKL_GVYDYLVSTQEFRYMNSQGLLPPKN_GWTAGAAAYYVGYLQPRTFLLKYNE_HLDGEVITFDNLKTLLSLREVRTIK_IICISTKHFYWFFSNYLKRRVVFNG_IPKDMTYRRLISMMGFKMNYQVNGY_ISRQRLTKYTMADLVYALRHFDEGN_ITGGVVQLTSQWLTNIFGTVYEKLK_KPRQKRTATKAYNVTQAFGRRGPEQ_LDISASIVAGGIVAIVVTCLAYYFM_LDSKVGGNYNYLYRLFRKSNLKPFE_LNRVCTNYMPYFFTLLLQLCTFTRS_LQSLQTYVTQQLIRAAEIRASANLA_LTDEMIAQYTSALLAGTITSGWTFG_NNLVVMAYITGGVVQLTSQWLTNIF_NRNRFLYIIKLIFLWLLWPVTLACF_PLIQPIGALDISASIVAGGIVAIVV_QPTESIVRFPNITNLCPFGEVFNAT_QSAVKRTIKGTHHWLLLTILTSLLV_RSEDKRAKVTSAMQTMLFTMLRKLD_SIKNFKSVLYYQNNVFMSEAKCWTE_SQSIIAYTMSLGAENSVAYSNNSIA_SSANNCTFEYVSQPFLMDLEGKQGN_TDTPKGPKVKYLYFIKGLNNLNRGM_TFCAGSTFISDEVARDLSLQFKRPI_TFYLTNDVSFLAHIQWMVMFTPLVP_TITQMNLKYAISAKNRARTVAGVSI_TITSGWTFGAGAALQIPFAMQMAYR_TLATHGLAAVNSVPWDTIANYAKPF_TSQWLTNIFGTVYEKLKPVLDWLEE_VRKIFVDGVPFVVSTGYHFRELGVV_VTSAMQTMLFTMLRKLDNDALNNII_VVFVLWAHGFELTSMKYFVKIGPER_WESGVKDCVVLHSYFTSDYYQLYST_YESLRPDTRYVLMDGSIIQFPNTYL'
p2
(lp3
cnumpy.core.multiarray
scalar
p4
(cnumpy
dtype
p5
(S'f8'
I0
I1
tRp6
(I3
S'<'
NNNI-1
I-1
I0
tbS'\xd7$he$G\xef?'
tRp7
a(dp8
S'mhc2'
p9
g4
(g6
S'\x8d~\x15\xaa\x08\xbe\xee?'
tRp10
sS'mhc1'
p11
g4
(g6
S'!\xcb\xba @\xd0\xef?'
tRp12
satp13
a(S'ASEFSSLPSYAAFATAQEAYEQAVA_AYVNTFSSTFNVPMEKLKTLVATAE_CFVDDIVKTDGTLMIERFVSLAIDA_CIMSDRDLYDKLQFTSLEIPRRNVA_CLYRNRDVDTDFVNEFYAYLRKHFS_DFTEERLKLFDRYFKYWDQTYHPNC_DKVEAEVQIDRLITGRLQSLQTYVT_DTDFVNEFYAYLRKHFSMMILSDDA_DYPKCDRAMPNMLRIMASLVLARKH_EKVNINIVGDFKLNEEIAIILASFS_ESPFVMMSAPPAQYELKHGTFTCAS_FGLVAEWFLAYILFTRFFYVLGLAA_FKIYSKHTPINLVRDLPQGFSALEP_FLHFLPRVFSAVGNICYTPSKLIEY_FRNARNGVLITEGSVKGLQPSVGPK_GAGAALQIPFAMQMAYRFNGIGVTQ_GIATVREVLSDRELHLSWEVGKPRP_GLMWLSYFIASFRLFARTRSMWSFN_GVSFSTFEEAALCTFLLNKEMYLKL_GVYDYLVSTQEFRYMNSQGLLPPKN_GWTAGAAAYYVGYLQPRTFLLKYNE_HLDGEVITFDNLKTLLSLREVRTIK_IICISTKHFYWFFSNYLKRRVVFNG_IPKDMTYRRLISMMGFKMNYQVNGY_ISRQRLTKYTMADLVYALRHFDEGN_ITGGVVQLTSQWLTNIFGTVYEKLK_KPRQKRTATKAYNVTQAFGRRGPEQ_LDISASIVAGGIVAIVVTCLAYYFM_LDSKVGGNYNYLYRLFRKSNLKPFE_LNRVCTNYMPYFFTLLLQLCTFTRS_LQSLQTYVTQQLIRAAEIRASANLA_LTDEMIAQYTSALLAGTITSGWTFG_NNLVVMAYITGGVVQLTSQWLTNIF_NRNRFLYIIKLIFLWLLWPVTLACF_PLIQPIGALDISASIVAGGIVAIVV_QPTESIVRFPNITNLCPFGEVFNAT_QSAVKRTIKGTHHWLLLTILTSLLV_SIKNFKSVLYYQNNVFMSEAKCWTE_SQSIIAYTMSLGAENSVAYSNNSIA_SSANNCTFEYVSQPFLMDLEGKQGN_TDTPKGPKVKYLYFIKGLNNLNRGM_TFCAGSTFISDEVARDLSLQFKRPI_TFYLTNDVSFLAHIQWMVMFTPLVP_TITQMNLKYAISAKNRARTVAGVSI_TITSGWTFGAGAALQIPFAMQMAYR_TLATHGLAAVNSVPWDTIANYAKPF_TSQWLTNIFGTVYEKLKPVLDWLEE_VRKIFVDGVPFVVSTGYHFRELGVV_VTSAMQTMLFTMLRKLDNDALNNII_VVFVLWAHGFELTSMKYFVKIGPER_WESGVKDCVVLHSYFTSDYYQLYST_YESLRPDTRYVLMDGSIIQFPNTYL'
p14
(lp15
g4
(g6
S'~\xfc\xef\x1f\x1dG\xef?'
tRp16
a(dp17
S'mhc2'
p18
g4
(g6
S'\x99\xcd\x90\xb6\xe9\xbd\xee?'
tRp19
sS'mhc1'
p20
g4
(g6
S'c+O\x89P\xd0\xef?'
tRp21
satp22
a(S'ASEFSSLPSYAAFATAQEAYEQAVA_AYVNTFSSTFNVPMEKLKTLVATAE_CFVDDIVKTDGTLMIERFVSLAIDA_CIMSDRDLYDKLQFTSLEIPRRNVA_CLYRNRDVDTDFVNEFYAYLRKHFS_DFTEERLKLFDRYFKYWDQTYHPNC_DKVEAEVQIDRLITGRLQSLQTYVT_DTDFVNEFYAYLRKHFSMMILSDDA_DYPKCDRAMPNMLRIMASLVLARKH_EKVNINIVGDFKLNEEIAIILASFS_ESPFVMMSAPPAQYELKHGTFTCAS_FGLVAEWFLAYILFTRFFYVLGLAA_FKIYSKHTPINLVRDLPQGFSALEP_FLHFLPRVFSAVGNICYTPSKLIEY_FRNARNGVLITEGSVKGLQPSVGPK_GAGAALQIPFAMQMAYRFNGIGVTQ_GIATVREVLSDRELHLSWEVGKPRP_GLMWLSYFIASFRLFARTRSMWSFN_GVSFSTFEEAALCTFLLNKEMYLKL_GVYDYLVSTQEFRYMNSQGLLPPKN_GWTAGAAAYYVGYLQPRTFLLKYNE_HLDGEVITFDNLKTLLSLREVRTIK_IICISTKHFYWFFSNYLKRRVVFNG_IPKDMTYRRLISMMGFKMNYQVNGY_ISRQRLTKYTMADLVYALRHFDEGN_ITGGVVQLTSQWLTNIFGTVYEKLK_KPRQKRTATKAYNVTQAFGRRGPEQ_LDISASIVAGGIVAIVVTCLAYYFM_LDSKVGGNYNYLYRLFRKSNLKPFE_LQSLQTYVTQQLIRAAEIRASANLA_LTDEMIAQYTSALLAGTITSGWTFG_NNLVVMAYITGGVVQLTSQWLTNIF_NRNRFLYIIKLIFLWLLWPVTLACF_PLIQPIGALDISASIVAGGIVAIVV_QPTESIVRFPNITNLCPFGEVFNAT_QSAVKRTIKGTHHWLLLTILTSLLV_SIKNFKSVLYYQNNVFMSEAKCWTE_SQSIIAYTMSLGAENSVAYSNNSIA_SSANNCTFEYVSQPFLMDLEGKQGN_TDTPKGPKVKYLYFIKGLNNLNRGM_TFCAGSTFISDEVARDLSLQFKRPI_TFYLTNDVSFLAHIQWMVMFTPLVP_TITQMNLKYAISAKNRARTVAGVSI_TITSGWTFGAGAALQIPFAMQMAYR_TLATHGLAAVNSVPWDTIANYAKPF_TSQWLTNIFGTVYEKLKPVLDWLEE_TTNIVTRCLNRVCTNYMPYFFTLLL_VRKIFVDGVPFVVSTGYHFRELGVV_VTSAMQTMLFTMLRKLDNDALNNII_VVFVLWAHGFELTSMKYFVKIGPER_WESGVKDCVVLHSYFTSDYYQLYST_YESLRPDTRYVLMDGSIIQFPNTYL'
p23
(lp24
g4
(g6
S'\xe4;\x01\xcd\x19G\xef?'
tRp25
a(dp26
S'mhc2'
p27
g4
(g6
S'\x98\xcd\x90\xb6\xe9\xbd\xee?'
tRp28
sS'mhc1'
p29
g4
(g6
S'/\xaaq\xe3I\xd0\xef?'
tRp30
satp31
a(S'ASEFSSLPSYAAFATAQEAYEQAVA_AYVNTFSSTFNVPMEKLKTLVATAE_CFVDDIVKTDGTLMIERFVSLAIDA_CLYRNRDVDTDFVNEFYAYLRKHFS_DFTEERLKLFDRYFKYWDQTYHPNC_DKVEAEVQIDRLITGRLQSLQTYVT_DTDFVNEFYAYLRKHFSMMILSDDA_DYPKCDRAMPNMLRIMASLVLARKH_EKVNINIVGDFKLNEEIAIILASFS_ESPFVMMSAPPAQYELKHGTFTCAS_FGLVAEWFLAYILFTRFFYVLGLAA_FKIYSKHTPINLVRDLPQGFSALEP_FLHFLPRVFSAVGNICYTPSKLIEY_FRNARNGVLITEGSVKGLQPSVGPK_GAGAALQIPFAMQMAYRFNGIGVTQ_GIATVREVLSDRELHLSWEVGKPRP_GLMWLSYFIASFRLFARTRSMWSFN_GVSFSTFEEAALCTFLLNKEMYLKL_GVYDYLVSTQEFRYMNSQGLLPPKN_GWTAGAAAYYVGYLQPRTFLLKYNE_HLDGEVITFDNLKTLLSLREVRTIK_IICISTKHFYWFFSNYLKRRVVFNG_IPKDMTYRRLISMMGFKMNYQVNGY_ITGGVVQLTSQWLTNIFGTVYEKLK_KPRQKRTATKAYNVTQAFGRRGPEQ_LDISASIVAGGIVAIVVTCLAYYFM_LDSKVGGNYNYLYRLFRKSNLKPFE_LNRVCTNYMPYFFTLLLQLCTFTRS_LQSLQTYVTQQLIRAAEIRASANLA_LTDEMIAQYTSALLAGTITSGWTFG_NNLVVMAYITGGVVQLTSQWLTNIF_NRNRFLYIIKLIFLWLLWPVTLACF_PLIQPIGALDISASIVAGGIVAIVV_QPTESIVRFPNITNLCPFGEVFNAT_QSAVKRTIKGTHHWLLLTILTSLLV_RSEDKRAKVTSAMQTMLFTMLRKLD_SIKNFKSVLYYQNNVFMSEAKCWTE_SQSIIAYTMSLGAENSVAYSNNSIA_SSANNCTFEYVSQPFLMDLEGKQGN_TDTPKGPKVKYLYFIKGLNNLNRGM_TFCAGSTFISDEVARDLSLQFKRPI_TFYLTNDVSFLAHIQWMVMFTPLVP_TITQMNLKYAISAKNRARTVAGVSI_TITSGWTFGAGAALQIPFAMQMAYR_TLATHGLAAVNSVPWDTIANYAKPF_TSQWLTNIFGTVYEKLKPVLDWLEE_VRKIFVDGVPFVVSTGYHFRELGVV_VTSAMQTMLFTMLRKLDNDALNNII_VVFVLWAHGFELTSMKYFVKIGPER_WESGVKDCVVLHSYFTSDYYQLYST_YESLRPDTRYVLMDGSIIQFPNTYL_YTMADLVYALRHFDEGNCDTLKEIL'
p32
(lp33
g4
(g6
S'\xe1\xff\xd7\x08\x13G\xef?'
tRp34
a(dp35
g9
g4
(g6
S'\xa14\xf5\xf0\xe5\xbd\xee?'
tRp36
sg11
g4
(g6
S'!\xcb\xba @\xd0\xef?'
tRp37
satp38
a(S'ASEFSSLPSYAAFATAQEAYEQAVA_AYVNTFSSTFNVPMEKLKTLVATAE_CFVDDIVKTDGTLMIERFVSLAIDA_CLYRNRDVDTDFVNEFYAYLRKHFS_DFTEERLKLFDRYFKYWDQTYHPNC_DKVEAEVQIDRLITGRLQSLQTYVT_DTDFVNEFYAYLRKHFSMMILSDDA_DYPKCDRAMPNMLRIMASLVLARKH_EKVNINIVGDFKLNEEIAIILASFS_ESPFVMMSAPPAQYELKHGTFTCAS_FGLVAEWFLAYILFTRFFYVLGLAA_FKIYSKHTPINLVRDLPQGFSALEP_FLHFLPRVFSAVGNICYTPSKLIEY_FRNARNGVLITEGSVKGLQPSVGPK_GAGAALQIPFAMQMAYRFNGIGVTQ_GIATVREVLSDRELHLSWEVGKPRP_GLMWLSYFIASFRLFARTRSMWSFN_GVSFSTFEEAALCTFLLNKEMYLKL_GVYDYLVSTQEFRYMNSQGLLPPKN_GWTAGAAAYYVGYLQPRTFLLKYNE_HLDGEVITFDNLKTLLSLREVRTIK_IICISTKHFYWFFSNYLKRRVVFNG_IPKDMTYRRLISMMGFKMNYQVNGY_ITGGVVQLTSQWLTNIFGTVYEKLK_KPRQKRTATKAYNVTQAFGRRGPEQ_LDISASIVAGGIVAIVVTCLAYYFM_LDSKVGGNYNYLYRLFRKSNLKPFE_LNRVCTNYMPYFFTLLLQLCTFTRS_LQSLQTYVTQQLIRAAEIRASANLA_LTDEMIAQYTSALLAGTITSGWTFG_NNLVVMAYITGGVVQLTSQWLTNIF_NRNRFLYIIKLIFLWLLWPVTLACF_PLIQPIGALDISASIVAGGIVAIVV_QPTESIVRFPNITNLCPFGEVFNAT_QSAVKRTIKGTHHWLLLTILTSLLV_RSEDKRAKVTSAMQTMLFTMLRKLD_SIKNFKSVLYYQNNVFMSEAKCWTE_SQSIIAYTMSLGAENSVAYSNNSIA_SSANNCTFEYVSQPFLMDLEGKQGN_TDTPKGPKVKYLYFIKGLNNLNRGM_TFCAGSTFISDEVARDLSLQFKRPI_TFYLTNDVSFLAHIQWMVMFTPLVP_TITQMNLKYAISAKNRARTVAGVSI_TITSGWTFGAGAALQIPFAMQMAYR_TLATHGLAAVNSVPWDTIANYAKPF_TSQWLTNIFGTVYEKLKPVLDWLEE_VLLFLAFVVFLLVTLAILTALRLCA_VRKIFVDGVPFVVSTGYHFRELGVV_VTSAMQTMLFTMLRKLDNDALNNII_VVFVLWAHGFELTSMKYFVKIGPER_WESGVKDCVVLHSYFTSDYYQLYST_YESLRPDTRYVLMDGSIIQFPNTYL'
p39
(lp40
g4
(g6
S'\xb9 P\x1b\x12G\xef?'
tRp41
a(dp42
S'mhc2'
p43
g4
(g6
S'\xa14\xf5\xf0\xe5\xbd\xee?'
tRp44
sS'mhc1'
p45
g4
(g6
S'\xd1\x0c\xabE>\xd0\xef?'
tRp46
satp47
a.