(lp1
(S'IPKDMTYRRLISMMGFKMNYQVNGY_TSQWLTNIFGTVYEKLKPVLDWLEE_YYVGYLQPRTFLLKYNENGTITDAV'
p2
(lp3
cnumpy.core.multiarray
scalar
p4
(cnumpy
dtype
p5
(S'f8'
I0
I1
tRp6
(I3
S'<'
NNNI-1
I-1
I0
tbS'Z\xe6\x89q\xf7\x81\xef?'
tRp7
a(dp8
S'mhc2'
p9
g4
(g6
S'\xc7\x9c\x8b\xddC)\xef?'
tRp10
sS'mhc1'
p11
g4
(g6
S'\xed/\x88\x05\xab\xda\xef?'
tRp12
satp13
a(S'GWTAGAAAYYVGYLQPRTFLLKYNE_IPKDMTYRRLISMMGFKMNYQVNGY_TSQWLTNIFGTVYEKLKPVLDWLEE'
p14
(lp15
g4
(g6
S'X\xe6\x89q\xf7\x81\xef?'
tRp16
a(dp17
g9
g4
(g6
S'\xc4\x9c\x8b\xddC)\xef?'
tRp18
sg11
g4
(g6
S'\xed/\x88\x05\xab\xda\xef?'
tRp19
satp20
a(S'DTDFVNEFYAYLRKHFSMMILSDDA_IPKDMTYRRLISMMGFKMNYQVNGY_TQQLIRAAEIRASANLAATKMSECV'
p21
(lp22
g4
(g6
S'\xf6V\x8d_~v\xef?'
tRp23
a(dp24
S'mhc2'
p25
g4
(g6
S'\xf8{\xbb\xed\x05\x9c\xef?'
tRp26
sS'mhc1'
p27
g4
(g6
S'\xf41_\xd1\xf6P\xef?'
tRp28
satp29
a(S'DTDFVNEFYAYLRKHFSMMILSDDA_IPKDMTYRRLISMMGFKMNYQVNGY_LQSLQTYVTQQLIRAAEIRASANLA'
p30
(lp31
g4
(g6
S'\xf2V\x8d_~v\xef?'
tRp32
a(dp33
S'mhc2'
p34
g4
(g6
S'\xe3{\xbb\xed\x05\x9c\xef?'
tRp35
sS'mhc1'
p36
g4
(g6
S'\x002_\xd1\xf6P\xef?'
tRp37
satp38
a(S'DTDFVNEFYAYLRKHFSMMILSDDA_IPKDMTYRRLISMMGFKMNYQVNGY_YYVGYLQPRTFLLKYNENGTITDAV'
p39
(lp40
g4
(g6
S'\xc0n\xe81\xb2u\xef?'
tRp41
a(dp42
S'mhc2'
p43
g4
(g6
S'\x18\x0b\xd4\xb0\xac\xfe\xee?'
tRp44
sS'mhc1'
p45
g4
(g6
S'g\xd2\xfc\xb2\xb7\xec\xef?'
tRp46
satp47
a.