(lp1
(S'DTDFVNEFYAYLRKHFSMMILSDDA_DYPKCDRAMPNMLRIMASLVLARKH_EKVNINIVGDFKLNEEIAIILASFS_GLMWLSYFIASFRLFARTRSMWSFN_GVYDYLVSTQEFRYMNSQGLLPPKN_GWTAGAAAYYVGYLQPRTFLLKYNE_IICISTKHFYWFFSNYLKRRVVFNG_IPKDMTYRRLISMMGFKMNYQVNGY_LQSLQTYVTQQLIRAAEIRASANLA_QPTESIVRFPNITNLCPFGEVFNAT_TITSGWTFGAGAALQIPFAMQMAYR_TSQWLTNIFGTVYEKLKPVLDWLEE_VRKIFVDGVPFVVSTGYHFRELGVV_YESLRPDTRYVLMDGSIIQFPNTYL'
p2
(lp3
cnumpy.core.multiarray
scalar
p4
(cnumpy
dtype
p5
(S'f8'
I0
I1
tRp6
(I3
S'<'
NNNI-1
I-1
I0
tbS'\\\xed\xd5g\xa60\xef?'
tRp7
a(dp8
S'mhc2'
p9
g4
(g6
S'\x13\x9e\x0b\xdf\x01\xe6\xee?'
tRp10
sS'mhc1'
p11
g4
(g6
S'\xa4<\xa0\xf0J{\xef?'
tRp12
satp13
a(S'DTDFVNEFYAYLRKHFSMMILSDDA_GLMWLSYFIASFRLFARTRSMWSFN_GVYDYLVSTQEFRYMNSQGLLPPKN_GWTAGAAAYYVGYLQPRTFLLKYNE_IICISTKHFYWFFSNYLKRRVVFNG_IPKDMTYRRLISMMGFKMNYQVNGY_LQSLQTYVTQQLIRAAEIRASANLA_QPTESIVRFPNITNLCPFGEVFNAT_SIKNFKSVLYYQNNVFMSEAKCWTE_TFYLTNDVSFLAHIQWMVMFTPLVP_TITSGWTFGAGAALQIPFAMQMAYR_TSQWLTNIFGTVYEKLKPVLDWLEE_VRKIFVDGVPFVVSTGYHFRELGVV_YESLRPDTRYVLMDGSIIQFPNTYL'
p14
(lp15
g4
(g6
S'\xa1\xe8\xf2\xad\x180\xef?'
tRp16
a(dp17
S'mhc2'
p18
g4
(g6
S'5\xa9\x15n\xfc\x0e\xef?'
tRp19
sS'mhc1'
p20
g4
(g6
S'\r(\xd0\xed4Q\xef?'
tRp21
satp22
a(S'DTDFVNEFYAYLRKHFSMMILSDDA_EKVNINIVGDFKLNEEIAIILASFS_GLMWLSYFIASFRLFARTRSMWSFN_GVYDYLVSTQEFRYMNSQGLLPPKN_GWTAGAAAYYVGYLQPRTFLLKYNE_IICISTKHFYWFFSNYLKRRVVFNG_IPKDMTYRRLISMMGFKMNYQVNGY_LQSLQTYVTQQLIRAAEIRASANLA_QPTESIVRFPNITNLCPFGEVFNAT_TITSGWTFGAGAALQIPFAMQMAYR_TSQWLTNIFGTVYEKLKPVLDWLEE_VRKIFVDGVPFVVSTGYHFRELGVV_WESGVKDCVVLHSYFTSDYYQLYST_YESLRPDTRYVLMDGSIIQFPNTYL'
p23
(lp24
g4
(g6
S'\x9a"Ve\xe3/\xef?'
tRp25
a(dp26
S'mhc2'
p27
g4
(g6
S'7\xc3M\xbc\xca\n\xef?'
tRp28
sS'mhc1'
p29
g4
(g6
S'\xfd\x81^\x0e\xfcT\xef?'
tRp30
satp31
a(S'DTDFVNEFYAYLRKHFSMMILSDDA_EKVNINIVGDFKLNEEIAIILASFS_GLMWLSYFIASFRLFARTRSMWSFN_GVYDYLVSTQEFRYMNSQGLLPPKN_GWTAGAAAYYVGYLQPRTFLLKYNE_IICISTKHFYWFFSNYLKRRVVFNG_IPKDMTYRRLISMMGFKMNYQVNGY_LQSLQTYVTQQLIRAAEIRASANLA_QPTESIVRFPNITNLCPFGEVFNAT_TDTPKGPKVKYLYFIKGLNNLNRGM_TITSGWTFGAGAALQIPFAMQMAYR_TSQWLTNIFGTVYEKLKPVLDWLEE_VRKIFVDGVPFVVSTGYHFRELGVV_YESLRPDTRYVLMDGSIIQFPNTYL'
p32
(lp33
g4
(g6
S'\xb3\xd4"u\x9b/\xef?'
tRp34
a(dp35
S'mhc2'
p36
g4
(g6
S'\x8fx\xc7\x99\x94\x07\xef?'
tRp37
sS'mhc1'
p38
g4
(g6
S'\xd70~P\xa2W\xef?'
tRp39
satp40
a(S'DTDFVNEFYAYLRKHFSMMILSDDA_GLMWLSYFIASFRLFARTRSMWSFN_GVSFSTFEEAALCTFLLNKEMYLKL_GVYDYLVSTQEFRYMNSQGLLPPKN_GWTAGAAAYYVGYLQPRTFLLKYNE_IICISTKHFYWFFSNYLKRRVVFNG_IPKDMTYRRLISMMGFKMNYQVNGY_LQSLQTYVTQQLIRAAEIRASANLA_QPTESIVRFPNITNLCPFGEVFNAT_SIKNFKSVLYYQNNVFMSEAKCWTE_TITSGWTFGAGAALQIPFAMQMAYR_TSQWLTNIFGTVYEKLKPVLDWLEE_VRKIFVDGVPFVVSTGYHFRELGVV_YESLRPDTRYVLMDGSIIQFPNTYL'
p41
(lp42
g4
(g6
S'\xa6\x99\x0fDF/\xef?'
tRp43
a(dp44
S'mhc2'
p45
g4
(g6
S'8\xa9\x15n\xfc\x0e\xef?'
tRp46
sS'mhc1'
p47
g4
(g6
S'\x14\x8a\t\x1a\x90O\xef?'
tRp48
satp49
a.