(lp1
(S'DTDFVNEFYAYLRKHFSMMILSDDA_DYPKCDRAMPNMLRIMASLVLARKH_GLMWLSYFIASFRLFARTRSMWSFN_GVYDYLVSTQEFRYMNSQGLLPPKN_GWTAGAAAYYVGYLQPRTFLLKYNE_IICISTKHFYWFFSNYLKRRVVFNG_IPKDMTYRRLISMMGFKMNYQVNGY_LDISASIVAGGIVAIVVTCLAYYFM_LDSKVGGNYNYLYRLFRKSNLKPFE_LQSLQTYVTQQLIRAAEIRASANLA_QPTESIVRFPNITNLCPFGEVFNAT_SIKNFKSVLYYQNNVFMSEAKCWTE_TDTPKGPKVKYLYFIKGLNNLNRGM_TFCAGSTFISDEVARDLSLQFKRPI_TFYLTNDVSFLAHIQWMVMFTPLVP_TITQMNLKYAISAKNRARTVAGVSI_TITSGWTFGAGAALQIPFAMQMAYR_TSQWLTNIFGTVYEKLKPVLDWLEE_VRKIFVDGVPFVVSTGYHFRELGVV_VVFVLWAHGFELTSMKYFVKIGPER_WESGVKDCVVLHSYFTSDYYQLYST_YESLRPDTRYVLMDGSIIQFPNTYL'
p2
(lp3
cnumpy.core.multiarray
scalar
p4
(cnumpy
dtype
p5
(S'f8'
I0
I1
tRp6
(I3
S'<'
NNNI-1
I-1
I0
tbS'\xa6\x95?\x07e\xb8\xef?'
tRp7
a(dp8
S'mhc2'
p9
g4
(g6
S'\xf7b\xba\x16\x06\x8b\xef?'
tRp10
sS'mhc1'
p11
g4
(g6
S'T\xc8\xc4\xf7\xc3\xe5\xef?'
tRp12
satp13
a(S'DTDFVNEFYAYLRKHFSMMILSDDA_DYPKCDRAMPNMLRIMASLVLARKH_FRNARNGVLITEGSVKGLQPSVGPK_GLMWLSYFIASFRLFARTRSMWSFN_GVYDYLVSTQEFRYMNSQGLLPPKN_GWTAGAAAYYVGYLQPRTFLLKYNE_IICISTKHFYWFFSNYLKRRVVFNG_IPKDMTYRRLISMMGFKMNYQVNGY_LDISASIVAGGIVAIVVTCLAYYFM_LQSLQTYVTQQLIRAAEIRASANLA_QPTESIVRFPNITNLCPFGEVFNAT_SIKNFKSVLYYQNNVFMSEAKCWTE_TDTPKGPKVKYLYFIKGLNNLNRGM_TFCAGSTFISDEVARDLSLQFKRPI_TFYLTNDVSFLAHIQWMVMFTPLVP_TITQMNLKYAISAKNRARTVAGVSI_TITSGWTFGAGAALQIPFAMQMAYR_TSQWLTNIFGTVYEKLKPVLDWLEE_VRKIFVDGVPFVVSTGYHFRELGVV_VVFVLWAHGFELTSMKYFVKIGPER_WESGVKDCVVLHSYFTSDYYQLYST_YESLRPDTRYVLMDGSIIQFPNTYL'
p14
(lp15
g4
(g6
S'\xe2\x8c>j\x0f\xb8\xef?'
tRp16
a(dp17
S'mhc2'
p18
g4
(g6
S'{o\x0c\xb8\xe0\x89\xef?'
tRp19
sS'mhc1'
p20
g4
(g6
S'H\xaap\x1c>\xe6\xef?'
tRp21
satp22
a(S'DTDFVNEFYAYLRKHFSMMILSDDA_DYPKCDRAMPNMLRIMASLVLARKH_GLMWLSYFIASFRLFARTRSMWSFN_GVYDYLVSTQEFRYMNSQGLLPPKN_GWTAGAAAYYVGYLQPRTFLLKYNE_ICSTMTNRQFHQKLLKSIAATRGAT_IICISTKHFYWFFSNYLKRRVVFNG_IKWDLLKYDFTEERLKLFDRYFKYW_IPKDMTYRRLISMMGFKMNYQVNGY_LDISASIVAGGIVAIVVTCLAYYFM_LQSLQTYVTQQLIRAAEIRASANLA_QPTESIVRFPNITNLCPFGEVFNAT_SIKNFKSVLYYQNNVFMSEAKCWTE_TDTPKGPKVKYLYFIKGLNNLNRGM_TFCAGSTFISDEVARDLSLQFKRPI_TFYLTNDVSFLAHIQWMVMFTPLVP_TITSGWTFGAGAALQIPFAMQMAYR_TSQWLTNIFGTVYEKLKPVLDWLEE_VRKIFVDGVPFVVSTGYHFRELGVV_VVFVLWAHGFELTSMKYFVKIGPER_WESGVKDCVVLHSYFTSDYYQLYST_YESLRPDTRYVLMDGSIIQFPNTYL'
p23
(lp24
g4
(g6
S'r\xe0\xa6\x84\x0b\xb8\xef?'
tRp25
a(dp26
S'mhc2'
p27
g4
(g6
S'k\xa2^\xe3\xe8\x84\xef?'
tRp28
sS'mhc1'
p29
g4
(g6
S'x\x1e\xef%.\xeb\xef?'
tRp30
satp31
a(S'DFTEERLKLFDRYFKYWDQTYHPNC_DTDFVNEFYAYLRKHFSMMILSDDA_DYPKCDRAMPNMLRIMASLVLARKH_GLMWLSYFIASFRLFARTRSMWSFN_GVYDYLVSTQEFRYMNSQGLLPPKN_GWTAGAAAYYVGYLQPRTFLLKYNE_ICSTMTNRQFHQKLLKSIAATRGAT_IICISTKHFYWFFSNYLKRRVVFNG_IPKDMTYRRLISMMGFKMNYQVNGY_LDISASIVAGGIVAIVVTCLAYYFM_LQSLQTYVTQQLIRAAEIRASANLA_QPTESIVRFPNITNLCPFGEVFNAT_SIKNFKSVLYYQNNVFMSEAKCWTE_TDTPKGPKVKYLYFIKGLNNLNRGM_TFCAGSTFISDEVARDLSLQFKRPI_TFYLTNDVSFLAHIQWMVMFTPLVP_TITSGWTFGAGAALQIPFAMQMAYR_TSQWLTNIFGTVYEKLKPVLDWLEE_VRKIFVDGVPFVVSTGYHFRELGVV_VVFVLWAHGFELTSMKYFVKIGPER_WESGVKDCVVLHSYFTSDYYQLYST_YESLRPDTRYVLMDGSIIQFPNTYL'
p32
(lp33
g4
(g6
S'q\xe0\xa6\x84\x0b\xb8\xef?'
tRp34
a(dp35
g27
g4
(g6
S'k\xa2^\xe3\xe8\x84\xef?'
tRp36
sg29
g4
(g6
S'w\x1e\xef%.\xeb\xef?'
tRp37
satp38
a(S'DTDFVNEFYAYLRKHFSMMILSDDA_DYPKCDRAMPNMLRIMASLVLARKH_GLMWLSYFIASFRLFARTRSMWSFN_GVYDYLVSTQEFRYMNSQGLLPPKN_GWTAGAAAYYVGYLQPRTFLLKYNE_ICSTMTNRQFHQKLLKSIAATRGAT_IICISTKHFYWFFSNYLKRRVVFNG_IPKDMTYRRLISMMGFKMNYQVNGY_LDISASIVAGGIVAIVVTCLAYYFM_LQSLQTYVTQQLIRAAEIRASANLA_NRATLQAIASEFSSLPSYAAFATAQ_QPTESIVRFPNITNLCPFGEVFNAT_SIKNFKSVLYYQNNVFMSEAKCWTE_TDTPKGPKVKYLYFIKGLNNLNRGM_TFCAGSTFISDEVARDLSLQFKRPI_TFYLTNDVSFLAHIQWMVMFTPLVP_TITSGWTFGAGAALQIPFAMQMAYR_TSQWLTNIFGTVYEKLKPVLDWLEE_VRKIFVDGVPFVVSTGYHFRELGVV_VVFVLWAHGFELTSMKYFVKIGPER_WESGVKDCVVLHSYFTSDYYQLYST_YESLRPDTRYVLMDGSIIQFPNTYL'
p39
(lp40
g4
(g6
S'\r\\\xc0\x9e\xd8\xb7\xef?'
tRp41
a(dp42
S'mhc2'
p43
g4
(g6
S'w\xb0><t\x88\xef?'
tRp44
sS'mhc1'
p45
g4
(g6
S'\xa3\x07B\x01=\xe7\xef?'
tRp46
satp47
a.