(lp1
(S'DTDFVNEFYAYLRKHFSMMILSDDA_DYPKCDRAMPNMLRIMASLVLARKH_GLMWLSYFIASFRLFARTRSMWSFN_GVYDYLVSTQEFRYMNSQGLLPPKN_GWTAGAAAYYVGYLQPRTFLLKYNE_IICISTKHFYWFFSNYLKRRVVFNG_IPKDMTYRRLISMMGFKMNYQVNGY_LQSLQTYVTQQLIRAAEIRASANLA_QPTESIVRFPNITNLCPFGEVFNAT_SIKNFKSVLYYQNNVFMSEAKCWTE_TDTPKGPKVKYLYFIKGLNNLNRGM_TFCAGSTFISDEVARDLSLQFKRPI_TFYLTNDVSFLAHIQWMVMFTPLVP_TITSGWTFGAGAALQIPFAMQMAYR_TSQWLTNIFGTVYEKLKPVLDWLEE_VRKIFVDGVPFVVSTGYHFRELGVV_VVFVLWAHGFELTSMKYFVKIGPER_YESLRPDTRYVLMDGSIIQFPNTYL'
p2
(lp3
cnumpy.core.multiarray
scalar
p4
(cnumpy
dtype
p5
(S'f8'
I0
I1
tRp6
(I3
S'<'
NNNI-1
I-1
I0
tbS'h\x88\x9bF-\x98\xef?'
tRp7
a(dp8
S'mhc2'
p9
g4
(g6
S'=Hz\x8e\x93i\xef?'
tRp10
sS'mhc1'
p11
g4
(g6
S'\x93\xc8\xbc\xfe\xc6\xc6\xef?'
tRp12
satp13
a(S'DTDFVNEFYAYLRKHFSMMILSDDA_DYPKCDRAMPNMLRIMASLVLARKH_FDNLKTLLSLREVRTIKVFTTVDNI_GLMWLSYFIASFRLFARTRSMWSFN_GVYDYLVSTQEFRYMNSQGLLPPKN_GWTAGAAAYYVGYLQPRTFLLKYNE_IICISTKHFYWFFSNYLKRRVVFNG_IPKDMTYRRLISMMGFKMNYQVNGY_LQSLQTYVTQQLIRAAEIRASANLA_QPTESIVRFPNITNLCPFGEVFNAT_SIKNFKSVLYYQNNVFMSEAKCWTE_TFCAGSTFISDEVARDLSLQFKRPI_TFYLTNDVSFLAHIQWMVMFTPLVP_TITSGWTFGAGAALQIPFAMQMAYR_TSQWLTNIFGTVYEKLKPVLDWLEE_VRKIFVDGVPFVVSTGYHFRELGVV_VVFVLWAHGFELTSMKYFVKIGPER_YESLRPDTRYVLMDGSIIQFPNTYL'
p14
(lp15
g4
(g6
S'X\xa5\xd6H\xce\x97\xef?'
tRp16
a(dp17
S'mhc2'
p18
g4
(g6
S'\xb0\x96\x94\xe6\xaed\xef?'
tRp19
sS'mhc1'
p20
g4
(g6
S'\x00\xb4\x18\xab\xed\xca\xef?'
tRp21
satp22
a(S'DTDFVNEFYAYLRKHFSMMILSDDA_DYPKCDRAMPNMLRIMASLVLARKH_FDNLKTLLSLREVRTIKVFTTVDNI_GLMWLSYFIASFRLFARTRSMWSFN_GVSFSTFEEAALCTFLLNKEMYLKL_GVYDYLVSTQEFRYMNSQGLLPPKN_GWTAGAAAYYVGYLQPRTFLLKYNE_IICISTKHFYWFFSNYLKRRVVFNG_IPKDMTYRRLISMMGFKMNYQVNGY_LQSLQTYVTQQLIRAAEIRASANLA_QPTESIVRFPNITNLCPFGEVFNAT_SIKNFKSVLYYQNNVFMSEAKCWTE_TFCAGSTFISDEVARDLSLQFKRPI_TITSGWTFGAGAALQIPFAMQMAYR_TSQWLTNIFGTVYEKLKPVLDWLEE_VRKIFVDGVPFVVSTGYHFRELGVV_VVFVLWAHGFELTSMKYFVKIGPER_YESLRPDTRYVLMDGSIIQFPNTYL'
p23
(lp24
g4
(g6
S'f\xf8\xa0\xbbl\x96\xef?'
tRp25
a(dp26
S'mhc2'
p27
g4
(g6
S'\xb3\x96\x94\xe6\xaed\xef?'
tRp28
sS'mhc1'
p29
g4
(g6
S'\x18Z\xad\x90*\xc8\xef?'
tRp30
satp31
a(S'DTDFVNEFYAYLRKHFSMMILSDDA_FDNLKTLLSLREVRTIKVFTTVDNI_GLMWLSYFIASFRLFARTRSMWSFN_GVYDYLVSTQEFRYMNSQGLLPPKN_GWTAGAAAYYVGYLQPRTFLLKYNE_IICISTKHFYWFFSNYLKRRVVFNG_IPKDMTYRRLISMMGFKMNYQVNGY_LQSLQTYVTQQLIRAAEIRASANLA_MPNMLRIMASLVLARKHTTCCSLSH_QPTESIVRFPNITNLCPFGEVFNAT_SIKNFKSVLYYQNNVFMSEAKCWTE_TFCAGSTFISDEVARDLSLQFKRPI_TFYLTNDVSFLAHIQWMVMFTPLVP_TITSGWTFGAGAALQIPFAMQMAYR_TSQWLTNIFGTVYEKLKPVLDWLEE_VRKIFVDGVPFVVSTGYHFRELGVV_VVFVLWAHGFELTSMKYFVKIGPER_YESLRPDTRYVLMDGSIIQFPNTYL'
p32
(lp33
g4
(g6
S'P\x8b\xd1(\x9b\x95\xef?'
tRp34
a(dp35
S'mhc2'
p36
g4
(g6
S'\x91\x00\xaa`\x1di\xef?'
tRp37
sS'mhc1'
p38
g4
(g6
S'\x10\x16\xf9\xf0\x18\xc2\xef?'
tRp39
satp40
a(S'AYVNTFSSTFNVPMEKLKTLVATAE_DTDFVNEFYAYLRKHFSMMILSDDA_GLMWLSYFIASFRLFARTRSMWSFN_GVYDYLVSTQEFRYMNSQGLLPPKN_GWTAGAAAYYVGYLQPRTFLLKYNE_IICISTKHFYWFFSNYLKRRVVFNG_IPKDMTYRRLISMMGFKMNYQVNGY_LQSLQTYVTQQLIRAAEIRASANLA_QPTESIVRFPNITNLCPFGEVFNAT_SIKNFKSVLYYQNNVFMSEAKCWTE_TDTPKGPKVKYLYFIKGLNNLNRGM_TFCAGSTFISDEVARDLSLQFKRPI_TFYLTNDVSFLAHIQWMVMFTPLVP_TITSGWTFGAGAALQIPFAMQMAYR_TSQWLTNIFGTVYEKLKPVLDWLEE_VRKIFVDGVPFVVSTGYHFRELGVV_VVFVLWAHGFELTSMKYFVKIGPER_YESLRPDTRYVLMDGSIIQFPNTYL'
p41
(lp42
g4
(g6
S'#\xdc}\xcc\x8d\x95\xef?'
tRp43
a(dp44
S'mhc2'
p45
g4
(g6
S'=Hz\x8e\x93i\xef?'
tRp46
sS'mhc1'
p47
g4
(g6
S'\tp\x81\n\x88\xc1\xef?'
tRp48
satp49
a.