(lp1
(S'DTDFVNEFYAYLRKHFSMMILSDDA_GWTAGAAAYYVGYLQPRTFLLKYNE_IICISTKHFYWFFSNYLKRRVVFNG_IPKDMTYRRLISMMGFKMNYQVNGY_LQSLQTYVTQQLIRAAEIRASANLA_MGYINVFAFPFTIYSLLLCRMNSRN_TSQWLTNIFGTVYEKLKPVLDWLEE_VRKIFVDGVPFVVSTGYHFRELGVV_YESLRPDTRYVLMDGSIIQFPNTYL'
p2
(lp3
cnumpy.core.multiarray
scalar
p4
(cnumpy
dtype
p5
(S'f8'
I0
I1
tRp6
(I3
S'<'
NNNI-1
I-1
I0
tbS'\x8c\x7fb\xb8~\x99\xef?'
tRp7
a(dp8
S'mhc2'
p9
g4
(g6
S'k\xc3"\xcb4w\xef?'
tRp10
sS'mhc1'
p11
g4
(g6
S'\xac;\xa2\xa5\xc8\xbb\xef?'
tRp12
satp13
a(S'DTDFVNEFYAYLRKHFSMMILSDDA_IICISTKHFYWFFSNYLKRRVVFNG_IPKDMTYRRLISMMGFKMNYQVNGY_LQSLQTYVTQQLIRAAEIRASANLA_MGYINVFAFPFTIYSLLLCRMNSRN_TSQWLTNIFGTVYEKLKPVLDWLEE_VRKIFVDGVPFVVSTGYHFRELGVV_YESLRPDTRYVLMDGSIIQFPNTYL_YYVGYLQPRTFLLKYNENGTITDAV'
p14
(lp15
g4
(g6
S'\x8a\x7fb\xb8~\x99\xef?'
tRp16
a(dp17
S'mhc2'
p18
g4
(g6
S'g\xc3"\xcb4w\xef?'
tRp19
sS'mhc1'
p20
g4
(g6
S'\xac;\xa2\xa5\xc8\xbb\xef?'
tRp21
satp22
a(S'DTDFVNEFYAYLRKHFSMMILSDDA_GLMWLSYFIASFRLFARTRSMWSFN_GWTAGAAAYYVGYLQPRTFLLKYNE_IICISTKHFYWFFSNYLKRRVVFNG_IPKDMTYRRLISMMGFKMNYQVNGY_LQSLQTYVTQQLIRAAEIRASANLA_QPTESIVRFPNITNLCPFGEVFNAT_VRKIFVDGVPFVVSTGYHFRELGVV_YESLRPDTRYVLMDGSIIQFPNTYL'
p23
(lp24
g4
(g6
S'g\x8db\xa7\xe5\x93\xef?'
tRp25
a(dp26
S'mhc2'
p27
g4
(g6
S'\xf3\x81\xe0\xdeWT\xef?'
tRp28
sS'mhc1'
p29
g4
(g6
S'\xdb\x98\xe4os\xd3\xef?'
tRp30
satp31
a(S'DTDFVNEFYAYLRKHFSMMILSDDA_GLMWLSYFIASFRLFARTRSMWSFN_GWTAGAAAYYVGYLQPRTFLLKYNE_IICISTKHFYWFFSNYLKRRVVFNG_IPKDMTYRRLISMMGFKMNYQVNGY_LQSLQTYVTQQLIRAAEIRASANLA_TITSGWTFGAGAALQIPFAMQMAYR_VRKIFVDGVPFVVSTGYHFRELGVV_YESLRPDTRYVLMDGSIIQFPNTYL'
p32
(lp33
g4
(g6
S'\x8c]\xa4\x8d%\x93\xef?'
tRp34
a(dp35
S'mhc2'
p36
g4
(g6
S'\xd0\xbb!x2v\xef?'
tRp37
sS'mhc1'
p38
g4
(g6
S'H\xff&\xa3\x18\xb0\xef?'
tRp39
satp40
a(S'DTDFVNEFYAYLRKHFSMMILSDDA_GLMWLSYFIASFRLFARTRSMWSFN_GWTAGAAAYYVGYLQPRTFLLKYNE_IICISTKHFYWFFSNYLKRRVVFNG_IPKDMTYRRLISMMGFKMNYQVNGY_LQSLQTYVTQQLIRAAEIRASANLA_TSQWLTNIFGTVYEKLKPVLDWLEE_VRKIFVDGVPFVVSTGYHFRELGVV_YESLRPDTRYVLMDGSIIQFPNTYL'
p41
(lp42
g4
(g6
S'Zg\x088\x0c\x92\xef?'
tRp43
a(dp44
S'mhc2'
p45
g4
(g6
S'(\x84%\x04\xc8\x80\xef?'
tRp46
sS'mhc1'
p47
g4
(g6
S'\x8bJ\xebkP\xa3\xef?'
tRp48
satp49
a.