(lp1
(S'ASEFSSLPSYAAFATAQEAYEQAVA_AYVNTFSSTFNVPMEKLKTLVATAE_CFVDDIVKTDGTLMIERFVSLAIDA_CLYRNRDVDTDFVNEFYAYLRKHFS_DFTEERLKLFDRYFKYWDQTYHPNC_DTDFVNEFYAYLRKHFSMMILSDDA_DYPKCDRAMPNMLRIMASLVLARKH_EKVNINIVGDFKLNEEIAIILASFS_ESPFVMMSAPPAQYELKHGTFTCAS_FGLVAEWFLAYILFTRFFYVLGLAA_FKIYSKHTPINLVRDLPQGFSALEP_FLHFLPRVFSAVGNICYTPSKLIEY_FRNARNGVLITEGSVKGLQPSVGPK_GAGAALQIPFAMQMAYRFNGIGVTQ_GIATVREVLSDRELHLSWEVGKPRP_GLMWLSYFIASFRLFARTRSMWSFN_GVSFSTFEEAALCTFLLNKEMYLKL_GVYDYLVSTQEFRYMNSQGLLPPKN_GWTAGAAAYYVGYLQPRTFLLKYNE_HLDGEVITFDNLKTLLSLREVRTIK_IICISTKHFYWFFSNYLKRRVVFNG_IPKDMTYRRLISMMGFKMNYQVNGY_ITGGVVQLTSQWLTNIFGTVYEKLK_KPRQKRTATKAYNVTQAFGRRGPEQ_LDISASIVAGGIVAIVVTCLAYYFM_LDSKVGGNYNYLYRLFRKSNLKPFE_LQSLQTYVTQQLIRAAEIRASANLA_LTDEMIAQYTSALLAGTITSGWTFG_NNLVVMAYITGGVVQLTSQWLTNIF_NRNRFLYIIKLIFLWLLWPVTLACF_PLIQPIGALDISASIVAGGIVAIVV_QPTESIVRFPNITNLCPFGEVFNAT_QSAVKRTIKGTHHWLLLTILTSLLV_SIKNFKSVLYYQNNVFMSEAKCWTE_SQSIIAYTMSLGAENSVAYSNNSIA_SSANNCTFEYVSQPFLMDLEGKQGN_TDTPKGPKVKYLYFIKGLNNLNRGM_TFCAGSTFISDEVARDLSLQFKRPI_TFYLTNDVSFLAHIQWMVMFTPLVP_TITQMNLKYAISAKNRARTVAGVSI_TITSGWTFGAGAALQIPFAMQMAYR_TSQWLTNIFGTVYEKLKPVLDWLEE_VRKIFVDGVPFVVSTGYHFRELGVV_VTSAMQTMLFTMLRKLDNDALNNII_VVFVLWAHGFELTSMKYFVKIGPER_WESGVKDCVVLHSYFTSDYYQLYST_YESLRPDTRYVLMDGSIIQFPNTYL'
p2
(lp3
cnumpy.core.multiarray
scalar
p4
(cnumpy
dtype
p5
(S'f8'
I0
I1
tRp6
(I3
S'<'
NNNI-1
I-1
I0
tbS'd\\!eB\x91\xef?'
tRp7
a(dp8
S'mhc2'
p9
g4
(g6
S'\xbf\x84:\x9b\x009\xef?'
tRp10
sS'mhc1'
p11
g4
(g6
S'\x084\x08/\x84\xe9\xef?'
tRp12
satp13
a(S'ASEFSSLPSYAAFATAQEAYEQAVA_AYVNTFSSTFNVPMEKLKTLVATAE_CFVDDIVKTDGTLMIERFVSLAIDA_CLYRNRDVDTDFVNEFYAYLRKHFS_DFTEERLKLFDRYFKYWDQTYHPNC_DTDFVNEFYAYLRKHFSMMILSDDA_DYPKCDRAMPNMLRIMASLVLARKH_EKVNINIVGDFKLNEEIAIILASFS_ESPFVMMSAPPAQYELKHGTFTCAS_FGLVAEWFLAYILFTRFFYVLGLAA_FKIYSKHTPINLVRDLPQGFSALEP_FLHFLPRVFSAVGNICYTPSKLIEY_FRNARNGVLITEGSVKGLQPSVGPK_GAGAALQIPFAMQMAYRFNGIGVTQ_GIATVREVLSDRELHLSWEVGKPRP_GLMWLSYFIASFRLFARTRSMWSFN_GVSFSTFEEAALCTFLLNKEMYLKL_GVYDYLVSTQEFRYMNSQGLLPPKN_GWTAGAAAYYVGYLQPRTFLLKYNE_HLDGEVITFDNLKTLLSLREVRTIK_IICISTKHFYWFFSNYLKRRVVFNG_IPKDMTYRRLISMMGFKMNYQVNGY_KPRQKRTATKAYNVTQAFGRRGPEQ_LDISASIVAGGIVAIVVTCLAYYFM_LDSKVGGNYNYLYRLFRKSNLKPFE_LQSLQTYVTQQLIRAAEIRASANLA_LTDEMIAQYTSALLAGTITSGWTFG_NNLVVMAYITGGVVQLTSQWLTNIF_NRNRFLYIIKLIFLWLLWPVTLACF_PLIQPIGALDISASIVAGGIVAIVV_QPTESIVRFPNITNLCPFGEVFNAT_QSAVKRTIKGTHHWLLLTILTSLLV_RSEDKRAKVTSAMQTMLFTMLRKLD_SIKNFKSVLYYQNNVFMSEAKCWTE_SQSIIAYTMSLGAENSVAYSNNSIA_SSANNCTFEYVSQPFLMDLEGKQGN_TDTPKGPKVKYLYFIKGLNNLNRGM_TFCAGSTFISDEVARDLSLQFKRPI_TFYLTNDVSFLAHIQWMVMFTPLVP_TITQMNLKYAISAKNRARTVAGVSI_TITSGWTFGAGAALQIPFAMQMAYR_TSQWLTNIFGTVYEKLKPVLDWLEE_VRKIFVDGVPFVVSTGYHFRELGVV_VTSAMQTMLFTMLRKLDNDALNNII_VVFVLWAHGFELTSMKYFVKIGPER_WESGVKDCVVLHSYFTSDYYQLYST_YESLRPDTRYVLMDGSIIQFPNTYL'
p14
(lp15
g4
(g6
S'\xa6&\xa1\x0e\x15\x91\xef?'
tRp16
a(dp17
S'mhc2'
p18
g4
(g6
S'E\x19:\xee\xa58\xef?'
tRp19
sS'mhc1'
p20
g4
(g6
S'\x084\x08/\x84\xe9\xef?'
tRp21
satp22
a(S'ASEFSSLPSYAAFATAQEAYEQAVA_AYVNTFSSTFNVPMEKLKTLVATAE_CFVDDIVKTDGTLMIERFVSLAIDA_CIMSDRDLYDKLQFTSLEIPRRNVA_CLYRNRDVDTDFVNEFYAYLRKHFS_DFTEERLKLFDRYFKYWDQTYHPNC_DTDFVNEFYAYLRKHFSMMILSDDA_DYPKCDRAMPNMLRIMASLVLARKH_EKVNINIVGDFKLNEEIAIILASFS_ESPFVMMSAPPAQYELKHGTFTCAS_FGLVAEWFLAYILFTRFFYVLGLAA_FKIYSKHTPINLVRDLPQGFSALEP_FLHFLPRVFSAVGNICYTPSKLIEY_FRNARNGVLITEGSVKGLQPSVGPK_GAGAALQIPFAMQMAYRFNGIGVTQ_GIATVREVLSDRELHLSWEVGKPRP_GLMWLSYFIASFRLFARTRSMWSFN_GVSFSTFEEAALCTFLLNKEMYLKL_GVYDYLVSTQEFRYMNSQGLLPPKN_GWTAGAAAYYVGYLQPRTFLLKYNE_HLDGEVITFDNLKTLLSLREVRTIK_IICISTKHFYWFFSNYLKRRVVFNG_IPKDMTYRRLISMMGFKMNYQVNGY_KPRQKRTATKAYNVTQAFGRRGPEQ_LDISASIVAGGIVAIVVTCLAYYFM_LDSKVGGNYNYLYRLFRKSNLKPFE_LQSLQTYVTQQLIRAAEIRASANLA_LTDEMIAQYTSALLAGTITSGWTFG_NNLVVMAYITGGVVQLTSQWLTNIF_NRNRFLYIIKLIFLWLLWPVTLACF_PLIQPIGALDISASIVAGGIVAIVV_QPTESIVRFPNITNLCPFGEVFNAT_QSAVKRTIKGTHHWLLLTILTSLLV_SIKNFKSVLYYQNNVFMSEAKCWTE_SQSIIAYTMSLGAENSVAYSNNSIA_SSANNCTFEYVSQPFLMDLEGKQGN_TDTPKGPKVKYLYFIKGLNNLNRGM_TFCAGSTFISDEVARDLSLQFKRPI_TFYLTNDVSFLAHIQWMVMFTPLVP_TITQMNLKYAISAKNRARTVAGVSI_TITSGWTFGAGAALQIPFAMQMAYR_TSQWLTNIFGTVYEKLKPVLDWLEE_VRKIFVDGVPFVVSTGYHFRELGVV_VTSAMQTMLFTMLRKLDNDALNNII_VVFVLWAHGFELTSMKYFVKIGPER_WESGVKDCVVLHSYFTSDYYQLYST_YESLRPDTRYVLMDGSIIQFPNTYL'
p23
(lp24
g4
(g6
S'\x81\x92e\xcd\x11\x91\xef?'
tRp25
a(dp26
S'mhc2'
p27
g4
(g6
S'\x1f\xa1f\x85\x9e8\xef?'
tRp28
sS'mhc1'
p29
g4
(g6
S'\xe3\x83d\x15\x85\xe9\xef?'
tRp30
satp31
a(S'ASEFSSLPSYAAFATAQEAYEQAVA_AYVNTFSSTFNVPMEKLKTLVATAE_CFVDDIVKTDGTLMIERFVSLAIDA_DFTEERLKLFDRYFKYWDQTYHPNC_DTDFVNEFYAYLRKHFSMMILSDDA_DYPKCDRAMPNMLRIMASLVLARKH_EKVNINIVGDFKLNEEIAIILASFS_ESPFVMMSAPPAQYELKHGTFTCAS_FGLVAEWFLAYILFTRFFYVLGLAA_FKIYSKHTPINLVRDLPQGFSALEP_FLHFLPRVFSAVGNICYTPSKLIEY_FRNARNGVLITEGSVKGLQPSVGPK_GAGAALQIPFAMQMAYRFNGIGVTQ_GIATVREVLSDRELHLSWEVGKPRP_GLMWLSYFIASFRLFARTRSMWSFN_GVSFSTFEEAALCTFLLNKEMYLKL_GVYDYLVSTQEFRYMNSQGLLPPKN_GWTAGAAAYYVGYLQPRTFLLKYNE_HLDGEVITFDNLKTLLSLREVRTIK_IICISTKHFYWFFSNYLKRRVVFNG_IPKDMTYRRLISMMGFKMNYQVNGY_ITGGVVQLTSQWLTNIFGTVYEKLK_KPRQKRTATKAYNVTQAFGRRGPEQ_LDISASIVAGGIVAIVVTCLAYYFM_LDSKVGGNYNYLYRLFRKSNLKPFE_LQSLQTYVTQQLIRAAEIRASANLA_LTDEMIAQYTSALLAGTITSGWTFG_NNLVVMAYITGGVVQLTSQWLTNIF_NRNRFLYIIKLIFLWLLWPVTLACF_PLIQPIGALDISASIVAGGIVAIVV_QPTESIVRFPNITNLCPFGEVFNAT_QSAVKRTIKGTHHWLLLTILTSLLV_RSEDKRAKVTSAMQTMLFTMLRKLD_SIKNFKSVLYYQNNVFMSEAKCWTE_SQSIIAYTMSLGAENSVAYSNNSIA_SSANNCTFEYVSQPFLMDLEGKQGN_TDTPKGPKVKYLYFIKGLNNLNRGM_TFCAGSTFISDEVARDLSLQFKRPI_TFYLTNDVSFLAHIQWMVMFTPLVP_TITQMNLKYAISAKNRARTVAGVSI_TITSGWTFGAGAALQIPFAMQMAYR_TSQWLTNIFGTVYEKLKPVLDWLEE_VRKIFVDGVPFVVSTGYHFRELGVV_VTSAMQTMLFTMLRKLDNDALNNII_VVFVLWAHGFELTSMKYFVKIGPER_WESGVKDCVVLHSYFTSDYYQLYST_YESLRPDTRYVLMDGSIIQFPNTYL'
p32
(lp33
g4
(g6
S'\xe4\x19Bu\x11\x91\xef?'
tRp34
a(dp35
S'mhc2'
p36
g4
(g6
S'\xc0\xff{\xbb\x9e8\xef?'
tRp37
sS'mhc1'
p38
g4
(g6
S'\x084\x08/\x84\xe9\xef?'
tRp39
satp40
a(S'ASEFSSLPSYAAFATAQEAYEQAVA_AYVNTFSSTFNVPMEKLKTLVATAE_CFVDDIVKTDGTLMIERFVSLAIDA_CIMSDRDLYDKLQFTSLEIPRRNVA_DFTEERLKLFDRYFKYWDQTYHPNC_DTDFVNEFYAYLRKHFSMMILSDDA_DYPKCDRAMPNMLRIMASLVLARKH_EKVNINIVGDFKLNEEIAIILASFS_ESPFVMMSAPPAQYELKHGTFTCAS_FGLVAEWFLAYILFTRFFYVLGLAA_FKIYSKHTPINLVRDLPQGFSALEP_FLHFLPRVFSAVGNICYTPSKLIEY_FRNARNGVLITEGSVKGLQPSVGPK_GAGAALQIPFAMQMAYRFNGIGVTQ_GIATVREVLSDRELHLSWEVGKPRP_GLMWLSYFIASFRLFARTRSMWSFN_GVSFSTFEEAALCTFLLNKEMYLKL_GVYDYLVSTQEFRYMNSQGLLPPKN_GWTAGAAAYYVGYLQPRTFLLKYNE_HLDGEVITFDNLKTLLSLREVRTIK_IICISTKHFYWFFSNYLKRRVVFNG_IPKDMTYRRLISMMGFKMNYQVNGY_ITGGVVQLTSQWLTNIFGTVYEKLK_KPRQKRTATKAYNVTQAFGRRGPEQ_LDISASIVAGGIVAIVVTCLAYYFM_LDSKVGGNYNYLYRLFRKSNLKPFE_LQSLQTYVTQQLIRAAEIRASANLA_LTDEMIAQYTSALLAGTITSGWTFG_NNLVVMAYITGGVVQLTSQWLTNIF_NRNRFLYIIKLIFLWLLWPVTLACF_PLIQPIGALDISASIVAGGIVAIVV_QPTESIVRFPNITNLCPFGEVFNAT_QSAVKRTIKGTHHWLLLTILTSLLV_SIKNFKSVLYYQNNVFMSEAKCWTE_SQSIIAYTMSLGAENSVAYSNNSIA_SSANNCTFEYVSQPFLMDLEGKQGN_TDTPKGPKVKYLYFIKGLNNLNRGM_TFCAGSTFISDEVARDLSLQFKRPI_TFYLTNDVSFLAHIQWMVMFTPLVP_TITQMNLKYAISAKNRARTVAGVSI_TITSGWTFGAGAALQIPFAMQMAYR_TSQWLTNIFGTVYEKLKPVLDWLEE_VRKIFVDGVPFVVSTGYHFRELGVV_VTSAMQTMLFTMLRKLDNDALNNII_VVFVLWAHGFELTSMKYFVKIGPER_WESGVKDCVVLHSYFTSDYYQLYST_YESLRPDTRYVLMDGSIIQFPNTYL'
p41
(lp42
g4
(g6
S'Qk1^\x11\x91\xef?'
tRp43
a(dp44
S'mhc2'
p45
g4
(g6
S'\xbfR\xfe\xa6\x9d8\xef?'
tRp46
sS'mhc1'
p47
g4
(g6
S'\xe3\x83d\x15\x85\xe9\xef?'
tRp48
satp49
a.