(lp1
(S'DTDFVNEFYAYLRKHFSMMILSDDA_DYPKCDRAMPNMLRIMASLVLARKH_FRNARNGVLITEGSVKGLQPSVGPK_GLMWLSYFIASFRLFARTRSMWSFN_GVYDYLVSTQEFRYMNSQGLLPPKN_GWTAGAAAYYVGYLQPRTFLLKYNE_IICISTKHFYWFFSNYLKRRVVFNG_IPKDMTYRRLISMMGFKMNYQVNGY_KPRQKRTATKAYNVTQAFGRRGPEQ_LDISASIVAGGIVAIVVTCLAYYFM_LQSLQTYVTQQLIRAAEIRASANLA_QPTESIVRFPNITNLCPFGEVFNAT_SIKNFKSVLYYQNNVFMSEAKCWTE_TDTPKGPKVKYLYFIKGLNNLNRGM_TFCAGSTFISDEVARDLSLQFKRPI_TFYLTNDVSFLAHIQWMVMFTPLVP_TITQMNLKYAISAKNRARTVAGVSI_TITSGWTFGAGAALQIPFAMQMAYR_TSQWLTNIFGTVYEKLKPVLDWLEE_VRKIFVDGVPFVVSTGYHFRELGVV_VVFVLWAHGFELTSMKYFVKIGPER_WESGVKDCVVLHSYFTSDYYQLYST_YESLRPDTRYVLMDGSIIQFPNTYL'
p2
(lp3
cnumpy.core.multiarray
scalar
p4
(cnumpy
dtype
p5
(S'f8'
I0
I1
tRp6
(I3
S'<'
NNNI-1
I-1
I0
tbS'v\x9d;\xd7T\xbc\xef?'
tRp7
a(dp8
S'mhc2'
p9
g4
(g6
S'0\x0b\x16\xa1\x84\x90\xef?'
tRp10
sS'mhc1'
p11
g4
(g6
S'\xbd/a\r%\xe8\xef?'
tRp12
satp13
a(S'DTDFVNEFYAYLRKHFSMMILSDDA_DYPKCDRAMPNMLRIMASLVLARKH_GLMWLSYFIASFRLFARTRSMWSFN_GVYDYLVSTQEFRYMNSQGLLPPKN_GWTAGAAAYYVGYLQPRTFLLKYNE_IICISTKHFYWFFSNYLKRRVVFNG_IPKDMTYRRLISMMGFKMNYQVNGY_KPRQKRTATKAYNVTQAFGRRGPEQ_LDISASIVAGGIVAIVVTCLAYYFM_LDSKVGGNYNYLYRLFRKSNLKPFE_LQSLQTYVTQQLIRAAEIRASANLA_QPTESIVRFPNITNLCPFGEVFNAT_SIKNFKSVLYYQNNVFMSEAKCWTE_TDTPKGPKVKYLYFIKGLNNLNRGM_TFCAGSTFISDEVARDLSLQFKRPI_TFYLTNDVSFLAHIQWMVMFTPLVP_TITQMNLKYAISAKNRARTVAGVSI_TITSGWTFGAGAALQIPFAMQMAYR_TSQWLTNIFGTVYEKLKPVLDWLEE_VRKIFVDGVPFVVSTGYHFRELGVV_VVFVLWAHGFELTSMKYFVKIGPER_WESGVKDCVVLHSYFTSDYYQLYST_YESLRPDTRYVLMDGSIIQFPNTYL'
p14
(lp15
g4
(g6
S'\xab\xd0\xeb\xdbN\xbc\xef?'
tRp16
a(dp17
S'mhc2'
p18
g4
(g6
S'5H\xdaF\xd2\x90\xef?'
tRp19
sS'mhc1'
p20
g4
(g6
S'!Y\xfdp\xcb\xe7\xef?'
tRp21
satp22
a(S'DTDFVNEFYAYLRKHFSMMILSDDA_DYPKCDRAMPNMLRIMASLVLARKH_GLMWLSYFIASFRLFARTRSMWSFN_GVYDYLVSTQEFRYMNSQGLLPPKN_GWTAGAAAYYVGYLQPRTFLLKYNE_IICISTKHFYWFFSNYLKRRVVFNG_IPKDMTYRRLISMMGFKMNYQVNGY_LDISASIVAGGIVAIVVTCLAYYFM_LDSKVGGNYNYLYRLFRKSNLKPFE_LQSLQTYVTQQLIRAAEIRASANLA_PLIQPIGALDISASIVAGGIVAIVV_QPTESIVRFPNITNLCPFGEVFNAT_SIKNFKSVLYYQNNVFMSEAKCWTE_TDTPKGPKVKYLYFIKGLNNLNRGM_TFCAGSTFISDEVARDLSLQFKRPI_TFYLTNDVSFLAHIQWMVMFTPLVP_TITQMNLKYAISAKNRARTVAGVSI_TITSGWTFGAGAALQIPFAMQMAYR_TSQWLTNIFGTVYEKLKPVLDWLEE_VRKIFVDGVPFVVSTGYHFRELGVV_VVFVLWAHGFELTSMKYFVKIGPER_WESGVKDCVVLHSYFTSDYYQLYST_YESLRPDTRYVLMDGSIIQFPNTYL'
p23
(lp24
g4
(g6
S'.\xb3g\x93M\xbc\xef?'
tRp25
a(dp26
S'mhc2'
p27
g4
(g6
S'\t\x9e\n/\xd7\x92\xef?'
tRp28
sS'mhc1'
p29
g4
(g6
S'T\xc8\xc4\xf7\xc3\xe5\xef?'
tRp30
satp31
a(S'DTDFVNEFYAYLRKHFSMMILSDDA_DYPKCDRAMPNMLRIMASLVLARKH_GLMWLSYFIASFRLFARTRSMWSFN_GVYDYLVSTQEFRYMNSQGLLPPKN_GWTAGAAAYYVGYLQPRTFLLKYNE_IICISTKHFYWFFSNYLKRRVVFNG_IPKDMTYRRLISMMGFKMNYQVNGY_LDISASIVAGGIVAIVVTCLAYYFM_LDSKVGGNYNYLYRLFRKSNLKPFE_LQSLQTYVTQQLIRAAEIRASANLA_NNLVVMAYITGGVVQLTSQWLTNIF_QPTESIVRFPNITNLCPFGEVFNAT_SIKNFKSVLYYQNNVFMSEAKCWTE_TDTPKGPKVKYLYFIKGLNNLNRGM_TFCAGSTFISDEVARDLSLQFKRPI_TFYLTNDVSFLAHIQWMVMFTPLVP_TITQMNLKYAISAKNRARTVAGVSI_TITSGWTFGAGAALQIPFAMQMAYR_TSQWLTNIFGTVYEKLKPVLDWLEE_VRKIFVDGVPFVVSTGYHFRELGVV_VVFVLWAHGFELTSMKYFVKIGPER_WESGVKDCVVLHSYFTSDYYQLYST_YESLRPDTRYVLMDGSIIQFPNTYL'
p32
(lp33
g4
(g6
S'\xae0\xdc\x10=\xbc\xef?'
tRp34
a(dp35
S'mhc2'
p36
g4
(g6
S'\x00\x99\xf3)\xb6\x92\xef?'
tRp37
sS'mhc1'
p38
g4
(g6
S']\xc8\xc4\xf7\xc3\xe5\xef?'
tRp39
satp40
a(S'DTDFVNEFYAYLRKHFSMMILSDDA_DYPKCDRAMPNMLRIMASLVLARKH_FRNARNGVLITEGSVKGLQPSVGPK_GLMWLSYFIASFRLFARTRSMWSFN_GVYDYLVSTQEFRYMNSQGLLPPKN_GWTAGAAAYYVGYLQPRTFLLKYNE_IICISTKHFYWFFSNYLKRRVVFNG_IPKDMTYRRLISMMGFKMNYQVNGY_LDISASIVAGGIVAIVVTCLAYYFM_LQSLQTYVTQQLIRAAEIRASANLA_PLIQPIGALDISASIVAGGIVAIVV_QPTESIVRFPNITNLCPFGEVFNAT_SIKNFKSVLYYQNNVFMSEAKCWTE_TDTPKGPKVKYLYFIKGLNNLNRGM_TFCAGSTFISDEVARDLSLQFKRPI_TFYLTNDVSFLAHIQWMVMFTPLVP_TITQMNLKYAISAKNRARTVAGVSI_TITSGWTFGAGAALQIPFAMQMAYR_TSQWLTNIFGTVYEKLKPVLDWLEE_VRKIFVDGVPFVVSTGYHFRELGVV_VVFVLWAHGFELTSMKYFVKIGPER_WESGVKDCVVLHSYFTSDYYQLYST_YESLRPDTRYVLMDGSIIQFPNTYL'
p41
(lp42
g4
(g6
S'|\xf9e\x06\xf8\xbb\xef?'
tRp43
a(dp44
S'mhc2'
p45
g4
(g6
S'\xb0H[\xf0\xb1\x91\xef?'
tRp46
sS'mhc1'
p47
g4
(g6
S'H\xaap\x1c>\xe6\xef?'
tRp48
satp49
a.