(lp1
(S'AVFQSASKIITLKKRWQLA_DGVKHVYQLRARSVSPKLFI_DQVILLNKHIDAYKTFPPT_ENQKLIANQFNSAIGKIQD_FNPETNILLNVPLHGTILT_GAGAALQIPFAMQMAYRFN_GAISSVLNDILSRLDKVEA_HQPYVVDDPCPIHFYSKWYI_IITLKKRWQLALSKGVHFV_KVFRSSVLHSTQDLFLPFF_LICAQKFNGLTVLPPLLTD_LPIGINITRFQTLLALHRS_MDLFMRIFTIGTVTLKQGE_NATRFASVYAWNRKRISNC_NGGDAALALLLLDRLNQLE_PKEITVATSRTLSYYKLGA_PSDFVRATATIPIQASLPF_PSKRSFIEDLLFNKVTLAD_QTNSPRRARSVASQSIIAY_RWYFYYLGTGPEAGLPYGA_SRTLSYYKLGASQRVAGDS_SYFTSDYYQLYSTQLSTDT_TAPAICHDGKAHFPREGVF_TITSGWTFGAGAALQIPFA_TRGVYYPDKVFRSSVLHST_TYTGAIKLDDKDPNFKDQV_VEAEVQIDRLITGRLQSLQ_VKDCVVLHSYFTSDYYQLY_VKQLSSNFGAISSVLNDIL_VRDLPQGFSALEPLVDLPI_VTQQLIRAAEIRASANLAA_YLYALVYFLQSINFVRIIM_YNYLYRLFRKSNLKPFERD'
p2
cnumpy.core.multiarray
scalar
p3
(cnumpy
dtype
p4
(S'f8'
I0
I1
tRp5
(I3
S'<'
NNNI-1
I-1
I0
tbS'\x18-\xc3\xc3\t\xb0\xea?'
tRp6
tp7
a(S'AVFQSASKIITLKKRWQLA_DGVKHVYQLRARSVSPKLFI_DQVILLNKHIDAYKTFPPT_ENQKLIANQFNSAIGKIQD_FNPETNILLNVPLHGTILT_GAGAALQIPFAMQMAYRFN_GAISSVLNDILSRLDKVEA_HQPYVVDDPCPIHFYSKWYI_IITLKKRWQLALSKGVHFV_KVFRSSVLHSTQDLFLPFF_LICAQKFNGLTVLPPLLTD_LPIGINITRFQTLLALHRS_MDLFMRIFTIGTVTLKQGE_NATRFASVYAWNRKRISNC_NGGDAALALLLLDRLNQLE_PKEITVATSRTLSYYKLGA_PRQKRTATKAYNVTQAFGR_PSDFVRATATIPIQASLPF_PSKRSFIEDLLFNKVTLAD_QTNSPRRARSVASQSIIAY_RWYFYYLGTGPEAGLPYGA_SRTLSYYKLGASQRVAGDS_SYFTSDYYQLYSTQLSTDT_TAPAICHDGKAHFPREGVF_TITSGWTFGAGAALQIPFA_TRGVYYPDKVFRSSVLHST_TYTGAIKLDDKDPNFKDQV_VEAEVQIDRLITGRLQSLQ_VKDCVVLHSYFTSDYYQLY_VKQLSSNFGAISSVLNDIL_VRDLPQGFSALEPLVDLPI_VTQQLIRAAEIRASANLAA_YNYLYRLFRKSNLKPFERD'
p8
g3
(g5
S'\xdd~\x81\x01\xcc\xad\xea?'
tRp9
tp10
a(S'AVFQSASKIITLKKRWQLA_DQVILLNKHIDAYKTFPPT_ENQKLIANQFNSAIGKIQD_FNPETNILLNVPLHGTILT_GAGAALQIPFAMQMAYRFN_GAISSVLNDILSRLDKVEA_HQPYVVDDPCPIHFYSKWYI_IITLKKRWQLALSKGVHFV_KVFRSSVLHSTQDLFLPFF_LICAQKFNGLTVLPPLLTD_LPIGINITRFQTLLALHRS_MDLFMRIFTIGTVTLKQGE_MWLSYFIASFRLFARTRSM_NATRFASVYAWNRKRISNC_NGGDAALALLLLDRLNQLE_PKEITVATSRTLSYYKLGA_PSDFVRATATIPIQASLPF_PSKRSFIEDLLFNKVTLAD_QTNSPRRARSVASQSIIAY_RWYFYYLGTGPEAGLPYGA_SRTLSYYKLGASQRVAGDS_SYFTSDYYQLYSTQLSTDT_TAPAICHDGKAHFPREGVF_TITSGWTFGAGAALQIPFA_TRGVYYPDKVFRSSVLHST_TYTGAIKLDDKDPNFKDQV_VEAEVQIDRLITGRLQSLQ_VKDCVVLHSYFTSDYYQLY_VKQLSSNFGAISSVLNDIL_VRDLPQGFSALEPLVDLPI_VTQQLIRAAEIRASANLAA_YLYALVYFLQSINFVRIIM_YNYLYRLFRKSNLKPFERD'
p11
g3
(g5
S'\xb0&OY\xe0\xab\xea?'
tRp12
tp13
a(S'AVFQSASKIITLKKRWQLA_DGVKHVYQLRARSVSPKLFI_DQVILLNKHIDAYKTFPPT_ENQKLIANQFNSAIGKIQD_FEYVSQPFLMDLEGKQGNF_FNPETNILLNVPLHGTILT_GAGAALQIPFAMQMAYRFN_GAISSVLNDILSRLDKVEA_HQPYVVDDPCPIHFYSKWYI_IITLKKRWQLALSKGVHFV_KVFRSSVLHSTQDLFLPFF_LICAQKFNGLTVLPPLLTD_LPIGINITRFQTLLALHRS_MDLFMRIFTIGTVTLKQGE_MWLSYFIASFRLFARTRSM_NATRFASVYAWNRKRISNC_NGGDAALALLLLDRLNQLE_PKEITVATSRTLSYYKLGA_PSDFVRATATIPIQASLPF_PSKRSFIEDLLFNKVTLAD_QTNSPRRARSVASQSIIAY_RWYFYYLGTGPEAGLPYGA_SRTLSYYKLGASQRVAGDS_SYFTSDYYQLYSTQLSTDT_TAPAICHDGKAHFPREGVF_TITSGWTFGAGAALQIPFA_TRGVYYPDKVFRSSVLHST_TYTGAIKLDDKDPNFKDQV_VEAEVQIDRLITGRLQSLQ_VKDCVVLHSYFTSDYYQLY_VKQLSSNFGAISSVLNDIL_VRDLPQGFSALEPLVDLPI_VTQQLIRAAEIRASANLAA'
p14
g3
(g5
S'\x98t\xab0\x13\xab\xea?'
tRp15
tp16
a(S'AVFQSASKIITLKKRWQLA_DGVKHVYQLRARSVSPKLFI_DQVILLNKHIDAYKTFPPT_ENQKLIANQFNSAIGKIQD_FCTQLNRALTGIAVEQDKN_FNPETNILLNVPLHGTILT_GAGAALQIPFAMQMAYRFN_GAISSVLNDILSRLDKVEA_HQPYVVDDPCPIHFYSKWYI_IITLKKRWQLALSKGVHFV_KVFRSSVLHSTQDLFLPFF_LICAQKFNGLTVLPPLLTD_LPIGINITRFQTLLALHRS_MDLFMRIFTIGTVTLKQGE_NATRFASVYAWNRKRISNC_NGGDAALALLLLDRLNQLE_PKEITVATSRTLSYYKLGA_PSDFVRATATIPIQASLPF_PSKRSFIEDLLFNKVTLAD_QTNSPRRARSVASQSIIAY_RWYFYYLGTGPEAGLPYGA_SRTLSYYKLGASQRVAGDS_SYFTSDYYQLYSTQLSTDT_TAPAICHDGKAHFPREGVF_TITSGWTFGAGAALQIPFA_TRGVYYPDKVFRSSVLHST_TYTGAIKLDDKDPNFKDQV_VEAEVQIDRLITGRLQSLQ_VKDCVVLHSYFTSDYYQLY_VKQLSSNFGAISSVLNDIL_VRDLPQGFSALEPLVDLPI_VTQQLIRAAEIRASANLAA_YNYLYRLFRKSNLKPFERD'
p17
g3
(g5
S'pd- B\xaa\xea?'
tRp18
tp19
a(S'AVFQSASKIITLKKRWQLA_DGVKHVYQLRARSVSPKLFI_DQVILLNKHIDAYKTFPPT_ENQKLIANQFNSAIGKIQD_GAGAALQIPFAMQMAYRFN_GAISSVLNDILSRLDKVEA_HQPYVVDDPCPIHFYSKWYI_IITLKKRWQLALSKGVHFV_KVFRSSVLHSTQDLFLPFF_LICAQKFNGLTVLPPLLTD_LPIGINITRFQTLLALHRS_MDLFMRIFTIGTVTLKQGE_NATRFASVYAWNRKRISNC_NGGDAALALLLLDRLNQLE_PKEITVATSRTLSYYKLGA_PRQKRTATKAYNVTQAFGR_PSDFVRATATIPIQASLPF_PSKRSFIEDLLFNKVTLAD_QTNSPRRARSVASQSIIAY_RWYFYYLGTGPEAGLPYGA_SRTLSYYKLGASQRVAGDS_SYFTSDYYQLYSTQLSTDT_TAPAICHDGKAHFPREGVF_TITSGWTFGAGAALQIPFA_TRGVYYPDKVFRSSVLHST_TYTGAIKLDDKDPNFKDQV_VEAEVQIDRLITGRLQSLQ_VKDCVVLHSYFTSDYYQLY_VKQLSSNFGAISSVLNDIL_VRDLPQGFSALEPLVDLPI_VTQQLIRAAEIRASANLAA_YLYALVYFLQSINFVRIIM_YNYLYRLFRKSNLKPFERD'
p20
g3
(g5
S'|\xbc+\x86"\xaa\xea?'
tRp21
tp22
a(S'AVFQSASKIITLKKRWQLA_DGVKHVYQLRARSVSPKLFI_DQVILLNKHIDAYKTFPPT_ENQKLIANQFNSAIGKIQD_FNPETNILLNVPLHGTILT_GAGAALQIPFAMQMAYRFN_GAISSVLNDILSRLDKVEA_HQPYVVDDPCPIHFYSKWYI_IITLKKRWQLALSKGVHFV_KVFRSSVLHSTQDLFLPFF_LICAQKFNGLTVLPPLLTD_LPIGINITRFQTLLALHRS_MDLFMRIFTIGTVTLKQGE_MWLSYFIASFRLFARTRSM_NATRFASVYAWNRKRISNC_NGGDAALALLLLDRLNQLE_PKEITVATSRTLSYYKLGA_PSDFVRATATIPIQASLPF_PSKRSFIEDLLFNKVTLAD_QTNSPRRARSVASQSIIAY_RWYFYYLGTGPEAGLPYGA_SRTLSYYKLGASQRVAGDS_SYFTSDYYQLYSTQLSTDT_TAPAICHDGKAHFPREGVF_TITSGWTFGAGAALQIPFA_TRGVYYPDKVFRSSVLHST_TYTGAIKLDDKDPNFKDQV_VEAEVQIDRLITGRLQSLQ_VKDCVVLHSYFTSDYYQLY_VKQLSSNFGAISSVLNDIL_VRDLPQGFSALEPLVDLPI_VTQQLIRAAEIRASANLAA_YSSANNCTFEYVSQPFLMD'
p23
g3
(g5
S'\xb0\xb0;\x8b\xde\xa9\xea?'
tRp24
tp25
a(S'AVFQSASKIITLKKRWQLA_CEFQFCNDPFLGVYYHKNN_DGVKHVYQLRARSVSPKLFI_DQVILLNKHIDAYKTFPPT_ENQKLIANQFNSAIGKIQD_FNPETNILLNVPLHGTILT_GAGAALQIPFAMQMAYRFN_GAISSVLNDILSRLDKVEA_HQPYVVDDPCPIHFYSKWYI_IITLKKRWQLALSKGVHFV_KVFRSSVLHSTQDLFLPFF_LICAQKFNGLTVLPPLLTD_LPIGINITRFQTLLALHRS_MDLFMRIFTIGTVTLKQGE_MWLSYFIASFRLFARTRSM_NATRFASVYAWNRKRISNC_NGGDAALALLLLDRLNQLE_PKEITVATSRTLSYYKLGA_PSDFVRATATIPIQASLPF_PSKRSFIEDLLFNKVTLAD_QTNSPRRARSVASQSIIAY_RWYFYYLGTGPEAGLPYGA_SRTLSYYKLGASQRVAGDS_SYFTSDYYQLYSTQLSTDT_TAPAICHDGKAHFPREGVF_TITSGWTFGAGAALQIPFA_TRGVYYPDKVFRSSVLHST_TYTGAIKLDDKDPNFKDQV_VEAEVQIDRLITGRLQSLQ_VKDCVVLHSYFTSDYYQLY_VKQLSSNFGAISSVLNDIL_VRDLPQGFSALEPLVDLPI_VTQQLIRAAEIRASANLAA'
p26
g3
(g5
S'\xb0\xb0;\x8b\xde\xa9\xea?'
tRp27
tp28
a(S'AVFQSASKIITLKKRWQLA_DGVKHVYQLRARSVSPKLFI_DNKFALTCFSTQFAFACPDG_DQVILLNKHIDAYKTFPPT_ENQKLIANQFNSAIGKIQD_FNPETNILLNVPLHGTILT_GAGAALQIPFAMQMAYRFN_GAISSVLNDILSRLDKVEA_HQPYVVDDPCPIHFYSKWYI_IITLKKRWQLALSKGVHFV_KVFRSSVLHSTQDLFLPFF_LICAQKFNGLTVLPPLLTD_LPIGINITRFQTLLALHRS_MDLFMRIFTIGTVTLKQGE_NATRFASVYAWNRKRISNC_NGGDAALALLLLDRLNQLE_PKEITVATSRTLSYYKLGA_PSDFVRATATIPIQASLPF_PSKRSFIEDLLFNKVTLAD_QTNSPRRARSVASQSIIAY_RWYFYYLGTGPEAGLPYGA_SRTLSYYKLGASQRVAGDS_SYFTSDYYQLYSTQLSTDT_TAPAICHDGKAHFPREGVF_TITSGWTFGAGAALQIPFA_TRGVYYPDKVFRSSVLHST_TYTGAIKLDDKDPNFKDQV_VEAEVQIDRLITGRLQSLQ_VKDCVVLHSYFTSDYYQLY_VKQLSSNFGAISSVLNDIL_VRDLPQGFSALEPLVDLPI_VTQQLIRAAEIRASANLAA_YNYLYRLFRKSNLKPFERD'
p29
g3
(g5
S'5i\xa7m\xd9\xa9\xea?'
tRp30
tp31
a(S'AVFQSASKIITLKKRWQLA_DGVKHVYQLRARSVSPKLFI_DQVILLNKHIDAYKTFPPT_ENQKLIANQFNSAIGKIQD_FEYVSQPFLMDLEGKQGNF_FNPETNILLNVPLHGTILT_GAGAALQIPFAMQMAYRFN_GAISSVLNDILSRLDKVEA_HQPYVVDDPCPIHFYSKWYI_IITLKKRWQLALSKGVHFV_KVFRSSVLHSTQDLFLPFF_LICAQKFNGLTVLPPLLTD_LPIGINITRFQTLLALHRS_MDLFMRIFTIGTVTLKQGE_NATRFASVYAWNRKRISNC_NGGDAALALLLLDRLNQLE_PKEITVATSRTLSYYKLGA_PSDFVRATATIPIQASLPF_PSKRSFIEDLLFNKVTLAD_QTNSPRRARSVASQSIIAY_RWYFYYLGTGPEAGLPYGA_SRTLSYYKLGASQRVAGDS_SYFTSDYYQLYSTQLSTDT_TAPAICHDGKAHFPREGVF_TITSGWTFGAGAALQIPFA_TRGVYYPDKVFRSSVLHST_TYTGAIKLDDKDPNFKDQV_VEAEVQIDRLITGRLQSLQ_VKDCVVLHSYFTSDYYQLY_VKQLSSNFGAISSVLNDIL_VRDLPQGFSALEPLVDLPI_VTQQLIRAAEIRASANLAA_YNYLYRLFRKSNLKPFERD'
p32
g3
(g5
S'\x18f\xe4\xef\xac\xa9\xea?'
tRp33
tp34
a.