(lp1
(S'NGGDAALALLLLDRLNQLE_VTQQLIRAAEIRASANLAA'
p2
cnumpy.core.multiarray
scalar
p3
(cnumpy
dtype
p4
(S'f8'
I0
I1
tRp5
(I3
S'<'
NNNI-1
I-1
I0
tbS'\xd7\x17X\xd9y\xda\xec?'
tRp6
tp7
a(S'TRGVYYPDKVFRSSVLHST_VTQQLIRAAEIRASANLAA'
p8
g3
(g5
S'\x148=I8\xa3\xec?'
tRp9
tp10
a(S'PSKRSFIEDLLFNKVTLAD_VTQQLIRAAEIRASANLAA'
p11
g3
(g5
S'\xcb\xc5\x17h\xeb\xa0\xec?'
tRp12
tp13
a(S'LPIGINITRFQTLLALHRS_VTQQLIRAAEIRASANLAA'
p14
g3
(g5
S'\xf5\x11\x94-\x87\x9a\xec?'
tRp15
tp16
a(S'GAGAALQIPFAMQMAYRFN_TRGVYYPDKVFRSSVLHST'
p17
g3
(g5
S'U\xa7\x9dk\xa8\x8a\xec?'
tRp18
tp19
a(S'GAGAALQIPFAMQMAYRFN_VTQQLIRAAEIRASANLAA'
p20
g3
(g5
S'\x7f_\x10\xcb\xa1\x7f\xec?'
tRp21
tp22
a(S'ENQKLIANQFNSAIGKIQD_VTQQLIRAAEIRASANLAA'
p23
g3
(g5
S'\xd0\xc7\xee\xfe\x0eL\xec?'
tRp24
tp25
a(S'GAGAALQIPFAMQMAYRFN_NGGDAALALLLLDRLNQLE'
p26
g3
(g5
S'm\xc8\xe8\x86\x9fD\xec?'
tRp27
tp28
a(S'GAGAALQIPFAMQMAYRFN_PKEITVATSRTLSYYKLGA'
p29
g3
(g5
S'\xc5\xe5F\xff\x04D\xec?'
tRp30
tp31
a(S'GAGAALQIPFAMQMAYRFN_VEAEVQIDRLITGRLQSLQ'
p32
g3
(g5
S'\xc1\xdb\xf0\xb1\x03C\xec?'
tRp33
tp34
a.