(lp1
(S'GAGAALQIPFAMQMAYRFN_IITLKKRWQLALSKGVHFV_NGGDAALALLLLDRLNQLE_PSKRSFIEDLLFNKVTLAD_RWYFYYLGTGPEAGLPYGA_TITSGWTFGAGAALQIPFA_TRGVYYPDKVFRSSVLHST_TYTGAIKLDDKDPNFKDQV_VTQQLIRAAEIRASANLAA'
p2
cnumpy.core.multiarray
scalar
p3
(cnumpy
dtype
p4
(S'f8'
I0
I1
tRp5
(I3
S'<'
NNNI-1
I-1
I0
tbS'\xf7\xb8\xe7\xcbkD\xec?'
tRp6
tp7
a(S'GAGAALQIPFAMQMAYRFN_IITLKKRWQLALSKGVHFV_NGGDAALALLLLDRLNQLE_PSKRSFIEDLLFNKVTLAD_RWYFYYLGTGPEAGLPYGA_TAPAICHDGKAHFPREGVF_TITSGWTFGAGAALQIPFA_TRGVYYPDKVFRSSVLHST_VTQQLIRAAEIRASANLAA'
p8
g6
tp9
a(S'GAGAALQIPFAMQMAYRFN_HQPYVVDDPCPIHFYSKWYI_IITLKKRWQLALSKGVHFV_NGGDAALALLLLDRLNQLE_PSKRSFIEDLLFNKVTLAD_RWYFYYLGTGPEAGLPYGA_TITSGWTFGAGAALQIPFA_TRGVYYPDKVFRSSVLHST_VTQQLIRAAEIRASANLAA'
p10
g3
(g5
S'\xf5\xb8\xe7\xcbkD\xec?'
tRp11
tp12
a(S'GAGAALQIPFAMQMAYRFN_IITLKKRWQLALSKGVHFV_NGGDAALALLLLDRLNQLE_PKEITVATSRTLSYYKLGA_PSKRSFIEDLLFNKVTLAD_RWYFYYLGTGPEAGLPYGA_TITSGWTFGAGAALQIPFA_TRGVYYPDKVFRSSVLHST_VTQQLIRAAEIRASANLAA'
p13
g3
(g5
S'\xf1\xb8\xe7\xcbkD\xec?'
tRp14
tp15
a(S'GAGAALQIPFAMQMAYRFN_GAISSVLNDILSRLDKVEA_IITLKKRWQLALSKGVHFV_NGGDAALALLLLDRLNQLE_PSKRSFIEDLLFNKVTLAD_RWYFYYLGTGPEAGLPYGA_TITSGWTFGAGAALQIPFA_TRGVYYPDKVFRSSVLHST_VTQQLIRAAEIRASANLAA'
p16
g3
(g5
S'\xef\xb8\xe7\xcbkD\xec?'
tRp17
tp18
a(S'GAGAALQIPFAMQMAYRFN_IITLKKRWQLALSKGVHFV_NGGDAALALLLLDRLNQLE_PSKRSFIEDLLFNKVTLAD_RWYFYYLGTGPEAGLPYGA_TITSGWTFGAGAALQIPFA_TRGVYYPDKVFRSSVLHST_VEAEVQIDRLITGRLQSLQ_VTQQLIRAAEIRASANLAA'
p19
g3
(g5
S'\xe8\xb8\xe7\xcbkD\xec?'
tRp20
tp21
a(S'NGGDAALALLLLDRLNQLE_PKEITVATSRTLSYYKLGA_PSDFVRATATIPIQASLPF_PSKRSFIEDLLFNKVTLAD_RWYFYYLGTGPEAGLPYGA_TITSGWTFGAGAALQIPFA_TRGVYYPDKVFRSSVLHST_VKDCVVLHSYFTSDYYQLY_VTQQLIRAAEIRASANLAA'
p22
g3
(g5
S'd\x03x\xc0\xc1?\xec?'
tRp23
tp24
a(S'NGGDAALALLLLDRLNQLE_PSDFVRATATIPIQASLPF_PSKRSFIEDLLFNKVTLAD_RWYFYYLGTGPEAGLPYGA_TITSGWTFGAGAALQIPFA_TRGVYYPDKVFRSSVLHST_VEAEVQIDRLITGRLQSLQ_VKDCVVLHSYFTSDYYQLY_VTQQLIRAAEIRASANLAA'
p25
g3
(g5
S'Y\x03x\xc0\xc1?\xec?'
tRp26
tp27
a(S'GAGAALQIPFAMQMAYRFN_NGGDAALALLLLDRLNQLE_PSDFVRATATIPIQASLPF_PSKRSFIEDLLFNKVTLAD_RWYFYYLGTGPEAGLPYGA_TITSGWTFGAGAALQIPFA_TRGVYYPDKVFRSSVLHST_VEAEVQIDRLITGRLQSLQ_VTQQLIRAAEIRASANLAA'
p28
g3
(g5
S'5\x00\x076\x00=\xec?'
tRp29
tp30
a(S'GAGAALQIPFAMQMAYRFN_NGGDAALALLLLDRLNQLE_PKEITVATSRTLSYYKLGA_PSDFVRATATIPIQASLPF_PSKRSFIEDLLFNKVTLAD_RWYFYYLGTGPEAGLPYGA_TITSGWTFGAGAALQIPFA_TRGVYYPDKVFRSSVLHST_VTQQLIRAAEIRASANLAA'
p31
g3
(g5
S'4\x00\x076\x00=\xec?'
tRp32
tp33
a.