(lp1
(S'PSKRSFIEDLLFNKVTLAD_RWYFYYLGTGPEAGLPYGA_TITSGWTFGAGAALQIPFA_TRGVYYPDKVFRSSVLHST_VKDCVVLHSYFTSDYYQLY_VTQQLIRAAEIRASANLAA'
p2
cnumpy.core.multiarray
scalar
p3
(cnumpy
dtype
p4
(S'f8'
I0
I1
tRp5
(I3
S'<'
NNNI-1
I-1
I0
tbS'E\xdd\xcf\x9f\x8eS\xec?'
tRp6
tp7
a(S'GAGAALQIPFAMQMAYRFN_PSKRSFIEDLLFNKVTLAD_RWYFYYLGTGPEAGLPYGA_TITSGWTFGAGAALQIPFA_TRGVYYPDKVFRSSVLHST_VTQQLIRAAEIRASANLAA'
p8
g3
(g5
S'\xd9\xa4D\xcc\xb5K\xec?'
tRp9
tp10
a(S'PSKRSFIEDLLFNKVTLAD_RWYFYYLGTGPEAGLPYGA_SYFTSDYYQLYSTQLSTDT_TITSGWTFGAGAALQIPFA_TRGVYYPDKVFRSSVLHST_VTQQLIRAAEIRASANLAA'
p11
g3
(g5
S'\x818\xc9\xc1\xf4I\xec?'
tRp12
tp13
a(S'ENQKLIANQFNSAIGKIQD_RWYFYYLGTGPEAGLPYGA_TITSGWTFGAGAALQIPFA_TRGVYYPDKVFRSSVLHST_VKDCVVLHSYFTSDYYQLY_VTQQLIRAAEIRASANLAA'
p14
g3
(g5
S'%\x18o\x0e\xf2A\xec?'
tRp15
tp16
a(S'GAGAALQIPFAMQMAYRFN_IITLKKRWQLALSKGVHFV_PSKRSFIEDLLFNKVTLAD_RWYFYYLGTGPEAGLPYGA_TRGVYYPDKVFRSSVLHST_VTQQLIRAAEIRASANLAA'
p17
g3
(g5
S'A\x02\xb8~$,\xec?'
tRp18
tp19
a(S'ENQKLIANQFNSAIGKIQD_RWYFYYLGTGPEAGLPYGA_SYFTSDYYQLYSTQLSTDT_TITSGWTFGAGAALQIPFA_TRGVYYPDKVFRSSVLHST_VTQQLIRAAEIRASANLAA'
p20
g3
(g5
S'\x9b\xe4J\x1c\x02+\xec?'
tRp21
tp22
a(S'PSDFVRATATIPIQASLPF_PSKRSFIEDLLFNKVTLAD_RWYFYYLGTGPEAGLPYGA_TRGVYYPDKVFRSSVLHST_VKDCVVLHSYFTSDYYQLY_VTQQLIRAAEIRASANLAA'
p23
g3
(g5
S'kO`\xdc\x19*\xec?'
tRp24
tp25
a(S'GAGAALQIPFAMQMAYRFN_PSDFVRATATIPIQASLPF_PSKRSFIEDLLFNKVTLAD_RWYFYYLGTGPEAGLPYGA_TRGVYYPDKVFRSSVLHST_VTQQLIRAAEIRASANLAA'
p26
g3
(g5
S' FW\xfe5#\xec?'
tRp27
tp28
a(S'PSDFVRATATIPIQASLPF_PSKRSFIEDLLFNKVTLAD_RWYFYYLGTGPEAGLPYGA_SYFTSDYYQLYSTQLSTDT_TRGVYYPDKVFRSSVLHST_VTQQLIRAAEIRASANLAA'
p29
g3
(g5
S'\xb8\x90J{\xd7!\xec?'
tRp30
tp31
a(S'ENQKLIANQFNSAIGKIQD_KVFRSSVLHSTQDLFLPFF_RWYFYYLGTGPEAGLPYGA_TITSGWTFGAGAALQIPFA_TRGVYYPDKVFRSSVLHST_VTQQLIRAAEIRASANLAA'
p32
g3
(g5
S'\xfb\xc4\xcf?\xb1\x1f\xec?'
tRp33
tp34
a.