(lp1
(S'AEIRASANLAATKMSECVL_AVFQSASKIITLKKRWQLA_CEFQFCNDPFLGVYYHKNN_DGVKHVYQLRARSVSPKLFI_DQVILLNKHIDAYKTFPPT_ENQKLIANQFNSAIGKIQD_FCTQLNRALTGIAVEQDKN_FEYVSQPFLMDLEGKQGNF_FNPETNILLNVPLHGTILT_GAGAALQIPFAMQMAYRFN_GAISSVLNDILSRLDKVEA_HQPYVVDDPCPIHFYSKWYI_IITLKKRWQLALSKGVHFV_IQDSLSSTASALGKLQDVV_KVFRSSVLHSTQDLFLPFF_LICAQKFNGLTVLPPLLTD_LPIGINITRFQTLLALHRS_MDLFMRIFTIGTVTLKQGE_MWLSYFIASFRLFARTRSM_NATRFASVYAWNRKRISNC_NGGDAALALLLLDRLNQLE_PKEITVATSRTLSYYKLGA_PRQKRTATKAYNVTQAFGR_PSDFVRATATIPIQASLPF_PSKRSFIEDLLFNKVTLAD_QTNSPRRARSVASQSIIAY_RQKKQQTVTLLPAADLDDF_RWYFYYLGTGPEAGLPYGA_SFRLFARTRSMWSFNPETN_SNCVADYSVLYNSASFSTF_SRTLSYYKLGASQRVAGDS_SYFTSDYYQLYSTQLSTDT_TAPAICHDGKAHFPREGVF_TITSGWTFGAGAALQIPFA_TRGVYYPDKVFRSSVLHST_TYTGAIKLDDKDPNFKDQV_VEAEVQIDRLITGRLQSLQ_VKDCVVLHSYFTSDYYQLY_VKQLSSNFGAISSVLNDIL_VRDLPQGFSALEPLVDLPI_VTQQLIRAAEIRASANLAA_YLYALVYFLQSINFVRIIM_YNYLYRLFRKSNLKPFERD_YSSANNCTFEYVSQPFLMD'
p2
cnumpy.core.multiarray
scalar
p3
(cnumpy
dtype
p4
(S'f8'
I0
I1
tRp5
(I3
S'<'
NNNI-1
I-1
I0
tbS'\xe8\xd53\xffU\xe0\xe9?'
tRp6
tp7
a(S'AEIRASANLAATKMSECVL_AVFQSASKIITLKKRWQLA_CEFQFCNDPFLGVYYHKNN_DGVKHVYQLRARSVSPKLFI_DHIGTRNPANNAAIVLQLP_DQVILLNKHIDAYKTFPPT_ENQKLIANQFNSAIGKIQD_FCTQLNRALTGIAVEQDKN_FEYVSQPFLMDLEGKQGNF_FNPETNILLNVPLHGTILT_GAGAALQIPFAMQMAYRFN_GAISSVLNDILSRLDKVEA_HQPYVVDDPCPIHFYSKWYI_IITLKKRWQLALSKGVHFV_KVFRSSVLHSTQDLFLPFF_LICAQKFNGLTVLPPLLTD_LPIGINITRFQTLLALHRS_MDLFMRIFTIGTVTLKQGE_MWLSYFIASFRLFARTRSM_NATRFASVYAWNRKRISNC_NGGDAALALLLLDRLNQLE_PKEITVATSRTLSYYKLGA_PRQKRTATKAYNVTQAFGR_PSDFVRATATIPIQASLPF_PSKRSFIEDLLFNKVTLAD_QTNSPRRARSVASQSIIAY_RQKKQQTVTLLPAADLDDF_RWYFYYLGTGPEAGLPYGA_SFRLFARTRSMWSFNPETN_SNCVADYSVLYNSASFSTF_SRTLSYYKLGASQRVAGDS_SYFTSDYYQLYSTQLSTDT_TAPAICHDGKAHFPREGVF_TITSGWTFGAGAALQIPFA_TRGVYYPDKVFRSSVLHST_TYTGAIKLDDKDPNFKDQV_VEAEVQIDRLITGRLQSLQ_VKDCVVLHSYFTSDYYQLY_VKQLSSNFGAISSVLNDIL_VRDLPQGFSALEPLVDLPI_VTQQLIRAAEIRASANLAA_YLYALVYFLQSINFVRIIM_YNYLYRLFRKSNLKPFERD_YSSANNCTFEYVSQPFLMD'
p8
g3
(g5
S'\xe8\xd53\xffU\xe0\xe9?'
tRp9
tp10
a(S'AEIRASANLAATKMSECVL_ANNAAIVLQLPQGTTLPKG_AVFQSASKIITLKKRWQLA_CEFQFCNDPFLGVYYHKNN_DGVKHVYQLRARSVSPKLFI_DQVILLNKHIDAYKTFPPT_ENQKLIANQFNSAIGKIQD_FCTQLNRALTGIAVEQDKN_FEYVSQPFLMDLEGKQGNF_FNPETNILLNVPLHGTILT_GAGAALQIPFAMQMAYRFN_GAISSVLNDILSRLDKVEA_HQPYVVDDPCPIHFYSKWYI_IITLKKRWQLALSKGVHFV_IQDSLSSTASALGKLQDVV_KVFRSSVLHSTQDLFLPFF_LICAQKFNGLTVLPPLLTD_LPIGINITRFQTLLALHRS_MDLFMRIFTIGTVTLKQGE_MWLSYFIASFRLFARTRSM_NATRFASVYAWNRKRISNC_NGGDAALALLLLDRLNQLE_PKEITVATSRTLSYYKLGA_PRQKRTATKAYNVTQAFGR_PSDFVRATATIPIQASLPF_PSKRSFIEDLLFNKVTLAD_QTNSPRRARSVASQSIIAY_RWYFYYLGTGPEAGLPYGA_SFRLFARTRSMWSFNPETN_SNCVADYSVLYNSASFSTF_SRTLSYYKLGASQRVAGDS_SYFTSDYYQLYSTQLSTDT_TAPAICHDGKAHFPREGVF_TITSGWTFGAGAALQIPFA_TRGVYYPDKVFRSSVLHST_TYTGAIKLDDKDPNFKDQV_VEAEVQIDRLITGRLQSLQ_VKDCVVLHSYFTSDYYQLY_VKQLSSNFGAISSVLNDIL_VRDLPQGFSALEPLVDLPI_VTQQLIRAAEIRASANLAA_YLYALVYFLQSINFVRIIM_YNYLYRLFRKSNLKPFERD_YSSANNCTFEYVSQPFLMD'
p11
g3
(g5
S'\xe8\xd53\xffU\xe0\xe9?'
tRp12
tp13
a(S'AEIRASANLAATKMSECVL_ANNAAIVLQLPQGTTLPKG_AVFQSASKIITLKKRWQLA_CEFQFCNDPFLGVYYHKNN_DGVKHVYQLRARSVSPKLFI_DHIGTRNPANNAAIVLQLP_DQVILLNKHIDAYKTFPPT_ENQKLIANQFNSAIGKIQD_FCTQLNRALTGIAVEQDKN_FEYVSQPFLMDLEGKQGNF_FNPETNILLNVPLHGTILT_GAGAALQIPFAMQMAYRFN_GAISSVLNDILSRLDKVEA_HQPYVVDDPCPIHFYSKWYI_IITLKKRWQLALSKGVHFV_KVFRSSVLHSTQDLFLPFF_LICAQKFNGLTVLPPLLTD_LPIGINITRFQTLLALHRS_MDLFMRIFTIGTVTLKQGE_MWLSYFIASFRLFARTRSM_NATRFASVYAWNRKRISNC_NGGDAALALLLLDRLNQLE_PKEITVATSRTLSYYKLGA_PRQKRTATKAYNVTQAFGR_PSDFVRATATIPIQASLPF_PSKRSFIEDLLFNKVTLAD_QTNSPRRARSVASQSIIAY_RWYFYYLGTGPEAGLPYGA_SFRLFARTRSMWSFNPETN_SNCVADYSVLYNSASFSTF_SRTLSYYKLGASQRVAGDS_SYFTSDYYQLYSTQLSTDT_TAPAICHDGKAHFPREGVF_TITSGWTFGAGAALQIPFA_TRGVYYPDKVFRSSVLHST_TYTGAIKLDDKDPNFKDQV_VEAEVQIDRLITGRLQSLQ_VKDCVVLHSYFTSDYYQLY_VKQLSSNFGAISSVLNDIL_VRDLPQGFSALEPLVDLPI_VTQQLIRAAEIRASANLAA_YLYALVYFLQSINFVRIIM_YNYLYRLFRKSNLKPFERD_YSSANNCTFEYVSQPFLMD'
p14
g3
(g5
S'\xe8\xd53\xffU\xe0\xe9?'
tRp15
tp16
a(S'AEIRASANLAATKMSECVL_AVFQSASKIITLKKRWQLA_CEFQFCNDPFLGVYYHKNN_DGVKHVYQLRARSVSPKLFI_DQVILLNKHIDAYKTFPPT_ENQKLIANQFNSAIGKIQD_FCTQLNRALTGIAVEQDKN_FEYVSQPFLMDLEGKQGNF_FNPETNILLNVPLHGTILT_GAGAALQIPFAMQMAYRFN_GAISSVLNDILSRLDKVEA_HQPYVVDDPCPIHFYSKWYI_IITLKKRWQLALSKGVHFV_KVFRSSVLHSTQDLFLPFF_LICAQKFNGLTVLPPLLTD_LPIGINITRFQTLLALHRS_MDLFMRIFTIGTVTLKQGE_MWLSYFIASFRLFARTRSM_NATRFASVYAWNRKRISNC_NGGDAALALLLLDRLNQLE_PKEITVATSRTLSYYKLGA_PRQKRTATKAYNVTQAFGR_PSDFVRATATIPIQASLPF_PSKRSFIEDLLFNKVTLAD_QTNSPRRARSVASQSIIAY_RWYFYYLGTGPEAGLPYGA_SELVIGAVILRGHLRIAGH_SFRLFARTRSMWSFNPETN_SNCVADYSVLYNSASFSTF_SRTLSYYKLGASQRVAGDS_SYFTSDYYQLYSTQLSTDT_TAPAICHDGKAHFPREGVF_TITSGWTFGAGAALQIPFA_TRGVYYPDKVFRSSVLHST_TYTGAIKLDDKDPNFKDQV_VEAEVQIDRLITGRLQSLQ_VKDCVVLHSYFTSDYYQLY_VKQLSSNFGAISSVLNDIL_VRDLPQGFSALEPLVDLPI_VTQQLIRAAEIRASANLAA_YGANKDGIIWVATEGALNT_YLYALVYFLQSINFVRIIM_YNYLYRLFRKSNLKPFERD_YSSANNCTFEYVSQPFLMD'
p17
g3
(g5
S'\xe1\xd53\xffU\xe0\xe9?'
tRp18
tp19
a(S'AEIRASANLAATKMSECVL_AVFQSASKIITLKKRWQLA_CEFQFCNDPFLGVYYHKNN_DGVKHVYQLRARSVSPKLFI_DQVILLNKHIDAYKTFPPT_ENQKLIANQFNSAIGKIQD_FCTQLNRALTGIAVEQDKN_FEYVSQPFLMDLEGKQGNF_FNPETNILLNVPLHGTILT_GAGAALQIPFAMQMAYRFN_GAISSVLNDILSRLDKVEA_HQPYVVDDPCPIHFYSKWYI_IITLKKRWQLALSKGVHFV_KVFRSSVLHSTQDLFLPFF_LICAQKFNGLTVLPPLLTD_LPIGINITRFQTLLALHRS_MDLFMRIFTIGTVTLKQGE_MWLSYFIASFRLFARTRSM_NATRFASVYAWNRKRISNC_NGGDAALALLLLDRLNQLE_PKEITVATSRTLSYYKLGA_PRQKRTATKAYNVTQAFGR_PSDFVRATATIPIQASLPF_PSKRSFIEDLLFNKVTLAD_QTNSPRRARSVASQSIIAY_RWYFYYLGTGPEAGLPYGA_SELVIGAVILRGHLRIAGH_SFRLFARTRSMWSFNPETN_SNCVADYSVLYNSASFSTF_SRTLSYYKLGASQRVAGDS_STGSNVFQTRAGCLIGAEH_SYFTSDYYQLYSTQLSTDT_TAPAICHDGKAHFPREGVF_TITSGWTFGAGAALQIPFA_TRGVYYPDKVFRSSVLHST_TYTGAIKLDDKDPNFKDQV_VEAEVQIDRLITGRLQSLQ_VKDCVVLHSYFTSDYYQLY_VKQLSSNFGAISSVLNDIL_VRDLPQGFSALEPLVDLPI_VTQQLIRAAEIRASANLAA_YLYALVYFLQSINFVRIIM_YNYLYRLFRKSNLKPFERD_YSSANNCTFEYVSQPFLMD'
p20
g3
(g5
S'\xe0\xd53\xffU\xe0\xe9?'
tRp21
tp22
a(S'AEIRASANLAATKMSECVL_ANNAAIVLQLPQGTTLPKG_AVFQSASKIITLKKRWQLA_DGVKHVYQLRARSVSPKLFI_DQVILLNKHIDAYKTFPPT_ENQKLIANQFNSAIGKIQD_FCTQLNRALTGIAVEQDKN_FEYVSQPFLMDLEGKQGNF_FNPETNILLNVPLHGTILT_GAGAALQIPFAMQMAYRFN_GAISSVLNDILSRLDKVEA_GNFKNLREFVFKNIDGYFK_HQPYVVDDPCPIHFYSKWYI_IITLKKRWQLALSKGVHFV_IQDSLSSTASALGKLQDVV_KVFRSSVLHSTQDLFLPFF_LICAQKFNGLTVLPPLLTD_LPIGINITRFQTLLALHRS_MDLFMRIFTIGTVTLKQGE_MWLSYFIASFRLFARTRSM_NATRFASVYAWNRKRISNC_NGGDAALALLLLDRLNQLE_PKEITVATSRTLSYYKLGA_PRQKRTATKAYNVTQAFGR_PSDFVRATATIPIQASLPF_PSKRSFIEDLLFNKVTLAD_QTNSPRRARSVASQSIIAY_RWYFYYLGTGPEAGLPYGA_SFRLFARTRSMWSFNPETN_SNCVADYSVLYNSASFSTF_SRTLSYYKLGASQRVAGDS_SYFTSDYYQLYSTQLSTDT_TAPAICHDGKAHFPREGVF_TITSGWTFGAGAALQIPFA_TRGVYYPDKVFRSSVLHST_TYTGAIKLDDKDPNFKDQV_VEAEVQIDRLITGRLQSLQ_VKDCVVLHSYFTSDYYQLY_VKQLSSNFGAISSVLNDIL_VRDLPQGFSALEPLVDLPI_VTQQLIRAAEIRASANLAA_YLYALVYFLQSINFVRIIM_YNYLYRLFRKSNLKPFERD_YSSANNCTFEYVSQPFLMD'
p23
g3
(g5
S'\xfc\xcb\x17\xfc\xf4\xd9\xe9?'
tRp24
tp25
a(S'AEIRASANLAATKMSECVL_ANNAAIVLQLPQGTTLPKG_AVFQSASKIITLKKRWQLA_DGVKHVYQLRARSVSPKLFI_DHIGTRNPANNAAIVLQLP_DQVILLNKHIDAYKTFPPT_ENQKLIANQFNSAIGKIQD_FCTQLNRALTGIAVEQDKN_FEYVSQPFLMDLEGKQGNF_FNPETNILLNVPLHGTILT_GAGAALQIPFAMQMAYRFN_GAISSVLNDILSRLDKVEA_GNFKNLREFVFKNIDGYFK_HQPYVVDDPCPIHFYSKWYI_IITLKKRWQLALSKGVHFV_KVFRSSVLHSTQDLFLPFF_LICAQKFNGLTVLPPLLTD_LPIGINITRFQTLLALHRS_MDLFMRIFTIGTVTLKQGE_MWLSYFIASFRLFARTRSM_NATRFASVYAWNRKRISNC_NGGDAALALLLLDRLNQLE_PKEITVATSRTLSYYKLGA_PRQKRTATKAYNVTQAFGR_PSDFVRATATIPIQASLPF_PSKRSFIEDLLFNKVTLAD_QTNSPRRARSVASQSIIAY_RWYFYYLGTGPEAGLPYGA_SFRLFARTRSMWSFNPETN_SNCVADYSVLYNSASFSTF_SRTLSYYKLGASQRVAGDS_SYFTSDYYQLYSTQLSTDT_TAPAICHDGKAHFPREGVF_TITSGWTFGAGAALQIPFA_TRGVYYPDKVFRSSVLHST_TYTGAIKLDDKDPNFKDQV_VEAEVQIDRLITGRLQSLQ_VKDCVVLHSYFTSDYYQLY_VKQLSSNFGAISSVLNDIL_VRDLPQGFSALEPLVDLPI_VTQQLIRAAEIRASANLAA_YLYALVYFLQSINFVRIIM_YNYLYRLFRKSNLKPFERD_YSSANNCTFEYVSQPFLMD'
p26
g3
(g5
S'\xfc\xcb\x17\xfc\xf4\xd9\xe9?'
tRp27
tp28
a(S'AEIRASANLAATKMSECVL_ANNAAIVLQLPQGTTLPKG_AVFQSASKIITLKKRWQLA_CEFQFCNDPFLGVYYHKNN_DGVKHVYQLRARSVSPKLFI_DQVILLNKHIDAYKTFPPT_ENQKLIANQFNSAIGKIQD_FCTQLNRALTGIAVEQDKN_FEYVSQPFLMDLEGKQGNF_FNPETNILLNVPLHGTILT_GAGAALQIPFAMQMAYRFN_GAISSVLNDILSRLDKVEA_GNFKNLREFVFKNIDGYFK_HQPYVVDDPCPIHFYSKWYI_IITLKKRWQLALSKGVHFV_IQDSLSSTASALGKLQDVV_KVFRSSVLHSTQDLFLPFF_LICAQKFNGLTVLPPLLTD_LPIGINITRFQTLLALHRS_MDLFMRIFTIGTVTLKQGE_MWLSYFIASFRLFARTRSM_NATRFASVYAWNRKRISNC_NGGDAALALLLLDRLNQLE_PKEITVATSRTLSYYKLGA_PRQKRTATKAYNVTQAFGR_PSDFVRATATIPIQASLPF_PSKRSFIEDLLFNKVTLAD_QTNSPRRARSVASQSIIAY_RWYFYYLGTGPEAGLPYGA_SFRLFARTRSMWSFNPETN_SNCVADYSVLYNSASFSTF_SRTLSYYKLGASQRVAGDS_SYFTSDYYQLYSTQLSTDT_TAPAICHDGKAHFPREGVF_TITSGWTFGAGAALQIPFA_TRGVYYPDKVFRSSVLHST_TYTGAIKLDDKDPNFKDQV_VEAEVQIDRLITGRLQSLQ_VKDCVVLHSYFTSDYYQLY_VKQLSSNFGAISSVLNDIL_VRDLPQGFSALEPLVDLPI_VTQQLIRAAEIRASANLAA_YLYALVYFLQSINFVRIIM_YNYLYRLFRKSNLKPFERD'
p29
g3
(g5
S'\xfc\xcb\x17\xfc\xf4\xd9\xe9?'
tRp30
tp31
a(S'AEIRASANLAATKMSECVL_ANNAAIVLQLPQGTTLPKG_AVFQSASKIITLKKRWQLA_CEFQFCNDPFLGVYYHKNN_DGVKHVYQLRARSVSPKLFI_DHIGTRNPANNAAIVLQLP_DQVILLNKHIDAYKTFPPT_ENQKLIANQFNSAIGKIQD_FCTQLNRALTGIAVEQDKN_FEYVSQPFLMDLEGKQGNF_FNPETNILLNVPLHGTILT_GAGAALQIPFAMQMAYRFN_GAISSVLNDILSRLDKVEA_GNFKNLREFVFKNIDGYFK_HQPYVVDDPCPIHFYSKWYI_IITLKKRWQLALSKGVHFV_KVFRSSVLHSTQDLFLPFF_LICAQKFNGLTVLPPLLTD_LPIGINITRFQTLLALHRS_MDLFMRIFTIGTVTLKQGE_MWLSYFIASFRLFARTRSM_NATRFASVYAWNRKRISNC_NGGDAALALLLLDRLNQLE_PKEITVATSRTLSYYKLGA_PRQKRTATKAYNVTQAFGR_PSDFVRATATIPIQASLPF_PSKRSFIEDLLFNKVTLAD_QTNSPRRARSVASQSIIAY_RWYFYYLGTGPEAGLPYGA_SFRLFARTRSMWSFNPETN_SNCVADYSVLYNSASFSTF_SRTLSYYKLGASQRVAGDS_SYFTSDYYQLYSTQLSTDT_TAPAICHDGKAHFPREGVF_TITSGWTFGAGAALQIPFA_TRGVYYPDKVFRSSVLHST_TYTGAIKLDDKDPNFKDQV_VEAEVQIDRLITGRLQSLQ_VKDCVVLHSYFTSDYYQLY_VKQLSSNFGAISSVLNDIL_VRDLPQGFSALEPLVDLPI_VTQQLIRAAEIRASANLAA_YLYALVYFLQSINFVRIIM_YNYLYRLFRKSNLKPFERD'
p32
g3
(g5
S'\xfc\xcb\x17\xfc\xf4\xd9\xe9?'
tRp33
tp34
a.