(lp1
(S'RWYFYYLGTGPEAGLPYGA_TRGVYYPDKVFRSSVLHST_VKDCVVLHSYFTSDYYQLY_VTQQLIRAAEIRASANLAA'
p2
cnumpy.core.multiarray
scalar
p3
(cnumpy
dtype
p4
(S'f8'
I0
I1
tRp5
(I3
S'<'
NNNI-1
I-1
I0
tbS'\x00\xf7\xe5"z\xfc\xed?'
tRp6
tp7
a(S'RWYFYYLGTGPEAGLPYGA_SYFTSDYYQLYSTQLSTDT_TRGVYYPDKVFRSSVLHST_VTQQLIRAAEIRASANLAA'
p8
g3
(g5
S'\xb8R0\xaa\xe3\xee\xed?'
tRp9
tp10
a(S'GAGAALQIPFAMQMAYRFN_RWYFYYLGTGPEAGLPYGA_TRGVYYPDKVFRSSVLHST_VTQQLIRAAEIRASANLAA'
p11
g3
(g5
S'kR0\xaa\xe3\xee\xed?'
tRp12
tp13
a(S'PSKRSFIEDLLFNKVTLAD_RWYFYYLGTGPEAGLPYGA_TRGVYYPDKVFRSSVLHST_VTQQLIRAAEIRASANLAA'
p14
g3
(g5
S'\xc8/P\xd9\x1c\xee\xed?'
tRp15
tp16
a(S'KVFRSSVLHSTQDLFLPFF_PSKRSFIEDLLFNKVTLAD_TRGVYYPDKVFRSSVLHST_VTQQLIRAAEIRASANLAA'
p17
g3
(g5
S'5\xe6t\xec \xe5\xed?'
tRp18
tp19
a(S'PSKRSFIEDLLFNKVTLAD_TRGVYYPDKVFRSSVLHST_VRDLPQGFSALEPLVDLPI_VTQQLIRAAEIRASANLAA'
p20
g3
(g5
S'3\xe6t\xec \xe5\xed?'
tRp21
tp22
a(S'PSKRSFIEDLLFNKVTLAD_TRGVYYPDKVFRSSVLHST_VKDCVVLHSYFTSDYYQLY_VTQQLIRAAEIRASANLAA'
p23
g3
(g5
S')\xe6t\xec \xe5\xed?'
tRp24
tp25
a(S'PSKRSFIEDLLFNKVTLAD_SYFTSDYYQLYSTQLSTDT_TRGVYYPDKVFRSSVLHST_VTQQLIRAAEIRASANLAA'
p26
g3
(g5
S'(\xe6t\xec \xe5\xed?'
tRp27
tp28
a(S'GAGAALQIPFAMQMAYRFN_PSKRSFIEDLLFNKVTLAD_TRGVYYPDKVFRSSVLHST_VTQQLIRAAEIRASANLAA'
p29
g3
(g5
S'\xf5\xe5t\xec \xe5\xed?'
tRp30
tp31
a(S'ENQKLIANQFNSAIGKIQD_KVFRSSVLHSTQDLFLPFF_TRGVYYPDKVFRSSVLHST_VTQQLIRAAEIRASANLAA'
p32
g3
(g5
S'\xe0\xd5\xd7\xc7\x06\xe4\xed?'
tRp33
tp34
a.