(lp1
(S'GAGAALQIPFAMQMAYRFN_GAISSVLNDILSRLDKVEA_HQPYVVDDPCPIHFYSKWYI_IITLKKRWQLALSKGVHFV_KVFRSSVLHSTQDLFLPFF_LPIGINITRFQTLLALHRS_MDLFMRIFTIGTVTLKQGE_NATRFASVYAWNRKRISNC_NGGDAALALLLLDRLNQLE_PSDFVRATATIPIQASLPF_PSKRSFIEDLLFNKVTLAD_QTNSPRRARSVASQSIIAY_RWYFYYLGTGPEAGLPYGA_SRTLSYYKLGASQRVAGDS_SYFTSDYYQLYSTQLSTDT_TAPAICHDGKAHFPREGVF_TITSGWTFGAGAALQIPFA_TRGVYYPDKVFRSSVLHST_TYTGAIKLDDKDPNFKDQV_VEAEVQIDRLITGRLQSLQ_VKDCVVLHSYFTSDYYQLY_VRDLPQGFSALEPLVDLPI_VTQQLIRAAEIRASANLAA'
p2
cnumpy.core.multiarray
scalar
p3
(cnumpy
dtype
p4
(S'f8'
I0
I1
tRp5
(I3
S'<'
NNNI-1
I-1
I0
tbS'#J\x7f\xf3\x91\xe8\xea?'
tRp6
tp7
a(S'GAGAALQIPFAMQMAYRFN_GAISSVLNDILSRLDKVEA_HQPYVVDDPCPIHFYSKWYI_IITLKKRWQLALSKGVHFV_KVFRSSVLHSTQDLFLPFF_LPIGINITRFQTLLALHRS_MDLFMRIFTIGTVTLKQGE_NATRFASVYAWNRKRISNC_NGGDAALALLLLDRLNQLE_PKEITVATSRTLSYYKLGA_PSDFVRATATIPIQASLPF_PSKRSFIEDLLFNKVTLAD_QTNSPRRARSVASQSIIAY_RWYFYYLGTGPEAGLPYGA_SRTLSYYKLGASQRVAGDS_SYFTSDYYQLYSTQLSTDT_TAPAICHDGKAHFPREGVF_TITSGWTFGAGAALQIPFA_TRGVYYPDKVFRSSVLHST_TYTGAIKLDDKDPNFKDQV_VKDCVVLHSYFTSDYYQLY_VRDLPQGFSALEPLVDLPI_VTQQLIRAAEIRASANLAA'
p8
g3
(g5
S'\x18J\x7f\xf3\x91\xe8\xea?'
tRp9
tp10
a(S'GAGAALQIPFAMQMAYRFN_HQPYVVDDPCPIHFYSKWYI_IITLKKRWQLALSKGVHFV_KVFRSSVLHSTQDLFLPFF_LPIGINITRFQTLLALHRS_MDLFMRIFTIGTVTLKQGE_NATRFASVYAWNRKRISNC_NGGDAALALLLLDRLNQLE_PKEITVATSRTLSYYKLGA_PSDFVRATATIPIQASLPF_PSKRSFIEDLLFNKVTLAD_QTNSPRRARSVASQSIIAY_RWYFYYLGTGPEAGLPYGA_SRTLSYYKLGASQRVAGDS_SYFTSDYYQLYSTQLSTDT_TAPAICHDGKAHFPREGVF_TITSGWTFGAGAALQIPFA_TRGVYYPDKVFRSSVLHST_TYTGAIKLDDKDPNFKDQV_VEAEVQIDRLITGRLQSLQ_VKDCVVLHSYFTSDYYQLY_VRDLPQGFSALEPLVDLPI_VTQQLIRAAEIRASANLAA'
p11
g3
(g5
S'\x15J\x7f\xf3\x91\xe8\xea?'
tRp12
tp13
a(S'GAGAALQIPFAMQMAYRFN_GAISSVLNDILSRLDKVEA_IITLKKRWQLALSKGVHFV_KVFRSSVLHSTQDLFLPFF_LPIGINITRFQTLLALHRS_MDLFMRIFTIGTVTLKQGE_NATRFASVYAWNRKRISNC_NGGDAALALLLLDRLNQLE_PKEITVATSRTLSYYKLGA_PSDFVRATATIPIQASLPF_PSKRSFIEDLLFNKVTLAD_QTNSPRRARSVASQSIIAY_RWYFYYLGTGPEAGLPYGA_SRTLSYYKLGASQRVAGDS_SYFTSDYYQLYSTQLSTDT_TAPAICHDGKAHFPREGVF_TITSGWTFGAGAALQIPFA_TRGVYYPDKVFRSSVLHST_TYTGAIKLDDKDPNFKDQV_VEAEVQIDRLITGRLQSLQ_VKDCVVLHSYFTSDYYQLY_VRDLPQGFSALEPLVDLPI_VTQQLIRAAEIRASANLAA'
p14
g3
(g5
S'\x15J\x7f\xf3\x91\xe8\xea?'
tRp15
tp16
a(S'GAGAALQIPFAMQMAYRFN_GAISSVLNDILSRLDKVEA_HQPYVVDDPCPIHFYSKWYI_IITLKKRWQLALSKGVHFV_KVFRSSVLHSTQDLFLPFF_LPIGINITRFQTLLALHRS_MDLFMRIFTIGTVTLKQGE_NATRFASVYAWNRKRISNC_NGGDAALALLLLDRLNQLE_PKEITVATSRTLSYYKLGA_PSDFVRATATIPIQASLPF_PSKRSFIEDLLFNKVTLAD_QTNSPRRARSVASQSIIAY_RWYFYYLGTGPEAGLPYGA_SRTLSYYKLGASQRVAGDS_SYFTSDYYQLYSTQLSTDT_TITSGWTFGAGAALQIPFA_TRGVYYPDKVFRSSVLHST_TYTGAIKLDDKDPNFKDQV_VEAEVQIDRLITGRLQSLQ_VKDCVVLHSYFTSDYYQLY_VRDLPQGFSALEPLVDLPI_VTQQLIRAAEIRASANLAA'
p17
g3
(g5
S'\x15J\x7f\xf3\x91\xe8\xea?'
tRp18
tp19
a(S'GAGAALQIPFAMQMAYRFN_GAISSVLNDILSRLDKVEA_HQPYVVDDPCPIHFYSKWYI_IITLKKRWQLALSKGVHFV_KVFRSSVLHSTQDLFLPFF_LPIGINITRFQTLLALHRS_MDLFMRIFTIGTVTLKQGE_NATRFASVYAWNRKRISNC_NGGDAALALLLLDRLNQLE_PKEITVATSRTLSYYKLGA_PSDFVRATATIPIQASLPF_PSKRSFIEDLLFNKVTLAD_QTNSPRRARSVASQSIIAY_RWYFYYLGTGPEAGLPYGA_SRTLSYYKLGASQRVAGDS_SYFTSDYYQLYSTQLSTDT_TAPAICHDGKAHFPREGVF_TITSGWTFGAGAALQIPFA_TRGVYYPDKVFRSSVLHST_VEAEVQIDRLITGRLQSLQ_VKDCVVLHSYFTSDYYQLY_VRDLPQGFSALEPLVDLPI_VTQQLIRAAEIRASANLAA'
p20
g3
(g5
S'\x15J\x7f\xf3\x91\xe8\xea?'
tRp21
tp22
a(S'AVFQSASKIITLKKRWQLA_GAGAALQIPFAMQMAYRFN_GAISSVLNDILSRLDKVEA_HQPYVVDDPCPIHFYSKWYI_IITLKKRWQLALSKGVHFV_KVFRSSVLHSTQDLFLPFF_LPIGINITRFQTLLALHRS_NATRFASVYAWNRKRISNC_NGGDAALALLLLDRLNQLE_PSDFVRATATIPIQASLPF_PSKRSFIEDLLFNKVTLAD_QTNSPRRARSVASQSIIAY_RWYFYYLGTGPEAGLPYGA_SRTLSYYKLGASQRVAGDS_SYFTSDYYQLYSTQLSTDT_TAPAICHDGKAHFPREGVF_TITSGWTFGAGAALQIPFA_TRGVYYPDKVFRSSVLHST_TYTGAIKLDDKDPNFKDQV_VEAEVQIDRLITGRLQSLQ_VKDCVVLHSYFTSDYYQLY_VRDLPQGFSALEPLVDLPI_VTQQLIRAAEIRASANLAA'
p23
g3
(g5
S"UN\xa0a'\xce\xea?"
tRp24
tp25
a(S'AVFQSASKIITLKKRWQLA_GAGAALQIPFAMQMAYRFN_GAISSVLNDILSRLDKVEA_HQPYVVDDPCPIHFYSKWYI_IITLKKRWQLALSKGVHFV_KVFRSSVLHSTQDLFLPFF_LPIGINITRFQTLLALHRS_MDLFMRIFTIGTVTLKQGE_NATRFASVYAWNRKRISNC_NGGDAALALLLLDRLNQLE_PSDFVRATATIPIQASLPF_PSKRSFIEDLLFNKVTLAD_RWYFYYLGTGPEAGLPYGA_SRTLSYYKLGASQRVAGDS_SYFTSDYYQLYSTQLSTDT_TAPAICHDGKAHFPREGVF_TITSGWTFGAGAALQIPFA_TRGVYYPDKVFRSSVLHST_TYTGAIKLDDKDPNFKDQV_VEAEVQIDRLITGRLQSLQ_VKDCVVLHSYFTSDYYQLY_VRDLPQGFSALEPLVDLPI_VTQQLIRAAEIRASANLAA'
p26
g3
(g5
S"TN\xa0a'\xce\xea?"
tRp27
tp28
a(S'AVFQSASKIITLKKRWQLA_GAGAALQIPFAMQMAYRFN_GAISSVLNDILSRLDKVEA_HQPYVVDDPCPIHFYSKWYI_IITLKKRWQLALSKGVHFV_KVFRSSVLHSTQDLFLPFF_LPIGINITRFQTLLALHRS_NATRFASVYAWNRKRISNC_NGGDAALALLLLDRLNQLE_PKEITVATSRTLSYYKLGA_PSDFVRATATIPIQASLPF_PSKRSFIEDLLFNKVTLAD_QTNSPRRARSVASQSIIAY_RWYFYYLGTGPEAGLPYGA_SRTLSYYKLGASQRVAGDS_SYFTSDYYQLYSTQLSTDT_TAPAICHDGKAHFPREGVF_TITSGWTFGAGAALQIPFA_TRGVYYPDKVFRSSVLHST_TYTGAIKLDDKDPNFKDQV_VKDCVVLHSYFTSDYYQLY_VRDLPQGFSALEPLVDLPI_VTQQLIRAAEIRASANLAA'
p29
g3
(g5
S"SN\xa0a'\xce\xea?"
tRp30
tp31
a(S'AVFQSASKIITLKKRWQLA_GAGAALQIPFAMQMAYRFN_GAISSVLNDILSRLDKVEA_HQPYVVDDPCPIHFYSKWYI_IITLKKRWQLALSKGVHFV_KVFRSSVLHSTQDLFLPFF_LPIGINITRFQTLLALHRS_MDLFMRIFTIGTVTLKQGE_NATRFASVYAWNRKRISNC_NGGDAALALLLLDRLNQLE_PKEITVATSRTLSYYKLGA_PSDFVRATATIPIQASLPF_PSKRSFIEDLLFNKVTLAD_RWYFYYLGTGPEAGLPYGA_SRTLSYYKLGASQRVAGDS_SYFTSDYYQLYSTQLSTDT_TAPAICHDGKAHFPREGVF_TITSGWTFGAGAALQIPFA_TRGVYYPDKVFRSSVLHST_TYTGAIKLDDKDPNFKDQV_VKDCVVLHSYFTSDYYQLY_VRDLPQGFSALEPLVDLPI_VTQQLIRAAEIRASANLAA'
p32
g3
(g5
S"SN\xa0a'\xce\xea?"
tRp33
tp34
a.