(lp1
(S'NGGDAALALLLLDRLNQLE_PSKRSFIEDLLFNKVTLAD_RWYFYYLGTGPEAGLPYGA_TITSGWTFGAGAALQIPFA_TRGVYYPDKVFRSSVLHST_VKDCVVLHSYFTSDYYQLY_VTQQLIRAAEIRASANLAA'
p2
cnumpy.core.multiarray
scalar
p3
(cnumpy
dtype
p4
(S'f8'
I0
I1
tRp5
(I3
S'<'
NNNI-1
I-1
I0
tbS'E\xef\x01\xb4\xc6\xeb\xec?'
tRp6
tp7
a(S'PSKRSFIEDLLFNKVTLAD_RWYFYYLGTGPEAGLPYGA_TITSGWTFGAGAALQIPFA_TRGVYYPDKVFRSSVLHST_TYTGAIKLDDKDPNFKDQV_VKDCVVLHSYFTSDYYQLY_VTQQLIRAAEIRASANLAA'
p8
g3
(g5
S'L@\x1a\xd5\x9b\xeb\xec?'
tRp9
tp10
a(S'PSKRSFIEDLLFNKVTLAD_RWYFYYLGTGPEAGLPYGA_TAPAICHDGKAHFPREGVF_TITSGWTFGAGAALQIPFA_TRGVYYPDKVFRSSVLHST_VKDCVVLHSYFTSDYYQLY_VTQQLIRAAEIRASANLAA'
p11
g9
tp12
a(S'HQPYVVDDPCPIHFYSKWYI_PSKRSFIEDLLFNKVTLAD_RWYFYYLGTGPEAGLPYGA_TITSGWTFGAGAALQIPFA_TRGVYYPDKVFRSSVLHST_VKDCVVLHSYFTSDYYQLY_VTQQLIRAAEIRASANLAA'
p13
g3
(g5
S'L@\x1a\xd5\x9b\xeb\xec?'
tRp14
tp15
a(S'GAISSVLNDILSRLDKVEA_PSKRSFIEDLLFNKVTLAD_RWYFYYLGTGPEAGLPYGA_TITSGWTFGAGAALQIPFA_TRGVYYPDKVFRSSVLHST_VKDCVVLHSYFTSDYYQLY_VTQQLIRAAEIRASANLAA'
p16
g3
(g5
S'H@\x1a\xd5\x9b\xeb\xec?'
tRp17
tp18
a(S'PKEITVATSRTLSYYKLGA_PSKRSFIEDLLFNKVTLAD_RWYFYYLGTGPEAGLPYGA_TITSGWTFGAGAALQIPFA_TRGVYYPDKVFRSSVLHST_VKDCVVLHSYFTSDYYQLY_VTQQLIRAAEIRASANLAA'
p19
g3
(g5
S'4@\x1a\xd5\x9b\xeb\xec?'
tRp20
tp21
a(S'PSKRSFIEDLLFNKVTLAD_RWYFYYLGTGPEAGLPYGA_TITSGWTFGAGAALQIPFA_TRGVYYPDKVFRSSVLHST_VEAEVQIDRLITGRLQSLQ_VKDCVVLHSYFTSDYYQLY_VTQQLIRAAEIRASANLAA'
p22
g3
(g5
S'/@\x1a\xd5\x9b\xeb\xec?'
tRp23
tp24
a(S'GAGAALQIPFAMQMAYRFN_NGGDAALALLLLDRLNQLE_PSKRSFIEDLLFNKVTLAD_RWYFYYLGTGPEAGLPYGA_TITSGWTFGAGAALQIPFA_TRGVYYPDKVFRSSVLHST_VTQQLIRAAEIRASANLAA'
p25
g3
(g5
S'\xe5\xb6v\xe0\xed\xe3\xec?'
tRp26
tp27
a(S'GAGAALQIPFAMQMAYRFN_PSKRSFIEDLLFNKVTLAD_RWYFYYLGTGPEAGLPYGA_TITSGWTFGAGAALQIPFA_TRGVYYPDKVFRSSVLHST_TYTGAIKLDDKDPNFKDQV_VTQQLIRAAEIRASANLAA'
p28
g3
(g5
S'\xe3\x07\x8f\x01\xc3\xe3\xec?'
tRp29
tp30
a(S'GAGAALQIPFAMQMAYRFN_PSKRSFIEDLLFNKVTLAD_RWYFYYLGTGPEAGLPYGA_TAPAICHDGKAHFPREGVF_TITSGWTFGAGAALQIPFA_TRGVYYPDKVFRSSVLHST_VTQQLIRAAEIRASANLAA'
p31
g29
tp32
a.