(lp1
(S'PSKRSFIEDLLFNKVTLAD_RWYFYYLGTGPEAGLPYGA_TRGVYYPDKVFRSSVLHST_VRDLPQGFSALEPLVDLPI_VTQQLIRAAEIRASANLAA'
p2
cnumpy.core.multiarray
scalar
p3
(cnumpy
dtype
p4
(S'f8'
I0
I1
tRp5
(I3
S'<'
NNNI-1
I-1
I0
tbS'GYU\xdaPN\xee?'
tRp6
tp7
a(S'KVFRSSVLHSTQDLFLPFF_PSKRSFIEDLLFNKVTLAD_RWYFYYLGTGPEAGLPYGA_TRGVYYPDKVFRSSVLHST_VTQQLIRAAEIRASANLAA'
p8
g3
(g5
S'CYU\xdaPN\xee?'
tRp9
tp10
a(S'PSKRSFIEDLLFNKVTLAD_RWYFYYLGTGPEAGLPYGA_SYFTSDYYQLYSTQLSTDT_TRGVYYPDKVFRSSVLHST_VTQQLIRAAEIRASANLAA'
p11
g3
(g5
S';YU\xdaPN\xee?'
tRp12
tp13
a(S'PSKRSFIEDLLFNKVTLAD_RWYFYYLGTGPEAGLPYGA_TRGVYYPDKVFRSSVLHST_VKDCVVLHSYFTSDYYQLY_VTQQLIRAAEIRASANLAA'
p14
g3
(g5
S'7YU\xdaPN\xee?'
tRp15
tp16
a(S'GAGAALQIPFAMQMAYRFN_PSKRSFIEDLLFNKVTLAD_RWYFYYLGTGPEAGLPYGA_TRGVYYPDKVFRSSVLHST_VTQQLIRAAEIRASANLAA'
p17
g3
(g5
S'\x05YU\xdaPN\xee?'
tRp18
tp19
a(S'ENQKLIANQFNSAIGKIQD_KVFRSSVLHSTQDLFLPFF_RWYFYYLGTGPEAGLPYGA_TRGVYYPDKVFRSSVLHST_VTQQLIRAAEIRASANLAA'
p20
g3
(g5
S'<\xc9\xaf\x10HM\xee?'
tRp21
tp22
a(S'ENQKLIANQFNSAIGKIQD_RWYFYYLGTGPEAGLPYGA_TRGVYYPDKVFRSSVLHST_VKDCVVLHSYFTSDYYQLY_VTQQLIRAAEIRASANLAA'
p23
g3
(g5
S'\x0fsS\xdb\x1cM\xee?'
tRp24
tp25
a(S'DQVILLNKHIDAYKTFPPT_RWYFYYLGTGPEAGLPYGA_TRGVYYPDKVFRSSVLHST_VKDCVVLHSYFTSDYYQLY_VTQQLIRAAEIRASANLAA'
p26
g3
(g5
S'\xe1u\xbb\x03\xf2L\xee?'
tRp27
tp28
a(S'FNPETNILLNVPLHGTILT_RWYFYYLGTGPEAGLPYGA_TRGVYYPDKVFRSSVLHST_VKDCVVLHSYFTSDYYQLY_VTQQLIRAAEIRASANLAA'
p29
g3
(g5
S'\xd3u\xbb\x03\xf2L\xee?'
tRp30
tp31
a(S'ENQKLIANQFNSAIGKIQD_RWYFYYLGTGPEAGLPYGA_SYFTSDYYQLYSTQLSTDT_TRGVYYPDKVFRSSVLHST_VTQQLIRAAEIRASANLAA'
p32
g3
(g5
S'm\xce\x8aG}C\xee?'
tRp33
tp34
a.