(lp1
(S'TRGVYYPDKVFRSSVLHST_VKDCVVLHSYFTSDYYQLY_VTQQLIRAAEIRASANLAA'
p2
cnumpy.core.multiarray
scalar
p3
(cnumpy
dtype
p4
(S'f8'
I0
I1
tRp5
(I3
S'<'
NNNI-1
I-1
I0
tbS'\x03\x83\xd9XF\x8d\xed?'
tRp6
tp7
a(S'SYFTSDYYQLYSTQLSTDT_TRGVYYPDKVFRSSVLHST_VTQQLIRAAEIRASANLAA'
p8
g3
(g5
S'\xf3\x11"\x05x~\xed?'
tRp9
tp10
a(S'GAGAALQIPFAMQMAYRFN_TRGVYYPDKVFRSSVLHST_VTQQLIRAAEIRASANLAA'
p11
g3
(g5
S'g\xdf\x90S7~\xed?'
tRp12
tp13
a(S'PSKRSFIEDLLFNKVTLAD_TRGVYYPDKVFRSSVLHST_VTQQLIRAAEIRASANLAA'
p14
g3
(g5
S'\x0b|f4v{\xed?'
tRp15
tp16
a(S'LPIGINITRFQTLLALHRS_TRGVYYPDKVFRSSVLHST_VTQQLIRAAEIRASANLAA'
p17
g3
(g5
S'?\xc5\xf2\x90mp\xed?'
tRp18
tp19
a(S'ENQKLIANQFNSAIGKIQD_TRGVYYPDKVFRSSVLHST_VTQQLIRAAEIRASANLAA'
p20
g3
(g5
S'\xd0\xb0d3\xf8l\xed?'
tRp21
tp22
a(S'KVFRSSVLHSTQDLFLPFF_NGGDAALALLLLDRLNQLE_VTQQLIRAAEIRASANLAA'
p23
g3
(g5
S'\x9bC\xaf\x9e\x99l\xed?'
tRp24
tp25
a(S'NGGDAALALLLLDRLNQLE_VKDCVVLHSYFTSDYYQLY_VTQQLIRAAEIRASANLAA'
p26
g3
(g5
S'LC\xaf\x9e\x99l\xed?'
tRp27
tp28
a(S'PKEITVATSRTLSYYKLGA_PSKRSFIEDLLFNKVTLAD_VTQQLIRAAEIRASANLAA'
p29
g3
(g5
S'\x00\xed-\xb2\xe0_\xed?'
tRp30
tp31
a(S'GAISSVLNDILSRLDKVEA_PSKRSFIEDLLFNKVTLAD_VTQQLIRAAEIRASANLAA'
p32
g3
(g5
S'\xf1\xec-\xb2\xe0_\xed?'
tRp33
tp34
a.