(lp1
(S'AEIRASANLAATKMSECVL_ANNAAIVLQLPQGTTLPKG_AVFQSASKIITLKKRWQLA_AYANRNRFLYIIKLIFLWL_CEFQFCNDPFLGVYYHKNN_DFGGFNFSQILPDPSKPSK_DGVKHVYQLRARSVSPKLFI_DHIGTRNPANNAAIVLQLP_DLLFNKVTLADAGFIKQYG_DNKFALTCFSTQFAFACPDG_DQVILLNKHIDAYKTFPPT_ENQKLIANQFNSAIGKIQD_FCTQLNRALTGIAVEQDKN_FEYVSQPFLMDLEGKQGNF_FNPETNILLNVPLHGTILT_GAGAALQIPFAMQMAYRFN_GAISSVLNDILSRLDKVEA_GNFKNLREFVFKNIDGYFK_HQPYVVDDPCPIHFYSKWYI_IITLKKRWQLALSKGVHFV_IQDSLSSTASALGKLQDVV_KNNKSWMESEFRVYSSANN_KVFRSSVLHSTQDLFLPFF_LDSKVGGNYNYLYRLFRKS_LFLPFFSNVTWFHAIHVSG_LICAQKFNGLTVLPPLLTD_LPIGINITRFQTLLALHRS_LTDEMIAQYTSALLAGTIT_MDLFMRIFTIGTVTLKQGE_MWLSYFIASFRLFARTRSM_NATRFASVYAWNRKRISNC_NGGDAALALLLLDRLNQLE_PFLGVYYHKNNKSWMESEF_PKEITVATSRTLSYYKLGA_PRQKRTATKAYNVTQAFGR_PSDFVRATATIPIQASLPF_PSKRSFIEDLLFNKVTLAD_QTNSPRRARSVASQSIIAY_RFQTLLALHRSYLTPGDSS_RQKKQQTVTLLPAADLDDF_RWYFYYLGTGPEAGLPYGA_SELVIGAVILRGHLRIAGH_SFRLFARTRSMWSFNPETN_SNCVADYSVLYNSASFSTF_SRTLSYYKLGASQRVAGDS_SSPDDQIGYYRRATRRIRG_STGSNVFQTRAGCLIGAEH_SYFTSDYYQLYSTQLSTDT_TAPAICHDGKAHFPREGVF_TITSGWTFGAGAALQIPFA_TRGVYYPDKVFRSSVLHST_TYTGAIKLDDKDPNFKDQV_VEAEVQIDRLITGRLQSLQ_VFLHVTYVPAQEKNFTTAP_VKDCVVLHSYFTSDYYQLY_VKQLSSNFGAISSVLNDIL_VRDLPQGFSALEPLVDLPI_VTQQLIRAAEIRASANLAA_YGANKDGIIWVATEGALNT_YLYALVYFLQSINFVRIIM_YNYLYRLFRKSNLKPFERD_YSKWYIRVGARKSAPLIELC_YSSANNCTFEYVSQPFLMD'
p2
cnumpy.core.multiarray
scalar
p3
(cnumpy
dtype
p4
(S'f8'
I0
I1
tRp5
(I3
S'<'
NNNI-1
I-1
I0
tbS'\x93w\xd2\xdf\x93\xf8\xe8?'
tRp6
tp7
a(S'AEIRASANLAATKMSECVL_ANNAAIVLQLPQGTTLPKG_AVFQSASKIITLKKRWQLA_AYANRNRFLYIIKLIFLWL_CEFQFCNDPFLGVYYHKNN_DFGGFNFSQILPDPSKPSK_DGVKHVYQLRARSVSPKLFI_DHIGTRNPANNAAIVLQLP_DLLFNKVTLADAGFIKQYG_DNKFALTCFSTQFAFACPDG_DQVILLNKHIDAYKTFPPT_ENQKLIANQFNSAIGKIQD_FCTQLNRALTGIAVEQDKN_FEYVSQPFLMDLEGKQGNF_FNPETNILLNVPLHGTILT_GAGAALQIPFAMQMAYRFN_GAISSVLNDILSRLDKVEA_GNFKNLREFVFKNIDGYFK_HQPYVVDDPCPIHFYSKWYI_IITLKKRWQLALSKGVHFV_IQDSLSSTASALGKLQDVV_KNNKSWMESEFRVYSSANN_KVFRSSVLHSTQDLFLPFF_LDSKVGGNYNYLYRLFRKS_LFLPFFSNVTWFHAIHVSG_LICAQKFNGLTVLPPLLTD_LPIGINITRFQTLLALHRS_LTDEMIAQYTSALLAGTIT_MDLFMRIFTIGTVTLKQGE_MWLSYFIASFRLFARTRSM_NATRFASVYAWNRKRISNC_NGGDAALALLLLDRLNQLE_PKEITVATSRTLSYYKLGA_PRQKRTATKAYNVTQAFGR_PSDFVRATATIPIQASLPF_PSKRSFIEDLLFNKVTLAD_QTNSPRRARSVASQSIIAY_RFQTLLALHRSYLTPGDSS_RQKKQQTVTLLPAADLDDF_RWYFYYLGTGPEAGLPYGA_SELVIGAVILRGHLRIAGH_SFRLFARTRSMWSFNPETN_SNCVADYSVLYNSASFSTF_SNKKFLPFQQFGRDIADTT_SRTLSYYKLGASQRVAGDS_SSPDDQIGYYRRATRRIRG_STGSNVFQTRAGCLIGAEH_SYFTSDYYQLYSTQLSTDT_TAPAICHDGKAHFPREGVF_TITSGWTFGAGAALQIPFA_TRGVYYPDKVFRSSVLHST_TYTGAIKLDDKDPNFKDQV_VEAEVQIDRLITGRLQSLQ_VFLHVTYVPAQEKNFTTAP_VKDCVVLHSYFTSDYYQLY_VKQLSSNFGAISSVLNDIL_VRDLPQGFSALEPLVDLPI_VTQQLIRAAEIRASANLAA_YGANKDGIIWVATEGALNT_YLYALVYFLQSINFVRIIM_YNYLYRLFRKSNLKPFERD_YSKWYIRVGARKSAPLIELC_YSSANNCTFEYVSQPFLMD'
p8
g3
(g5
S'\x91w\xd2\xdf\x93\xf8\xe8?'
tRp9
tp10
a(S'AEIRASANLAATKMSECVL_ANNAAIVLQLPQGTTLPKG_AVFQSASKIITLKKRWQLA_AYANRNRFLYIIKLIFLWL_CEFQFCNDPFLGVYYHKNN_DFGGFNFSQILPDPSKPSK_DGVKHVYQLRARSVSPKLFI_DHIGTRNPANNAAIVLQLP_DLLFNKVTLADAGFIKQYG_DNKFALTCFSTQFAFACPDG_DQVILLNKHIDAYKTFPPT_ENQKLIANQFNSAIGKIQD_FCTQLNRALTGIAVEQDKN_FEYVSQPFLMDLEGKQGNF_FNPETNILLNVPLHGTILT_FVFKNIDGYFKIYSKHTPI_GAGAALQIPFAMQMAYRFN_GAISSVLNDILSRLDKVEA_GNFKNLREFVFKNIDGYFK_HQPYVVDDPCPIHFYSKWYI_IITLKKRWQLALSKGVHFV_IQDSLSSTASALGKLQDVV_KNNKSWMESEFRVYSSANN_KVFRSSVLHSTQDLFLPFF_LDSKVGGNYNYLYRLFRKS_LFLPFFSNVTWFHAIHVSG_LICAQKFNGLTVLPPLLTD_LPIGINITRFQTLLALHRS_LTDEMIAQYTSALLAGTIT_MDLFMRIFTIGTVTLKQGE_MWLSYFIASFRLFARTRSM_NATRFASVYAWNRKRISNC_NGGDAALALLLLDRLNQLE_PKEITVATSRTLSYYKLGA_PRQKRTATKAYNVTQAFGR_PSDFVRATATIPIQASLPF_PSKRSFIEDLLFNKVTLAD_QTNSPRRARSVASQSIIAY_RFQTLLALHRSYLTPGDSS_RQKKQQTVTLLPAADLDDF_RWYFYYLGTGPEAGLPYGA_SELVIGAVILRGHLRIAGH_SFRLFARTRSMWSFNPETN_SNCVADYSVLYNSASFSTF_SRTLSYYKLGASQRVAGDS_SSPDDQIGYYRRATRRIRG_STGSNVFQTRAGCLIGAEH_SYFTSDYYQLYSTQLSTDT_TAPAICHDGKAHFPREGVF_TITSGWTFGAGAALQIPFA_TRGVYYPDKVFRSSVLHST_TYTGAIKLDDKDPNFKDQV_VEAEVQIDRLITGRLQSLQ_VFLHVTYVPAQEKNFTTAP_VKDCVVLHSYFTSDYYQLY_VKQLSSNFGAISSVLNDIL_VRDLPQGFSALEPLVDLPI_VTQQLIRAAEIRASANLAA_YGANKDGIIWVATEGALNT_YLYALVYFLQSINFVRIIM_YNYLYRLFRKSNLKPFERD_YSKWYIRVGARKSAPLIELC_YSSANNCTFEYVSQPFLMD'
p11
g3
(g5
S'\x91w\xd2\xdf\x93\xf8\xe8?'
tRp12
tp13
a(S'AEIRASANLAATKMSECVL_ANNAAIVLQLPQGTTLPKG_AVFQSASKIITLKKRWQLA_AYANRNRFLYIIKLIFLWL_CEFQFCNDPFLGVYYHKNN_DFGGFNFSQILPDPSKPSK_DGVKHVYQLRARSVSPKLFI_DHIGTRNPANNAAIVLQLP_DLLFNKVTLADAGFIKQYG_DNKFALTCFSTQFAFACPDG_DQVILLNKHIDAYKTFPPT_ENQKLIANQFNSAIGKIQD_FCTQLNRALTGIAVEQDKN_FEYVSQPFLMDLEGKQGNF_FNPETNILLNVPLHGTILT_GAGAALQIPFAMQMAYRFN_GAISSVLNDILSRLDKVEA_GNFKNLREFVFKNIDGYFK_HQPYVVDDPCPIHFYSKWYI_IITLKKRWQLALSKGVHFV_IQDSLSSTASALGKLQDVV_KNNKSWMESEFRVYSSANN_KVFRSSVLHSTQDLFLPFF_LDSKVGGNYNYLYRLFRKS_LFLPFFSNVTWFHAIHVSG_LICAQKFNGLTVLPPLLTD_LPIGINITRFQTLLALHRS_LTDEMIAQYTSALLAGTIT_MDLFMRIFTIGTVTLKQGE_MWLSYFIASFRLFARTRSM_NATRFASVYAWNRKRISNC_NGGDAALALLLLDRLNQLE_PKEITVATSRTLSYYKLGA_PRQKRTATKAYNVTQAFGR_PSDFVRATATIPIQASLPF_PSKRSFIEDLLFNKVTLAD_QTNSPRRARSVASQSIIAY_RFQTLLALHRSYLTPGDSS_RQKKQQTVTLLPAADLDDF_RWYFYYLGTGPEAGLPYGA_SELVIGAVILRGHLRIAGH_SFRLFARTRSMWSFNPETN_SNCVADYSVLYNSASFSTF_SRTLSYYKLGASQRVAGDS_SSPDDQIGYYRRATRRIRG_STGSNVFQTRAGCLIGAEH_SYFTSDYYQLYSTQLSTDT_TAPAICHDGKAHFPREGVF_TITSGWTFGAGAALQIPFA_TRGVYYPDKVFRSSVLHST_TYTGAIKLDDKDPNFKDQV_VEAEVQIDRLITGRLQSLQ_VFLHVTYVPAQEKNFTTAP_VKDCVVLHSYFTSDYYQLY_VKQLSSNFGAISSVLNDIL_VRDLPQGFSALEPLVDLPI_VTQQLIRAAEIRASANLAA_YFKIYSKHTPINLVRDLPQ_YGANKDGIIWVATEGALNT_YLYALVYFLQSINFVRIIM_YNYLYRLFRKSNLKPFERD_YSKWYIRVGARKSAPLIELC_YSSANNCTFEYVSQPFLMD'
p14
g3
(g5
S'\x90w\xd2\xdf\x93\xf8\xe8?'
tRp15
tp16
a(S'AEIRASANLAATKMSECVL_ANNAAIVLQLPQGTTLPKG_AVFQSASKIITLKKRWQLA_AYANRNRFLYIIKLIFLWL_CEFQFCNDPFLGVYYHKNN_DFGGFNFSQILPDPSKPSK_DGVKHVYQLRARSVSPKLFI_DHIGTRNPANNAAIVLQLP_DLLFNKVTLADAGFIKQYG_DNKFALTCFSTQFAFACPDG_DQVILLNKHIDAYKTFPPT_ENQKLIANQFNSAIGKIQD_FCTQLNRALTGIAVEQDKN_FEYVSQPFLMDLEGKQGNF_FNPETNILLNVPLHGTILT_GAGAALQIPFAMQMAYRFN_GAISSVLNDILSRLDKVEA_GNFKNLREFVFKNIDGYFK_HQPYVVDDPCPIHFYSKWYI_IITLKKRWQLALSKGVHFV_IQDSLSSTASALGKLQDVV_KNNKSWMESEFRVYSSANN_KVFRSSVLHSTQDLFLPFF_LDSKVGGNYNYLYRLFRKS_LFLPFFSNVTWFHAIHVSG_LICAQKFNGLTVLPPLLTD_LPIGINITRFQTLLALHRS_LTDEMIAQYTSALLAGTIT_MDLFMRIFTIGTVTLKQGE_MWLSYFIASFRLFARTRSM_NAQALNTLVKQLSSNFGAI_NATRFASVYAWNRKRISNC_NGGDAALALLLLDRLNQLE_PKEITVATSRTLSYYKLGA_PRQKRTATKAYNVTQAFGR_PSDFVRATATIPIQASLPF_PSKRSFIEDLLFNKVTLAD_QTNSPRRARSVASQSIIAY_RFQTLLALHRSYLTPGDSS_RQKKQQTVTLLPAADLDDF_RWYFYYLGTGPEAGLPYGA_SELVIGAVILRGHLRIAGH_SFRLFARTRSMWSFNPETN_SNCVADYSVLYNSASFSTF_SRTLSYYKLGASQRVAGDS_SSPDDQIGYYRRATRRIRG_STGSNVFQTRAGCLIGAEH_SYFTSDYYQLYSTQLSTDT_TAPAICHDGKAHFPREGVF_TITSGWTFGAGAALQIPFA_TRGVYYPDKVFRSSVLHST_TYTGAIKLDDKDPNFKDQV_VEAEVQIDRLITGRLQSLQ_VFLHVTYVPAQEKNFTTAP_VKDCVVLHSYFTSDYYQLY_VKQLSSNFGAISSVLNDIL_VRDLPQGFSALEPLVDLPI_VTQQLIRAAEIRASANLAA_YGANKDGIIWVATEGALNT_YLYALVYFLQSINFVRIIM_YNYLYRLFRKSNLKPFERD_YSKWYIRVGARKSAPLIELC_YSSANNCTFEYVSQPFLMD'
p17
g3
(g5
S'\x90w\xd2\xdf\x93\xf8\xe8?'
tRp18
tp19
a(S'AEIRASANLAATKMSECVL_ANNAAIVLQLPQGTTLPKG_AVFQSASKIITLKKRWQLA_AYANRNRFLYIIKLIFLWL_CEFQFCNDPFLGVYYHKNN_DFGGFNFSQILPDPSKPSK_DGVKHVYQLRARSVSPKLFI_DHIGTRNPANNAAIVLQLP_DLLFNKVTLADAGFIKQYG_DNKFALTCFSTQFAFACPDG_DQVILLNKHIDAYKTFPPT_ENQKLIANQFNSAIGKIQD_FCTQLNRALTGIAVEQDKN_FEYVSQPFLMDLEGKQGNF_FNPETNILLNVPLHGTILT_GAGAALQIPFAMQMAYRFN_GAISSVLNDILSRLDKVEA_GNFKNLREFVFKNIDGYFK_HQPYVVDDPCPIHFYSKWYI_IITLKKRWQLALSKGVHFV_IQDSLSSTASALGKLQDVV_KNNKSWMESEFRVYSSANN_KVFRSSVLHSTQDLFLPFF_LDSKVGGNYNYLYRLFRKS_LFLPFFSNVTWFHAIHVSG_LICAQKFNGLTVLPPLLTD_LPIGINITRFQTLLALHRS_LTDEMIAQYTSALLAGTIT_MDLFMRIFTIGTVTLKQGE_MWLSYFIASFRLFARTRSM_NATRFASVYAWNRKRISNC_NGGDAALALLLLDRLNQLE_PKEITVATSRTLSYYKLGA_PNNTASWFTALTQHGKEDL_PRQKRTATKAYNVTQAFGR_PSDFVRATATIPIQASLPF_PSKRSFIEDLLFNKVTLAD_QTNSPRRARSVASQSIIAY_RFQTLLALHRSYLTPGDSS_RQKKQQTVTLLPAADLDDF_RWYFYYLGTGPEAGLPYGA_SELVIGAVILRGHLRIAGH_SFRLFARTRSMWSFNPETN_SNCVADYSVLYNSASFSTF_SRTLSYYKLGASQRVAGDS_SSPDDQIGYYRRATRRIRG_STGSNVFQTRAGCLIGAEH_SYFTSDYYQLYSTQLSTDT_TAPAICHDGKAHFPREGVF_TITSGWTFGAGAALQIPFA_TRGVYYPDKVFRSSVLHST_TYTGAIKLDDKDPNFKDQV_VEAEVQIDRLITGRLQSLQ_VFLHVTYVPAQEKNFTTAP_VKDCVVLHSYFTSDYYQLY_VKQLSSNFGAISSVLNDIL_VRDLPQGFSALEPLVDLPI_VTQQLIRAAEIRASANLAA_YGANKDGIIWVATEGALNT_YLYALVYFLQSINFVRIIM_YNYLYRLFRKSNLKPFERD_YSKWYIRVGARKSAPLIELC_YSSANNCTFEYVSQPFLMD'
p20
g3
(g5
S'\xb0\x1aK\xd1\x15\xec\xe8?'
tRp21
tp22
a(S'AEIRASANLAATKMSECVL_ANNAAIVLQLPQGTTLPKG_AVFQSASKIITLKKRWQLA_AYANRNRFLYIIKLIFLWL_CEFQFCNDPFLGVYYHKNN_DFGGFNFSQILPDPSKPSK_DGVKHVYQLRARSVSPKLFI_DHIGTRNPANNAAIVLQLP_DLLFNKVTLADAGFIKQYG_DNKFALTCFSTQFAFACPDG_DQVILLNKHIDAYKTFPPT_ENQKLIANQFNSAIGKIQD_FCTQLNRALTGIAVEQDKN_FEYVSQPFLMDLEGKQGNF_FNPETNILLNVPLHGTILT_FPFTIYSLLLCRMNSRNYI_GAGAALQIPFAMQMAYRFN_GAISSVLNDILSRLDKVEA_GNFKNLREFVFKNIDGYFK_HQPYVVDDPCPIHFYSKWYI_IITLKKRWQLALSKGVHFV_IQDSLSSTASALGKLQDVV_KNNKSWMESEFRVYSSANN_KVFRSSVLHSTQDLFLPFF_LDSKVGGNYNYLYRLFRKS_LFLPFFSNVTWFHAIHVSG_LICAQKFNGLTVLPPLLTD_LPIGINITRFQTLLALHRS_LTDEMIAQYTSALLAGTIT_MDLFMRIFTIGTVTLKQGE_MWLSYFIASFRLFARTRSM_NATRFASVYAWNRKRISNC_NGGDAALALLLLDRLNQLE_PKEITVATSRTLSYYKLGA_PRQKRTATKAYNVTQAFGR_PSDFVRATATIPIQASLPF_PSKRSFIEDLLFNKVTLAD_QTNSPRRARSVASQSIIAY_RFQTLLALHRSYLTPGDSS_RQKKQQTVTLLPAADLDDF_RWYFYYLGTGPEAGLPYGA_SELVIGAVILRGHLRIAGH_SFRLFARTRSMWSFNPETN_SNCVADYSVLYNSASFSTF_SRTLSYYKLGASQRVAGDS_SSPDDQIGYYRRATRRIRG_STGSNVFQTRAGCLIGAEH_SYFTSDYYQLYSTQLSTDT_TAPAICHDGKAHFPREGVF_TITSGWTFGAGAALQIPFA_TRGVYYPDKVFRSSVLHST_TYTGAIKLDDKDPNFKDQV_VEAEVQIDRLITGRLQSLQ_VFLHVTYVPAQEKNFTTAP_VKDCVVLHSYFTSDYYQLY_VKQLSSNFGAISSVLNDIL_VRDLPQGFSALEPLVDLPI_VTQQLIRAAEIRASANLAA_YGANKDGIIWVATEGALNT_YLYALVYFLQSINFVRIIM_YNYLYRLFRKSNLKPFERD_YSKWYIRVGARKSAPLIELC_YSSANNCTFEYVSQPFLMD'
p23
g3
(g5
S'\xb0\x1aK\xd1\x15\xec\xe8?'
tRp24
tp25
a(S'AEIRASANLAATKMSECVL_ANNAAIVLQLPQGTTLPKG_AVFQSASKIITLKKRWQLA_AYANRNRFLYIIKLIFLWL_CEFQFCNDPFLGVYYHKNN_DFGGFNFSQILPDPSKPSK_DGVKHVYQLRARSVSPKLFI_DHIGTRNPANNAAIVLQLP_DLLFNKVTLADAGFIKQYG_DNKFALTCFSTQFAFACPDG_DQVILLNKHIDAYKTFPPT_ENQKLIANQFNSAIGKIQD_FCTQLNRALTGIAVEQDKN_FEYVSQPFLMDLEGKQGNF_FLIVAAIVFITLCFTLKRKTE_FNPETNILLNVPLHGTILT_GAGAALQIPFAMQMAYRFN_GAISSVLNDILSRLDKVEA_GNFKNLREFVFKNIDGYFK_HQPYVVDDPCPIHFYSKWYI_IITLKKRWQLALSKGVHFV_IQDSLSSTASALGKLQDVV_KNNKSWMESEFRVYSSANN_KVFRSSVLHSTQDLFLPFF_LDSKVGGNYNYLYRLFRKS_LFLPFFSNVTWFHAIHVSG_LICAQKFNGLTVLPPLLTD_LPIGINITRFQTLLALHRS_LTDEMIAQYTSALLAGTIT_MDLFMRIFTIGTVTLKQGE_MWLSYFIASFRLFARTRSM_NATRFASVYAWNRKRISNC_NGGDAALALLLLDRLNQLE_PKEITVATSRTLSYYKLGA_PRQKRTATKAYNVTQAFGR_PSDFVRATATIPIQASLPF_PSKRSFIEDLLFNKVTLAD_QTNSPRRARSVASQSIIAY_RFQTLLALHRSYLTPGDSS_RQKKQQTVTLLPAADLDDF_RWYFYYLGTGPEAGLPYGA_SELVIGAVILRGHLRIAGH_SFRLFARTRSMWSFNPETN_SNCVADYSVLYNSASFSTF_SRTLSYYKLGASQRVAGDS_SSPDDQIGYYRRATRRIRG_STGSNVFQTRAGCLIGAEH_SYFTSDYYQLYSTQLSTDT_TAPAICHDGKAHFPREGVF_TITSGWTFGAGAALQIPFA_TRGVYYPDKVFRSSVLHST_TYTGAIKLDDKDPNFKDQV_VEAEVQIDRLITGRLQSLQ_VFLHVTYVPAQEKNFTTAP_VKDCVVLHSYFTSDYYQLY_VKQLSSNFGAISSVLNDIL_VRDLPQGFSALEPLVDLPI_VTQQLIRAAEIRASANLAA_YGANKDGIIWVATEGALNT_YLYALVYFLQSINFVRIIM_YNYLYRLFRKSNLKPFERD_YSKWYIRVGARKSAPLIELC_YSSANNCTFEYVSQPFLMD'
p26
g24
tp27
a(S'AEIRASANLAATKMSECVL_ANNAAIVLQLPQGTTLPKG_AVFQSASKIITLKKRWQLA_AYANRNRFLYIIKLIFLWL_CEFQFCNDPFLGVYYHKNN_DFGGFNFSQILPDPSKPSK_DGVKHVYQLRARSVSPKLFI_DHIGTRNPANNAAIVLQLP_DLLFNKVTLADAGFIKQYG_DNKFALTCFSTQFAFACPDG_DQVILLNKHIDAYKTFPPT_DYIINLIIKNLSKSLTENK_ENQKLIANQFNSAIGKIQD_FCTQLNRALTGIAVEQDKN_FEYVSQPFLMDLEGKQGNF_FNPETNILLNVPLHGTILT_GAGAALQIPFAMQMAYRFN_GAISSVLNDILSRLDKVEA_GNFKNLREFVFKNIDGYFK_HQPYVVDDPCPIHFYSKWYI_IITLKKRWQLALSKGVHFV_IQDSLSSTASALGKLQDVV_KNNKSWMESEFRVYSSANN_KVFRSSVLHSTQDLFLPFF_LDSKVGGNYNYLYRLFRKS_LFLPFFSNVTWFHAIHVSG_LICAQKFNGLTVLPPLLTD_LPIGINITRFQTLLALHRS_LTDEMIAQYTSALLAGTIT_MDLFMRIFTIGTVTLKQGE_MWLSYFIASFRLFARTRSM_NATRFASVYAWNRKRISNC_NGGDAALALLLLDRLNQLE_PKEITVATSRTLSYYKLGA_PRQKRTATKAYNVTQAFGR_PSDFVRATATIPIQASLPF_PSKRSFIEDLLFNKVTLAD_QTNSPRRARSVASQSIIAY_RFQTLLALHRSYLTPGDSS_RQKKQQTVTLLPAADLDDF_RWYFYYLGTGPEAGLPYGA_SELVIGAVILRGHLRIAGH_SFRLFARTRSMWSFNPETN_SNCVADYSVLYNSASFSTF_SRTLSYYKLGASQRVAGDS_SSPDDQIGYYRRATRRIRG_STGSNVFQTRAGCLIGAEH_SYFTSDYYQLYSTQLSTDT_TAPAICHDGKAHFPREGVF_TITSGWTFGAGAALQIPFA_TRGVYYPDKVFRSSVLHST_TYTGAIKLDDKDPNFKDQV_VEAEVQIDRLITGRLQSLQ_VFLHVTYVPAQEKNFTTAP_VKDCVVLHSYFTSDYYQLY_VKQLSSNFGAISSVLNDIL_VRDLPQGFSALEPLVDLPI_VTQQLIRAAEIRASANLAA_YGANKDGIIWVATEGALNT_YLYALVYFLQSINFVRIIM_YNYLYRLFRKSNLKPFERD_YSKWYIRVGARKSAPLIELC_YSSANNCTFEYVSQPFLMD'
p28
g3
(g5
S'\xad\x1aK\xd1\x15\xec\xe8?'
tRp29
tp30
a(S'AEIRASANLAATKMSECVL_ANNAAIVLQLPQGTTLPKG_AVFQSASKIITLKKRWQLA_AYANRNRFLYIIKLIFLWL_CEFQFCNDPFLGVYYHKNN_DFGGFNFSQILPDPSKPSK_DGVKHVYQLRARSVSPKLFI_DHIGTRNPANNAAIVLQLP_DLLFNKVTLADAGFIKQYG_DNKFALTCFSTQFAFACPDG_DQVILLNKHIDAYKTFPPT_ENQKLIANQFNSAIGKIQD_FCTQLNRALTGIAVEQDKN_FEYVSQPFLMDLEGKQGNF_FNPETNILLNVPLHGTILT_GAGAALQIPFAMQMAYRFN_GAISSVLNDILSRLDKVEA_GNFKNLREFVFKNIDGYFK_GVFVSNGTHWFVTQRNFYE_HQPYVVDDPCPIHFYSKWYI_IITLKKRWQLALSKGVHFV_IQDSLSSTASALGKLQDVV_KNNKSWMESEFRVYSSANN_KVFRSSVLHSTQDLFLPFF_LDSKVGGNYNYLYRLFRKS_LFLPFFSNVTWFHAIHVSG_LICAQKFNGLTVLPPLLTD_LPIGINITRFQTLLALHRS_LTDEMIAQYTSALLAGTIT_MDLFMRIFTIGTVTLKQGE_MWLSYFIASFRLFARTRSM_NATRFASVYAWNRKRISNC_NGGDAALALLLLDRLNQLE_PKEITVATSRTLSYYKLGA_PRQKRTATKAYNVTQAFGR_PSDFVRATATIPIQASLPF_PSKRSFIEDLLFNKVTLAD_QTNSPRRARSVASQSIIAY_RFQTLLALHRSYLTPGDSS_RQKKQQTVTLLPAADLDDF_RWYFYYLGTGPEAGLPYGA_SELVIGAVILRGHLRIAGH_SFRLFARTRSMWSFNPETN_SNCVADYSVLYNSASFSTF_SRTLSYYKLGASQRVAGDS_SSPDDQIGYYRRATRRIRG_STGSNVFQTRAGCLIGAEH_SYFTSDYYQLYSTQLSTDT_TAPAICHDGKAHFPREGVF_TITSGWTFGAGAALQIPFA_TRGVYYPDKVFRSSVLHST_TYTGAIKLDDKDPNFKDQV_VEAEVQIDRLITGRLQSLQ_VFLHVTYVPAQEKNFTTAP_VKDCVVLHSYFTSDYYQLY_VKQLSSNFGAISSVLNDIL_VRDLPQGFSALEPLVDLPI_VTQQLIRAAEIRASANLAA_YGANKDGIIWVATEGALNT_YLYALVYFLQSINFVRIIM_YNYLYRLFRKSNLKPFERD_YSKWYIRVGARKSAPLIELC_YSSANNCTFEYVSQPFLMD'
p31
g3
(g5
S'\x1d"\xc0\xeb\xcf\xe9\xe8?'
tRp32
tp33
a.