(lp1
(S'FAYANRNRF_HVTFFIYNK_LTDEMIAQY_SPRWYFYYL_YLQPRTFLL_YLYALVYFL'
p2
cnumpy.core.multiarray
scalar
p3
(cnumpy
dtype
p4
(S'f8'
I0
I1
tRp5
(I3
S'<'
NNNI-1
I-1
I0
tbS'\xddl\x19Td\xce\xef?'
tRp6
tp7
a(S'FAYANRNRF_FPRGQGVPI_HVTFFIYNK_LTDEMIAQY_YLQPRTFLL_YLYALVYFL'
p8
g3
(g5
S'(M\xbc[\xc4\xcd\xef?'
tRp9
tp10
a(S'FAYANRNRF_HVTFFIYNK_IPRRNVATL_LTDEMIAQY_YLQPRTFLL_YLYALVYFL'
p11
g3
(g5
S'c\xb5?\xaa\x95\xcd\xef?'
tRp12
tp13
a(S'FAYANRNRF_FPRGQGVPI_HVTFFIYNK_ISDYDYYRY_YLQPRTFLL_YLYALVYFL'
p14
g3
(g5
S' \x81\xb0\x17p\xcd\xef?'
tRp15
tp16
a(S'FAYANRNRF_HVTFFIYNK_LTDEMIAQY_MPASWVMRI_YLQPRTFLL_YLYALVYFL'
p17
g3
(g5
S'\xeb?\x10\xd4\xca\xcb\xef?'
tRp18
tp19
a(S'FAYANRNRF_HVTFFIYNK_IPIQASLPF_LTDEMIAQY_YLQPRTFLL_YLYALVYFL'
p20
g3
(g5
S'\xed\x87\xad\xe9\xe1\xca\xef?'
tRp21
tp22
a(S'FAYANRNRF_FPRGQGVPI_HVTFFIYNK_LTDEMIAQY_TMADLVYAL_YLQPRTFLL'
p23
g3
(g5
S'\x1d\xedFA\xe2\xc9\xef?'
tRp24
tp25
a(S'FAYANRNRF_FPRGQGVPI_HVTFFIYNK_LTDEMIAQY_SIIAYTMSL_YLQPRTFLL'
p26
g3
(g5
S'\x98\x8e*\xe3\xa8\xc9\xef?'
tRp27
tp28
a(S'FAYANRNRF_FPRGQGVPI_LTDEMIAQY_MTSCCSCLK_YLQPRTFLL_YLYALVYFL'
p29
g3
(g5
S'\xb3\xd4\xb7\x0b\x9d\xc9\xef?'
tRp30
tp31
a(S'FAYANRNRF_FPRGQGVPI_HVTFFIYNK_LLYDANYFL_LTDEMIAQY_YLQPRTFLL'
p32
g3
(g5
S'\xfd\x84b\xc5q\xc9\xef?'
tRp33
tp34
a.