(lp1
(S'AEIRASANL_ATSRTLSYY_FAYANRNRF_FLNRFTTTL_FPQSAPHGV_FPRGQGVPI_HVTFFIYNK_KTFPPTEPK_LTDEMIAQY_SIIAYTMSL_TVYSHLLLV_YLQPRTFLL_YLYALVYFL'
p2
cnumpy.core.multiarray
scalar
p3
(cnumpy
dtype
p4
(S'f8'
I0
I1
tRp5
(I3
S'<'
NNNI-1
I-1
I0
tbS'\xefZ\xff\xa5L\xbb\xef?'
tRp6
tp7
a(S'AEIRASANL_ATSRTLSYY_FAYANRNRF_FLNRFTTTL_FPQSAPHGV_FPRGQGVPI_HVTFFIYNK_LTDEMIAQY_SIIAYTMSL_TSRTLSYYK_TVYSHLLLV_YLQPRTFLL_YLYALVYFL'
p8
g3
(g5
S'\xd5zA(\x15\xbb\xef?'
tRp9
tp10
a(S'AEIRASANL_ATSRTLSYY_FAYANRNRF_FLNRFTTTL_FPQSAPHGV_FPRGQGVPI_KTFPPTEPK_LTDEMIAQY_MTSCCSCLK_SIIAYTMSL_TVYSHLLLV_YLQPRTFLL_YLYALVYFL'
p11
g3
(g5
S'\xb7\xc3iS\xfc\xba\xef?'
tRp12
tp13
a(S'AEIRASANL_ALRANSAVK_ATSRTLSYY_FAYANRNRF_FLNRFTTTL_FPQSAPHGV_FPRGQGVPI_HVTFFIYNK_LTDEMIAQY_SIIAYTMSL_TVYSHLLLV_YLQPRTFLL_YLYALVYFL'
p14
g3
(g5
S'of\x90"\xd0\xba\xef?'
tRp15
tp16
a(S'AEIRASANL_ATSRTLSYY_FAYANRNRF_FLNRFTTTL_FPQSAPHGV_FPRGQGVPI_LTDEMIAQY_MTSCCSCLK_SIIAYTMSL_TSRTLSYYK_TVYSHLLLV_YLQPRTFLL_YLYALVYFL'
p17
g3
(g5
S'\xa3\xe3\xab\xd5\xc4\xba\xef?'
tRp18
tp19
a(S'AEIRASANL_ATSRTLSYY_FAYANRNRF_FLNRFTTTL_FPQSAPHGV_FPRGQGVPI_HVTFFIYNK_ISDYDYYRY_KTFPPTEPK_SIIAYTMSL_TVYSHLLLV_YLQPRTFLL_YLYALVYFL'
p20
g3
(g5
S'A\xb6D\x8c\xb7\xba\xef?'
tRp21
tp22
a(S'AEIRASANL_ATSRTLSYY_FAYANRNRF_FLNRFTTTL_FPQSAPHGV_HVTFFIYNK_KTFPPTEPK_LTDEMIAQY_SIIAYTMSL_SPRWYFYYL_TVYSHLLLV_YLQPRTFLL_YLYALVYFL'
p23
g3
(g5
S'\xbb\x82y-t\xb9\xef?'
tRp24
tp25
a(S'AEIRASANL_ATSRTLSYY_FAYANRNRF_FLNRFTTTL_FPRGQGVPI_HVTFFIYNK_KTFPPTEPK_LTDEMIAQY_MPASWVMRI_SIIAYTMSL_TVYSHLLLV_YLQPRTFLL_YLYALVYFL'
p26
g3
(g5
S'$\xbd5\xd2o\xb9\xef?'
tRp27
tp28
a(S'AEIRASANL_ATSRTLSYY_FAYANRNRF_FLNRFTTTL_FPRGQGVPI_HVTFFIYNK_LTDEMIAQY_MPASWVMRI_SIIAYTMSL_TSRTLSYYK_TVYSHLLLV_YLQPRTFLL_YLYALVYFL'
p29
g3
(g5
S'\x8c\xf0\x90\x14=\xb9\xef?'
tRp30
tp31
a(S'AEIRASANL_ATSRTLSYY_FAYANRNRF_FLNRFTTTL_FPRGQGVPI_KTFPPTEPK_LTDEMIAQY_MPASWVMRI_MTSCCSCLK_SIIAYTMSL_TVYSHLLLV_YLQPRTFLL_YLYALVYFL'
p32
g3
(g5
S'\xf3\xaf)\xb83\xb9\xef?'
tRp33
tp34
a.