(lp1
(S'AEIRASANL_ATSRTLSYY_FAYANRNRF_FLNRFTTTL_FPQSAPHGV_FPRGQGVPI_HVTFFIYNK_KTFPPTEPK_LTDEMIAQY_MPASWVMRI_MTSCCSCLK_SIIAYTMSL_TMADLVYAL_TVYSHLLLV_YANRNRFLY_YEQYIKWPW_YLQPRTFLL_YLYALVYFL'
p2
cnumpy.core.multiarray
scalar
p3
(cnumpy
dtype
p4
(S'f8'
I0
I1
tRp5
(I3
S'<'
NNNI-1
I-1
I0
tbS'\x95H\\Ql\xb5\xef?'
tRp6
tp7
a(S'AEIRASANL_ATSRTLSYY_FAYANRNRF_FLNRFTTTL_FPQSAPHGV_FPRGQGVPI_HVTFFIYNK_KTFPPTEPK_LLYDANYFL_LTDEMIAQY_MPASWVMRI_MTSCCSCLK_SIIAYTMSL_TVYSHLLLV_YANRNRFLY_YEQYIKWPW_YLQPRTFLL_YLYALVYFL'
p8
g3
(g5
S'\x81gc/D\xb5\xef?'
tRp9
tp10
a(S'AEIRASANL_AELEGIQY_ATSRTLSYY_FAYANRNRF_FLNRFTTTL_FPQSAPHGV_FPRGQGVPI_HVTFFIYNK_KTFPPTEPK_LTDEMIAQY_MPASWVMRI_MTSCCSCLK_SIIAYTMSL_TMADLVYAL_TVYSHLLLV_YANRNRFLY_YLQPRTFLL_YLYALVYFL'
p11
g3
(g5
S'`\x8b\x97\x1a4\xb5\xef?'
tRp12
tp13
a(S'AEIRASANL_ATSRTLSYY_FAYANRNRF_FLNRFTTTL_FPQSAPHGV_FPRGQGVPI_HVTFFIYNK_LTDEMIAQY_MPASWVMRI_MTSCCSCLK_SIIAYTMSL_TMADLVYAL_TSRTLSYYK_TVYSHLLLV_YANRNRFLY_YEQYIKWPW_YLQPRTFLL_YLYALVYFL'
p14
g3
(g5
S'U\xf3\x12\xbb#\xb5\xef?'
tRp15
tp16
a(S'AEIRASANL_AELEGIQY_ATSRTLSYY_FAYANRNRF_FLNRFTTTL_FPQSAPHGV_FPRGQGVPI_HVTFFIYNK_KTFPPTEPK_LLYDANYFL_LTDEMIAQY_MPASWVMRI_MTSCCSCLK_SIIAYTMSL_TVYSHLLLV_YANRNRFLY_YLQPRTFLL_YLYALVYFL'
p17
g3
(g5
S'M\xaa\x9e\xf8\x0b\xb5\xef?'
tRp18
tp19
a(S'AEIRASANL_ATSRTLSYY_FAYANRNRF_FLNRFTTTL_FPQSAPHGV_FPRGQGVPI_HVTFFIYNK_LLYDANYFL_LTDEMIAQY_MPASWVMRI_MTSCCSCLK_SIIAYTMSL_TSRTLSYYK_TVYSHLLLV_YANRNRFLY_YEQYIKWPW_YLQPRTFLL_YLYALVYFL'
p20
g3
(g5
S'@\xf4\x11Z\xfa\xb4\xef?'
tRp21
tp22
a(S'AEIRASANL_ATSRTLSYY_FAYANRNRF_FLNRFTTTL_FLPRVFSAV_FPQSAPHGV_FPRGQGVPI_HVTFFIYNK_KTFPPTEPK_LTDEMIAQY_MPASWVMRI_MTSCCSCLK_SIIAYTMSL_TVYSHLLLV_YANRNRFLY_YEQYIKWPW_YLQPRTFLL_YLYALVYFL'
p23
g3
(g5
S'\x80%0\x85\xf9\xb3\xef?'
tRp24
tp25
a(S'AEIRASANL_ATSRTLSYY_FAYANRNRF_FLNRFTTTL_FPQSAPHGV_FPRGQGVPI_HVTFFIYNK_KTFPPTEPK_LTDEMIAQY_MPASWVMRI_MTSCCSCLK_SIIAYTMSL_TVYSHLLLV_YANRNRFLY_YEQYIKWPW_YLDAYNMMI_YLQPRTFLL_YLYALVYFL'
p26
g3
(g5
S'\xf0wM~\xef\xb3\xef?'
tRp27
tp28
a(S'AEIRASANL_ATSRTLSYY_FAYANRNRF_FLNRFTTTL_FPQSAPHGV_FPRGQGVPI_HVTFFIYNK_KTFPPTEPK_LTDEMIAQY_MPASWVMRI_NVFAFPFTIY_SIIAYTMSL_TMADLVYAL_TVYSHLLLV_YANRNRFLY_YEQYIKWPW_YLQPRTFLL_YLYALVYFL'
p29
g3
(g5
S'%4<\xf0\xc1\xb3\xef?'
tRp30
tp31
a(S'AEIRASANL_AELEGIQY_ATSRTLSYY_FAYANRNRF_FLNRFTTTL_FLPRVFSAV_FPQSAPHGV_FPRGQGVPI_HVTFFIYNK_KTFPPTEPK_LTDEMIAQY_MPASWVMRI_MTSCCSCLK_SIIAYTMSL_TVYSHLLLV_YANRNRFLY_YLQPRTFLL_YLYALVYFL'
p32
g3
(g5
S'\xa3\xe6B\xcc\xbf\xb3\xef?'
tRp33
tp34
a.