(lp1
(S'FAYANRNRF_FLNRFTTTL_HVTFFIYNK_LTDEMIAQY_SPRWYFYYL_YLQPRTFLL_YLYALVYFL'
p2
cnumpy.core.multiarray
scalar
p3
(cnumpy
dtype
p4
(S'f8'
I0
I1
tRp5
(I3
S'<'
NNNI-1
I-1
I0
tbS'\xb7[G\x99kx\xef?'
tRp6
tp7
a(S'ATSRTLSYY_FAYANRNRF_FPRGQGVPI_HVTFFIYNK_LTDEMIAQY_YLQPRTFLL_YLYALVYFL'
p8
g3
(g5
S'\xc3\x82\x03m\xe3u\xef?'
tRp9
tp10
a(S'ATSRTLSYY_FAYANRNRF_FPRGQGVPI_HVTFFIYNK_ISDYDYYRY_YLQPRTFLL_YLYALVYFL'
p11
g3
(g5
S'y\xf83\x14Ru\xef?'
tRp12
tp13
a(S'ATSRTLSYY_FAYANRNRF_HVTFFIYNK_LTDEMIAQY_SPRWYFYYL_YLQPRTFLL_YLYALVYFL'
p14
g3
(g5
S'8\x1f\xc1=&u\xef?'
tRp15
tp16
a(S'FAYANRNRF_HVTFFIYNK_KTFPPTEPK_LTDEMIAQY_SPRWYFYYL_YLQPRTFLL_YLYALVYFL'
p17
g3
(g5
S'\xa3\x9eU\xdd\xa7s\xef?'
tRp18
tp19
a(S'FAYANRNRF_HVTFFIYNK_LTDEMIAQY_SPRWYFYYL_TSRTLSYYK_YLQPRTFLL_YLYALVYFL'
p20
g3
(g5
S'1\x8a\xa2\xf1ws\xef?'
tRp21
tp22
a(S'ATSRTLSYY_FAYANRNRF_HVTFFIYNK_IPRRNVATL_LTDEMIAQY_YLQPRTFLL_YLYALVYFL'
p23
g3
(g5
S'\x0be\xed\x9f\x7fr\xef?'
tRp24
tp25
a(S'ATSRTLSYY_FAYANRNRF_FPRGQGVPI_LTDEMIAQY_MTSCCSCLK_YLQPRTFLL_YLYALVYFL'
p26
g3
(g5
S'\x15W\x8f,\xe0q\xef?'
tRp27
tp28
a(S'FAYANRNRF_HVTFFIYNK_LTDEMIAQY_SIIAYTMSL_SPRWYFYYL_YLQPRTFLL_YLYALVYFL'
p29
g3
(g5
S'\x19\x12^\x1d\xdbq\xef?'
tRp30
tp31
a(S'FAYANRNRF_HVTFFIYNK_IPRRNVATL_LTDEMIAQY_SIIAYTMSL_YLQPRTFLL_YLYALVYFL'
p32
g3
(g5
S'K\xd7\x175\rq\xef?'
tRp33
tp34
a.