(lp1
(S'AEIRASANL_ATSRTLSYY_FAYANRNRF_FLNRFTTTL_FPRGQGVPI_HVTFFIYNK_LTDEMIAQY_SIIAYTMSL_YLQPRTFLL_YLYALVYFL'
p2
cnumpy.core.multiarray
scalar
p3
(cnumpy
dtype
p4
(S'f8'
I0
I1
tRp5
(I3
S'<'
NNNI-1
I-1
I0
tbS'%\xd9\xc9\xf3\x1fe\xef?'
tRp6
tp7
a(S'ATSRTLSYY_FAYANRNRF_FLNRFTTTL_HVTFFIYNK_KTFPPTEPK_LTDEMIAQY_SPRWYFYYL_TVYSHLLLV_YLQPRTFLL_YLYALVYFL'
p8
g3
(g5
S'\x00<\xad\xe8\tc\xef?'
tRp9
tp10
a(S'FAYANRNRF_FLNRFTTTL_HVTFFIYNK_KTFPPTEPK_LTDEMIAQY_SIIAYTMSL_SPRWYFYYL_TVYSHLLLV_YLQPRTFLL_YLYALVYFL'
p11
g3
(g5
S'e1\x19D\xfcb\xef?'
tRp12
tp13
a(S'ATSRTLSYY_FAYANRNRF_FLNRFTTTL_HVTFFIYNK_LTDEMIAQY_SPRWYFYYL_TSRTLSYYK_TVYSHLLLV_YLQPRTFLL_YLYALVYFL'
p14
g3
(g5
S'\x01\x16<\xac\xbfb\xef?'
tRp15
tp16
a(S'AEIRASANL_ATSRTLSYY_FAYANRNRF_FLNRFTTTL_FPRGQGVPI_HVTFFIYNK_ISDYDYYRY_SIIAYTMSL_YLQPRTFLL_YLYALVYFL'
p17
g3
(g5
S'\xc8,\x13\x87\xb3b\xef?'
tRp18
tp19
a(S'FAYANRNRF_FLNRFTTTL_HVTFFIYNK_LTDEMIAQY_SIIAYTMSL_SPRWYFYYL_TSRTLSYYK_TVYSHLLLV_YLQPRTFLL_YLYALVYFL'
p20
g3
(g5
S'\x1b\xf4\x96\xaa\x8ab\xef?'
tRp21
tp22
a(S'AEIRASANL_ATSRTLSYY_FAYANRNRF_FLNRFTTTL_HVTFFIYNK_LTDEMIAQY_SPRWYFYYL_TMADLVYAL_YLQPRTFLL_YLYALVYFL'
p23
g3
(g5
S'\x03\xad\xbd\xb0\xfca\xef?'
tRp24
tp25
a(S'AEIRASANL_ATSRTLSYY_FAYANRNRF_FLNRFTTTL_HVTFFIYNK_LLYDANYFL_LTDEMIAQY_SPRWYFYYL_YLQPRTFLL_YLYALVYFL'
p26
g3
(g5
S'io \xc0\xc3a\xef?'
tRp27
tp28
a(S'AEIRASANL_ATSRTLSYY_FAYANRNRF_FLNRFTTTL_FPRGQGVPI_LTDEMIAQY_MTSCCSCLK_SIIAYTMSL_YLQPRTFLL_YLYALVYFL'
p29
g3
(g5
S'\xad\x18sD,a\xef?'
tRp30
tp31
a(S'AEIRASANL_ATSRTLSYY_FAYANRNRF_FLNRFTTTL_HVTFFIYNK_LTDEMIAQY_SIIAYTMSL_SPRWYFYYL_YLQPRTFLL_YLYALVYFL'
p32
g3
(g5
S'\x88\x8e\xc6e\xc3`\xef?'
tRp33
tp34
a.