(lp1
(S'AEIRASANL_ATSRTLSYY_FAYANRNRF_FLNRFTTTL_FPQSAPHGV_FPRGQGVPI_HVTFFIYNK_KTFPPTEPK_LTDEMIAQY_MGYINVFAF_MPASWVMRI_MTSCCSCLK_SIIAYTMSL_SPRWYFYYL_TMADLVYAL_TVYSHLLLV_VRFPNITNL_YANRNRFLY_YEQYIKWPW_YLQPRTFLL_YLYALVYFL'
p2
cnumpy.core.multiarray
scalar
p3
(cnumpy
dtype
p4
(S'f8'
I0
I1
tRp5
(I3
S'<'
NNNI-1
I-1
I0
tbS'O\x8f,7V\xd5\xef?'
tRp6
tp7
a(S'AEIRASANL_AELEGIQY_ATSRTLSYY_FAYANRNRF_FLNRFTTTL_FPQSAPHGV_FPRGQGVPI_HVTFFIYNK_KTFPPTEPK_LTDEMIAQY_MGYINVFAF_MPASWVMRI_MTSCCSCLK_SIIAYTMSL_SPRWYFYYL_TMADLVYAL_TVYSHLLLV_VRFPNITNL_YANRNRFLY_YLQPRTFLL_YLYALVYFL'
p8
g3
(g5
S'p\xbf\x00\x1f:\xd5\xef?'
tRp9
tp10
a(S'AEIRASANL_ATSRTLSYY_FAYANRNRF_FLNRFTTTL_FPQSAPHGV_FPRGQGVPI_HVTFFIYNK_KTFPPTEPK_LLYDANYFL_LTDEMIAQY_MGYINVFAF_MPASWVMRI_MTSCCSCLK_SIIAYTMSL_SPRWYFYYL_TVYSHLLLV_VRFPNITNL_YANRNRFLY_YEQYIKWPW_YLQPRTFLL_YLYALVYFL'
p11
g3
(g5
S'kk\x87\x95$\xd5\xef?'
tRp12
tp13
a(S'AEIRASANL_ATSRTLSYY_FAYANRNRF_FLNRFTTTL_FPQSAPHGV_FPRGQGVPI_HVTFFIYNK_KTFPPTEPK_LTDEMIAQY_MGYINVFAF_MPASWVMRI_MTSCCSCLK_SIIAYTMSL_TMADLVYAL_TSRTLSYYK_TVYSHLLLV_VRFPNITNL_YANRNRFLY_YEQYIKWPW_YLQPRTFLL_YLYALVYFL'
p14
g3
(g5
S'8\xed\xfa\x10\x99\xd4\xef?'
tRp15
tp16
a(S'AEIRASANL_ATSRTLSYY_FAYANRNRF_FLNRFTTTL_FPQSAPHGV_FPRGQGVPI_HVTFFIYNK_KTFPPTEPK_LTDEMIAQY_MGYINVFAF_MPASWVMRI_MTSCCSCLK_RARSVSPKL_SIIAYTMSL_TMADLVYAL_TVYSHLLLV_VRFPNITNL_YANRNRFLY_YEQYIKWPW_YLQPRTFLL_YLYALVYFL'
p17
g3
(g5
S'\x9b\x07=H\x8f\xd4\xef?'
tRp18
tp19
a(S'AEIRASANL_ALRANSAVK_ATSRTLSYY_FAYANRNRF_FLNRFTTTL_FPQSAPHGV_FPRGQGVPI_HVTFFIYNK_KTFPPTEPK_LTDEMIAQY_MGYINVFAF_MPASWVMRI_MTSCCSCLK_SIIAYTMSL_TMADLVYAL_TVYSHLLLV_VRFPNITNL_YANRNRFLY_YEQYIKWPW_YLQPRTFLL_YLYALVYFL'
p20
g3
(g5
S'O^I~\x89\xd4\xef?'
tRp21
tp22
a(S'AEIRASANL_ATSRTLSYY_FAYANRNRF_FLNRFTTTL_FPQSAPHGV_FPRGQGVPI_HVTFFIYNK_KTFPPTEPK_LLYDANYFL_LTDEMIAQY_MGYINVFAF_MPASWVMRI_MTSCCSCLK_RARSVSPKL_SIIAYTMSL_TVYSHLLLV_VRFPNITNL_YANRNRFLY_YEQYIKWPW_YLQPRTFLL_YLYALVYFL'
p23
g3
(g5
S'\xf0\x87exu\xd4\xef?'
tRp24
tp25
a(S'AEIRASANL_ATSRTLSYY_FAYANRNRF_FLNRFTTTL_FPQSAPHGV_FPRGQGVPI_HVTFFIYNK_IPRRNVATL_KTFPPTEPK_LTDEMIAQY_MGYINVFAF_MPASWVMRI_MTSCCSCLK_SIIAYTMSL_TMADLVYAL_TVYSHLLLV_VRFPNITNL_YANRNRFLY_YEQYIKWPW_YLQPRTFLL_YLYALVYFL'
p26
g3
(g5
S'y;\x0f\xd5l\xd4\xef?'
tRp27
tp28
a(S'AEIRASANL_ASKIITLKK_ATSRTLSYY_FAYANRNRF_FLNRFTTTL_FPQSAPHGV_FPRGQGVPI_HVTFFIYNK_KTFPPTEPK_LTDEMIAQY_MGYINVFAF_MPASWVMRI_MTSCCSCLK_SIIAYTMSL_TMADLVYAL_TVYSHLLLV_VRFPNITNL_YANRNRFLY_YEQYIKWPW_YLQPRTFLL_YLYALVYFL'
p29
g3
(g5
S'\xf07P"\x03\xd4\xef?'
tRp30
tp31
a(S'AEIRASANL_ATSRTLSYY_FAYANRNRF_FLNRFTTTL_FPQSAPHGV_FPRGQGVPI_HVTFFIYNK_KMQRMLLEK_KTFPPTEPK_LTDEMIAQY_MGYINVFAF_MPASWVMRI_MTSCCSCLK_SIIAYTMSL_TMADLVYAL_TVYSHLLLV_VRFPNITNL_YANRNRFLY_YEQYIKWPW_YLQPRTFLL_YLYALVYFL'
p32
g3
(g5
S'\x9d\xaeg\xf9\xf6\xd3\xef?'
tRp33
tp34
a.