(lp1
(S'AEIRASANL_ATSRTLSYY_FAYANRNRF_FLNRFTTTL_FPQSAPHGV_FPRGQGVPI_HVTFFIYNK_KTFPPTEPK_LTDEMIAQY_MPASWVMRI_SIIAYTMSL_TVYSHLLLV_WTAGAAAYY_YANRNRFLY_YEQYIKWPW_YLQPRTFLL_YLYALVYFL'
p2
cnumpy.core.multiarray
scalar
p3
(cnumpy
dtype
p4
(S'f8'
I0
I1
tRp5
(I3
S'<'
NNNI-1
I-1
I0
tbS'x\x9f*\xe7D\xde\xef?'
tRp6
tp7
a(S'AEIRASANL_ATSRTLSYY_FAYANRNRF_FLNRFTTTL_FPQSAPHGV_FPRGQGVPI_HVTFFIYNK_KTFPPTEPK_LTDEMIAQY_MPASWVMRI_MTSCCSCLK_SIIAYTMSL_TVYSHLLLV_YANRNRFLY_YEQYIKWPW_YLQPRTFLL_YLYALVYFL'
p8
g3
(g5
S';dN\x0f<\xde\xef?'
tRp9
tp10
a(S'AEIRASANL_ATSRTLSYY_FAYANRNRF_FLNRFTTTL_FPQSAPHGV_FPRGQGVPI_HVTFFIYNK_KTFPPTEPK_LTDEMIAQY_MPASWVMRI_NVFAFPFTIY_SIIAYTMSL_TVYSHLLLV_YANRNRFLY_YEQYIKWPW_YLQPRTFLL_YLYALVYFL'
p11
g3
(g5
S'\xe0d\x00m5\xde\xef?'
tRp12
tp13
a(S'AEIRASANL_AELEGIQY_ATSRTLSYY_FAYANRNRF_FLNRFTTTL_FPQSAPHGV_FPRGQGVPI_HVTFFIYNK_KTFPPTEPK_LTDEMIAQY_MPASWVMRI_SIIAYTMSL_TVYSHLLLV_WTAGAAAYY_YANRNRFLY_YLQPRTFLL_YLYALVYFL'
p14
g3
(g5
S'\x95\xde9\x933\xde\xef?'
tRp15
tp16
a(S'AEIRASANL_ATSRTLSYY_FAYANRNRF_FLNRFTTTL_FPQSAPHGV_FPRGQGVPI_KTFPPTEPK_LTDEMIAQY_MPASWVMRI_MTSCCSCLK_SIIAYTMSL_TVYSHLLLV_WTAGAAAYY_YANRNRFLY_YEQYIKWPW_YLQPRTFLL_YLYALVYFL'
p17
g3
(g5
S'\xf7[#\xc9+\xde\xef?'
tRp18
tp19
a(S'AEIRASANL_ATSRTLSYY_FAYANRNRF_FLNRFTTTL_FPQSAPHGV_FPRGQGVPI_HVTFFIYNK_LTDEMIAQY_MPASWVMRI_SIIAYTMSL_TSRTLSYYK_TVYSHLLLV_WTAGAAAYY_YANRNRFLY_YEQYIKWPW_YLQPRTFLL_YLYALVYFL'
p20
g3
(g5
S'\xeb`c\xa8+\xde\xef?'
tRp21
tp22
a(S'AEIRASANL_AELEGIQY_ATSRTLSYY_FAYANRNRF_FLNRFTTTL_FPQSAPHGV_FPRGQGVPI_HVTFFIYNK_KTFPPTEPK_LTDEMIAQY_MPASWVMRI_MTSCCSCLK_SIIAYTMSL_TVYSHLLLV_YANRNRFLY_YLQPRTFLL_YLYALVYFL'
p23
g3
(g5
S'97\xa6\xa8)\xde\xef?'
tRp24
tp25
a(S'AEIRASANL_ATSRTLSYY_FAYANRNRF_FLNRFTTTL_FPQSAPHGV_FPRGQGVPI_HVTFFIYNK_LTDEMIAQY_MPASWVMRI_MTSCCSCLK_SIIAYTMSL_TSRTLSYYK_TVYSHLLLV_YANRNRFLY_YEQYIKWPW_YLQPRTFLL_YLYALVYFL'
p26
g3
(g5
S"d\x97\x17\x7f'\xde\xef?"
tRp27
tp28
a(S'AEIRASANL_AELEGIQY_ATSRTLSYY_FAYANRNRF_FLNRFTTTL_FPQSAPHGV_FPRGQGVPI_HVTFFIYNK_KTFPPTEPK_LTDEMIAQY_MPASWVMRI_NVFAFPFTIY_SIIAYTMSL_TVYSHLLLV_YANRNRFLY_YLQPRTFLL_YLYALVYFL'
p29
g3
(g5
S'\x94\x19_\x04 \xde\xef?'
tRp30
tp31
a(S'AEIRASANL_ATSRTLSYY_FAYANRNRF_FLNRFTTTL_FPQSAPHGV_FPRGQGVPI_HVTFFIYNK_KTFPPTEPK_LTDEMIAQY_MPASWVMRI_SIIAYTMSL_TVYSHLLLV_VEHVTFFIY_WTAGAAAYY_YANRNRFLY_YLQPRTFLL_YLYALVYFL'
p32
g3
(g5
S'\xeb\xa9\x0e4\x1f\xde\xef?'
tRp33
tp34
a.