(lp1
(S'ATSRTLSYY_FPRGQGVPI_YLQPRTFLL'
p2
cnumpy.core.multiarray
scalar
p3
(cnumpy
dtype
p4
(S'f8'
I0
I1
tRp5
(I3
S'<'
NNNI-1
I-1
I0
tbS'7\x16\x94]\xbd\xdf\xef?'
tRp6
tp7
a(S'HVTFFIYNK_LTDEMIAQY_YLQPRTFLL'
p8
g3
(g5
S'E\xa3\x83QY\xdf\xef?'
tRp9
tp10
a(S'LTDEMIAQY_MTSCCSCLK_YLQPRTFLL'
p11
g3
(g5
S'\xfb\x1a3|<\xdf\xef?'
tRp12
tp13
a(S'HVTFFIYNK_ISDYDYYRY_YLQPRTFLL'
p14
g3
(g5
S'DWO4\xde\xdc\xef?'
tRp15
tp16
a(S'ATSRTLSYY_FAYANRNRF_YLQPRTFLL'
p17
g3
(g5
S'\xd7\x96`\xaf\xce\xdc\xef?'
tRp18
tp19
a(S'ISDYDYYRY_MTSCCSCLK_YLQPRTFLL'
p20
g3
(g5
S'\xeb\xce\xfe^\xc1\xdc\xef?'
tRp21
tp22
a(S'KTFPPTEPK_LTDEMIAQY_YLQPRTFLL'
p23
g3
(g5
S'I^{|\xa4\xdc\xef?'
tRp24
tp25
a(S'LTDEMIAQY_TSRTLSYYK_YLQPRTFLL'
p26
g3
(g5
S'\xb8\xf6\x1e\xfc\x9b\xdc\xef?'
tRp27
tp28
a(S'HVTFFIYNK_YANRNRFLY_YLQPRTFLL'
p29
g3
(g5
S'\xa7\xec\x87\x0b\x85\xdc\xef?'
tRp30
tp31
a(S'ALRANSAVK_LTDEMIAQY_YLQPRTFLL'
p32
g3
(g5
S'\x1c\x0fq0v\xdc\xef?'
tRp33
tp34
a.