(lp1
(S'AEIRASANL_AELEGIQY_AFPFTIYSL_ALRANSAVK_ASKIITLKK_ATEGALNTPK_ATSRTLSYY_CNDPFLGVYY_EEHVQIHTI_EELKKLLEQW_EILDITPCSF_FAYANRNRF_FCNDPFLGVY_FEYVSQPFL_FIAGLIAIV_FLAFLLFLV_FLLNKEMYL_FLLPSLATV_FLNRFTTTL_FLPRVFSAV_FLQSINFVR_FPNITNLCPF_FPPTSFGPL_FPQSAPHGV_FPRGQGVPI_FTYASALWEI_FVDGVPFVV_GVYFASTEK_HPLADNKFAL_HVTFFIYNK_IPIQASLPF_IPRRNVATL_IPTNFTISV_ISDYDYYRY_ITLATCELY_ITLKKRWQL_KAYNVTQAF_KMQRMLLEK_KTFPPTEPK_KVSIWNLDY_LEYHDVRVV_LLYDANYFL_LPFFSNVTW_LPFNDGVYF_LPPAYTNSF_LSPRWYFYY_LTDEMIAQY_LWLLWPVTL_LWPVTLACF_LYSPIFLIV_MGYINVFAF_MIELSLIDFY_MPASWVMRI_MTSCCSCLK_NSIAIPTNF_NVFAFPFTIY_QELIRQGTDY_QELYSPIFL_QLPQGTTLPK_QYIKWPWYI_RARSVSPKL_RLYYDSMSY_RQLLFVVEV_RTFKVSIWNL_SIIAYTMSL_SINFVRIIMR_SLIDFYLCFL_SPRWYFYYL_SSPDDQIGYY_TLIGDCATV_TLKSFTVEK_TMADLVYAL_TSRTLSYYK_TVYSHLLLV_VEHVTFFIY_VLWAHGFEL_VRFPNITNL_VTPSGTWLTY_VVYRGTTTY_VYFLQSINF_WPVTLACFVL_WTAGAAAYY_YANRNRFLY_YDANYFLCW_YEQYIKWPW_YFIASFRLF_YIFFASFYY_YIIKLIFLW_YINVFAFPF_YLDAYNMMI_YLQPRTFLL_YLYALVYFL'
p2
cnumpy.core.multiarray
scalar
p3
(cnumpy
dtype
p4
(S'f8'
I0
I1
tRp5
(I3
S'<'
NNNI-1
I-1
I0
tbS']\x96\xf4\xf8!\xa0\xef?'
tRp6
tp7
a(S'AEIRASANL_AELEGIQY_AFPFTIYSL_ALRANSAVK_ASKIITLKK_ATEGALNTPK_ATSRTLSYY_CNDPFLGVYY_EEHVQIHTI_EELKKLLEQW_EILDITPCSF_FAYANRNRF_FCNDPFLGVY_FEYVSQPFL_FIAGLIAIV_FLAFLLFLV_FLLNKEMYL_FLLPSLATV_FLNRFTTTL_FLPRVFSAV_FLQSINFVR_FPNITNLCPF_FPPTSFGPL_FPQSAPHGV_FPRGQGVPI_FTYASALWEI_FVDGVPFVV_GVYFASTEK_HPLADNKFAL_HVTFFIYNK_ILLIIMRTFK_IPIQASLPF_IPRRNVATL_IPTNFTISV_ISDYDYYRY_ITLATCELY_ITLKKRWQL_KAYNVTQAF_KMQRMLLEK_KTFPPTEPK_KVSIWNLDY_LEYHDVRVV_LLYDANYFL_LPFFSNVTW_LPFNDGVYF_LPPAYTNSF_LSPRWYFYY_LTDEMIAQY_LWLLWPVTL_LWPVTLACF_LYSPIFLIV_MGYINVFAF_MIELSLIDFY_MPASWVMRI_MTSCCSCLK_NSIAIPTNF_NVFAFPFTIY_QELIRQGTDY_QELYSPIFL_QYIKWPWYI_RARSVSPKL_RLYYDSMSY_RQLLFVVEV_RTFKVSIWNL_SIIAYTMSL_SINFVRIIMR_SLIDFYLCFL_SPRWYFYYL_SSPDDQIGYY_TLIGDCATV_TLKSFTVEK_TMADLVYAL_TSRTLSYYK_TVYSHLLLV_VEHVTFFIY_VLWAHGFEL_VRFPNITNL_VTPSGTWLTY_VVYRGTTTY_VYFLQSINF_WPVTLACFVL_WTAGAAAYY_YANRNRFLY_YDANYFLCW_YEQYIKWPW_YFIASFRLF_YIFFASFYY_YIIKLIFLW_YINVFAFPF_YLDAYNMMI_YLQPRTFLL_YLYALVYFL'
p8
g3
(g5
S']\x96\xf4\xf8!\xa0\xef?'
tRp9
tp10
a(S'AEIRASANL_AELEGIQY_ALRANSAVK_ASKIITLKK_ATEGALNTPK_ATSRTLSYY_CNDPFLGVYY_EEHVQIHTI_EELKKLLEQW_EILDITPCSF_FAYANRNRF_FCNDPFLGVY_FEYVSQPFL_FIAGLIAIV_FLAFLLFLV_FLLNKEMYL_FLLPSLATV_FLNRFTTTL_FLPRVFSAV_FLQSINFVR_FPNITNLCPF_FPPTSFGPL_FPQSAPHGV_FPRGQGVPI_FTYASALWEI_FVDGVPFVV_GVYFASTEK_HPLADNKFAL_HVTFFIYNK_IPIQASLPF_IPRRNVATL_IPTNFTISV_ISDYDYYRY_ITLATCELY_ITLKKRWQL_KAYNVTQAF_KMQRMLLEK_KTFPPTEPK_KVSIWNLDY_LEYHDVRVV_LLYDANYFL_LPFFSNVTW_LPFNDGVYF_LPPAYTNSF_LSPRWYFYY_LTDEMIAQY_LWLLWPVTL_LWPVTLACF_LYSPIFLIV_MGYINVFAF_MIELSLIDFY_MPASWVMRI_MTSCCSCLK_NSIAIPTNF_NVFAFPFTIY_QELIRQGTDY_QELYSPIFL_QLPQGTTLPK_QYIKWPWYI_RARSVSPKL_RLYYDSMSY_RQLLFVVEV_RTFKVSIWNL_SIIAYTMSL_SINFVRIIMR_SLIDFYLCFL_SPRWYFYYL_SSPDDQIGYY_TLIGDCATV_TLKSFTVEK_TMADLVYAL_TSRTLSYYK_TVYSHLLLV_VEHVTFFIY_VFITLCFTL_VLWAHGFEL_VRFPNITNL_VTPSGTWLTY_VVYRGTTTY_VYFLQSINF_WPVTLACFVL_WTAGAAAYY_YANRNRFLY_YDANYFLCW_YEQYIKWPW_YFIASFRLF_YIFFASFYY_YIIKLIFLW_YINVFAFPF_YLDAYNMMI_YLQPRTFLL_YLYALVYFL'
p11
g3
(g5
S'Y\xa3\x8d\xd2 \xa0\xef?'
tRp12
tp13
a(S'AEIRASANL_AELEGIQY_ALRANSAVK_ASKIITLKK_ATEGALNTPK_ATSRTLSYY_CNDPFLGVYY_EEHVQIHTI_EELKKLLEQW_EILDITPCSF_FAYANRNRF_FCNDPFLGVY_FEYVSQPFL_FIAGLIAIV_FLAFLLFLV_FLLNKEMYL_FLLPSLATV_FLNRFTTTL_FLPRVFSAV_FLQSINFVR_FPNITNLCPF_FPPTSFGPL_FPQSAPHGV_FPRGQGVPI_FTYASALWEI_FVDGVPFVV_GVYFASTEK_HPLADNKFAL_HVTFFIYNK_ILLIIMRTFK_IPIQASLPF_IPRRNVATL_IPTNFTISV_ISDYDYYRY_ITLATCELY_ITLKKRWQL_KAYNVTQAF_KMQRMLLEK_KTFPPTEPK_KVSIWNLDY_LEYHDVRVV_LLYDANYFL_LPFFSNVTW_LPFNDGVYF_LPPAYTNSF_LSPRWYFYY_LTDEMIAQY_LWLLWPVTL_LWPVTLACF_LYSPIFLIV_MGYINVFAF_MIELSLIDFY_MPASWVMRI_MTSCCSCLK_NSIAIPTNF_NVFAFPFTIY_QELIRQGTDY_QELYSPIFL_QYIKWPWYI_RARSVSPKL_RLYYDSMSY_RQLLFVVEV_RTFKVSIWNL_SIIAYTMSL_SINFVRIIMR_SLIDFYLCFL_SPRWYFYYL_SSPDDQIGYY_TLIGDCATV_TLKSFTVEK_TMADLVYAL_TSRTLSYYK_TVYSHLLLV_VEHVTFFIY_VFITLCFTL_VLWAHGFEL_VRFPNITNL_VTPSGTWLTY_VVYRGTTTY_VYFLQSINF_WPVTLACFVL_WTAGAAAYY_YANRNRFLY_YDANYFLCW_YEQYIKWPW_YFIASFRLF_YIFFASFYY_YIIKLIFLW_YINVFAFPF_YLDAYNMMI_YLQPRTFLL_YLYALVYFL'
p14
g3
(g5
S'Y\xa3\x8d\xd2 \xa0\xef?'
tRp15
tp16
a(S'AEIRASANL_AELEGIQY_AFPFTIYSL_ALRANSAVK_ASKIITLKK_ATEGALNTPK_ATSRTLSYY_CNDPFLGVYY_EEHVQIHTI_EELKKLLEQW_EILDITPCSF_FAYANRNRF_FCNDPFLGVY_FEYVSQPFL_FIAGLIAIV_FLAFLLFLV_FLLNKEMYL_FLLPSLATV_FLNRFTTTL_FLPRVFSAV_FLQSINFVR_FPNITNLCPF_FPPTSFGPL_FPQSAPHGV_FPRGQGVPI_FTYASALWEI_FVDGVPFVV_GVYFASTEK_HPLADNKFAL_HVTFFIYNK_IPIQASLPF_IPRRNVATL_IPTNFTISV_ISDYDYYRY_ITLATCELY_ITLKKRWQL_KAYNVTQAF_KMQRMLLEK_KTFPPTEPK_KVSIWNLDY_LEYHDVRVV_LLYDANYFL_LPFFSNVTW_LPFNDGVYF_LSPRWYFYY_LTDEMIAQY_LWLLWPVTL_LWPVTLACF_LYSPIFLIV_MGYINVFAF_MIELSLIDFY_MPASWVMRI_MTSCCSCLK_NSIAIPTNF_NVFAFPFTIY_QELIRQGTDY_QELYSPIFL_QLPQGTTLPK_QYIKWPWYI_RARSVSPKL_RLYYDSMSY_RQLLFVVEV_RTFKVSIWNL_SIIAYTMSL_SINFVRIIMR_SLIDFYLCFL_SPRWYFYYL_SSPDDQIGYY_TLIGDCATV_TLKSFTVEK_TMADLVYAL_TPINLVRDL_TSRTLSYYK_TVYSHLLLV_VEHVTFFIY_VLWAHGFEL_VRFPNITNL_VTPSGTWLTY_VVYRGTTTY_VYFLQSINF_WPVTLACFVL_WTAGAAAYY_YANRNRFLY_YDANYFLCW_YEQYIKWPW_YFIASFRLF_YIFFASFYY_YIIKLIFLW_YINVFAFPF_YLDAYNMMI_YLQPRTFLL_YLYALVYFL'
p17
g3
(g5
S'\x0co\xda\x8d \xa0\xef?'
tRp18
tp19
a(S'AEIRASANL_AELEGIQY_AFPFTIYSL_ALRANSAVK_ASKIITLKK_ATEGALNTPK_ATSRTLSYY_CNDPFLGVYY_EEHVQIHTI_EELKKLLEQW_EILDITPCSF_FAYANRNRF_FCNDPFLGVY_FEYVSQPFL_FIAGLIAIV_FLAFLLFLV_FLLNKEMYL_FLLPSLATV_FLNRFTTTL_FLPRVFSAV_FLQSINFVR_FPNITNLCPF_FPPTSFGPL_FPQSAPHGV_FPRGQGVPI_FTYASALWEI_FVDGVPFVV_GVYFASTEK_HPLADNKFAL_HVTFFIYNK_IPIQASLPF_IPRRNVATL_IPTNFTISV_ISDYDYYRY_ITLATCELY_ITLKKRWQL_KAYNVTQAF_KMQRMLLEK_KTFPPTEPK_KVSIWNLDY_LEYHDVRVV_LLYDANYFL_LPFFSNVTW_LPFNDGVYF_LPQGFSAL_LSPRWYFYY_LTDEMIAQY_LWLLWPVTL_LWPVTLACF_LYSPIFLIV_MGYINVFAF_MIELSLIDFY_MPASWVMRI_MTSCCSCLK_NSIAIPTNF_NVFAFPFTIY_QELIRQGTDY_QELYSPIFL_QLPQGTTLPK_QYIKWPWYI_RARSVSPKL_RLYYDSMSY_RQLLFVVEV_RTFKVSIWNL_SIIAYTMSL_SINFVRIIMR_SLIDFYLCFL_SPRWYFYYL_SSPDDQIGYY_TLIGDCATV_TLKSFTVEK_TMADLVYAL_TSRTLSYYK_TVYSHLLLV_VEHVTFFIY_VLWAHGFEL_VRFPNITNL_VTPSGTWLTY_VVYRGTTTY_VYFLQSINF_WPVTLACFVL_WTAGAAAYY_YANRNRFLY_YDANYFLCW_YEQYIKWPW_YFIASFRLF_YIFFASFYY_YIIKLIFLW_YINVFAFPF_YLDAYNMMI_YLQPRTFLL_YLYALVYFL'
p20
g3
(g5
S'\x0co\xda\x8d \xa0\xef?'
tRp21
tp22
a(S'AEIRASANL_AELEGIQY_ALRANSAVK_ASKIITLKK_ATEGALNTPK_ATSRTLSYY_CNDPFLGVYY_EEHVQIHTI_EELKKLLEQW_EILDITPCSF_FAYANRNRF_FCNDPFLGVY_FEYVSQPFL_FIAGLIAIV_FLAFLLFLV_FLLNKEMYL_FLLPSLATV_FLNRFTTTL_FLPRVFSAV_FLQSINFVR_FPNITNLCPF_FPPTSFGPL_FPQSAPHGV_FPRGQGVPI_FTYASALWEI_FVDGVPFVV_FYLCFLAFL_GVYFASTEK_HPLADNKFAL_HVTFFIYNK_IPIQASLPF_IPRRNVATL_IPTNFTISV_ISDYDYYRY_ITLATCELY_ITLKKRWQL_KAYNVTQAF_KMQRMLLEK_KTFPPTEPK_KVSIWNLDY_LEYHDVRVV_LLYDANYFL_LPFFSNVTW_LPFNDGVYF_LPPAYTNSF_LSPRWYFYY_LTDEMIAQY_LWLLWPVTL_LWPVTLACF_LYSPIFLIV_MGYINVFAF_MIELSLIDFY_MPASWVMRI_MTSCCSCLK_NSIAIPTNF_NVFAFPFTIY_QELIRQGTDY_QELYSPIFL_QLPQGTTLPK_QYIKWPWYI_RARSVSPKL_RLYYDSMSY_RQLLFVVEV_RTFKVSIWNL_SIIAYTMSL_SINFVRIIMR_SLIDFYLCFL_SPRWYFYYL_SSPDDQIGYY_TLIGDCATV_TLKSFTVEK_TMADLVYAL_TSRTLSYYK_TVYSHLLLV_VEHVTFFIY_VLWAHGFEL_VRFPNITNL_VTPSGTWLTY_VVYRGTTTY_VYFLQSINF_WPVTLACFVL_WTAGAAAYY_YANRNRFLY_YDANYFLCW_YEQYIKWPW_YFIASFRLF_YIFFASFYY_YIIKLIFLW_YINVFAFPF_YLDAYNMMI_YLQPRTFLL_YLYALVYFL'
p23
g3
(g5
S'P\xe1\xee\x8b \xa0\xef?'
tRp24
tp25
a(S'AEIRASANL_AELEGIQY_ALRANSAVK_ASKIITLKK_ATEGALNTPK_ATSRTLSYY_CNDPFLGVYY_EEHVQIHTI_EELKKLLEQW_EILDITPCSF_FAYANRNRF_FCNDPFLGVY_FEYVSQPFL_FIAGLIAIV_FLAFLLFLV_FLLNKEMYL_FLLPSLATV_FLNRFTTTL_FLPRVFSAV_FLQSINFVR_FPNITNLCPF_FPPTSFGPL_FPQSAPHGV_FPRGQGVPI_FTYASALWEI_FVDGVPFVV_FYLCFLAFL_GVYFASTEK_HPLADNKFAL_HVTFFIYNK_ILLIIMRTFK_IPIQASLPF_IPRRNVATL_IPTNFTISV_ISDYDYYRY_ITLATCELY_ITLKKRWQL_KAYNVTQAF_KMQRMLLEK_KTFPPTEPK_KVSIWNLDY_LEYHDVRVV_LLYDANYFL_LPFFSNVTW_LPFNDGVYF_LPPAYTNSF_LSPRWYFYY_LTDEMIAQY_LWLLWPVTL_LWPVTLACF_LYSPIFLIV_MGYINVFAF_MIELSLIDFY_MPASWVMRI_MTSCCSCLK_NSIAIPTNF_NVFAFPFTIY_QELIRQGTDY_QELYSPIFL_QYIKWPWYI_RARSVSPKL_RLYYDSMSY_RQLLFVVEV_RTFKVSIWNL_SIIAYTMSL_SINFVRIIMR_SLIDFYLCFL_SPRWYFYYL_SSPDDQIGYY_TLIGDCATV_TLKSFTVEK_TMADLVYAL_TSRTLSYYK_TVYSHLLLV_VEHVTFFIY_VLWAHGFEL_VRFPNITNL_VTPSGTWLTY_VVYRGTTTY_VYFLQSINF_WPVTLACFVL_WTAGAAAYY_YANRNRFLY_YDANYFLCW_YEQYIKWPW_YFIASFRLF_YIFFASFYY_YIIKLIFLW_YINVFAFPF_YLDAYNMMI_YLQPRTFLL_YLYALVYFL'
p26
g3
(g5
S'P\xe1\xee\x8b \xa0\xef?'
tRp27
tp28
a(S'AEIRASANL_AELEGIQY_ALRANSAVK_ASKIITLKK_ATEGALNTPK_ATSRTLSYY_CNDPFLGVYY_EEHVQIHTI_EELKKLLEQW_EILDITPCSF_FAYANRNRF_FCNDPFLGVY_FEYVSQPFL_FIAGLIAIV_FLAFLLFLV_FLLNKEMYL_FLLPSLATV_FLNRFTTTL_FLPRVFSAV_FLQSINFVR_FPNITNLCPF_FPPTSFGPL_FPQSAPHGV_FPRGQGVPI_FTYASALWEI_FVDGVPFVV_GVYFASTEK_HPLADNKFAL_HVTFFIYNK_IPIQASLPF_IPRRNVATL_IPTNFTISV_ISDYDYYRY_ITLATCELY_ITLKKRWQL_KAYNVTQAF_KMQRMLLEK_KTFPPTEPK_KVSIWNLDY_LEYHDVRVV_LLYDANYFL_LPFFSNVTW_LPFNDGVYF_LSPRWYFYY_LTDEMIAQY_LWLLWPVTL_LWPVTLACF_LYSPIFLIV_MGYINVFAF_MIELSLIDFY_MPASWVMRI_MTSCCSCLK_NSIAIPTNF_NVFAFPFTIY_QELIRQGTDY_QELYSPIFL_QLPQGTTLPK_QYIKWPWYI_RARSVSPKL_RLYYDSMSY_RQLLFVVEV_RTFKVSIWNL_SIIAYTMSL_SINFVRIIMR_SLIDFYLCFL_SPRWYFYYL_SSPDDQIGYY_TLIGDCATV_TLKSFTVEK_TMADLVYAL_TPINLVRDL_TSRTLSYYK_TVYSHLLLV_VEHVTFFIY_VFITLCFTL_VLWAHGFEL_VRFPNITNL_VTPSGTWLTY_VVYRGTTTY_VYFLQSINF_WPVTLACFVL_WTAGAAAYY_YANRNRFLY_YDANYFLCW_YEQYIKWPW_YFIASFRLF_YIFFASFYY_YIIKLIFLW_YINVFAFPF_YLDAYNMMI_YLQPRTFLL_YLYALVYFL'
p29
g3
(g5
S'\x08|sg\x1f\xa0\xef?'
tRp30
tp31
a(S'AEIRASANL_AELEGIQY_ALRANSAVK_ASKIITLKK_ATEGALNTPK_ATSRTLSYY_CNDPFLGVYY_EEHVQIHTI_EELKKLLEQW_EILDITPCSF_FAYANRNRF_FCNDPFLGVY_FEYVSQPFL_FIAGLIAIV_FLAFLLFLV_FLLNKEMYL_FLLPSLATV_FLNRFTTTL_FLPRVFSAV_FLQSINFVR_FPNITNLCPF_FPPTSFGPL_FPQSAPHGV_FPRGQGVPI_FTYASALWEI_FVDGVPFVV_GVYFASTEK_HPLADNKFAL_HVTFFIYNK_IPIQASLPF_IPRRNVATL_IPTNFTISV_ISDYDYYRY_ITLATCELY_ITLKKRWQL_KAYNVTQAF_KMQRMLLEK_KTFPPTEPK_KVSIWNLDY_LEYHDVRVV_LLYDANYFL_LPFFSNVTW_LPFNDGVYF_LPQGFSAL_LSPRWYFYY_LTDEMIAQY_LWLLWPVTL_LWPVTLACF_LYSPIFLIV_MGYINVFAF_MIELSLIDFY_MPASWVMRI_MTSCCSCLK_NSIAIPTNF_NVFAFPFTIY_QELIRQGTDY_QELYSPIFL_QLPQGTTLPK_QYIKWPWYI_RARSVSPKL_RLYYDSMSY_RQLLFVVEV_RTFKVSIWNL_SIIAYTMSL_SINFVRIIMR_SLIDFYLCFL_SPRWYFYYL_SSPDDQIGYY_TLIGDCATV_TLKSFTVEK_TMADLVYAL_TSRTLSYYK_TVYSHLLLV_VEHVTFFIY_VFITLCFTL_VLWAHGFEL_VRFPNITNL_VTPSGTWLTY_VVYRGTTTY_VYFLQSINF_WPVTLACFVL_WTAGAAAYY_YANRNRFLY_YDANYFLCW_YEQYIKWPW_YFIASFRLF_YIFFASFYY_YIIKLIFLW_YINVFAFPF_YLDAYNMMI_YLQPRTFLL_YLYALVYFL'
p32
g3
(g5
S'\x08|sg\x1f\xa0\xef?'
tRp33
tp34
a.