(lp1
(S'AEIRASANL_AELEGIQY_AFPFTIYSL_ALRANSAVK_ASKIITLKK_ATEGALNTPK_ATSRTLSYY_CNDPFLGVYY_CPDGVKHVY_EEHVQIHTI_EELKKLLEQW_EILDITPCSF_FAYANRNRF_FCNDPFLGVY_FEYVSQPFL_FIAGLIAIV_FLAFLLFLV_FLLNKEMYL_FLLPSLATV_FLNRFTTTL_FLPRVFSAV_FLQSINFVR_FPNITNLCPF_FPPTSFGPL_FPQSAPHGV_FPRGQGVPI_FTYASALWEI_FVDGVPFVV_GVYFASTEK_HPLADNKFAL_HVTFFIYNK_ILLIIMRTFK_IPIQASLPF_IPRRNVATL_IPTNFTISV_ISDYDYYRY_ITLATCELY_ITLKKRWQL_KAYNVTQAF_KMQRMLLEK_KTFPPTEPK_KVSIWNLDY_LEYHDVRVV_LIIMRTFKV_LLYDANYFL_LPFFSNVTW_LPFNDGVYF_LPPAYTNSF_LSPRWYFYY_LTDEMIAQY_LWLLWPVTL_LWPVTLACF_LYSPIFLIV_MGYINVFAF_MIELSLIDFY_MPASWVMRI_MTSCCSCLK_NSIAIPTNF_NVFAFPFTIY_QELIRQGTDY_QELYSPIFL_QLPQGTTLPK_QPTESIVRF_QYIKWPWYI_RARSVSPKL_RLYYDSMSY_RQLLFVVEV_RTFKVSIWNL_SIIAYTMSL_SINFVRIIMR_SLIDFYLCFL_SPRWYFYYL_SSPDDQIGYY_SSRGTSPAR_TLIGDCATV_TLKSFTVEK_TMADLVYAL_TSRTLSYYK_TVYSHLLLV_VEHVTFFIY_VLWAHGFEL_VRFPNITNL_VSIWNLDYII_VTPSGTWLTY_VVYRGTTTY_VYFLQSINF_WPVTLACFVL_WTAGAAAYY_YANRNRFLY_YDANYFLCW_YEQYIKWPW_YFIASFRLF_YIFFASFYY_YIIKLIFLW_YINVFAFPF_YLDAYNMMI_YLQPRTFLL_YLYALVYFL'
p2
cnumpy.core.multiarray
scalar
p3
(cnumpy
dtype
p4
(S'f8'
I0
I1
tRp5
(I3
S'<'
NNNI-1
I-1
I0
tbS'\x0b\x11\x12P?\x91\xef?'
tRp6
tp7
a(S'AEIRASANL_AELEGIQY_AFPFTIYSL_ALRANSAVK_ASKIITLKK_ATEGALNTPK_ATSRTLSYY_CNDPFLGVYY_CPDGVKHVY_EEHVQIHTI_EELKKLLEQW_EILDITPCSF_FAYANRNRF_FCNDPFLGVY_FEYVSQPFL_FIAGLIAIV_FLAFLLFLV_FLLNKEMYL_FLLPSLATV_FLNRFTTTL_FLPRVFSAV_FLQSINFVR_FPNITNLCPF_FPPTSFGPL_FPQSAPHGV_FPRGQGVPI_FTYASALWEI_FVDGVPFVV_GVYFASTEK_HPLADNKFAL_HVTFFIYNK_ILLIIMRTFK_IPIQASLPF_IPRRNVATL_IPTNFTISV_ISDYDYYRY_ITLATCELY_ITLKKRWQL_KAYNVTQAF_KMQRMLLEK_KTFPPTEPK_KVSIWNLDY_LEYHDVRVV_LIIMRTFKV_LLYDANYFL_LPFFSNVTW_LPFNDGVYF_LPPAYTNSF_LSPRWYFYY_LTDEMIAQY_LWLLWPVTL_LWPVTLACF_LYSPIFLIV_MGYINVFAF_MIELSLIDFY_MPASWVMRI_MTSCCSCLK_NPLLYDANY_NSIAIPTNF_NVFAFPFTIY_QELIRQGTDY_QELYSPIFL_QLPQGTTLPK_QYIKWPWYI_RARSVSPKL_RLYYDSMSY_RQLLFVVEV_RTFKVSIWNL_SIIAYTMSL_SINFVRIIMR_SLIDFYLCFL_SPRWYFYYL_SSPDDQIGYY_SSRGTSPAR_TLIGDCATV_TLKSFTVEK_TMADLVYAL_TSRTLSYYK_TVYSHLLLV_VEHVTFFIY_VLWAHGFEL_VRFPNITNL_VSIWNLDYII_VTPSGTWLTY_VVYRGTTTY_VYFLQSINF_WPVTLACFVL_WTAGAAAYY_YANRNRFLY_YDANYFLCW_YEQYIKWPW_YFIASFRLF_YIFFASFYY_YIIKLIFLW_YINVFAFPF_YLDAYNMMI_YLQPRTFLL_YLYALVYFL'
p8
g3
(g5
S'\x0b\x11\x12P?\x91\xef?'
tRp9
tp10
a(S'AEIRASANL_AELEGIQY_AFPFTIYSL_ALRANSAVK_ASKIITLKK_ATEGALNTPK_ATSRTLSYY_CNDPFLGVYY_CPDGVKHVY_EEHVQIHTI_EELKKLLEQW_EILDITPCSF_FAYANRNRF_FCNDPFLGVY_FEYVSQPFL_FIAGLIAIV_FLAFLLFLV_FLLNKEMYL_FLLPSLATV_FLNRFTTTL_FLPRVFSAV_FLQSINFVR_FPNITNLCPF_FPPTSFGPL_FPQSAPHGV_FPRGQGVPI_FTYASALWEI_FVDGVPFVV_GVYFASTEK_HPLADNKFAL_HVTFFIYNK_IPIQASLPF_IPRRNVATL_IPTNFTISV_ISDYDYYRY_ITLATCELY_ITLKKRWQL_KAYNVTQAF_KMQRMLLEK_KTFPPTEPK_KVSIWNLDY_LEYHDVRVV_LIIMRTFKV_LLYDANYFL_LPFFSNVTW_LPFNDGVYF_LPPAYTNSF_LSPRWYFYY_LTDEMIAQY_LWLLWPVTL_LWPVTLACF_LYSPIFLIV_MGYINVFAF_MIELSLIDFY_MPASWVMRI_MTSCCSCLK_NSIAIPTNF_NVFAFPFTIY_QELIRQGTDY_QELYSPIFL_QLPQGTTLPK_QPTESIVRF_QYIKWPWYI_RARSVSPKL_RIRGGDGKMK_RLYYDSMSY_RQLLFVVEV_RTFKVSIWNL_SIIAYTMSL_SINFVRIIMR_SLIDFYLCFL_SPRWYFYYL_SSPDDQIGYY_SSRGTSPAR_TLIGDCATV_TLKSFTVEK_TMADLVYAL_TSRTLSYYK_TVYSHLLLV_VEHVTFFIY_VLWAHGFEL_VRFPNITNL_VSIWNLDYII_VTPSGTWLTY_VVYRGTTTY_VYFLQSINF_WPVTLACFVL_WTAGAAAYY_YANRNRFLY_YDANYFLCW_YEQYIKWPW_YFIASFRLF_YIFFASFYY_YIIKLIFLW_YINVFAFPF_YLDAYNMMI_YLQPRTFLL_YLYALVYFL'
p11
g3
(g5
S'q\xc9\x1a}8\x91\xef?'
tRp12
tp13
a(S'AEIRASANL_AELEGIQY_AFPFTIYSL_ALRANSAVK_ASKIITLKK_ATEGALNTPK_ATSRTLSYY_CNDPFLGVYY_CPDGVKHVY_EEHVQIHTI_EELKKLLEQW_EILDITPCSF_FAYANRNRF_FCNDPFLGVY_FEYVSQPFL_FIAGLIAIV_FLAFLLFLV_FLLNKEMYL_FLLPSLATV_FLNRFTTTL_FLPRVFSAV_FLQSINFVR_FPNITNLCPF_FPPTSFGPL_FPQSAPHGV_FPRGQGVPI_FTYASALWEI_FVDGVPFVV_GVYFASTEK_HPLADNKFAL_HVTFFIYNK_IPIQASLPF_IPRRNVATL_IPTNFTISV_ISDYDYYRY_ITLATCELY_ITLKKRWQL_KAYNVTQAF_KMQRMLLEK_KTFPPTEPK_KVSIWNLDY_LEYHDVRVV_LIIMRTFKV_LLYDANYFL_LPFFSNVTW_LPFNDGVYF_LPPAYTNSF_LSPRWYFYY_LTDEMIAQY_LWLLWPVTL_LWPVTLACF_LYSPIFLIV_MGYINVFAF_MIELSLIDFY_MPASWVMRI_MTSCCSCLK_NPLLYDANY_NSIAIPTNF_NVFAFPFTIY_QELIRQGTDY_QELYSPIFL_QLPQGTTLPK_QYIKWPWYI_RARSVSPKL_RIRGGDGKMK_RLYYDSMSY_RQLLFVVEV_RTFKVSIWNL_SIIAYTMSL_SINFVRIIMR_SLIDFYLCFL_SPRWYFYYL_SSPDDQIGYY_SSRGTSPAR_TLIGDCATV_TLKSFTVEK_TMADLVYAL_TSRTLSYYK_TVYSHLLLV_VEHVTFFIY_VLWAHGFEL_VRFPNITNL_VSIWNLDYII_VTPSGTWLTY_VVYRGTTTY_VYFLQSINF_WPVTLACFVL_WTAGAAAYY_YANRNRFLY_YDANYFLCW_YEQYIKWPW_YFIASFRLF_YIFFASFYY_YIIKLIFLW_YINVFAFPF_YLDAYNMMI_YLQPRTFLL_YLYALVYFL'
p14
g3
(g5
S'q\xc9\x1a}8\x91\xef?'
tRp15
tp16
a(S'AEIRASANL_AELEGIQY_AFPFTIYSL_ALRANSAVK_ASKIITLKK_ATEGALNTPK_ATSRTLSYY_CNDPFLGVYY_CPDGVKHVY_EEHVQIHTI_EELKKLLEQW_EILDITPCSF_FAYANRNRF_FCNDPFLGVY_FEYVSQPFL_FIAGLIAIV_FLAFLLFLV_FLLNKEMYL_FLLPSLATV_FLNRFTTTL_FLPRVFSAV_FLQSINFVR_FPNITNLCPF_FPPTSFGPL_FPQSAPHGV_FPRGQGVPI_FTYASALWEI_FVDGVPFVV_GVYFASTEK_HPLADNKFAL_HVTFFIYNK_IPIQASLPF_IPRRNVATL_IPTNFTISV_ISDYDYYRY_ITLATCELY_ITLKKRWQL_KAYNVTQAF_KMQRMLLEK_KQIYKTPPIK_KTFPPTEPK_KVSIWNLDY_LEYHDVRVV_LIIMRTFKV_LLYDANYFL_LPFFSNVTW_LPFNDGVYF_LPPAYTNSF_LSPRWYFYY_LTDEMIAQY_LWLLWPVTL_LWPVTLACF_LYSPIFLIV_MGYINVFAF_MIELSLIDFY_MPASWVMRI_MTSCCSCLK_NSIAIPTNF_NVFAFPFTIY_QELIRQGTDY_QELYSPIFL_QLPQGTTLPK_QPTESIVRF_QYIKWPWYI_RARSVSPKL_RLYYDSMSY_RQLLFVVEV_RTFKVSIWNL_SIIAYTMSL_SINFVRIIMR_SLIDFYLCFL_SPRWYFYYL_SSPDDQIGYY_SSRGTSPAR_TLIGDCATV_TLKSFTVEK_TMADLVYAL_TSRTLSYYK_TVYSHLLLV_VEHVTFFIY_VLWAHGFEL_VRFPNITNL_VSIWNLDYII_VTPSGTWLTY_VVYRGTTTY_VYFLQSINF_WPVTLACFVL_WTAGAAAYY_YANRNRFLY_YDANYFLCW_YEQYIKWPW_YFIASFRLF_YIFFASFYY_YIIKLIFLW_YINVFAFPF_YLDAYNMMI_YLQPRTFLL_YLYALVYFL'
p17
g12
tp18
a(S'AEIRASANL_AELEGIQY_AFPFTIYSL_ALRANSAVK_ASKIITLKK_ATEGALNTPK_ATSRTLSYY_CNDPFLGVYY_CPDGVKHVY_EEHVQIHTI_EELKKLLEQW_EILDITPCSF_FAYANRNRF_FCNDPFLGVY_FEYVSQPFL_FIAGLIAIV_FLAFLLFLV_FLLNKEMYL_FLLPSLATV_FLNRFTTTL_FLPRVFSAV_FLQSINFVR_FPNITNLCPF_FPPTSFGPL_FPQSAPHGV_FPRGQGVPI_FTYASALWEI_FVDGVPFVV_GVYFASTEK_HPLADNKFAL_HVTFFIYNK_IPIQASLPF_IPRRNVATL_IPTNFTISV_ISDYDYYRY_ITLATCELY_ITLKKRWQL_KAYNVTQAF_KMQRMLLEK_KQIYKTPPIK_KTFPPTEPK_KVSIWNLDY_LEYHDVRVV_LIIMRTFKV_LLYDANYFL_LPFFSNVTW_LPFNDGVYF_LPPAYTNSF_LSPRWYFYY_LTDEMIAQY_LWLLWPVTL_LWPVTLACF_LYSPIFLIV_MGYINVFAF_MIELSLIDFY_MPASWVMRI_MTSCCSCLK_NPLLYDANY_NSIAIPTNF_NVFAFPFTIY_QELIRQGTDY_QELYSPIFL_QLPQGTTLPK_QYIKWPWYI_RARSVSPKL_RLYYDSMSY_RQLLFVVEV_RTFKVSIWNL_SIIAYTMSL_SINFVRIIMR_SLIDFYLCFL_SPRWYFYYL_SSPDDQIGYY_SSRGTSPAR_TLIGDCATV_TLKSFTVEK_TMADLVYAL_TSRTLSYYK_TVYSHLLLV_VEHVTFFIY_VLWAHGFEL_VRFPNITNL_VSIWNLDYII_VTPSGTWLTY_VVYRGTTTY_VYFLQSINF_WPVTLACFVL_WTAGAAAYY_YANRNRFLY_YDANYFLCW_YEQYIKWPW_YFIASFRLF_YIFFASFYY_YIIKLIFLW_YINVFAFPF_YLDAYNMMI_YLQPRTFLL_YLYALVYFL'
p19
g15
tp20
a(S'AEIRASANL_AELEGIQY_AFPFTIYSL_ALRANSAVK_ASKIITLKK_ATEGALNTPK_ATSRTLSYY_CNDPFLGVYY_CPDGVKHVY_EEHVQIHTI_EELKKLLEQW_EILDITPCSF_FAYANRNRF_FCNDPFLGVY_FEYVSQPFL_FIAGLIAIV_FLAFLLFLV_FLLNKEMYL_FLLPSLATV_FLNRFTTTL_FLPRVFSAV_FLQSINFVR_FPNITNLCPF_FPPTSFGPL_FPQSAPHGV_FPRGQGVPI_FTYASALWEI_FVDGVPFVV_GVYFASTEK_HPLADNKFAL_HVTFFIYNK_ILLIIMRTFK_IPIQASLPF_IPRRNVATL_IPTNFTISV_ISDYDYYRY_ITLATCELY_ITLKKRWQL_KAYNVTQAF_KMQRMLLEK_KTFPPTEPK_KVSIWNLDY_LEYHDVRVV_LIIMRTFKV_LLYDANYFL_LPFFSNVTW_LPFNDGVYF_LPPAYTNSF_LSPRWYFYY_LTDEMIAQY_LWLLWPVTL_LWPVTLACF_LYSPIFLIV_MGYINVFAF_MIELSLIDFY_MPASWVMRI_MTSCCSCLK_NSIAIPTNF_NVFAFPFTIY_QELIRQGTDY_QELYSPIFL_QPTESIVRF_QYIKWPWYI_RARSVSPKL_RIRGGDGKMK_RLYYDSMSY_RQLLFVVEV_RTFKVSIWNL_SIIAYTMSL_SINFVRIIMR_SLIDFYLCFL_SPRWYFYYL_SSPDDQIGYY_SSRGTSPAR_TLIGDCATV_TLKSFTVEK_TMADLVYAL_TSRTLSYYK_TVYSHLLLV_VEHVTFFIY_VLWAHGFEL_VRFPNITNL_VSIWNLDYII_VTPSGTWLTY_VVYRGTTTY_VYFLQSINF_WPVTLACFVL_WTAGAAAYY_YANRNRFLY_YDANYFLCW_YEQYIKWPW_YFIASFRLF_YIFFASFYY_YIIKLIFLW_YINVFAFPF_YLDAYNMMI_YLQPRTFLL_YLYALVYFL'
p21
g3
(g5
S'q\xc9\x1a}8\x91\xef?'
tRp22
tp23
a(S'AEIRASANL_AELEGIQY_AFPFTIYSL_ALRANSAVK_ASKIITLKK_ATEGALNTPK_ATSRTLSYY_CNDPFLGVYY_CPDGVKHVY_EEHVQIHTI_EELKKLLEQW_EILDITPCSF_FAYANRNRF_FCNDPFLGVY_FEYVSQPFL_FIAGLIAIV_FLAFLLFLV_FLLNKEMYL_FLLPSLATV_FLNRFTTTL_FLPRVFSAV_FLQSINFVR_FPNITNLCPF_FPPTSFGPL_FPQSAPHGV_FPRGQGVPI_FTYASALWEI_FVDGVPFVV_GVYFASTEK_HPLADNKFAL_HVTFFIYNK_ILLIIMRTFK_IPIQASLPF_IPRRNVATL_IPTNFTISV_ISDYDYYRY_ITLATCELY_ITLKKRWQL_KAYNVTQAF_KMQRMLLEK_KTFPPTEPK_KVSIWNLDY_LEYHDVRVV_LIIMRTFKV_LLYDANYFL_LPFFSNVTW_LPFNDGVYF_LPPAYTNSF_LSPRWYFYY_LTDEMIAQY_LWLLWPVTL_LWPVTLACF_LYSPIFLIV_MGYINVFAF_MIELSLIDFY_MPASWVMRI_MTSCCSCLK_NPLLYDANY_NSIAIPTNF_NVFAFPFTIY_QELIRQGTDY_QELYSPIFL_QYIKWPWYI_RARSVSPKL_RIRGGDGKMK_RLYYDSMSY_RQLLFVVEV_RTFKVSIWNL_SIIAYTMSL_SINFVRIIMR_SLIDFYLCFL_SPRWYFYYL_SSPDDQIGYY_SSRGTSPAR_TLIGDCATV_TLKSFTVEK_TMADLVYAL_TSRTLSYYK_TVYSHLLLV_VEHVTFFIY_VLWAHGFEL_VRFPNITNL_VSIWNLDYII_VTPSGTWLTY_VVYRGTTTY_VYFLQSINF_WPVTLACFVL_WTAGAAAYY_YANRNRFLY_YDANYFLCW_YEQYIKWPW_YFIASFRLF_YIFFASFYY_YIIKLIFLW_YINVFAFPF_YLDAYNMMI_YLQPRTFLL_YLYALVYFL'
p24
g3
(g5
S'q\xc9\x1a}8\x91\xef?'
tRp25
tp26
a(S'AEIRASANL_AELEGIQY_AFPFTIYSL_ALRANSAVK_ASKIITLKK_ATEGALNTPK_ATSRTLSYY_CNDPFLGVYY_CPDGVKHVY_EEHVQIHTI_EELKKLLEQW_EILDITPCSF_FAYANRNRF_FCNDPFLGVY_FEYVSQPFL_FIAGLIAIV_FLAFLLFLV_FLLNKEMYL_FLLPSLATV_FLNRFTTTL_FLPRVFSAV_FLQSINFVR_FPNITNLCPF_FPPTSFGPL_FPQSAPHGV_FPRGQGVPI_FTYASALWEI_FVDGVPFVV_GVYFASTEK_HPLADNKFAL_HVTFFIYNK_ILLIIMRTFK_IPIQASLPF_IPRRNVATL_IPTNFTISV_ISDYDYYRY_ITLATCELY_ITLKKRWQL_KAYNVTQAF_KMQRMLLEK_KQIYKTPPIK_KTFPPTEPK_KVSIWNLDY_LEYHDVRVV_LIIMRTFKV_LLYDANYFL_LPFFSNVTW_LPFNDGVYF_LPPAYTNSF_LSPRWYFYY_LTDEMIAQY_LWLLWPVTL_LWPVTLACF_LYSPIFLIV_MGYINVFAF_MIELSLIDFY_MPASWVMRI_MTSCCSCLK_NSIAIPTNF_NVFAFPFTIY_QELIRQGTDY_QELYSPIFL_QPTESIVRF_QYIKWPWYI_RARSVSPKL_RLYYDSMSY_RQLLFVVEV_RTFKVSIWNL_SIIAYTMSL_SINFVRIIMR_SLIDFYLCFL_SPRWYFYYL_SSPDDQIGYY_SSRGTSPAR_TLIGDCATV_TLKSFTVEK_TMADLVYAL_TSRTLSYYK_TVYSHLLLV_VEHVTFFIY_VLWAHGFEL_VRFPNITNL_VSIWNLDYII_VTPSGTWLTY_VVYRGTTTY_VYFLQSINF_WPVTLACFVL_WTAGAAAYY_YANRNRFLY_YDANYFLCW_YEQYIKWPW_YFIASFRLF_YIFFASFYY_YIIKLIFLW_YINVFAFPF_YLDAYNMMI_YLQPRTFLL_YLYALVYFL'
p27
g22
tp28
a(S'AEIRASANL_AELEGIQY_AFPFTIYSL_ALRANSAVK_ASKIITLKK_ATEGALNTPK_ATSRTLSYY_CNDPFLGVYY_CPDGVKHVY_EEHVQIHTI_EELKKLLEQW_EILDITPCSF_FAYANRNRF_FCNDPFLGVY_FEYVSQPFL_FIAGLIAIV_FLAFLLFLV_FLLNKEMYL_FLLPSLATV_FLNRFTTTL_FLPRVFSAV_FLQSINFVR_FPNITNLCPF_FPPTSFGPL_FPQSAPHGV_FPRGQGVPI_FTYASALWEI_FVDGVPFVV_GVYFASTEK_HPLADNKFAL_HVTFFIYNK_ILLIIMRTFK_IPIQASLPF_IPRRNVATL_IPTNFTISV_ISDYDYYRY_ITLATCELY_ITLKKRWQL_KAYNVTQAF_KMQRMLLEK_KQIYKTPPIK_KTFPPTEPK_KVSIWNLDY_LEYHDVRVV_LIIMRTFKV_LLYDANYFL_LPFFSNVTW_LPFNDGVYF_LPPAYTNSF_LSPRWYFYY_LTDEMIAQY_LWLLWPVTL_LWPVTLACF_LYSPIFLIV_MGYINVFAF_MIELSLIDFY_MPASWVMRI_MTSCCSCLK_NPLLYDANY_NSIAIPTNF_NVFAFPFTIY_QELIRQGTDY_QELYSPIFL_QYIKWPWYI_RARSVSPKL_RLYYDSMSY_RQLLFVVEV_RTFKVSIWNL_SIIAYTMSL_SINFVRIIMR_SLIDFYLCFL_SPRWYFYYL_SSPDDQIGYY_SSRGTSPAR_TLIGDCATV_TLKSFTVEK_TMADLVYAL_TSRTLSYYK_TVYSHLLLV_VEHVTFFIY_VLWAHGFEL_VRFPNITNL_VSIWNLDYII_VTPSGTWLTY_VVYRGTTTY_VYFLQSINF_WPVTLACFVL_WTAGAAAYY_YANRNRFLY_YDANYFLCW_YEQYIKWPW_YFIASFRLF_YIFFASFYY_YIIKLIFLW_YINVFAFPF_YLDAYNMMI_YLQPRTFLL_YLYALVYFL'
p29
g25
tp30
a.