(lp1
(S'AEIRASANL_ATSRTLSYY_FAYANRNRF_FLNRFTTTL_FPQSAPHGV_FPRGQGVPI_HVTFFIYNK_KTFPPTEPK_LTDEMIAQY_MPASWVMRI_SIIAYTMSL_TVYSHLLLV_YEQYIKWPW_YLQPRTFLL_YLYALVYFL'
p2
cnumpy.core.multiarray
scalar
p3
(cnumpy
dtype
p4
(S'f8'
I0
I1
tRp5
(I3
S'<'
NNNI-1
I-1
I0
tbS'\x8b\xea\xb8 5\xd0\xef?'
tRp6
tp7
a(S'AEIRASANL_AELEGIQY_ATSRTLSYY_FAYANRNRF_FLNRFTTTL_FPQSAPHGV_FPRGQGVPI_HVTFFIYNK_KTFPPTEPK_LTDEMIAQY_MPASWVMRI_SIIAYTMSL_TVYSHLLLV_YLQPRTFLL_YLYALVYFL'
p8
g3
(g5
S'\x1f\xe0\xe8"\x16\xd0\xef?'
tRp9
tp10
a(S'AEIRASANL_ATSRTLSYY_FAYANRNRF_FLNRFTTTL_FPQSAPHGV_FPRGQGVPI_HVTFFIYNK_LTDEMIAQY_MPASWVMRI_SIIAYTMSL_TSRTLSYYK_TVYSHLLLV_YEQYIKWPW_YLQPRTFLL_YLYALVYFL'
p11
g3
(g5
S'\x95A\xa9 \x14\xd0\xef?'
tRp12
tp13
a(S'AEIRASANL_ATSRTLSYY_FAYANRNRF_FLNRFTTTL_FPQSAPHGV_FPRGQGVPI_HVTFFIYNK_KTFPPTEPK_LTDEMIAQY_SIIAYTMSL_SPRWYFYYL_TVYSHLLLV_YEQYIKWPW_YLQPRTFLL_YLYALVYFL'
p14
g3
(g5
S'\xdd\x815w\x13\xd0\xef?'
tRp15
tp16
a(S'AEIRASANL_ATSRTLSYY_FAYANRNRF_FLNRFTTTL_FPQSAPHGV_FPRGQGVPI_KTFPPTEPK_LTDEMIAQY_MPASWVMRI_MTSCCSCLK_SIIAYTMSL_TVYSHLLLV_YEQYIKWPW_YLQPRTFLL_YLYALVYFL'
p17
g3
(g5
S'H^\x0fr\n\xd0\xef?'
tRp18
tp19
a(S'AEIRASANL_AELEGIQY_ATSRTLSYY_FAYANRNRF_FLNRFTTTL_FPQSAPHGV_FPRGQGVPI_HVTFFIYNK_KTFPPTEPK_LTDEMIAQY_SIIAYTMSL_SPRWYFYYL_TVYSHLLLV_YLQPRTFLL_YLYALVYFL'
p20
g3
(g5
S'\xc3\x883)\xf7\xcf\xef?'
tRp21
tp22
a(S'AEIRASANL_AELEGIQY_ATSRTLSYY_FAYANRNRF_FLNRFTTTL_FPQSAPHGV_FPRGQGVPI_HVTFFIYNK_LTDEMIAQY_MPASWVMRI_SIIAYTMSL_TSRTLSYYK_TVYSHLLLV_YLQPRTFLL_YLYALVYFL'
p23
g3
(g5
S'\xd5Z\\\r\xf5\xcf\xef?'
tRp24
tp25
a(S'AEIRASANL_ATSRTLSYY_FAYANRNRF_FLNRFTTTL_FPQSAPHGV_FPRGQGVPI_HVTFFIYNK_KTFPPTEPK_LTDEMIAQY_MPASWVMRI_SIIAYTMSL_TVYSHLLLV_VEHVTFFIY_YLQPRTFLL_YLYALVYFL'
p26
g3
(g5
S'\xbfI]`\xf4\xcf\xef?'
tRp27
tp28
a(S'AEIRASANL_ALRANSAVK_ATSRTLSYY_FAYANRNRF_FLNRFTTTL_FPQSAPHGV_FPRGQGVPI_HVTFFIYNK_LTDEMIAQY_MPASWVMRI_SIIAYTMSL_TVYSHLLLV_YEQYIKWPW_YLQPRTFLL_YLYALVYFL'
p29
g3
(g5
S'\x1fj\x0c\x05\xf4\xcf\xef?'
tRp30
tp31
a(S'AEIRASANL_ATSRTLSYY_FAYANRNRF_FLNRFTTTL_FPQSAPHGV_FPRGQGVPI_HVTFFIYNK_LTDEMIAQY_SIIAYTMSL_SPRWYFYYL_TSRTLSYYK_TVYSHLLLV_YEQYIKWPW_YLQPRTFLL_YLYALVYFL'
p32
g3
(g5
S'0\x1b\xb8t\xee\xcf\xef?'
tRp33
tp34
a.