(lp1
(S'AEIRASANL_ATSRTLSYY_FAYANRNRF_FLNRFTTTL_FPQSAPHGV_FPRGQGVPI_HVTFFIYNK_KTFPPTEPK_LTDEMIAQY_SIIAYTMSL_TVYSHLLLV_YEQYIKWPW_YLQPRTFLL_YLYALVYFL'
p2
cnumpy.core.multiarray
scalar
p3
(cnumpy
dtype
p4
(S'f8'
I0
I1
tRp5
(I3
S'<'
NNNI-1
I-1
I0
tbS'\xb1\x89&\xfcK\xc6\xef?'
tRp6
tp7
a(S'AEIRASANL_AELEGIQY_ATSRTLSYY_FAYANRNRF_FLNRFTTTL_FPQSAPHGV_FPRGQGVPI_HVTFFIYNK_KTFPPTEPK_LTDEMIAQY_SIIAYTMSL_TVYSHLLLV_YLQPRTFLL_YLYALVYFL'
p8
g3
(g5
S'[\xab\xc6\x16+\xc6\xef?'
tRp9
tp10
a(S'AEIRASANL_ATSRTLSYY_FAYANRNRF_FLNRFTTTL_FPQSAPHGV_FPRGQGVPI_HVTFFIYNK_LTDEMIAQY_SIIAYTMSL_TSRTLSYYK_TVYSHLLLV_YEQYIKWPW_YLQPRTFLL_YLYALVYFL'
p11
g3
(g5
S'\xeb\xaa\xd0\xfe#\xc6\xef?'
tRp12
tp13
a(S'AEIRASANL_ATSRTLSYY_FAYANRNRF_FLNRFTTTL_FPQSAPHGV_FPRGQGVPI_KTFPPTEPK_LTDEMIAQY_MTSCCSCLK_SIIAYTMSL_TVYSHLLLV_YEQYIKWPW_YLQPRTFLL_YLYALVYFL'
p14
g3
(g5
S'\xb87\x8eB\x14\xc6\xef?'
tRp15
tp16
a(S'AEIRASANL_AELEGIQY_ATSRTLSYY_FAYANRNRF_FLNRFTTTL_FPQSAPHGV_FPRGQGVPI_HVTFFIYNK_LTDEMIAQY_SIIAYTMSL_TSRTLSYYK_TVYSHLLLV_YLQPRTFLL_YLYALVYFL'
p17
g3
(g5
S'G\xf0\xf3\x03\x03\xc6\xef?'
tRp18
tp19
a(S'AEIRASANL_ATSRTLSYY_FAYANRNRF_FLNRFTTTL_FPQSAPHGV_FPRGQGVPI_HVTFFIYNK_KTFPPTEPK_LTDEMIAQY_SIIAYTMSL_TVYSHLLLV_VEHVTFFIY_YLQPRTFLL_YLYALVYFL'
p20
g3
(g5
S'\xf0\xbc\x06\xfd\x02\xc6\xef?'
tRp21
tp22
a(S'AEIRASANL_ATSRTLSYY_FAYANRNRF_FLNRFTTTL_FPQSAPHGV_FPRGQGVPI_HVTFFIYNK_ISDYDYYRY_KTFPPTEPK_SIIAYTMSL_TVYSHLLLV_YEQYIKWPW_YLQPRTFLL_YLYALVYFL'
p23
g3
(g5
S'\x0fu\x9e\xc5\xfa\xc5\xef?'
tRp24
tp25
a(S'AEIRASANL_ATSRTLSYY_FAYANRNRF_FLNRFTTTL_FPQSAPHGV_FPRGQGVPI_HVTFFIYNK_KTFPPTEPK_LTDEMIAQY_SIIAYTMSL_SPRWYFYYL_TVYSHLLLV_YLQPRTFLL_YLYALVYFL'
p26
g3
(g5
S'\xe4\xb1&\x9d\xf7\xc5\xef?'
tRp27
tp28
a(S'AEIRASANL_ALRANSAVK_ATSRTLSYY_FAYANRNRF_FLNRFTTTL_FPQSAPHGV_FPRGQGVPI_HVTFFIYNK_LTDEMIAQY_SIIAYTMSL_TVYSHLLLV_YEQYIKWPW_YLQPRTFLL_YLYALVYFL'
p29
g3
(g5
S'\xc0\xdb\x1c\x92\xf7\xc5\xef?'
tRp30
tp31
a(S'AEIRASANL_AELEGIQY_ATSRTLSYY_FAYANRNRF_FLNRFTTTL_FPQSAPHGV_FPRGQGVPI_KTFPPTEPK_LTDEMIAQY_MTSCCSCLK_SIIAYTMSL_TVYSHLLLV_YLQPRTFLL_YLYALVYFL'
p32
g3
(g5
S'kY.]\xf3\xc5\xef?'
tRp33
tp34
a.