(lp1
(S'AEIRASANL_ATSRTLSYY_FAYANRNRF_FLNRFTTTL_FPRGQGVPI_HVTFFIYNK_LTDEMIAQY_YLQPRTFLL_YLYALVYFL'
p2
cnumpy.core.multiarray
scalar
p3
(cnumpy
dtype
p4
(S'f8'
I0
I1
tRp5
(I3
S'<'
NNNI-1
I-1
I0
tbS'\xa4h\xf9W\xa0\xbe\xef?'
tRp6
tp7
a(S'AEIRASANL_ATSRTLSYY_FAYANRNRF_FLNRFTTTL_FPRGQGVPI_HVTFFIYNK_ISDYDYYRY_YLQPRTFLL_YLYALVYFL'
p8
g3
(g5
S'\rn\xb8f`\xbe\xef?'
tRp9
tp10
a(S'AEIRASANL_ATSRTLSYY_FAYANRNRF_FLNRFTTTL_HVTFFIYNK_LTDEMIAQY_SPRWYFYYL_YLQPRTFLL_YLYALVYFL'
p11
g3
(g5
S'c\xf0\x0c\xc3M\xbe\xef?'
tRp12
tp13
a(S'AEIRASANL_ATSRTLSYY_FAYANRNRF_FLNRFTTTL_FPRGQGVPI_LTDEMIAQY_MTSCCSCLK_YLQPRTFLL_YLYALVYFL'
p14
g3
(g5
S'{6a\xc29\xbe\xef?'
tRp15
tp16
a(S'AEIRASANL_ATSRTLSYY_FAYANRNRF_FLNRFTTTL_HVTFFIYNK_IPRRNVATL_LTDEMIAQY_YLQPRTFLL_YLYALVYFL'
p17
g3
(g5
S'xo"\x87D\xbc\xef?'
tRp18
tp19
a(S'AEIRASANL_ATSRTLSYY_FAYANRNRF_FPRGQGVPI_HVTFFIYNK_LTDEMIAQY_SIIAYTMSL_YLQPRTFLL_YLYALVYFL'
p20
g3
(g5
S'\x1b\xfc\xb1m\x12\xbc\xef?'
tRp21
tp22
a(S'AEIRASANL_ATSRTLSYY_FAYANRNRF_FPRGQGVPI_HVTFFIYNK_ISDYDYYRY_SIIAYTMSL_YLQPRTFLL_YLYALVYFL'
p23
g3
(g5
S'U\xc8X\x1f\xbe\xbb\xef?'
tRp24
tp25
a(S'FAYANRNRF_FLNRFTTTL_HVTFFIYNK_KTFPPTEPK_LTDEMIAQY_SPRWYFYYL_TVYSHLLLV_YLQPRTFLL_YLYALVYFL'
p26
g3
(g5
S'c\xb2\xd5\xdb\xf7\xba\xef?'
tRp27
tp28
a(S'FAYANRNRF_FLNRFTTTL_HVTFFIYNK_LTDEMIAQY_SPRWYFYYL_TSRTLSYYK_TVYSHLLLV_YLQPRTFLL_YLYALVYFL'
p29
g3
(g5
S'Cmp!\xd0\xba\xef?'
tRp30
tp31
a(S'ATSRTLSYY_EEHVQIHTI_FAYANRNRF_FLNRFTTTL_FPRGQGVPI_HVTFFIYNK_LTDEMIAQY_YLQPRTFLL_YLYALVYFL'
p32
g3
(g5
S'\x1c\xefr\xd1\xbb\xba\xef?'
tRp33
tp34
a.