(lp1
(S'AEIRASANL_ATSRTLSYY_FAYANRNRF_FLNRFTTTL_FPRGQGVPI_HVTFFIYNK_KTFPPTEPK_LTDEMIAQY_SIIAYTMSL_TVYSHLLLV_YLQPRTFLL_YLYALVYFL'
p2
cnumpy.core.multiarray
scalar
p3
(cnumpy
dtype
p4
(S'f8'
I0
I1
tRp5
(I3
S'<'
NNNI-1
I-1
I0
tbS"\x90'\xd3\xbc\x8b\xab\xef?"
tRp6
tp7
a(S'AEIRASANL_ATSRTLSYY_FAYANRNRF_FLNRFTTTL_FPRGQGVPI_HVTFFIYNK_LTDEMIAQY_SIIAYTMSL_TSRTLSYYK_TVYSHLLLV_YLQPRTFLL_YLYALVYFL'
p8
g3
(g5
S'\x97_\xc7\xaeP\xab\xef?'
tRp9
tp10
a(S'AEIRASANL_ATSRTLSYY_FAYANRNRF_FLNRFTTTL_FPRGQGVPI_KTFPPTEPK_LTDEMIAQY_MTSCCSCLK_SIIAYTMSL_TVYSHLLLV_YLQPRTFLL_YLYALVYFL'
p11
g3
(g5
S'\xf5\xf7`\xf76\xab\xef?'
tRp12
tp13
a(S'AEIRASANL_ALRANSAVK_ATSRTLSYY_FAYANRNRF_FLNRFTTTL_FPRGQGVPI_HVTFFIYNK_LTDEMIAQY_SIIAYTMSL_TVYSHLLLV_YLQPRTFLL_YLYALVYFL'
p14
g3
(g5
S'\xcb\xb296\x07\xab\xef?'
tRp15
tp16
a(S'AEIRASANL_ATSRTLSYY_FAYANRNRF_FLNRFTTTL_FPRGQGVPI_LTDEMIAQY_MTSCCSCLK_SIIAYTMSL_TSRTLSYYK_TVYSHLLLV_YLQPRTFLL_YLYALVYFL'
p17
g3
(g5
S'\xfd/U\xe9\xfb\xaa\xef?'
tRp18
tp19
a(S'AEIRASANL_ATSRTLSYY_FAYANRNRF_FLNRFTTTL_HVTFFIYNK_KTFPPTEPK_LTDEMIAQY_SIIAYTMSL_SPRWYFYYL_TVYSHLLLV_YLQPRTFLL_YLYALVYFL'
p20
g3
(g5
S'\xbd\xb4\xb4\x9ar\xa9\xef?'
tRp21
tp22
a(S'AEIRASANL_ATSRTLSYY_FAYANRNRF_FLNRFTTTL_FPRGQGVPI_HVTFFIYNK_ISDYDYYRY_KTFPPTEPK_SIIAYTMSL_TVYSHLLLV_YLQPRTFLL_YLYALVYFL'
p23
g3
(g5
S'\x91\\\xa0\xf4)\xa9\xef?'
tRp24
tp25
a(S'AEIRASANL_ATSRTLSYY_FAYANRNRF_FLNRFTTTL_FPRGQGVPI_FVDGVPFVV_HVTFFIYNK_KTFPPTEPK_LTDEMIAQY_SIIAYTMSL_YLQPRTFLL_YLYALVYFL'
p26
g3
(g5
S'\xf8~\xe3u\xf3\xa8\xef?'
tRp27
tp28
a(S'AEIRASANL_ATSRTLSYY_FAYANRNRF_FLNRFTTTL_FPRGQGVPI_FVDGVPFVV_HVTFFIYNK_LTDEMIAQY_SIIAYTMSL_TSRTLSYYK_YLQPRTFLL_YLYALVYFL'
p29
g3
(g5
S'{s\x06\xcd\xb6\xa8\xef?'
tRp30
tp31
a(S'AEIRASANL_ATSRTLSYY_FAYANRNRF_FLNRFTTTL_FPRGQGVPI_FVDGVPFVV_KTFPPTEPK_LTDEMIAQY_MTSCCSCLK_SIIAYTMSL_YLQPRTFLL_YLYALVYFL'
p32
g3
(g5
S'\xbfG\x17\xb2\x9e\xa8\xef?'
tRp33
tp34
a.