(lp1
(S'FPRGQGVPI_HVTFFIYNK_LTDEMIAQY_YLQPRTFLL_YLYALVYFL'
p2
cnumpy.core.multiarray
scalar
p3
(cnumpy
dtype
p4
(S'f8'
I0
I1
tRp5
(I3
S'<'
NNNI-1
I-1
I0
tbS'\xa0M\x95\x14\x8d\xaa\xef?'
tRp6
tp7
a(S'FPRGQGVPI_HVTFFIYNK_ISDYDYYRY_YLQPRTFLL_YLYALVYFL'
p8
g3
(g5
S'\xa5\x96 \xe3\xf3\xa9\xef?'
tRp9
tp10
a(S'HVTFFIYNK_LTDEMIAQY_SPRWYFYYL_YLQPRTFLL_YLYALVYFL'
p11
g3
(g5
S'\x15\xfcM\x95"\xa7\xef?'
tRp12
tp13
a(S'HVTFFIYNK_IPRRNVATL_LTDEMIAQY_YLQPRTFLL_YLYALVYFL'
p14
g3
(g5
S'\xc3s\xa9\xa4\xeb\xa5\xef?'
tRp15
tp16
a(S'FPRGQGVPI_LTDEMIAQY_MTSCCSCLK_YLQPRTFLL_YLYALVYFL'
p17
g3
(g5
S'Q\x04U\xf7\xce\xa5\xef?'
tRp18
tp19
a(S'FPRGQGVPI_HVTFFIYNK_LTDEMIAQY_TMADLVYAL_YLQPRTFLL'
p20
g3
(g5
S'C\xbd\xe9T\xd5\xa4\xef?'
tRp21
tp22
a(S'HVTFFIYNK_LTDEMIAQY_MPASWVMRI_YLQPRTFLL_YLYALVYFL'
p23
g3
(g5
S'=8\xfe\xff\x9b\xa3\xef?'
tRp24
tp25
a(S'FPRGQGVPI_HVTFFIYNK_LTDEMIAQY_SIIAYTMSL_YLQPRTFLL'
p26
g3
(g5
S'\xe7\xb6}\xbb\x97\xa3\xef?'
tRp27
tp28
a(S'FPRGQGVPI_HVTFFIYNK_LLYDANYFL_LTDEMIAQY_YLQPRTFLL'
p29
g3
(g5
S'k(\x1f\xfb,\xa3\xef?'
tRp30
tp31
a(S'HVTFFIYNK_IPIQASLPF_LTDEMIAQY_YLQPRTFLL_YLYALVYFL'
p32
g3
(g5
S'\x00+\xec\x80_\xa2\xef?'
tRp33
tp34
a.