(lp1
(S'ATSRTLSYY_YLQPRTFLL'
p2
cnumpy.core.multiarray
scalar
p3
(cnumpy
dtype
p4
(S'f8'
I0
I1
tRp5
(I3
S'<'
NNNI-1
I-1
I0
tbS'ki\xed:\x06\xfc\xef?'
tRp6
tp7
a(S'ISDYDYYRY_YLQPRTFLL'
p8
g3
(g5
S'\x03l\xf5\x98\xbe\xfa\xef?'
tRp9
tp10
a(S'LTDEMIAQY_YLQPRTFLL'
p11
g3
(g5
S'\xd8k\xf5\x98\xbe\xfa\xef?'
tRp12
tp13
a(S'MTSCCSCLK_YLQPRTFLL'
p14
g3
(g5
S'\xf8\xfaO\x03\x84\xfa\xef?'
tRp15
tp16
a(S'HVTFFIYNK_YLQPRTFLL'
p17
g3
(g5
S'\xf1\xfaO\x03\x84\xfa\xef?'
tRp18
tp19
a(S'YANRNRFLY_YLQPRTFLL'
p20
g3
(g5
S'@\xc9\xb2.\x0b\xfa\xef?'
tRp21
tp22
a(S'SSPDDQIGYY_YLQPRTFLL'
p23
g3
(g5
S'\xed\x85\x96\x1d\t\xfa\xef?'
tRp24
tp25
a(S'CNDPFLGVY_YLQPRTFLL'
p26
g3
(g5
S'\xed\x85\x96\x1d\t\xfa\xef?'
tRp27
tp28
a(S'CNDPFLGVYY_YLQPRTFLL'
p29
g27
tp30
a(S'FCNDPFLGVY_YLQPRTFLL'
p31
g3
(g5
S'\xe9\x85\x96\x1d\t\xfa\xef?'
tRp32
tp33
a.