(lp1
(S'ATSRTLSYY_FAYANRNRF_FLNRFTTTL_FPRGQGVPI_HVTFFIYNK_LTDEMIAQY_YLQPRTFLL_YLYALVYFL'
p2
cnumpy.core.multiarray
scalar
p3
(cnumpy
dtype
p4
(S'f8'
I0
I1
tRp5
(I3
S'<'
NNNI-1
I-1
I0
tbS'!\xafH\xbb:\xa5\xef?'
tRp6
tp7
a(S'ATSRTLSYY_FAYANRNRF_FLNRFTTTL_FPRGQGVPI_HVTFFIYNK_ISDYDYYRY_YLQPRTFLL_YLYALVYFL'
p8
g3
(g5
S'+\xe3<w\xe6\xa4\xef?'
tRp9
tp10
a(S'ATSRTLSYY_FAYANRNRF_FLNRFTTTL_HVTFFIYNK_LTDEMIAQY_SPRWYFYYL_YLQPRTFLL_YLYALVYFL'
p11
g3
(g5
S'(b\x0bN\xc3\xa4\xef?'
tRp12
tp13
a(S'ATSRTLSYY_FAYANRNRF_FLNRFTTTL_FPRGQGVPI_LTDEMIAQY_MTSCCSCLK_YLQPRTFLL_YLYALVYFL'
p14
g3
(g5
S'\xc1\x05\xec\xd8\xb6\xa4\xef?'
tRp15
tp16
a(S'FAYANRNRF_FLNRFTTTL_HVTFFIYNK_KTFPPTEPK_LTDEMIAQY_SPRWYFYYL_YLQPRTFLL_YLYALVYFL'
p17
g3
(g5
S'\xa3\x85\xd0\x9a/\xa3\xef?'
tRp18
tp19
a(S'ATSRTLSYY_FAYANRNRF_FPRGQGVPI_HVTFFIYNK_LTDEMIAQY_SIIAYTMSL_YLQPRTFLL_YLYALVYFL'
p20
g3
(g5
S'5t-\xf3,\xa3\xef?'
tRp21
tp22
a(S'FAYANRNRF_FLNRFTTTL_HVTFFIYNK_LTDEMIAQY_SPRWYFYYL_TSRTLSYYK_YLQPRTFLL_YLYALVYFL'
p23
g3
(g5
S'#b\x81\xb5\x07\xa3\xef?'
tRp24
tp25
a(S'ATSRTLSYY_FAYANRNRF_FPRGQGVPI_HVTFFIYNK_ISDYDYYRY_SIIAYTMSL_YLQPRTFLL_YLYALVYFL'
p26
g3
(g5
S'\x0b\xea]\x9a\x9b\xa2\xef?'
tRp27
tp28
a(S'ALRANSAVK_FAYANRNRF_FLNRFTTTL_HVTFFIYNK_LTDEMIAQY_SPRWYFYYL_YLQPRTFLL_YLYALVYFL'
p29
g3
(g5
S'\xcb$\xd2\x14o\xa2\xef?'
tRp30
tp31
a(S'ATSRTLSYY_FAYANRNRF_FLNRFTTTL_HVTFFIYNK_IPRRNVATL_LTDEMIAQY_YLQPRTFLL_YLYALVYFL'
p32
g3
(g5
S"'*\xb1\xd1S\xa2\xef?"
tRp33
tp34
a.