(lp1
(S'AEIRASANL_ATSRTLSYY_FAYANRNRF_FLNRFTTTL_FPQSAPHGV_FPRGQGVPI_HVTFFIYNK_KTFPPTEPK_LTDEMIAQY_MPASWVMRI_NVFAFPFTIY_SIIAYTMSL_TMADLVYAL_TSRTLSYYK_TVYSHLLLV_YANRNRFLY_YEQYIKWPW_YLQPRTFLL_YLYALVYFL'
p2
cnumpy.core.multiarray
scalar
p3
(cnumpy
dtype
p4
(S'f8'
I0
I1
tRp5
(I3
S'<'
NNNI-1
I-1
I0
tbS']\xfeJy5\xc2\xef?'
tRp6
tp7
a(S'AEIRASANL_ALRANSAVK_ATSRTLSYY_FAYANRNRF_FLNRFTTTL_FPQSAPHGV_FPRGQGVPI_HVTFFIYNK_KTFPPTEPK_LTDEMIAQY_MPASWVMRI_NVFAFPFTIY_SIIAYTMSL_TMADLVYAL_TVYSHLLLV_YANRNRFLY_YEQYIKWPW_YLQPRTFLL_YLYALVYFL'
p8
g3
(g5
S'\x15hG>\x1a\xc2\xef?'
tRp9
tp10
a(S'AEIRASANL_ATSRTLSYY_FAYANRNRF_FLNRFTTTL_FPQSAPHGV_FPRGQGVPI_HVTFFIYNK_KTFPPTEPK_LTDEMIAQY_MPASWVMRI_MTSCCSCLK_RARSVSPKL_SIIAYTMSL_TMADLVYAL_TVYSHLLLV_YANRNRFLY_YEQYIKWPW_YLQPRTFLL_YLYALVYFL'
p11
g3
(g5
S'\xccX\xac\x96\x8e\xc1\xef?'
tRp12
tp13
a(S'AEIRASANL_ATSRTLSYY_FAYANRNRF_FLNRFTTTL_FPQSAPHGV_FPRGQGVPI_HVTFFIYNK_KTFPPTEPK_LLYDANYFL_LTDEMIAQY_MPASWVMRI_MTSCCSCLK_RARSVSPKL_SIIAYTMSL_TVYSHLLLV_YANRNRFLY_YEQYIKWPW_YLQPRTFLL_YLYALVYFL'
p14
g3
(g5
S'\r\xef\xd3hk\xc1\xef?'
tRp15
tp16
a(S'AEIRASANL_AELEGIQY_ATSRTLSYY_FAYANRNRF_FLNRFTTTL_FPQSAPHGV_FPRGQGVPI_HVTFFIYNK_KTFPPTEPK_LTDEMIAQY_MPASWVMRI_MTSCCSCLK_RARSVSPKL_SIIAYTMSL_TMADLVYAL_TVYSHLLLV_YANRNRFLY_YLQPRTFLL_YLYALVYFL'
p17
g3
(g5
S'P\x9d\x06\x9e\\\xc1\xef?'
tRp18
tp19
a(S'AEIRASANL_ATSRTLSYY_FAYANRNRF_FLNRFTTTL_FPQSAPHGV_FPRGQGVPI_HVTFFIYNK_KTFPPTEPK_LTDEMIAQY_MPASWVMRI_MTSCCSCLK_SIIAYTMSL_TMADLVYAL_TVYSHLLLV_VRFPNITNL_YANRNRFLY_YEQYIKWPW_YLQPRTFLL_YLYALVYFL'
p20
g3
(g5
S'\xc8\xb4,oX\xc1\xef?'
tRp21
tp22
a(S'AEIRASANL_ATSRTLSYY_FAYANRNRF_FLNRFTTTL_FPQSAPHGV_FPRGQGVPI_HVTFFIYNK_LTDEMIAQY_MPASWVMRI_MTSCCSCLK_RARSVSPKL_SIIAYTMSL_TMADLVYAL_TSRTLSYYK_TVYSHLLLV_YANRNRFLY_YEQYIKWPW_YLQPRTFLL_YLYALVYFL'
p23
g3
(g5
S'\xac\xb1\x89\xbaJ\xc1\xef?'
tRp24
tp25
a(S'AEIRASANL_ATSRTLSYY_FAYANRNRF_FLNRFTTTL_FPQSAPHGV_FPRGQGVPI_HVTFFIYNK_KTFPPTEPK_LLYDANYFL_LTDEMIAQY_MPASWVMRI_MTSCCSCLK_SIIAYTMSL_TVYSHLLLV_VRFPNITNL_YANRNRFLY_YEQYIKWPW_YLQPRTFLL_YLYALVYFL'
p26
g3
(g5
S'\xad\xcb\r\x86C\xc1\xef?'
tRp27
tp28
a(S'AEIRASANL_AELEGIQY_ATSRTLSYY_FAYANRNRF_FLNRFTTTL_FPQSAPHGV_FPRGQGVPI_HVTFFIYNK_KTFPPTEPK_LLYDANYFL_LTDEMIAQY_MPASWVMRI_MTSCCSCLK_RARSVSPKL_SIIAYTMSL_TVYSHLLLV_YANRNRFLY_YLQPRTFLL_YLYALVYFL'
p29
g3
(g5
S'\x953.p9\xc1\xef?'
tRp30
tp31
a(S'AEIRASANL_AELEGIQY_ATSRTLSYY_FAYANRNRF_FLNRFTTTL_FPQSAPHGV_FPRGQGVPI_HVTFFIYNK_KTFPPTEPK_LTDEMIAQY_MPASWVMRI_MTSCCSCLK_SIIAYTMSL_TMADLVYAL_TVYSHLLLV_VRFPNITNL_YANRNRFLY_YLQPRTFLL_YLYALVYFL'
p32
g3
(g5
S'\xf8Va\xac0\xc1\xef?'
tRp33
tp34
a.