(lp1
(S'AEIRASANL_ATSRTLSYY_FAYANRNRF_FLNRFTTTL_FPQSAPHGV_FPRGQGVPI_HVTFFIYNK_KTFPPTEPK_LTDEMIAQY_MPASWVMRI_NVFAFPFTIY_SIIAYTMSL_SINFVRIIMR_TMADLVYAL_TSRTLSYYK_TVYSHLLLV_YANRNRFLY_YEQYIKWPW_YLQPRTFLL_YLYALVYFL'
p2
cnumpy.core.multiarray
scalar
p3
(cnumpy
dtype
p4
(S'f8'
I0
I1
tRp5
(I3
S'<'
NNNI-1
I-1
I0
tbS'[\x0e\xc9Y\xb2\xcb\xef?'
tRp6
tp7
a(S'AEIRASANL_ATSRTLSYY_FAYANRNRF_FLNRFTTTL_FLQSINFVR_FPQSAPHGV_FPRGQGVPI_HVTFFIYNK_KTFPPTEPK_LTDEMIAQY_MPASWVMRI_NVFAFPFTIY_SIIAYTMSL_TMADLVYAL_TSRTLSYYK_TVYSHLLLV_YANRNRFLY_YEQYIKWPW_YLQPRTFLL_YLYALVYFL'
p8
g3
(g5
S'SLud\xae\xcb\xef?'
tRp9
tp10
a(S'AEIRASANL_ALRANSAVK_ATSRTLSYY_FAYANRNRF_FLNRFTTTL_FPQSAPHGV_FPRGQGVPI_HVTFFIYNK_KTFPPTEPK_LTDEMIAQY_MPASWVMRI_NVFAFPFTIY_SIIAYTMSL_SINFVRIIMR_TMADLVYAL_TVYSHLLLV_YANRNRFLY_YEQYIKWPW_YLQPRTFLL_YLYALVYFL'
p11
g3
(g5
S'\xfc\x88\x97\x0b\xad\xcb\xef?'
tRp12
tp13
a(S'AEIRASANL_ALRANSAVK_ATSRTLSYY_FAYANRNRF_FLNRFTTTL_FLQSINFVR_FPQSAPHGV_FPRGQGVPI_HVTFFIYNK_KTFPPTEPK_LTDEMIAQY_MPASWVMRI_NVFAFPFTIY_SIIAYTMSL_TMADLVYAL_TVYSHLLLV_YANRNRFLY_YEQYIKWPW_YLQPRTFLL_YLYALVYFL'
p14
g3
(g5
S'\xcfhed\x93\xcb\xef?'
tRp15
tp16
a(S'AEIRASANL_ATSRTLSYY_FAYANRNRF_FLNRFTTTL_FPQSAPHGV_FPRGQGVPI_HVTFFIYNK_KTFPPTEPK_LTDEMIAQY_MPASWVMRI_MTSCCSCLK_SIIAYTMSL_SPRWYFYYL_TMADLVYAL_TVYSHLLLV_VRFPNITNL_YANRNRFLY_YEQYIKWPW_YLQPRTFLL_YLYALVYFL'
p17
g3
(g5
S'\x9dpg\x18\x84\xcb\xef?'
tRp18
tp19
a(S'AEIRASANL_ATSRTLSYY_FAYANRNRF_FLNRFTTTL_FPQSAPHGV_FPRGQGVPI_HVTFFIYNK_KTFPPTEPK_LTDEMIAQY_MGYINVFAF_MPASWVMRI_MTSCCSCLK_RARSVSPKL_SIIAYTMSL_TMADLVYAL_TVYSHLLLV_YANRNRFLY_YEQYIKWPW_YLQPRTFLL_YLYALVYFL'
p20
g3
(g5
S'\xd3A\x1fF\x7f\xcb\xef?'
tRp21
tp22
a(S'AEIRASANL_ATSRTLSYY_FAYANRNRF_FLNRFTTTL_FPQSAPHGV_FPRGQGVPI_HVTFFIYNK_KTFPPTEPK_LLYDANYFL_LTDEMIAQY_MPASWVMRI_MTSCCSCLK_SIIAYTMSL_SPRWYFYYL_TVYSHLLLV_VRFPNITNL_YANRNRFLY_YEQYIKWPW_YLQPRTFLL_YLYALVYFL'
p23
g3
(g5
S'\xcb\xf6.\xd9r\xcb\xef?'
tRp24
tp25
a(S'AEIRASANL_ATSRTLSYY_FAYANRNRF_FLNRFTTTL_FPQSAPHGV_FPRGQGVPI_HVTFFIYNK_KTFPPTEPK_LTDEMIAQY_MGYINVFAF_MPASWVMRI_MTSCCSCLK_SIIAYTMSL_TMADLVYAL_TVYSHLLLV_VRFPNITNL_YANRNRFLY_YEQYIKWPW_YLQPRTFLL_YLYALVYFL'
p26
g3
(g5
S'[\x82.\xe7m\xcb\xef?'
tRp27
tp28
a(S'AEIRASANL_AELEGIQY_ATSRTLSYY_FAYANRNRF_FLNRFTTTL_FPQSAPHGV_FPRGQGVPI_HVTFFIYNK_KTFPPTEPK_LTDEMIAQY_MPASWVMRI_MTSCCSCLK_SIIAYTMSL_SPRWYFYYL_TMADLVYAL_TVYSHLLLV_VRFPNITNL_YANRNRFLY_YLQPRTFLL_YLYALVYFL'
p29
g3
(g5
S'%\x9e\x8dk`\xcb\xef?'
tRp30
tp31
a(S'AEIRASANL_ATSRTLSYY_FAYANRNRF_FLNRFTTTL_FPQSAPHGV_FPRGQGVPI_HVTFFIYNK_KTFPPTEPK_LLYDANYFL_LTDEMIAQY_MGYINVFAF_MPASWVMRI_MTSCCSCLK_RARSVSPKL_SIIAYTMSL_TVYSHLLLV_YANRNRFLY_YEQYIKWPW_YLQPRTFLL_YLYALVYFL'
p32
g3
(g5
S'T\x0f\x10\xaa\\\xcb\xef?'
tRp33
tp34
a.