(lp1
(S'AEIRASANL_ALRANSAVK_FLNRFTTTL_FLQSINFVR_FPQSAPHGV_FTYASALWEI_HVTFFIYNK_IPRRNVATL_ISDYDYYRY_KTFPPTEPK_LLYDANYFL_LTDEMIAQY_MPASWVMRI_NVFAFPFTIY_SIIAYTMSL_SPRWYFYYL_TMADLVYAL_TVYSHLLLV_VRFPNITNL_YEQYIKWPW_YIFFASFYY_YLDAYNMMI_YLQPRTFLL_YLYALVYFL'
p2
cnumpy.core.multiarray
scalar
p3
(cnumpy
dtype
p4
(S'f8'
I0
I1
tRp5
(I3
S'<'
NNNI-1
I-1
I0
tbS'\xa1q\x80"-\xba\xef?'
tRp6
tp7
a(S'AEIRASANL_ALRANSAVK_FLNRFTTTL_FLQSINFVR_FPQSAPHGV_FTYASALWEI_HVTFFIYNK_IPRRNVATL_ISDYDYYRY_KTFPPTEPK_LTDEMIAQY_MPASWVMRI_NVFAFPFTIY_SIIAYTMSL_SPRWYFYYL_TMADLVYAL_TVYSHLLLV_VLWAHGFEL_VRFPNITNL_YEQYIKWPW_YIFFASFYY_YLDAYNMMI_YLQPRTFLL_YLYALVYFL'
p8
g3
(g5
S'\xb7\x0e3;\xef\xb9\xef?'
tRp9
tp10
a(S'AEIRASANL_ALRANSAVK_FLNRFTTTL_FLPRVFSAV_FLQSINFVR_FPQSAPHGV_FTYASALWEI_HVTFFIYNK_IPRRNVATL_ISDYDYYRY_KTFPPTEPK_LTDEMIAQY_MPASWVMRI_NVFAFPFTIY_SIIAYTMSL_SPRWYFYYL_TMADLVYAL_TVYSHLLLV_VRFPNITNL_YEQYIKWPW_YIFFASFYY_YLDAYNMMI_YLQPRTFLL_YLYALVYFL'
p11
g3
(g5
S'\x14\xdd\x17\x80\xd2\xb9\xef?'
tRp12
tp13
a(S'AEIRASANL_ALRANSAVK_FLLPSLATV_FLNRFTTTL_FLQSINFVR_FPQSAPHGV_FTYASALWEI_HVTFFIYNK_IPRRNVATL_ISDYDYYRY_KTFPPTEPK_LTDEMIAQY_MPASWVMRI_NVFAFPFTIY_SIIAYTMSL_SPRWYFYYL_TMADLVYAL_TVYSHLLLV_VRFPNITNL_YEQYIKWPW_YIFFASFYY_YLDAYNMMI_YLQPRTFLL_YLYALVYFL'
p14
g3
(g5
S'\xa0\xf6\xbc\xadz\xb9\xef?'
tRp15
tp16
a(S'AEIRASANL_ALRANSAVK_FLLNKEMYL_FLNRFTTTL_FLQSINFVR_FPQSAPHGV_FTYASALWEI_HVTFFIYNK_IPRRNVATL_ISDYDYYRY_KTFPPTEPK_LTDEMIAQY_MPASWVMRI_NVFAFPFTIY_SIIAYTMSL_SPRWYFYYL_TMADLVYAL_TVYSHLLLV_VRFPNITNL_YEQYIKWPW_YIFFASFYY_YLDAYNMMI_YLQPRTFLL_YLYALVYFL'
p17
g3
(g5
S'k\xf4>5o\xb9\xef?'
tRp18
tp19
a(S'AEIRASANL_ALRANSAVK_FLNRFTTTL_FLQSINFVR_FPQSAPHGV_FTYASALWEI_HVTFFIYNK_IPRRNVATL_ISDYDYYRY_KTFPPTEPK_KVSIWNLDY_LLYDANYFL_LTDEMIAQY_MPASWVMRI_NVFAFPFTIY_SIIAYTMSL_SPRWYFYYL_TMADLVYAL_TVYSHLLLV_VRFPNITNL_YEQYIKWPW_YLDAYNMMI_YLQPRTFLL_YLYALVYFL'
p20
g3
(g5
S'\xd89\xae\xa3M\xb9\xef?'
tRp21
tp22
a(S'AEIRASANL_ALRANSAVK_FLNRFTTTL_FLQSINFVR_FPQSAPHGV_FTYASALWEI_HVTFFIYNK_IPRRNVATL_ISDYDYYRY_KTFPPTEPK_KVSIWNLDY_LTDEMIAQY_MPASWVMRI_NVFAFPFTIY_SIIAYTMSL_SPRWYFYYL_TMADLVYAL_TVYSHLLLV_VLWAHGFEL_VRFPNITNL_YEQYIKWPW_YLDAYNMMI_YLQPRTFLL_YLYALVYFL'
p23
g3
(g5
S's\x12\xad\xd3\xf5\xb8\xef?'
tRp24
tp25
a(S'AEIRASANL_ALRANSAVK_FLNRFTTTL_FLPRVFSAV_FLQSINFVR_FPQSAPHGV_FTYASALWEI_HVTFFIYNK_IPRRNVATL_ISDYDYYRY_KTFPPTEPK_KVSIWNLDY_LTDEMIAQY_MPASWVMRI_NVFAFPFTIY_SIIAYTMSL_SPRWYFYYL_TMADLVYAL_TVYSHLLLV_VRFPNITNL_YEQYIKWPW_YLDAYNMMI_YLQPRTFLL_YLYALVYFL'
p26
g3
(g5
S'\xf0T\x92;\xf3\xb8\xef?'
tRp27
tp28
a(S'AEIRASANL_ALRANSAVK_FLLPSLATV_FLNRFTTTL_FLQSINFVR_FPQSAPHGV_FTYASALWEI_HVTFFIYNK_IPRRNVATL_ISDYDYYRY_KTFPPTEPK_KVSIWNLDY_LTDEMIAQY_MPASWVMRI_NVFAFPFTIY_SIIAYTMSL_SPRWYFYYL_TMADLVYAL_TVYSHLLLV_VRFPNITNL_YEQYIKWPW_YLDAYNMMI_YLQPRTFLL_YLYALVYFL'
p29
g3
(g5
S'/q\xc0\xd2\x82\xb8\xef?'
tRp30
tp31
a(S'AEIRASANL_ALRANSAVK_FLLNKEMYL_FLNRFTTTL_FLQSINFVR_FPQSAPHGV_FTYASALWEI_HVTFFIYNK_IPRRNVATL_ISDYDYYRY_KTFPPTEPK_KVSIWNLDY_LTDEMIAQY_MPASWVMRI_NVFAFPFTIY_SIIAYTMSL_SPRWYFYYL_TMADLVYAL_TVYSHLLLV_VRFPNITNL_YEQYIKWPW_YLDAYNMMI_YLQPRTFLL_YLYALVYFL'
p32
g3
(g5
S'yb\xb6fn\xb8\xef?'
tRp33
tp34
a.