(lp1
(S'FLNRFTTTL_FPQSAPHGV_HVTFFIYNK_KTFPPTEPK_SIIAYTMSL_SPRWYFYYL_TMADLVYAL_YLQPRTFLL'
p2
cnumpy.core.multiarray
scalar
p3
(cnumpy
dtype
p4
(S'f8'
I0
I1
tRp5
(I3
S'<'
NNNI-1
I-1
I0
tbS'|\x989\x17+\xac\xef?'
tRp6
tp7
a(S'FLNRFTTTL_FPQSAPHGV_HVTFFIYNK_KTFPPTEPK_SPRWYFYYL_TMADLVYAL_YLDAYNMMI_YLQPRTFLL'
p8
g3
(g5
S"\x95=\x11\xcd'\xac\xef?"
tRp9
tp10
a(S'FLNRFTTTL_FPQSAPHGV_KTFPPTEPK_MTSCCSCLK_SPRWYFYYL_TMADLVYAL_YLDAYNMMI_YLQPRTFLL'
p11
g3
(g5
S'\x85k\xce\xbd\x1c\xac\xef?'
tRp12
tp13
a(S'FLNRFTTTL_FPQSAPHGV_KTFPPTEPK_MTSCCSCLK_SIIAYTMSL_SPRWYFYYL_TMADLVYAL_YLQPRTFLL'
p14
g3
(g5
S'l\x17\xffl\x13\xac\xef?'
tRp15
tp16
a(S'FLNRFTTTL_FPQSAPHGV_HVTFFIYNK_KTFPPTEPK_LLYDANYFL_SPRWYFYYL_YLDAYNMMI_YLQPRTFLL'
p17
g3
(g5
S'x\xbc\x8c\x05\x01\xac\xef?'
tRp18
tp19
a(S'FLNRFTTTL_FPQSAPHGV_KTFPPTEPK_LLYDANYFL_MTSCCSCLK_SPRWYFYYL_YLDAYNMMI_YLQPRTFLL'
p20
g3
(g5
S'\xaf\x07\x80r\xf6\xab\xef?'
tRp21
tp22
a(S'FLNRFTTTL_FPQSAPHGV_HVTFFIYNK_KTFPPTEPK_LLYDANYFL_SIIAYTMSL_SPRWYFYYL_YLQPRTFLL'
p23
g3
(g5
S'\xb3\x8c\xa4;\xf6\xab\xef?'
tRp24
tp25
a(S'FLNRFTTTL_FPQSAPHGV_KTFPPTEPK_LLYDANYFL_MTSCCSCLK_SIIAYTMSL_SPRWYFYYL_YLQPRTFLL'
p26
g3
(g5
S'\xa5\xa9\x19\x9d\xdd\xab\xef?'
tRp27
tp28
a(S'ALRANSAVK_FLNRFTTTL_FPQSAPHGV_HVTFFIYNK_SIIAYTMSL_SPRWYFYYL_TMADLVYAL_YLQPRTFLL'
p29
g3
(g5
S'\xc5\xed\x86\xa3\xc0\xab\xef?'
tRp30
tp31
a(S'ALRANSAVK_FLNRFTTTL_FPQSAPHGV_HVTFFIYNK_SPRWYFYYL_TMADLVYAL_YLDAYNMMI_YLQPRTFLL'
p32
g3
(g5
S'\xb8\xa9}\x9f\xbf\xab\xef?'
tRp33
tp34
a.