(lp1
(S'AEIRASANL_ALRANSAVK_FLNRFTTTL_FLQSINFVR_FPQSAPHGV_FTYASALWEI_HVTFFIYNK_IPRRNVATL_ISDYDYYRY_KTFPPTEPK_LLYDANYFL_LTDEMIAQY_MGYINVFAF_MPASWVMRI_NVFAFPFTIY_RARSVSPKL_SIIAYTMSL_SPRWYFYYL_TMADLVYAL_TVYSHLLLV_VRFPNITNL_YEQYIKWPW_YIFFASFYY_YLDAYNMMI_YLQPRTFLL_YLYALVYFL'
p2
cnumpy.core.multiarray
scalar
p3
(cnumpy
dtype
p4
(S'f8'
I0
I1
tRp5
(I3
S'<'
NNNI-1
I-1
I0
tbS"\x19'\xc1\xbe\xa5\xcb\xef?"
tRp6
tp7
a(S'AEIRASANL_ALRANSAVK_FLNRFTTTL_FLPRVFSAV_FLQSINFVR_FPQSAPHGV_FTYASALWEI_HVTFFIYNK_IPRRNVATL_ISDYDYYRY_KTFPPTEPK_LTDEMIAQY_MGYINVFAF_MPASWVMRI_NVFAFPFTIY_RARSVSPKL_SIIAYTMSL_SPRWYFYYL_TMADLVYAL_TVYSHLLLV_VRFPNITNL_YEQYIKWPW_YIFFASFYY_YLDAYNMMI_YLQPRTFLL_YLYALVYFL'
p8
g3
(g5
S'\xb1\xc70\x91\x9e\xcb\xef?'
tRp9
tp10
a(S'AEIRASANL_ALRANSAVK_FLNRFTTTL_FLQSINFVR_FPQSAPHGV_FTYASALWEI_HVTFFIYNK_IPRRNVATL_ISDYDYYRY_KTFPPTEPK_LTDEMIAQY_MGYINVFAF_MPASWVMRI_NVFAFPFTIY_RARSVSPKL_SIIAYTMSL_SPRWYFYYL_TMADLVYAL_TVYSHLLLV_VLWAHGFEL_VRFPNITNL_YEQYIKWPW_YIFFASFYY_YLDAYNMMI_YLQPRTFLL_YLYALVYFL'
p11
g3
(g5
S'Q\xb2\xcb\xc3F\xcb\xef?'
tRp12
tp13
a(S'AEIRASANL_ALRANSAVK_FLLNKEMYL_FLNRFTTTL_FLQSINFVR_FPQSAPHGV_FTYASALWEI_HVTFFIYNK_IPRRNVATL_ISDYDYYRY_KTFPPTEPK_LTDEMIAQY_MGYINVFAF_MPASWVMRI_NVFAFPFTIY_RARSVSPKL_SIIAYTMSL_SPRWYFYYL_TMADLVYAL_TVYSHLLLV_VRFPNITNL_YEQYIKWPW_YIFFASFYY_YLDAYNMMI_YLQPRTFLL_YLYALVYFL'
p14
g3
(g5
S'\t\xdfWF;\xcb\xef?'
tRp15
tp16
a(S'AEIRASANL_ALRANSAVK_FLLPSLATV_FLNRFTTTL_FLQSINFVR_FPQSAPHGV_FTYASALWEI_HVTFFIYNK_IPRRNVATL_ISDYDYYRY_KTFPPTEPK_LTDEMIAQY_MGYINVFAF_MPASWVMRI_NVFAFPFTIY_RARSVSPKL_SIIAYTMSL_SPRWYFYYL_TMADLVYAL_TVYSHLLLV_VRFPNITNL_YEQYIKWPW_YIFFASFYY_YLDAYNMMI_YLQPRTFLL_YLYALVYFL'
p17
g3
(g5
S'4E\x9a\x91\x1d\xcb\xef?'
tRp18
tp19
a(S'AEIRASANL_ALRANSAVK_FLNRFTTTL_FLQSINFVR_FPQSAPHGV_FTYASALWEI_HVTFFIYNK_IPRRNVATL_IPTNFTISV_ISDYDYYRY_KTFPPTEPK_LLYDANYFL_LTDEMIAQY_MPASWVMRI_NVFAFPFTIY_RARSVSPKL_SIIAYTMSL_SPRWYFYYL_TMADLVYAL_TVYSHLLLV_VRFPNITNL_YEQYIKWPW_YIFFASFYY_YLDAYNMMI_YLQPRTFLL_YLYALVYFL'
p20
g3
(g5
S'#I\xcf\x95\xf3\xca\xef?'
tRp21
tp22
a(S'AEIRASANL_ALRANSAVK_FLNRFTTTL_FLQSINFVR_FPQSAPHGV_FTYASALWEI_HVTFFIYNK_IPRRNVATL_ISDYDYYRY_KTFPPTEPK_LLYDANYFL_LTDEMIAQY_MGYINVFAF_MPASWVMRI_NVFAFPFTIY_RLFRKSNLK_SIIAYTMSL_SPRWYFYYL_TMADLVYAL_TVYSHLLLV_VRFPNITNL_YEQYIKWPW_YIFFASFYY_YLDAYNMMI_YLQPRTFLL_YLYALVYFL'
p23
g3
(g5
S'\xa1\xe4\xe9\x07\xeb\xca\xef?'
tRp24
tp25
a(S'AEIRASANL_ALRANSAVK_FLNRFTTTL_FLQSINFVR_FPQSAPHGV_FTYASALWEI_HVTFFIYNK_IPRRNVATL_ISDYDYYRY_KMQRMLLEK_KTFPPTEPK_LLYDANYFL_LTDEMIAQY_MGYINVFAF_MPASWVMRI_NVFAFPFTIY_SIIAYTMSL_SPRWYFYYL_TMADLVYAL_TVYSHLLLV_VRFPNITNL_YEQYIKWPW_YIFFASFYY_YLDAYNMMI_YLQPRTFLL_YLYALVYFL'
p26
g3
(g5
S'\xa1\xe4\xe9\x07\xeb\xca\xef?'
tRp27
tp28
a(S'AEIRASANL_ALRANSAVK_FLNRFTTTL_FLQSINFVR_FPQSAPHGV_FTYASALWEI_HVTFFIYNK_IPRRNVATL_ISDYDYYRY_KTFPPTEPK_LLYDANYFL_LTDEMIAQY_MGYINVFAF_MPASWVMRI_NVFAFPFTIY_SIIAYTMSL_SPRWYFYYL_TLKSFTVEK_TMADLVYAL_TVYSHLLLV_VRFPNITNL_YEQYIKWPW_YIFFASFYY_YLDAYNMMI_YLQPRTFLL_YLYALVYFL'
p29
g3
(g5
S'\xa0\xe4\xe9\x07\xeb\xca\xef?'
tRp30
tp31
a(S'AEIRASANL_ALRANSAVK_ASKIITLKK_FLNRFTTTL_FLQSINFVR_FPQSAPHGV_FTYASALWEI_HVTFFIYNK_IPRRNVATL_ISDYDYYRY_KTFPPTEPK_LLYDANYFL_LTDEMIAQY_MGYINVFAF_MPASWVMRI_NVFAFPFTIY_SIIAYTMSL_SPRWYFYYL_TMADLVYAL_TVYSHLLLV_VRFPNITNL_YEQYIKWPW_YIFFASFYY_YLDAYNMMI_YLQPRTFLL_YLYALVYFL'
p32
g3
(g5
S'c!\x98\t\xdf\xca\xef?'
tRp33
tp34
a.