(lp1
(S'AEIRASANL_ALRANSAVK_FLNRFTTTL_FLQSINFVR_FPQSAPHGV_HVTFFIYNK_KTFPPTEPK_LTDEMIAQY_MPASWVMRI_NVFAFPFTIY_SIIAYTMSL_SPRWYFYYL_TMADLVYAL_TVYSHLLLV_VRFPNITNL_YEQYIKWPW_YLDAYNMMI_YLQPRTFLL'
p2
cnumpy.core.multiarray
scalar
p3
(cnumpy
dtype
p4
(S'f8'
I0
I1
tRp5
(I3
S'<'
NNNI-1
I-1
I0
tbS'\x038\x83\xda\xad\xdb\xef?'
tRp6
tp7
a(S'AEIRASANL_ALRANSAVK_FLNRFTTTL_FLQSINFVR_FPQSAPHGV_HVTFFIYNK_IPRRNVATL_KTFPPTEPK_LTDEMIAQY_NVFAFPFTIY_SIIAYTMSL_SPRWYFYYL_TMADLVYAL_TVYSHLLLV_VRFPNITNL_YEQYIKWPW_YLDAYNMMI_YLQPRTFLL'
p8
g3
(g5
S'#\xe6\xb8\xc3\xac\xdb\xef?'
tRp9
tp10
a(S'AEIRASANL_ALRANSAVK_FLNRFTTTL_FLQSINFVR_FPQSAPHGV_FPRGQGVPI_HVTFFIYNK_KTFPPTEPK_LTDEMIAQY_NVFAFPFTIY_SIIAYTMSL_SPRWYFYYL_TMADLVYAL_TVYSHLLLV_VRFPNITNL_YEQYIKWPW_YLDAYNMMI_YLQPRTFLL'
p11
g3
(g5
S'I\x90n\xe2X\xdb\xef?'
tRp12
tp13
a(S'AEIRASANL_ALRANSAVK_FLNRFTTTL_FLQSINFVR_FPQSAPHGV_HVTFFIYNK_IPRRNVATL_KTFPPTEPK_LTDEMIAQY_NVFAFPFTIY_SIIAYTMSL_SPRWYFYYL_TMADLVYAL_TVYSHLLLV_VRFPNITNL_YEQYIKWPW_YLQPRTFLL_YLYALVYFL'
p14
g3
(g5
S'\xec\xd1,\xbfG\xdb\xef?'
tRp15
tp16
a(S'AEIRASANL_ALRANSAVK_FLNRFTTTL_FLQSINFVR_FPQSAPHGV_HVTFFIYNK_KTFPPTEPK_LTDEMIAQY_MPASWVMRI_NVFAFPFTIY_SIIAYTMSL_SPRWYFYYL_TMADLVYAL_TVYSHLLLV_VRFPNITNL_YEQYIKWPW_YLQPRTFLL_YLYALVYFL'
p17
g3
(g5
S'\x84M\xdd]D\xdb\xef?'
tRp18
tp19
a(S'AEIRASANL_ALRANSAVK_FLNRFTTTL_FLQSINFVR_FPQSAPHGV_HVTFFIYNK_IPRRNVATL_KTFPPTEPK_LLYDANYFL_LTDEMIAQY_NVFAFPFTIY_SIIAYTMSL_SPRWYFYYL_TMADLVYAL_TVYSHLLLV_VRFPNITNL_YEQYIKWPW_YLQPRTFLL'
p20
g3
(g5
S'L\xc8Df3\xdb\xef?'
tRp21
tp22
a(S'AEIRASANL_ALRANSAVK_FLNRFTTTL_FLQSINFVR_FPQSAPHGV_HVTFFIYNK_KTFPPTEPK_LLYDANYFL_LTDEMIAQY_MPASWVMRI_NVFAFPFTIY_SIIAYTMSL_SPRWYFYYL_TMADLVYAL_TVYSHLLLV_VRFPNITNL_YEQYIKWPW_YLQPRTFLL'
p23
g3
(g5
S'\xfbv\x82\x17/\xdb\xef?'
tRp24
tp25
a(S'AEIRASANL_ALRANSAVK_FLNRFTTTL_FLQSINFVR_FPQSAPHGV_HVTFFIYNK_IPIQASLPF_KTFPPTEPK_LTDEMIAQY_NVFAFPFTIY_SIIAYTMSL_SPRWYFYYL_TMADLVYAL_TVYSHLLLV_VRFPNITNL_YEQYIKWPW_YLDAYNMMI_YLQPRTFLL'
p26
g3
(g5
S'\x04=e\xa7\xfa\xda\xef?'
tRp27
tp28
a(S'AEIRASANL_ALRANSAVK_FLNRFTTTL_FLQSINFVR_FPQSAPHGV_FPRGQGVPI_HVTFFIYNK_KTFPPTEPK_LTDEMIAQY_NVFAFPFTIY_SIIAYTMSL_SPRWYFYYL_TMADLVYAL_TVYSHLLLV_VRFPNITNL_YEQYIKWPW_YLQPRTFLL_YLYALVYFL'
p29
g3
(g5
S'\xff\x0c\x81c\xf2\xda\xef?'
tRp30
tp31
a(S'AEIRASANL_ALRANSAVK_FLNRFTTTL_FLQSINFVR_FPPTSFGPL_FPQSAPHGV_HVTFFIYNK_KTFPPTEPK_LTDEMIAQY_NVFAFPFTIY_SIIAYTMSL_SPRWYFYYL_TMADLVYAL_TVYSHLLLV_VRFPNITNL_YEQYIKWPW_YLDAYNMMI_YLQPRTFLL'
p32
g3
(g5
S'8\xc6l\xcb\xef\xda\xef?'
tRp33
tp34
a.