(lp1
(S'AEIRASANL_ALRANSAVK_FLNRFTTTL_FPQSAPHGV_FTYASALWEI_FVDGVPFVV_HVTFFIYNK_KTFPPTEPK_SIIAYTMSL_SPRWYFYYL_TMADLVYAL_VRFPNITNL_YEQYIKWPW_YLQPRTFLL'
p2
cnumpy.core.multiarray
scalar
p3
(cnumpy
dtype
p4
(S'f8'
I0
I1
tRp5
(I3
S'<'
NNNI-1
I-1
I0
tbS'\xb7\xa3\xf15\x03\xe3\xef?'
tRp6
tp7
a(S'AEIRASANL_ALRANSAVK_FLNRFTTTL_FPQSAPHGV_FTYASALWEI_FVDGVPFVV_KTFPPTEPK_MTSCCSCLK_SIIAYTMSL_SPRWYFYYL_TMADLVYAL_VRFPNITNL_YEQYIKWPW_YLQPRTFLL'
p8
g3
(g5
S'\xebZ\xe6\xa3\xff\xe2\xef?'
tRp9
tp10
a(S'AEIRASANL_ALRANSAVK_FLNRFTTTL_FPQSAPHGV_FTYASALWEI_FVDGVPFVV_HVTFFIYNK_KTFPPTEPK_LLYDANYFL_SIIAYTMSL_SPRWYFYYL_VRFPNITNL_YEQYIKWPW_YLQPRTFLL'
p11
g3
(g5
S's\x0c\x81\xc8\xfc\xe2\xef?'
tRp12
tp13
a(S'AEIRASANL_ALRANSAVK_FLNRFTTTL_FPQSAPHGV_FTYASALWEI_FVDGVPFVV_HVTFFIYNK_KTFPPTEPK_SIIAYTMSL_SPRWYFYYL_TMADLVYAL_VEHVTFFIY_VRFPNITNL_YLQPRTFLL'
p14
g3
(g5
S'S\xd3}\xca\xe4\xe2\xef?'
tRp15
tp16
a(S'AEIRASANL_AELEGIQY_ALRANSAVK_FLNRFTTTL_FPQSAPHGV_FTYASALWEI_FVDGVPFVV_HVTFFIYNK_KTFPPTEPK_SIIAYTMSL_SPRWYFYYL_TMADLVYAL_VRFPNITNL_YLQPRTFLL'
p17
g3
(g5
S'Y\xd6\xd1\x1b\xe1\xe2\xef?'
tRp18
tp19
a(S'AEIRASANL_ALRANSAVK_FLNRFTTTL_FPQSAPHGV_FTYASALWEI_FVDGVPFVV_KTFPPTEPK_MTSCCSCLK_SIIAYTMSL_SPRWYFYYL_TMADLVYAL_VEHVTFFIY_VRFPNITNL_YLQPRTFLL'
p20
g3
(g5
S'\xf945g\xdf\xe2\xef?'
tRp21
tp22
a(S'AEIRASANL_AELEGIQY_ALRANSAVK_FLNRFTTTL_FPQSAPHGV_FTYASALWEI_FVDGVPFVV_KTFPPTEPK_MTSCCSCLK_SIIAYTMSL_SPRWYFYYL_TMADLVYAL_VRFPNITNL_YLQPRTFLL'
p23
g3
(g5
S'\x8d\x8d\xc6\x89\xdd\xe2\xef?'
tRp24
tp25
a(S'AEIRASANL_ALRANSAVK_FLNRFTTTL_FPQSAPHGV_FTYASALWEI_HVTFFIYNK_KTFPPTEPK_LTDEMIAQY_SIIAYTMSL_SPRWYFYYL_TMADLVYAL_TVYSHLLLV_YEQYIKWPW_YLQPRTFLL'
p26
g3
(g5
S'\x17\x93\xa2\xcb\xa7\xe2\xef?'
tRp27
tp28
a(S'AEIRASANL_ALRANSAVK_FLNRFTTTL_FPQSAPHGV_HVTFFIYNK_KTFPPTEPK_LTDEMIAQY_NVFAFPFTIY_SIIAYTMSL_SPRWYFYYL_TMADLVYAL_TVYSHLLLV_YEQYIKWPW_YLQPRTFLL'
p29
g3
(g5
S'\xf4\x1a-\xce\x83\xe2\xef?'
tRp30
tp31
a(S'AEIRASANL_ALRANSAVK_FLNRFTTTL_FPQSAPHGV_KTFPPTEPK_LTDEMIAQY_MTSCCSCLK_NVFAFPFTIY_SIIAYTMSL_SPRWYFYYL_TMADLVYAL_TVYSHLLLV_YEQYIKWPW_YLQPRTFLL'
p32
g3
(g5
S'[$\xac+}\xe2\xef?'
tRp33
tp34
a.