(lp1
(S'FLNRFTTTL_FPQSAPHGV_HVTFFIYNK_KTFPPTEPK_SPRWYFYYL_TMADLVYAL_YLQPRTFLL'
p2
cnumpy.core.multiarray
scalar
p3
(cnumpy
dtype
p4
(S'f8'
I0
I1
tRp5
(I3
S'<'
NNNI-1
I-1
I0
tbS'\x8cp\x96\xfa\xeb\xda\xef?'
tRp6
tp7
a(S'FLNRFTTTL_FPQSAPHGV_KTFPPTEPK_MTSCCSCLK_SPRWYFYYL_TMADLVYAL_YLQPRTFLL'
p8
g3
(g5
S'\x87\x11,D\xe5\xda\xef?'
tRp9
tp10
a(S'ALRANSAVK_FLNRFTTTL_FPQSAPHGV_HVTFFIYNK_SPRWYFYYL_TMADLVYAL_YLQPRTFLL'
p11
g3
(g5
S'\x9b\xecs:\xd1\xda\xef?'
tRp12
tp13
a(S'FLNRFTTTL_FPQSAPHGV_HVTFFIYNK_KTFPPTEPK_LLYDANYFL_SPRWYFYYL_YLQPRTFLL'
p14
g3
(g5
S'4\xfb\x1e\x9f\xce\xda\xef?'
tRp15
tp16
a(S'ALRANSAVK_FLNRFTTTL_FPQSAPHGV_MTSCCSCLK_SPRWYFYYL_TMADLVYAL_YLQPRTFLL'
p17
g3
(g5
S'\xa3\x8d\t\x84\xca\xda\xef?'
tRp18
tp19
a(S'FLNRFTTTL_FPQSAPHGV_KTFPPTEPK_LLYDANYFL_MTSCCSCLK_SPRWYFYYL_YLQPRTFLL'
p20
g3
(g5
S'8!PQ\xc7\xda\xef?'
tRp21
tp22
a(S'ALRANSAVK_FLNRFTTTL_FPQSAPHGV_HVTFFIYNK_LLYDANYFL_SPRWYFYYL_YLQPRTFLL'
p23
g3
(g5
S'\xe1\xdc_\x90\xb2\xda\xef?'
tRp24
tp25
a(S'ALRANSAVK_FLNRFTTTL_FPQSAPHGV_LLYDANYFL_MTSCCSCLK_SPRWYFYYL_YLQPRTFLL'
p26
g3
(g5
S'\xf3\x02\x91B\xab\xda\xef?'
tRp27
tp28
a(S'AEIRASANL_FLNRFTTTL_FPQSAPHGV_KTFPPTEPK_SPRWYFYYL_TMADLVYAL_YLQPRTFLL'
p29
g3
(g5
S'I$\xf9\xc7\xa7\xda\xef?'
tRp30
tp31
a(S'AEIRASANL_FLNRFTTTL_FPQSAPHGV_KTFPPTEPK_LLYDANYFL_SPRWYFYYL_YLQPRTFLL'
p32
g3
(g5
S'\xdd\x028\xad\x9a\xda\xef?'
tRp33
tp34
a.