(lp1
(S'FLNRFTTTL_FPQSAPHGV_HVTFFIYNK_KTFPPTEPK_SIIAYTMSL_SPRWYFYYL_TMADLVYAL_VRFPNITNL_YLQPRTFLL'
p2
cnumpy.core.multiarray
scalar
p3
(cnumpy
dtype
p4
(S'f8'
I0
I1
tRp5
(I3
S'<'
NNNI-1
I-1
I0
tbS'\xb0\xbe\x80my\xbd\xef?'
tRp6
tp7
a(S'FLNRFTTTL_FPQSAPHGV_KTFPPTEPK_MTSCCSCLK_SIIAYTMSL_SPRWYFYYL_TMADLVYAL_VRFPNITNL_YLQPRTFLL'
p8
g3
(g5
S'X@\xacVp\xbd\xef?'
tRp9
tp10
a(S'FLNRFTTTL_FPQSAPHGV_HVTFFIYNK_KTFPPTEPK_SIIAYTMSL_SPRWYFYYL_TMADLVYAL_TVYSHLLLV_YLQPRTFLL'
p11
g3
(g5
S'\x15f\xca\xe2o\xbd\xef?'
tRp12
tp13
a(S'FLNRFTTTL_FPQSAPHGV_HVTFFIYNK_KTFPPTEPK_SPRWYFYYL_TMADLVYAL_TVYSHLLLV_YLDAYNMMI_YLQPRTFLL'
p14
g3
(g5
S'\x18\xf7\xfb\xe3l\xbd\xef?'
tRp15
tp16
a(S'FLNRFTTTL_FPQSAPHGV_KTFPPTEPK_MTSCCSCLK_SPRWYFYYL_TMADLVYAL_TVYSHLLLV_YLDAYNMMI_YLQPRTFLL'
p17
g3
(g5
S'\xcd\xb8\xbd\xedg\xbd\xef?'
tRp18
tp19
a(S'FLNRFTTTL_FPQSAPHGV_KTFPPTEPK_MTSCCSCLK_SIIAYTMSL_SPRWYFYYL_TMADLVYAL_TVYSHLLLV_YLQPRTFLL'
p20
g3
(g5
S'U\x8e\xe9\x89g\xbd\xef?'
tRp21
tp22
a(S'FLNRFTTTL_FPQSAPHGV_HVTFFIYNK_KTFPPTEPK_LLYDANYFL_SPRWYFYYL_TVYSHLLLV_YLDAYNMMI_YLQPRTFLL'
p23
g3
(g5
S'\x1b9\xbf\xa9Y\xbd\xef?'
tRp24
tp25
a(S'FLNRFTTTL_FPQSAPHGV_KTFPPTEPK_LLYDANYFL_MTSCCSCLK_SPRWYFYYL_TVYSHLLLV_YLDAYNMMI_YLQPRTFLL'
p26
g3
(g5
S'\xcd\x13\x95VT\xbd\xef?'
tRp27
tp28
a(S'FLNRFTTTL_FPQSAPHGV_HVTFFIYNK_KTFPPTEPK_LLYDANYFL_SIIAYTMSL_SPRWYFYYL_VRFPNITNL_YLQPRTFLL'
p29
g3
(g5
S'l\xaa.\x1fO\xbd\xef?'
tRp30
tp31
a(S'FLNRFTTTL_FPQSAPHGV_HVTFFIYNK_KTFPPTEPK_LLYDANYFL_SIIAYTMSL_SPRWYFYYL_TVYSHLLLV_YLQPRTFLL'
p32
g3
(g5
S'\xe1)a\xaaM\xbd\xef?'
tRp33
tp34
a.