(lp1
(S'AEIRASANL_AELEGIQY_ALRANSAVK_ASKIITLKK_ATEGALNTPK_CNDPFLGVYY_CPDGVKHVY_DLFMRIFTI_EEHVQIHTI_EILDITPCSF_FCNDPFLGVY_FEYVSQPFL_FLLNKEMYL_FLLPSLATV_FLNRFTTTL_FLPRVFSAV_FLQSINFVR_FPNITNLCPF_FPPTSFGPL_FPQSAPHGV_FPRGQGVPI_FTNVYADSF_FTYASALWEI_FVDGVPFVV_FYLCFLAFL_GVYFASTEK_HPLADNKFAL_HVTFFIYNK_IELSLIDFYL_ILLIIMRTFK_IPIQASLPF_IPRRNVATL_IPTNFTISV_ISDYDYYRY_ITLATCELY_ITLKKRWQL_KAYNVTQAF_KEIDRLNEV_KMQRMLLEK_KTFPPTEPK_KVSIWNLDY_LEYHDVRVV_LIIMRTFKV_LLYDANYFL_LNDLCFTNVY_LPFFSNVTW_LPFNDGVYF_LSPRWYFYY_LTDEMIAQY_LYSPIFLIV_MEVTPSGTWL_MGYINVFAF_MIELSLIDFY_MPASWVMRI_MTSCCSCLK_NSASFSTFK_NVFAFPFTIY_NYNYLYRLF_QELYSPIFL_QLPQGTTLPK_QPYRVVVLSF_QYIKWPWYI_RARSVSPKL_RISNCVADY_RLFRKSNLK_RLYYDSMSY_RQLLFVVEV_RTFKVSIWNL_SIIAYTMSL_SINFVRIIMR_SPRWYFYYL_SQSIIAYTM_SSPDDQIGYY_SSRGTSPAR_SYFTSDYYQL_TLKSFTVEK_TMADLVYAL_TVYSHLLLV_VEHVTFFIY_VLWAHGFEL_VRFPNITNL_VSIWNLDYII_VTPSGTWLTY_VVYRGTTTY_VYFLQSINF_WTAGAAAYY_YEQYIKWPW_YIFFASFYY_YINVFAFPF_YLDAYNMMI_YLQPRTFLL_YLYALVYFL'
p2
cnumpy.core.multiarray
scalar
p3
(cnumpy
dtype
p4
(S'f8'
I0
I1
tRp5
(I3
S'<'
NNNI-1
I-1
I0
tbS'\xed\xc0\xc0\xf47\xa8\xef?'
tRp6
tp7
a(S'AEIRASANL_AELEGIQY_ALRANSAVK_ASKIITLKK_ATEGALNTPK_CNDPFLGVYY_CPDGVKHVY_DLFMRIFTI_EEHVQIHTI_EILDITPCSF_FCNDPFLGVY_FEYVSQPFL_FLLNKEMYL_FLLPSLATV_FLNRFTTTL_FLPRVFSAV_FLQSINFVR_FPNITNLCPF_FPPTSFGPL_FPQSAPHGV_FPRGQGVPI_FTNVYADSF_FTYASALWEI_FVDGVPFVV_GVYFASTEK_HVTFFIYNK_IELSLIDFYL_ILLIIMRTFK_IMRTFKVSI_IPIQASLPF_IPRRNVATL_IPTNFTISV_ISDYDYYRY_ITLATCELY_ITLKKRWQL_KAYNVTQAF_KMQRMLLEK_KTFPPTEPK_KVSIWNLDY_LEYHDVRVV_LIIMRTFKV_LLYDANYFL_LNDLCFTNVY_LPFFSNVTW_LPFNDGVYF_LSPRWYFYY_LTDEMIAQY_LYNSASFSTF_LYSPIFLIV_MGYINVFAF_MIELSLIDFY_MPASWVMRI_MTSCCSCLK_NSASFSTFK_NVFAFPFTIY_NYNYLYRLF_QELYSPIFL_QLPQGTTLPK_QPYRVVVLSF_QYIKWPWYI_RARSVSPKL_RISNCVADY_RLFRKSNLK_RLYYDSMSY_RQLLFVVEV_RTFKVSIWNL_SIIAYTMSL_SINFVRIIMR_SPRWYFYYL_SQSIIAYTM_SSPDDQIGYY_SSRGTSPAR_SYFTSDYYQL_TLKSFTVEK_TMADLVYAL_TVYSHLLLV_VEHVTFFIY_VLWAHGFEL_VRFPNITNL_VSIWNLDYII_VTPSGTWLTY_VVYRGTTTY_VYFLQSINF_VYYPDKVFR_WTAGAAAYY_YDANYFLCW_YEQYIKWPW_YIFFASFYY_YINVFAFPF_YLDAYNMMI_YLQPRTFLL_YLYALVYFL'
p8
g3
(g5
S'\x07\x8c{\x7f-\xa8\xef?'
tRp9
tp10
a(S'AEIRASANL_AELEGIQY_ALRANSAVK_ASKIITLKK_ATEGALNTPK_CNDPFLGVYY_CPDGVKHVY_DLFMRIFTI_EEHVQIHTI_EILDITPCSF_FCNDPFLGVY_FEYVSQPFL_FLLNKEMYL_FLLPSLATV_FLNRFTTTL_FLPRVFSAV_FLQSINFVR_FPNITNLCPF_FPPTSFGPL_FPQSAPHGV_FPRGQGVPI_FTNVYADSF_FTYASALWEI_FVDGVPFVV_GVYFASTEK_HVTFFIYNK_IELSLIDFYL_ILLIIMRTFK_IMRTFKVSI_IPIQASLPF_IPRRNVATL_IPTNFTISV_ISDYDYYRY_ITLATCELY_ITLKKRWQL_KAYNVTQAF_KMQRMLLEK_KTFPPTEPK_KVSIWNLDY_LEYHDVRVV_LIIMRTFKV_LLYDANYFL_LNDLCFTNVY_LPFFSNVTW_LPFNDGVYF_LSPRWYFYY_LTDEMIAQY_LYNSASFSTF_LYSPIFLIV_MGYINVFAF_MIELSLIDFY_MPASWVMRI_MTSCCSCLK_NSASFSTFK_NVFAFPFTIY_NYNYLYRLF_QELIRQGTDY_QELYSPIFL_QLPQGTTLPK_QPYRVVVLSF_QYIKWPWYI_RARSVSPKL_RISNCVADY_RLFRKSNLK_RLYYDSMSY_RQLLFVVEV_RTFKVSIWNL_SIIAYTMSL_SINFVRIIMR_SPRWYFYYL_SQSIIAYTM_SSPDDQIGYY_SSRGTSPAR_SYFTSDYYQL_TLKSFTVEK_TMADLVYAL_TVYSHLLLV_VEHVTFFIY_VLWAHGFEL_VRFPNITNL_VSIWNLDYII_VTPSGTWLTY_VVYRGTTTY_VYFLQSINF_VYYPDKVFR_WTAGAAAYY_YEQYIKWPW_YIFFASFYY_YINVFAFPF_YLDAYNMMI_YLQPRTFLL_YLYALVYFL'
p11
g3
(g5
S"\xcb'\xc0{-\xa8\xef?"
tRp12
tp13
a(S'AEIRASANL_AELEGIQY_ALRANSAVK_ASKIITLKK_ATEGALNTPK_CNDPFLGVYY_CPDGVKHVY_DLFMRIFTI_EEHVQIHTI_EILDITPCSF_FCNDPFLGVY_FEYVSQPFL_FLLNKEMYL_FLLPSLATV_FLNRFTTTL_FLPRVFSAV_FLQSINFVR_FPNITNLCPF_FPPTSFGPL_FPQSAPHGV_FPRGQGVPI_FTNVYADSF_FTYASALWEI_FVDGVPFVV_FYLCFLAFL_GVYFASTEK_HPLADNKFAL_HVTFFIYNK_IELSLIDFYL_ILLIIMRTFK_IPIQASLPF_IPRRNVATL_IPTNFTISV_ISDYDYYRY_ITLATCELY_ITLKKRWQL_KAYNVTQAF_KMQRMLLEK_KTFPPTEPK_KVSIWNLDY_LEYHDVRVV_LIIMRTFKV_LLYDANYFL_LNDLCFTNVY_LPFFSNVTW_LPFNDGVYF_LPPAYTNSF_LSPRWYFYY_LTDEMIAQY_LYSPIFLIV_MEVTPSGTWL_MGYINVFAF_MIELSLIDFY_MPASWVMRI_MTSCCSCLK_NSASFSTFK_NVFAFPFTIY_NYNYLYRLF_QELYSPIFL_QLPQGTTLPK_QPYRVVVLSF_QYIKWPWYI_RARSVSPKL_RISNCVADY_RLFRKSNLK_RLYYDSMSY_RQLLFVVEV_RTFKVSIWNL_SIIAYTMSL_SINFVRIIMR_SPRWYFYYL_SQSIIAYTM_SSPDDQIGYY_SSRGTSPAR_SYFTSDYYQL_TLKSFTVEK_TMADLVYAL_TVYSHLLLV_VEHVTFFIY_VLWAHGFEL_VRFPNITNL_VSIWNLDYII_VTPSGTWLTY_VVYRGTTTY_VYFLQSINF_WTAGAAAYY_YEQYIKWPW_YIFFASFYY_YINVFAFPF_YLDAYNMMI_YLQPRTFLL_YLYALVYFL'
p14
g3
(g5
S'\xbdE\x81\xa2*\xa8\xef?'
tRp15
tp16
a(S'AEIRASANL_AELEGIQY_ALRANSAVK_ASKIITLKK_ATEGALNTPK_CNDPFLGVYY_CPDGVKHVY_DLFMRIFTI_EEHVQIHTI_EILDITPCSF_FCNDPFLGVY_FEYVSQPFL_FLLNKEMYL_FLLPSLATV_FLNRFTTTL_FLPRVFSAV_FLQSINFVR_FPNITNLCPF_FPPTSFGPL_FPQSAPHGV_FPRGQGVPI_FTNVYADSF_FTYASALWEI_FVDGVPFVV_GVYFASTEK_HVTFFIYNK_IELSLIDFYL_ILLIIMRTFK_IMRTFKVSI_IPIQASLPF_IPRRNVATL_IPTNFTISV_ISDYDYYRY_ITLATCELY_ITLKKRWQL_KAYNVTQAF_KMQRMLLEK_KTFPPTEPK_KVSIWNLDY_LEYHDVRVV_LIIMRTFKV_LLYDANYFL_LNDLCFTNVY_LPFFSNVTW_LPFNDGVYF_LSPRWYFYY_LTDEMIAQY_LYNSASFSTF_LYSPIFLIV_MEVTPSGTWL_MGYINVFAF_MIELSLIDFY_MPASWVMRI_MTSCCSCLK_NSASFSTFK_NVFAFPFTIY_NYNYLYRLF_QELYSPIFL_QLPQGTTLPK_QPYRVVVLSF_QYIKWPWYI_RARSVSPKL_RISNCVADY_RLFRKSNLK_RLYYDSMSY_RQLLFVVEV_RTFKVSIWNL_SIIAYTMSL_SINFVRIIMR_SPRWYFYYL_SQSIIAYTM_SSPDDQIGYY_SSRGTSPAR_SYFTSDYYQL_TLKSFTVEK_TMADLVYAL_TVYSHLLLV_VEHVTFFIY_VLWAHGFEL_VRFPNITNL_VSIWNLDYII_VTPSGTWLTY_VVYRGTTTY_VYFLQSINF_VYYPDKVFR_WTAGAAAYY_YEQYIKWPW_YIFFASFYY_YINVFAFPF_YLDAYNMMI_YLQPRTFLL_YLYALVYFL'
p17
g3
(g5
S'Y\xb3q\x93)\xa8\xef?'
tRp18
tp19
a(S'AEIRASANL_AELEGIQY_ALRANSAVK_ASKIITLKK_ATEGALNTPK_CNDPFLGVYY_CPDGVKHVY_DLFMRIFTI_EEHVQIHTI_EILDITPCSF_FCNDPFLGVY_FEYVSQPFL_FLLNKEMYL_FLLPSLATV_FLNRFTTTL_FLPRVFSAV_FLQSINFVR_FPNITNLCPF_FPPTSFGPL_FPQSAPHGV_FPRGQGVPI_FTNVYADSF_FTYASALWEI_FVDGVPFVV_FYLCFLAFL_GVYFASTEK_HPLADNKFAL_HVTFFIYNK_IELSLIDFYL_ILLIIMRTFK_IPIQASLPF_IPRRNVATL_IPTNFTISV_ISDYDYYRY_ITLATCELY_ITLKKRWQL_KAYNVTQAF_KMQRMLLEK_KTFPPTEPK_KVSIWNLDY_LEYHDVRVV_LIIMRTFKV_LLYDANYFL_LNDLCFTNVY_LPFFSNVTW_LPFNDGVYF_LPQGFSAL_LSPRWYFYY_LTDEMIAQY_LYSPIFLIV_MEVTPSGTWL_MGYINVFAF_MIELSLIDFY_MPASWVMRI_MTSCCSCLK_NSASFSTFK_NVFAFPFTIY_NYNYLYRLF_QELYSPIFL_QLPQGTTLPK_QPYRVVVLSF_QYIKWPWYI_RARSVSPKL_RISNCVADY_RLFRKSNLK_RLYYDSMSY_RQLLFVVEV_RTFKVSIWNL_SIIAYTMSL_SINFVRIIMR_SPRWYFYYL_SQSIIAYTM_SSPDDQIGYY_SSRGTSPAR_SYFTSDYYQL_TLKSFTVEK_TMADLVYAL_TVYSHLLLV_VEHVTFFIY_VLWAHGFEL_VRFPNITNL_VSIWNLDYII_VTPSGTWLTY_VVYRGTTTY_VYFLQSINF_WTAGAAAYY_YEQYIKWPW_YIFFASFYY_YINVFAFPF_YLDAYNMMI_YLQPRTFLL_YLYALVYFL'
p20
g3
(g5
S'\xadW\xb6=)\xa8\xef?'
tRp21
tp22
a(S'AEIRASANL_AELEGIQY_ALRANSAVK_ASKIITLKK_ATEGALNTPK_CNDPFLGVYY_CPDGVKHVY_DLFMRIFTI_EEHVQIHTI_EILDITPCSF_FCNDPFLGVY_FEYVSQPFL_FLLNKEMYL_FLLPSLATV_FLNRFTTTL_FLPRVFSAV_FLQSINFVR_FPNITNLCPF_FPPTSFGPL_FPQSAPHGV_FPRGQGVPI_FTNVYADSF_FTYASALWEI_FVDGVPFVV_FYLCFLAFL_GVYFASTEK_HPLADNKFAL_HVTFFIYNK_IELSLIDFYL_ILLIIMRTFK_IPIQASLPF_IPRRNVATL_IPTNFTISV_IPYNSVTSSI_ISDYDYYRY_ITLATCELY_ITLKKRWQL_KAYNVTQAF_KMQRMLLEK_KTFPPTEPK_KVSIWNLDY_LEYHDVRVV_LIIMRTFKV_LLYDANYFL_LNDLCFTNVY_LPFFSNVTW_LPFNDGVYF_LSPRWYFYY_LTDEMIAQY_LYSPIFLIV_MEVTPSGTWL_MGYINVFAF_MIELSLIDFY_MPASWVMRI_MTSCCSCLK_NSASFSTFK_NVFAFPFTIY_NYNYLYRLF_QELYSPIFL_QLPQGTTLPK_QPYRVVVLSF_QYIKWPWYI_RARSVSPKL_RISNCVADY_RLFRKSNLK_RLYYDSMSY_RQLLFVVEV_RTFKVSIWNL_SIIAYTMSL_SINFVRIIMR_SPRWYFYYL_SQSIIAYTM_SSPDDQIGYY_SSRGTSPAR_SYFTSDYYQL_TLKSFTVEK_TMADLVYAL_TVYSHLLLV_VEHVTFFIY_VLWAHGFEL_VRFPNITNL_VSIWNLDYII_VTPSGTWLTY_VVYRGTTTY_VYFLQSINF_WTAGAAAYY_YEQYIKWPW_YIFFASFYY_YINVFAFPF_YLDAYNMMI_YLQPRTFLL_YLYALVYFL'
p23
g21
tp24
a(S'AEIRASANL_AELEGIQY_ALRANSAVK_ASKIITLKK_ATEGALNTPK_CNDPFLGVYY_CPDGVKHVY_DLFMRIFTI_EEHVQIHTI_EILDITPCSF_FCNDPFLGVY_FEYVSQPFL_FLLNKEMYL_FLLPSLATV_FLNRFTTTL_FLPRVFSAV_FLQSINFVR_FPNITNLCPF_FPPTSFGPL_FPQSAPHGV_FPRGQGVPI_FTNVYADSF_FTYASALWEI_FVDGVPFVV_GVYFASTEK_HVTFFIYNK_IELSLIDFYL_ILLIIMRTFK_IMRTFKVSI_IPIQASLPF_IPRRNVATL_IPTNFTISV_ISDYDYYRY_ITLATCELY_ITLKKRWQL_KAYNVTQAF_KMQRMLLEK_KTFPPTEPK_KVSIWNLDY_LEYHDVRVV_LIIMRTFKV_LLYDANYFL_LNDLCFTNVY_LPFFSNVTW_LPFNDGVYF_LSPRWYFYY_LTDEMIAQY_LYNSASFSTF_LYSPIFLIV_MGYINVFAF_MIELSLIDFY_MPASWVMRI_MTSCCSCLK_NSASFSTFK_NVFAFPFTIY_NYNYLYRLF_QELYSPIFL_QLPQGTTLPK_QPYRVVVLSF_QYIKWPWYI_RARSVSPKL_RISNCVADY_RLFRKSNLK_RLYYDSMSY_RQLLFVVEV_RTFKVSIWNL_SIIAYTMSL_SINFVRIIMR_SPRWYFYYL_SQSIIAYTM_SSPDDQIGYY_SSRGTSPAR_SYFTSDYYQL_TEKSNIIRGW_TLKSFTVEK_TMADLVYAL_TVYSHLLLV_VEHVTFFIY_VLWAHGFEL_VRFPNITNL_VSIWNLDYII_VTPSGTWLTY_VVYRGTTTY_VYFLQSINF_VYYPDKVFR_WTAGAAAYY_YEQYIKWPW_YIFFASFYY_YINVFAFPF_YLDAYNMMI_YLQPRTFLL_YLYALVYFL'
p25
g3
(g5
S']\xca?\x82(\xa8\xef?'
tRp26
tp27
a(S'AEIRASANL_AELEGIQY_ALRANSAVK_ASKIITLKK_ATEGALNTPK_CNDPFLGVYY_CPDGVKHVY_DLFMRIFTI_EEHVQIHTI_EILDITPCSF_FCNDPFLGVY_FEYVSQPFL_FLLNKEMYL_FLLPSLATV_FLNRFTTTL_FLPRVFSAV_FLQSINFVR_FPNITNLCPF_FPPTSFGPL_FPQSAPHGV_FPRGQGVPI_FTNVYADSF_FTYASALWEI_FVDGVPFVV_GVYFASTEK_HVTFFIYNK_IELSLIDFYL_ILLIIMRTFK_IMRTFKVSI_IPIQASLPF_IPRRNVATL_IPTNFTISV_ISDYDYYRY_ITLATCELY_ITLKKRWQL_KAYNVTQAF_KMQRMLLEK_KTFPPTEPK_KVSIWNLDY_LEYHDVRVV_LIIMRTFKV_LLYDANYFL_LNDLCFTNVY_LPFFSNVTW_LPFNDGVYF_LSPRWYFYY_LTDEMIAQY_LYNSASFSTF_LYSPIFLIV_MGYINVFAF_MIELSLIDFY_MPASWVMRI_MTSCCSCLK_NSASFSTFK_NVFAFPFTIY_NYNYLYRLF_QELYSPIFL_QLPQGTTLPK_QPYRVVVLSF_QYIKWPWYI_RARSVSPKL_RISNCVADY_RLFRKSNLK_RLYYDSMSY_RQLLFVVEV_RTFKVSIWNL_SETKCTLKSF_SIIAYTMSL_SINFVRIIMR_SPRWYFYYL_SQSIIAYTM_SSPDDQIGYY_SSRGTSPAR_SYFTSDYYQL_TLKSFTVEK_TMADLVYAL_TVYSHLLLV_VEHVTFFIY_VLWAHGFEL_VRFPNITNL_VSIWNLDYII_VTPSGTWLTY_VVYRGTTTY_VYFLQSINF_VYYPDKVFR_WTAGAAAYY_YEQYIKWPW_YIFFASFYY_YINVFAFPF_YLDAYNMMI_YLQPRTFLL_YLYALVYFL'
p28
g3
(g5
S']\xca?\x82(\xa8\xef?'
tRp29
tp30
a(S'AEIRASANL_AELEGIQY_ALRANSAVK_ASKIITLKK_ATEGALNTPK_CNDPFLGVYY_CPDGVKHVY_DLFMRIFTI_EEHVQIHTI_EILDITPCSF_FCNDPFLGVY_FEYVSQPFL_FLLNKEMYL_FLLPSLATV_FLNRFTTTL_FLPRVFSAV_FLQSINFVR_FPNITNLCPF_FPPTSFGPL_FPQSAPHGV_FPRGQGVPI_FTNVYADSF_FTYASALWEI_FVDGVPFVV_FYLCFLAFL_GVYFASTEK_HVTFFIYNK_IELSLIDFYL_ILLIIMRTFK_IMRTFKVSI_IPIQASLPF_IPRRNVATL_IPTNFTISV_ISDYDYYRY_ITLATCELY_ITLKKRWQL_KAYNVTQAF_KMQRMLLEK_KTFPPTEPK_KVSIWNLDY_LEYHDVRVV_LIIMRTFKV_LLYDANYFL_LNDLCFTNVY_LPFFSNVTW_LPFNDGVYF_LSPRWYFYY_LTDEMIAQY_LYSPIFLIV_MGYINVFAF_MIELSLIDFY_MPASWVMRI_MTSCCSCLK_NSASFSTFK_NVFAFPFTIY_NYNYLYRLF_QELYSPIFL_QLPQGTTLPK_QPYRVVVLSF_QYIKWPWYI_RARSVSPKL_RISNCVADY_RLFRKSNLK_RLYYDSMSY_RQLLFVVEV_RTFKVSIWNL_SIIAYTMSL_SINFVRIIMR_SPRWYFYYL_SQSIIAYTM_SSPDDQIGYY_SSRGTSPAR_SYFTSDYYQL_TLKSFTVEK_TMADLVYAL_TVYSHLLLV_VEHVTFFIY_VLWAHGFEL_VRFPNITNL_VSIWNLDYII_VTPSGTWLTY_VVYRGTTTY_VYFLQSINF_VYYPDKVFR_WTAGAAAYY_YDANYFLCW_YEQYIKWPW_YIFFASFYY_YINVFAFPF_YLDAYNMMI_YLQPRTFLL_YLYALVYFL'
p31
g3
(g5
S"\r\xdc\xc2\x07'\xa8\xef?"
tRp32
tp33
a.