(lp1
(S'FLNRFTTTL_FPQSAPHGV_KTFPPTEPK_TMADLVYAL_YLQPRTFLL'
p2
cnumpy.core.multiarray
scalar
p3
(cnumpy
dtype
p4
(S'f8'
I0
I1
tRp5
(I3
S'<'
NNNI-1
I-1
I0
tbS'\x1b\x06\x91\x84\xb9\xc3\xef?'
tRp6
tp7
a(S'FLNRFTTTL_FPQSAPHGV_KTFPPTEPK_LLYDANYFL_YLQPRTFLL'
p8
g3
(g5
S'\xc7\x16\xe3,\x97\xc3\xef?'
tRp9
tp10
a(S'FLNRFTTTL_FPQSAPHGV_KTFPPTEPK_YLQPRTFLL_YLYALVYFL'
p11
g3
(g5
S'UD\xe9KC\xc3\xef?'
tRp12
tp13
a(S'ALRANSAVK_FLNRFTTTL_FPQSAPHGV_TMADLVYAL_YLQPRTFLL'
p14
g3
(g5
S'(e?\x86=\xc3\xef?'
tRp15
tp16
a(S'ALRANSAVK_FLNRFTTTL_FPQSAPHGV_LLYDANYFL_YLQPRTFLL'
p17
g3
(g5
S'X\xa4\x1f\x1a\x1d\xc3\xef?'
tRp18
tp19
a(S'FLNRFTTTL_FPQSAPHGV_KTFPPTEPK_SIIAYTMSL_YLQPRTFLL'
p20
g3
(g5
S'\x8c\xd3\x96\x14\x1a\xc3\xef?'
tRp21
tp22
a(S'FLNRFTTTL_FLPRVFSAV_FPQSAPHGV_KTFPPTEPK_YLQPRTFLL'
p23
g3
(g5
S')c,\x0f\xcc\xc2\xef?'
tRp24
tp25
a(S'ALRANSAVK_FLNRFTTTL_FPQSAPHGV_YLQPRTFLL_YLYALVYFL'
p26
g3
(g5
S'\x01r\t\x05\xc5\xc2\xef?'
tRp27
tp28
a(S'ALRANSAVK_FLNRFTTTL_FPQSAPHGV_SIIAYTMSL_YLQPRTFLL'
p29
g3
(g5
S'\xd5\xa11\xaf\xa3\xc2\xef?'
tRp30
tp31
a(S'FLNRFTTTL_FPQSAPHGV_KTFPPTEPK_YLDAYNMMI_YLQPRTFLL'
p32
g3
(g5
S'\x10\x94\\\xf0\x99\xc2\xef?'
tRp33
tp34
a.