(lp1
(S'AEIRASANL_ALRANSAVK_FLNRFTTTL_FPQSAPHGV_FTYASALWEI_KTFPPTEPK_LTDEMIAQY_MTSCCSCLK_NVFAFPFTIY_SIIAYTMSL_SPRWYFYYL_TMADLVYAL_TVYSHLLLV_WTAGAAAYY_YEQYIKWPW_YLQPRTFLL'
p2
cnumpy.core.multiarray
scalar
p3
(cnumpy
dtype
p4
(S'f8'
I0
I1
tRp5
(I3
S'<'
NNNI-1
I-1
I0
tbS'\x80\xe1\x05\x83\xda\xea\xef?'
tRp6
tp7
a(S'AEIRASANL_ALRANSAVK_FLNRFTTTL_FPQSAPHGV_FTYASALWEI_HVTFFIYNK_KTFPPTEPK_LTDEMIAQY_NVFAFPFTIY_SIIAYTMSL_SPRWYFYYL_TMADLVYAL_TVYSHLLLV_WTAGAAAYY_YEQYIKWPW_YLQPRTFLL'
p8
g3
(g5
S'\x80\xe1\x05\x83\xda\xea\xef?'
tRp9
tp10
a(S'AEIRASANL_ALRANSAVK_FLNRFTTTL_FPQSAPHGV_FTYASALWEI_FVDGVPFVV_KTFPPTEPK_MTSCCSCLK_NVFAFPFTIY_SIIAYTMSL_SPRWYFYYL_TMADLVYAL_VRFPNITNL_WTAGAAAYY_YEQYIKWPW_YLQPRTFLL'
p11
g3
(g5
S'E\x9e\x94\xca\xc5\xea\xef?'
tRp12
tp13
a(S'AEIRASANL_ALRANSAVK_FLNRFTTTL_FPQSAPHGV_FTYASALWEI_FVDGVPFVV_HVTFFIYNK_KTFPPTEPK_NVFAFPFTIY_SIIAYTMSL_SPRWYFYYL_TMADLVYAL_VRFPNITNL_WTAGAAAYY_YEQYIKWPW_YLQPRTFLL'
p14
g3
(g5
S'D\x9e\x94\xca\xc5\xea\xef?'
tRp15
tp16
a(S'AEIRASANL_ALRANSAVK_FLNRFTTTL_FPQSAPHGV_FTYASALWEI_FVDGVPFVV_HVTFFIYNK_KTFPPTEPK_LLYDANYFL_NVFAFPFTIY_SIIAYTMSL_SPRWYFYYL_VRFPNITNL_WTAGAAAYY_YEQYIKWPW_YLQPRTFLL'
p17
g3
(g5
S'8\xca\xf7\x1f\xc3\xea\xef?'
tRp18
tp19
a(S'AEIRASANL_ALRANSAVK_FLNRFTTTL_FPQSAPHGV_FTYASALWEI_FVDGVPFVV_KTFPPTEPK_MTSCCSCLK_NVFAFPFTIY_SIIAYTMSL_SPRWYFYYL_TMADLVYAL_VEHVTFFIY_VRFPNITNL_WTAGAAAYY_YLQPRTFLL'
p20
g3
(g5
S'\x084\x07\xf5\xb3\xea\xef?'
tRp21
tp22
a(S'AEIRASANL_ALRANSAVK_FLNRFTTTL_FPQSAPHGV_FTYASALWEI_FVDGVPFVV_HVTFFIYNK_KTFPPTEPK_NVFAFPFTIY_SIIAYTMSL_SPRWYFYYL_TMADLVYAL_VEHVTFFIY_VRFPNITNL_WTAGAAAYY_YLQPRTFLL'
p23
g3
(g5
S'\x054\x07\xf5\xb3\xea\xef?'
tRp24
tp25
a(S'AEIRASANL_AELEGIQY_ALRANSAVK_FLNRFTTTL_FPQSAPHGV_FTYASALWEI_FVDGVPFVV_KTFPPTEPK_MTSCCSCLK_NVFAFPFTIY_SIIAYTMSL_SPRWYFYYL_TMADLVYAL_VRFPNITNL_WTAGAAAYY_YLQPRTFLL'
p26
g3
(g5
S'7\xd0\xda\x00\xb2\xea\xef?'
tRp27
tp28
a(S'AEIRASANL_AELEGIQY_ALRANSAVK_FLNRFTTTL_FPQSAPHGV_FTYASALWEI_FVDGVPFVV_HVTFFIYNK_KTFPPTEPK_NVFAFPFTIY_SIIAYTMSL_SPRWYFYYL_TMADLVYAL_VRFPNITNL_WTAGAAAYY_YLQPRTFLL'
p29
g3
(g5
S'4\xd0\xda\x00\xb2\xea\xef?'
tRp30
tp31
a(S'AEIRASANL_ALRANSAVK_FLNRFTTTL_FLQSINFVR_FPQSAPHGV_HVTFFIYNK_KTFPPTEPK_LTDEMIAQY_NVFAFPFTIY_SIIAYTMSL_SPRWYFYYL_TMADLVYAL_TVYSHLLLV_VRFPNITNL_YEQYIKWPW_YLQPRTFLL'
p32
g3
(g5
S'\xa1\xd8\xa9\x05\xa1\xea\xef?'
tRp33
tp34
a.