(lp1
(S'AEIRASANL_ALRANSAVK_FLNRFTTTL_FLQSINFVR_FPQSAPHGV_FPRGQGVPI_HVTFFIYNK_KTFPPTEPK_LTDEMIAQY_MPASWVMRI_NVFAFPFTIY_SIIAYTMSL_SPRWYFYYL_TMADLVYAL_TVYSHLLLV_VRFPNITNL_YEQYIKWPW_YLDAYNMMI_YLQPRTFLL_YLYALVYFL'
p2
cnumpy.core.multiarray
scalar
p3
(cnumpy
dtype
p4
(S'f8'
I0
I1
tRp5
(I3
S'<'
NNNI-1
I-1
I0
tbS'\xc98\xf0\xd1\x04\xc8\xef?'
tRp6
tp7
a(S'AEIRASANL_ALRANSAVK_FLNRFTTTL_FLQSINFVR_FPQSAPHGV_FPRGQGVPI_HVTFFIYNK_KTFPPTEPK_LLYDANYFL_LTDEMIAQY_MPASWVMRI_NVFAFPFTIY_SIIAYTMSL_SPRWYFYYL_TMADLVYAL_TVYSHLLLV_VRFPNITNL_YEQYIKWPW_YLDAYNMMI_YLQPRTFLL'
p8
g3
(g5
S'w\\`\x1a\xd7\xc7\xef?'
tRp9
tp10
a(S'AEIRASANL_ALRANSAVK_FLNRFTTTL_FLQSINFVR_FPQSAPHGV_FPRGQGVPI_HVTFFIYNK_IPRRNVATL_KTFPPTEPK_LTDEMIAQY_NVFAFPFTIY_SIIAYTMSL_SPRWYFYYL_TMADLVYAL_TVYSHLLLV_VRFPNITNL_YEQYIKWPW_YLDAYNMMI_YLQPRTFLL_YLYALVYFL'
p11
g3
(g5
S'\x9f\xbfE\xd7\xcb\xc7\xef?'
tRp12
tp13
a(S'AEIRASANL_ALRANSAVK_FLNRFTTTL_FLQSINFVR_FPQSAPHGV_FPRGQGVPI_HVTFFIYNK_IPRRNVATL_KTFPPTEPK_LLYDANYFL_LTDEMIAQY_NVFAFPFTIY_SIIAYTMSL_SPRWYFYYL_TMADLVYAL_TVYSHLLLV_VRFPNITNL_YEQYIKWPW_YLDAYNMMI_YLQPRTFLL'
p14
g3
(g5
S'\r\xf6%8\x9f\xc7\xef?'
tRp15
tp16
a(S'AEIRASANL_ALRANSAVK_FLNRFTTTL_FLQSINFVR_FPQSAPHGV_HVTFFIYNK_IPRRNVATL_KTFPPTEPK_LTDEMIAQY_MPASWVMRI_NVFAFPFTIY_SIIAYTMSL_SPRWYFYYL_TMADLVYAL_TVYSHLLLV_VRFPNITNL_YEQYIKWPW_YLDAYNMMI_YLQPRTFLL_YLYALVYFL'
p17
g3
(g5
S"\xd5'\x83\x1e\x8d\xc7\xef?"
tRp18
tp19
a(S'AEIRASANL_ALRANSAVK_FLNRFTTTL_FLPRVFSAV_FLQSINFVR_FPQSAPHGV_FPRGQGVPI_HVTFFIYNK_KTFPPTEPK_LTDEMIAQY_MPASWVMRI_NVFAFPFTIY_SIIAYTMSL_SPRWYFYYL_TMADLVYAL_TVYSHLLLV_VRFPNITNL_YEQYIKWPW_YLDAYNMMI_YLQPRTFLL'
p20
g3
(g5
S'S\xebE3c\xc7\xef?'
tRp21
tp22
a(S'AEIRASANL_ALRANSAVK_FLNRFTTTL_FLQSINFVR_FPQSAPHGV_HVTFFIYNK_IPRRNVATL_KTFPPTEPK_LLYDANYFL_LTDEMIAQY_MPASWVMRI_NVFAFPFTIY_SIIAYTMSL_SPRWYFYYL_TMADLVYAL_TVYSHLLLV_VRFPNITNL_YEQYIKWPW_YLDAYNMMI_YLQPRTFLL'
p23
g3
(g5
S'\xcd\x10\xe4\xdb^\xc7\xef?'
tRp24
tp25
a(S'AEIRASANL_ALRANSAVK_FLNRFTTTL_FLQSINFVR_FPQSAPHGV_FPRGQGVPI_HVTFFIYNK_KTFPPTEPK_LTDEMIAQY_NVFAFPFTIY_RARSVSPKL_SIIAYTMSL_SPRWYFYYL_TMADLVYAL_TVYSHLLLV_VRFPNITNL_YEQYIKWPW_YLDAYNMMI_YLQPRTFLL_YLYALVYFL'
p26
g3
(g5
S'=\x1f\xbe\xd6D\xc7\xef?'
tRp27
tp28
a(S'AEIRASANL_ALRANSAVK_FLNRFTTTL_FLQSINFVR_FPQSAPHGV_FPRGQGVPI_HVTFFIYNK_KTFPPTEPK_LTDEMIAQY_MPASWVMRI_NVFAFPFTIY_SIIAYTMSL_SPRWYFYYL_TMADLVYAL_TVYSHLLLV_VLWAHGFEL_VRFPNITNL_YEQYIKWPW_YLDAYNMMI_YLQPRTFLL'
p29
g3
(g5
S'YO\xe3\r#\xc7\xef?'
tRp30
tp31
a(S'AEIRASANL_ALRANSAVK_FLNRFTTTL_FLPRVFSAV_FLQSINFVR_FPQSAPHGV_FPRGQGVPI_HVTFFIYNK_IPRRNVATL_KTFPPTEPK_LTDEMIAQY_NVFAFPFTIY_SIIAYTMSL_SPRWYFYYL_TMADLVYAL_TVYSHLLLV_VRFPNITNL_YEQYIKWPW_YLDAYNMMI_YLQPRTFLL'
p32
g3
(g5
S'\x0f\x92l\xcc!\xc7\xef?'
tRp33
tp34
a.