(lp1
(S'FLNRFTTTL_FPQSAPHGV_KTFPPTEPK_SPRWYFYYL_TMADLVYAL_YLQPRTFLL'
p2
cnumpy.core.multiarray
scalar
p3
(cnumpy
dtype
p4
(S'f8'
I0
I1
tRp5
(I3
S'<'
NNNI-1
I-1
I0
tbS'\xf86\xfa\xeb\xae\xd3\xef?'
tRp6
tp7
a(S'FLNRFTTTL_FPQSAPHGV_KTFPPTEPK_LLYDANYFL_SPRWYFYYL_YLQPRTFLL'
p8
g3
(g5
S'\xdb\xa0\xd7w\x90\xd3\xef?'
tRp9
tp10
a(S'ALRANSAVK_FLNRFTTTL_FPQSAPHGV_SPRWYFYYL_TMADLVYAL_YLQPRTFLL'
p11
g3
(g5
S'\x00\x03Z_E\xd3\xef?'
tRp12
tp13
a(S'FLNRFTTTL_FPQSAPHGV_KTFPPTEPK_SPRWYFYYL_YLQPRTFLL_YLYALVYFL'
p14
g3
(g5
S'X\xce\xdd\x96<\xd3\xef?'
tRp15
tp16
a(S'ALRANSAVK_FLNRFTTTL_FPQSAPHGV_LLYDANYFL_SPRWYFYYL_YLQPRTFLL'
p17
g3
(g5
S's,\x0e\x92)\xd3\xef?'
tRp18
tp19
a(S'FLNRFTTTL_FPQSAPHGV_IPRRNVATL_KTFPPTEPK_TMADLVYAL_YLQPRTFLL'
p20
g3
(g5
S'}\x84\x0bC\x1a\xd3\xef?'
tRp21
tp22
a(S'FLNRFTTTL_FPQSAPHGV_IPRRNVATL_KTFPPTEPK_LLYDANYFL_YLQPRTFLL'
p23
g3
(g5
S'\r\x88P\xb7\xfb\xd2\xef?'
tRp24
tp25
a(S'ALRANSAVK_FLNRFTTTL_FPQSAPHGV_SPRWYFYYL_YLQPRTFLL_YLYALVYFL'
p26
g3
(g5
S'\x1b\xfa\xf7|\xd1\xd2\xef?'
tRp27
tp28
a(S'FLNRFTTTL_FLPRVFSAV_FPQSAPHGV_KTFPPTEPK_SPRWYFYYL_YLQPRTFLL'
p29
g3
(g5
S'Q\xf8\x8ch\xc6\xd2\xef?'
tRp30
tp31
a(S'ALRANSAVK_FLNRFTTTL_FPQSAPHGV_IPRRNVATL_TMADLVYAL_YLQPRTFLL'
p32
g3
(g5
S'\xdf\x89k\x93\xaa\xd2\xef?'
tRp33
tp34
a.