(lp1
(S'AEIRASANL_AELEGIQY_ALRANSAVK_ASKIITLKK_ATEGALNTPK_CNDPFLGVYY_CPDGVKHVY_DLFMRIFTI_EEHVQIHTI_EILDITPCSF_FCNDPFLGVY_FEYVSQPFL_FLLNKEMYL_FLLPSLATV_FLNRFTTTL_FLPRVFSAV_FLQSINFVR_FPNITNLCPF_FPPTSFGPL_FPQSAPHGV_FPRGQGVPI_FTNVYADSF_FTYASALWEI_FVDGVPFVV_GVYFASTEK_HVTFFIYNK_IELSLIDFYL_ILLIIMRTFK_IPIQASLPF_IPRRNVATL_IPTNFTISV_ISDYDYYRY_ITLATCELY_ITLKKRWQL_KAYNVTQAF_KMQRMLLEK_KTFPPTEPK_KVSIWNLDY_LEYHDVRVV_LIIMRTFKV_LLYDANYFL_LNDLCFTNVY_LPFFSNVTW_LPFNDGVYF_LSPRWYFYY_LTDEMIAQY_LYNSASFSTF_LYSPIFLIV_MGYINVFAF_MPASWVMRI_MTSCCSCLK_NSASFSTFK_NVFAFPFTIY_NYNYLYRLF_QELYSPIFL_QLPQGTTLPK_QPYRVVVLSF_QYIKWPWYI_RARSVSPKL_RISNCVADY_RLFRKSNLK_RLYYDSMSY_RQLLFVVEV_RTFKVSIWNL_SIIAYTMSL_SINFVRIIMR_SPRWYFYYL_SQSIIAYTM_SSPDDQIGYY_SSRGTSPAR_SYFTSDYYQL_TLKSFTVEK_TMADLVYAL_TVYSHLLLV_VEHVTFFIY_VLWAHGFEL_VRFPNITNL_VSIWNLDYII_VTPSGTWLTY_VVYRGTTTY_VYFLQSINF_VYYPDKVFR_WTAGAAAYY_YDANYFLCW_YEQYIKWPW_YIFFASFYY_YINVFAFPF_YLDAYNMMI_YLQPRTFLL_YLYALVYFL'
p2
cnumpy.core.multiarray
scalar
p3
(cnumpy
dtype
p4
(S'f8'
I0
I1
tRp5
(I3
S'<'
NNNI-1
I-1
I0
tbS'}\x14\xd9\xf3\xaa\xa6\xef?'
tRp6
tp7
a(S'AEIRASANL_AELEGIQY_ALRANSAVK_ASKIITLKK_ATEGALNTPK_CNDPFLGVYY_CPDGVKHVY_DLFMRIFTI_EEHVQIHTI_EILDITPCSF_FCNDPFLGVY_FEYVSQPFL_FLLNKEMYL_FLLPSLATV_FLNRFTTTL_FLPRVFSAV_FLQSINFVR_FPNITNLCPF_FPPTSFGPL_FPQSAPHGV_FPRGQGVPI_FTNVYADSF_FTYASALWEI_FVDGVPFVV_GVYFASTEK_HVTFFIYNK_IELSLIDFYL_ILLIIMRTFK_IPIQASLPF_IPRRNVATL_IPTNFTISV_ISDYDYYRY_ITLATCELY_ITLKKRWQL_KAYNVTQAF_KMQRMLLEK_KTFPPTEPK_KVSIWNLDY_LEYHDVRVV_LIIMRTFKV_LLYDANYFL_LNDLCFTNVY_LPFFSNVTW_LPFNDGVYF_LSPRWYFYY_LTDEMIAQY_LYNSASFSTF_LYSPIFLIV_MGYINVFAF_MPASWVMRI_MTSCCSCLK_NSASFSTFK_NVFAFPFTIY_NYNYLYRLF_QELIRQGTDY_QELYSPIFL_QLPQGTTLPK_QPYRVVVLSF_QYIKWPWYI_RARSVSPKL_RISNCVADY_RLFRKSNLK_RLYYDSMSY_RQLLFVVEV_RTFKVSIWNL_SIIAYTMSL_SINFVRIIMR_SPRWYFYYL_SQSIIAYTM_SSPDDQIGYY_SSRGTSPAR_SYFTSDYYQL_TLKSFTVEK_TMADLVYAL_TVYSHLLLV_VEHVTFFIY_VLWAHGFEL_VRFPNITNL_VSIWNLDYII_VTPSGTWLTY_VVYRGTTTY_VYFLQSINF_VYYPDKVFR_WTAGAAAYY_YEQYIKWPW_YIFFASFYY_YINVFAFPF_YLDAYNMMI_YLQPRTFLL_YLYALVYFL'
p8
g3
(g5
S'C\xb0\x1d\xf0\xaa\xa6\xef?'
tRp9
tp10
a(S'AEIRASANL_AELEGIQY_ALRANSAVK_ASKIITLKK_ATEGALNTPK_CNDPFLGVYY_CPDGVKHVY_DLFMRIFTI_EEHVQIHTI_EILDITPCSF_FCNDPFLGVY_FEYVSQPFL_FLLNKEMYL_FLLPSLATV_FLNRFTTTL_FLPRVFSAV_FLQSINFVR_FPNITNLCPF_FPPTSFGPL_FPQSAPHGV_FPRGQGVPI_FTNVYADSF_FTYASALWEI_FVDGVPFVV_GVYFASTEK_HVTFFIYNK_IELSLIDFYL_ILLIIMRTFK_IPIQASLPF_IPRRNVATL_IPTNFTISV_ISDYDYYRY_ITLATCELY_ITLKKRWQL_KAYNVTQAF_KMQRMLLEK_KTFPPTEPK_KVSIWNLDY_LEYHDVRVV_LIIMRTFKV_LLYDANYFL_LNDLCFTNVY_LPFFSNVTW_LPFNDGVYF_LSPRWYFYY_LTDEMIAQY_LYNSASFSTF_LYSPIFLIV_MEVTPSGTWL_MGYINVFAF_MPASWVMRI_MTSCCSCLK_NSASFSTFK_NVFAFPFTIY_NYNYLYRLF_QELYSPIFL_QLPQGTTLPK_QPYRVVVLSF_QYIKWPWYI_RARSVSPKL_RISNCVADY_RLFRKSNLK_RLYYDSMSY_RQLLFVVEV_RTFKVSIWNL_SIIAYTMSL_SINFVRIIMR_SPRWYFYYL_SQSIIAYTM_SSPDDQIGYY_SSRGTSPAR_SYFTSDYYQL_TLKSFTVEK_TMADLVYAL_TVYSHLLLV_VEHVTFFIY_VLWAHGFEL_VRFPNITNL_VSIWNLDYII_VTPSGTWLTY_VVYRGTTTY_VYFLQSINF_VYYPDKVFR_WTAGAAAYY_YEQYIKWPW_YIFFASFYY_YINVFAFPF_YLDAYNMMI_YLQPRTFLL_YLYALVYFL'
p11
g3
(g5
S'\xd5;\xcf\x07\xa7\xa6\xef?'
tRp12
tp13
a(S'AEIRASANL_AELEGIQY_ALRANSAVK_ASKIITLKK_ATEGALNTPK_CNDPFLGVYY_CPDGVKHVY_DLFMRIFTI_EEHVQIHTI_EILDITPCSF_FCNDPFLGVY_FEYVSQPFL_FLLNKEMYL_FLLPSLATV_FLNRFTTTL_FLPRVFSAV_FLQSINFVR_FPNITNLCPF_FPPTSFGPL_FPQSAPHGV_FPRGQGVPI_FTNVYADSF_FTYASALWEI_FVDGVPFVV_GVYFASTEK_HVTFFIYNK_IELSLIDFYL_ILLIIMRTFK_IPIQASLPF_IPRRNVATL_IPTNFTISV_ISDYDYYRY_ITLATCELY_ITLKKRWQL_KAYNVTQAF_KMQRMLLEK_KTFPPTEPK_KVSIWNLDY_LEYHDVRVV_LIIMRTFKV_LLYDANYFL_LNDLCFTNVY_LPFFSNVTW_LPFNDGVYF_LSPRWYFYY_LTDEMIAQY_LYNSASFSTF_LYSPIFLIV_MGYINVFAF_MPASWVMRI_MTSCCSCLK_NSASFSTFK_NVFAFPFTIY_NYNYLYRLF_QELYSPIFL_QLPQGTTLPK_QPYRVVVLSF_QYIKWPWYI_RARSVSPKL_RISNCVADY_RLFRKSNLK_RLYYDSMSY_RQLLFVVEV_RTFKVSIWNL_SIIAYTMSL_SINFVRIIMR_SPRWYFYYL_SQSIIAYTM_SSPDDQIGYY_SSRGTSPAR_SYFTSDYYQL_TEKSNIIRGW_TLKSFTVEK_TMADLVYAL_TVYSHLLLV_VEHVTFFIY_VLWAHGFEL_VRFPNITNL_VSIWNLDYII_VTPSGTWLTY_VVYRGTTTY_VYFLQSINF_VYYPDKVFR_WTAGAAAYY_YEQYIKWPW_YIFFASFYY_YINVFAFPF_YLDAYNMMI_YLQPRTFLL_YLYALVYFL'
p14
g3
(g5
S'\xdcR\x9d\xf6\xa5\xa6\xef?'
tRp15
tp16
a(S'AEIRASANL_AELEGIQY_ALRANSAVK_ASKIITLKK_ATEGALNTPK_CNDPFLGVYY_CPDGVKHVY_DLFMRIFTI_EEHVQIHTI_EILDITPCSF_FCNDPFLGVY_FEYVSQPFL_FLLNKEMYL_FLLPSLATV_FLNRFTTTL_FLPRVFSAV_FLQSINFVR_FPNITNLCPF_FPPTSFGPL_FPQSAPHGV_FPRGQGVPI_FTNVYADSF_FTYASALWEI_FVDGVPFVV_GVYFASTEK_HVTFFIYNK_IELSLIDFYL_ILLIIMRTFK_IPIQASLPF_IPRRNVATL_IPTNFTISV_ISDYDYYRY_ITLATCELY_ITLKKRWQL_KAYNVTQAF_KMQRMLLEK_KTFPPTEPK_KVSIWNLDY_LEYHDVRVV_LIIMRTFKV_LLYDANYFL_LNDLCFTNVY_LPFFSNVTW_LPFNDGVYF_LSPRWYFYY_LTDEMIAQY_LYNSASFSTF_LYSPIFLIV_MGYINVFAF_MPASWVMRI_MTSCCSCLK_NSASFSTFK_NVFAFPFTIY_NYNYLYRLF_QELYSPIFL_QLPQGTTLPK_QPYRVVVLSF_QYIKWPWYI_RARSVSPKL_RISNCVADY_RLFRKSNLK_RLYYDSMSY_RQLLFVVEV_RTFKVSIWNL_SETKCTLKSF_SIIAYTMSL_SINFVRIIMR_SPRWYFYYL_SQSIIAYTM_SSPDDQIGYY_SSRGTSPAR_SYFTSDYYQL_TLKSFTVEK_TMADLVYAL_TVYSHLLLV_VEHVTFFIY_VLWAHGFEL_VRFPNITNL_VSIWNLDYII_VTPSGTWLTY_VVYRGTTTY_VYFLQSINF_VYYPDKVFR_WTAGAAAYY_YEQYIKWPW_YIFFASFYY_YINVFAFPF_YLDAYNMMI_YLQPRTFLL_YLYALVYFL'
p17
g15
tp18
a(S'AEIRASANL_AELEGIQY_ALRANSAVK_ASKIITLKK_ATEGALNTPK_CNDPFLGVYY_CPDGVKHVY_DLFMRIFTI_EEHVQIHTI_EILDITPCSF_FCNDPFLGVY_FEYVSQPFL_FLLNKEMYL_FLLPSLATV_FLNRFTTTL_FLPRVFSAV_FLQSINFVR_FPNITNLCPF_FPPTSFGPL_FPQSAPHGV_FPRGQGVPI_FTNVYADSF_FTYASALWEI_FVDGVPFVV_FYLCFLAFL_GVYFASTEK_HVTFFIYNK_IELSLIDFYL_ILLIIMRTFK_IPIQASLPF_IPRRNVATL_IPTNFTISV_ISDYDYYRY_ITLATCELY_ITLKKRWQL_KAYNVTQAF_KMQRMLLEK_KTFPPTEPK_KVSIWNLDY_LEYHDVRVV_LIIMRTFKV_LLYDANYFL_LNDLCFTNVY_LPFFSNVTW_LPFNDGVYF_LSPRWYFYY_LTDEMIAQY_LYSPIFLIV_MGYINVFAF_MPASWVMRI_MTSCCSCLK_NSASFSTFK_NVFAFPFTIY_NYNYLYRLF_QELYSPIFL_QLPQGTTLPK_QPYRVVVLSF_QYIKWPWYI_RARSVSPKL_RISNCVADY_RLFRKSNLK_RLYYDSMSY_RQLLFVVEV_RTFKVSIWNL_SIIAYTMSL_SINFVRIIMR_SPRWYFYYL_SQSIIAYTM_SSPDDQIGYY_SSRGTSPAR_SYFTSDYYQL_TLKSFTVEK_TMADLVYAL_TVYSHLLLV_VEHVTFFIY_VLWAHGFEL_VRFPNITNL_VSIWNLDYII_VTPSGTWLTY_VVYRGTTTY_VYFLQSINF_VYYPDKVFR_WTAGAAAYY_YDANYFLCW_YEQYIKWPW_YIFFASFYY_YINVFAFPF_YLDAYNMMI_YLQPRTFLL_YLYALVYFL'
p19
g3
(g5
S'\x84d |\xa4\xa6\xef?'
tRp20
tp21
a(S'AEIRASANL_AELEGIQY_ALRANSAVK_ASKIITLKK_ATEGALNTPK_CNDPFLGVYY_CPDGVKHVY_DLFMRIFTI_EEHVQIHTI_EILDITPCSF_FCNDPFLGVY_FEYVSQPFL_FLLNKEMYL_FLLPSLATV_FLNRFTTTL_FLPRVFSAV_FLQSINFVR_FPNITNLCPF_FPPTSFGPL_FPQSAPHGV_FPRGQGVPI_FTNVYADSF_FTYASALWEI_FVDGVPFVV_FYLCFLAFL_GVYFASTEK_HVTFFIYNK_IELSLIDFYL_ILLIIMRTFK_IPIQASLPF_IPRRNVATL_IPTNFTISV_ISDYDYYRY_ITLATCELY_ITLKKRWQL_KAYNVTQAF_KMQRMLLEK_KTFPPTEPK_KVSIWNLDY_LEYHDVRVV_LIIMRTFKV_LLYDANYFL_LNDLCFTNVY_LPFFSNVTW_LPFNDGVYF_LSPRWYFYY_LTDEMIAQY_LYSPIFLIV_MGYINVFAF_MPASWVMRI_MTSCCSCLK_NSASFSTFK_NVFAFPFTIY_NYNYLYRLF_QELIRQGTDY_QELYSPIFL_QLPQGTTLPK_QPYRVVVLSF_QYIKWPWYI_RARSVSPKL_RISNCVADY_RLFRKSNLK_RLYYDSMSY_RQLLFVVEV_RTFKVSIWNL_SIIAYTMSL_SINFVRIIMR_SPRWYFYYL_SQSIIAYTM_SSPDDQIGYY_SSRGTSPAR_SYFTSDYYQL_TLKSFTVEK_TMADLVYAL_TVYSHLLLV_VEHVTFFIY_VLWAHGFEL_VRFPNITNL_VSIWNLDYII_VTPSGTWLTY_VVYRGTTTY_VYFLQSINF_VYYPDKVFR_WTAGAAAYY_YEQYIKWPW_YIFFASFYY_YINVFAFPF_YLDAYNMMI_YLQPRTFLL_YLYALVYFL'
p22
g3
(g5
S'H\x00ex\xa4\xa6\xef?'
tRp23
tp24
a(S'AEIRASANL_AELEGIQY_AFPFTIYSL_ALRANSAVK_ASKIITLKK_ATEGALNTPK_CNDPFLGVYY_CPDGVKHVY_DLFMRIFTI_EEHVQIHTI_EILDITPCSF_FCNDPFLGVY_FEYVSQPFL_FLLNKEMYL_FLLPSLATV_FLNRFTTTL_FLPRVFSAV_FLQSINFVR_FPNITNLCPF_FPPTSFGPL_FPQSAPHGV_FPRGQGVPI_FTNVYADSF_FTYASALWEI_FVDGVPFVV_GVYFASTEK_HVTFFIYNK_IELSLIDFYL_ILLIIMRTFK_IPIQASLPF_IPRRNVATL_IPTNFTISV_ISDYDYYRY_ITLATCELY_ITLKKRWQL_KAYNVTQAF_KMQRMLLEK_KTFPPTEPK_KVSIWNLDY_LEYHDVRVV_LIIMRTFKV_LLYDANYFL_LNDLCFTNVY_LPFFSNVTW_LPFNDGVYF_LSPRWYFYY_LTDEMIAQY_LYSPIFLIV_MGYINVFAF_MPASWVMRI_MTSCCSCLK_NSASFSTFK_NVFAFPFTIY_NYNYLYRLF_QELYSPIFL_QLPQGTTLPK_QPYRVVVLSF_QYIKWPWYI_RARSVSPKL_RISNCVADY_RLFRKSNLK_RLYYDSMSY_RQLLFVVEV_RTFKVSIWNL_SIIAYTMSL_SINFVRIIMR_SPRWYFYYL_SQSIIAYTM_SSPDDQIGYY_SSRGTSPAR_SYFTSDYYQL_TLKSFTVEK_TMADLVYAL_TVYSHLLLV_VEHVTFFIY_VLWAHGFEL_VRFPNITNL_VSIWNLDYII_VTPSGTWLTY_VVYRGTTTY_VYFLQSINF_VYYPDKVFR_WTAGAAAYY_YDANYFLCW_YEQYIKWPW_YIFFASFYY_YINVFAFPF_YLDAYNMMI_YLQPRTFLL_YLYALVYFL'
p25
g3
(g5
S'sp9N\xa4\xa6\xef?'
tRp26
tp27
a(S'AEIRASANL_AELEGIQY_AFPFTIYSL_ALRANSAVK_ASKIITLKK_ATEGALNTPK_CNDPFLGVYY_CPDGVKHVY_DLFMRIFTI_EEHVQIHTI_EILDITPCSF_FCNDPFLGVY_FEYVSQPFL_FLLNKEMYL_FLLPSLATV_FLNRFTTTL_FLPRVFSAV_FLQSINFVR_FPNITNLCPF_FPPTSFGPL_FPQSAPHGV_FPRGQGVPI_FTNVYADSF_FTYASALWEI_FVDGVPFVV_GVYFASTEK_HVTFFIYNK_IELSLIDFYL_ILLIIMRTFK_IPIQASLPF_IPRRNVATL_IPTNFTISV_ISDYDYYRY_ITLATCELY_ITLKKRWQL_KAYNVTQAF_KMQRMLLEK_KTFPPTEPK_KVSIWNLDY_LEYHDVRVV_LIIMRTFKV_LLYDANYFL_LNDLCFTNVY_LPFFSNVTW_LPFNDGVYF_LSPRWYFYY_LTDEMIAQY_LYSPIFLIV_MGYINVFAF_MPASWVMRI_MTSCCSCLK_NSASFSTFK_NVFAFPFTIY_NYNYLYRLF_QELIRQGTDY_QELYSPIFL_QLPQGTTLPK_QPYRVVVLSF_QYIKWPWYI_RARSVSPKL_RISNCVADY_RLFRKSNLK_RLYYDSMSY_RQLLFVVEV_RTFKVSIWNL_SIIAYTMSL_SINFVRIIMR_SPRWYFYYL_SQSIIAYTM_SSPDDQIGYY_SSRGTSPAR_SYFTSDYYQL_TLKSFTVEK_TMADLVYAL_TVYSHLLLV_VEHVTFFIY_VLWAHGFEL_VRFPNITNL_VSIWNLDYII_VTPSGTWLTY_VVYRGTTTY_VYFLQSINF_VYYPDKVFR_WTAGAAAYY_YEQYIKWPW_YIFFASFYY_YINVFAFPF_YLDAYNMMI_YLQPRTFLL_YLYALVYFL'
p28
g3
(g5
S'8\x0c~J\xa4\xa6\xef?'
tRp29
tp30
a(S'AEIRASANL_AELEGIQY_ALRANSAVK_ASKIITLKK_ATEGALNTPK_CPDGVKHVY_DLFMRIFTI_EEHVQIHTI_EILDITPCSF_FCNDPFLGVY_FEYVSQPFL_FLLNKEMYL_FLLPSLATV_FLNRFTTTL_FLPRVFSAV_FLQSINFVR_FPNITNLCPF_FPPTSFGPL_FPQSAPHGV_FPRGQGVPI_FTNVYADSF_FTYASALWEI_FVDGVPFVV_FYLCFLAFL_GVYFASTEK_HPLADNKFAL_HVTFFIYNK_IELSLIDFYL_ILLIIMRTFK_IPIQASLPF_IPRRNVATL_IPTNFTISV_ISDYDYYRY_ITLATCELY_ITLKKRWQL_KAYNVTQAF_KMQRMLLEK_KTFPPTEPK_KVSIWNLDY_LEYHDVRVV_LIIMRTFKV_LLYDANYFL_LNDLCFTNVY_LPFFSNVTW_LPFNDGVYF_LSPRWYFYY_LTDEMIAQY_LYSPIFLIV_MEVTPSGTWL_MGYINVFAF_MIELSLIDFY_MPASWVMRI_MTSCCSCLK_NSASFSTFK_NVFAFPFTIY_NYNYLYRLF_QELYSPIFL_QLPQGTTLPK_QPYRVVVLSF_QYIKWPWYI_RARSVSPKL_RISNCVADY_RLFRKSNLK_RLYYDSMSY_RQLLFVVEV_RTFKVSIWNL_SIIAYTMSL_SINFVRIIMR_SPRWYFYYL_SQSIIAYTM_SSPDDQIGYY_SSRGTSPAR_SYFTSDYYQL_TLKSFTVEK_TMADLVYAL_TVYSHLLLV_VEHVTFFIY_VLWAHGFEL_VRFPNITNL_VSIWNLDYII_VTPSGTWLTY_VVYRGTTTY_VYFLQSINF_WTAGAAAYY_YEQYIKWPW_YIFFASFYY_YINVFAFPF_YLDAYNMMI_YLQPRTFLL_YLYALVYFL'
p31
g3
(g5
S'k\x8e\xbc\xda\xa3\xa6\xef?'
tRp32
tp33
a.