(lp1
(S'AEIRASANL_ALRANSAVK_FEYVSQPFL_FLLPSLATV_FLNRFTTTL_FLPRVFSAV_FLQSINFVR_FPQSAPHGV_FPRGQGVPI_FTNVYADSF_FTYASALWEI_FVDGVPFVV_HVTFFIYNK_IPRRNVATL_IPTNFTISV_ISDYDYYRY_ITLKKRWQL_KTFPPTEPK_KVSIWNLDY_LLYDANYFL_LTDEMIAQY_MGYINVFAF_MPASWVMRI_MTSCCSCLK_NSASFSTFK_NVFAFPFTIY_QELYSPIFL_RARSVSPKL_RLFRKSNLK_RTFKVSIWNL_SIIAYTMSL_SINFVRIIMR_SPRWYFYYL_TMADLVYAL_TVYSHLLLV_VEHVTFFIY_VRFPNITNL_WTAGAAAYY_YEQYIKWPW_YIFFASFYY_YLDAYNMMI_YLQPRTFLL_YLYALVYFL'
p2
cnumpy.core.multiarray
scalar
p3
(cnumpy
dtype
p4
(S'f8'
I0
I1
tRp5
(I3
S'<'
NNNI-1
I-1
I0
tbS'\xfb\x15R\xba\xee\xce\xef?'
tRp6
tp7
a(S'AEIRASANL_ALRANSAVK_FEYVSQPFL_FLLPSLATV_FLNRFTTTL_FLPRVFSAV_FLQSINFVR_FPQSAPHGV_FPRGQGVPI_FTNVYADSF_FTYASALWEI_FVDGVPFVV_HVTFFIYNK_IPRRNVATL_IPTNFTISV_ISDYDYYRY_KAYNVTQAF_KTFPPTEPK_KVSIWNLDY_LLYDANYFL_LTDEMIAQY_MGYINVFAF_MPASWVMRI_MTSCCSCLK_NSASFSTFK_NVFAFPFTIY_QELYSPIFL_RARSVSPKL_RLFRKSNLK_RTFKVSIWNL_SIIAYTMSL_SINFVRIIMR_SPRWYFYYL_TMADLVYAL_TVYSHLLLV_VEHVTFFIY_VRFPNITNL_WTAGAAAYY_YEQYIKWPW_YIFFASFYY_YLDAYNMMI_YLQPRTFLL_YLYALVYFL'
p8
g3
(g5
S'\xbdYQG\xc8\xce\xef?'
tRp9
tp10
a(S'AEIRASANL_ALRANSAVK_FEYVSQPFL_FLNRFTTTL_FLPRVFSAV_FLQSINFVR_FPQSAPHGV_FPRGQGVPI_FTNVYADSF_FTYASALWEI_FVDGVPFVV_HVTFFIYNK_IPRRNVATL_IPTNFTISV_ISDYDYYRY_ITLKKRWQL_KTFPPTEPK_KVSIWNLDY_LLYDANYFL_LTDEMIAQY_MGYINVFAF_MPASWVMRI_MTSCCSCLK_NSASFSTFK_NVFAFPFTIY_QELYSPIFL_RARSVSPKL_RLFRKSNLK_RTFKVSIWNL_SIIAYTMSL_SINFVRIIMR_SPRWYFYYL_TMADLVYAL_TVYSHLLLV_VEHVTFFIY_VLWAHGFEL_VRFPNITNL_WTAGAAAYY_YEQYIKWPW_YIFFASFYY_YLDAYNMMI_YLQPRTFLL_YLYALVYFL'
p11
g3
(g5
S'\x0c<\xe8\xf4\xb8\xce\xef?'
tRp12
tp13
a(S'AEIRASANL_ALRANSAVK_FEYVSQPFL_FLLNKEMYL_FLNRFTTTL_FLPRVFSAV_FLQSINFVR_FPQSAPHGV_FPRGQGVPI_FTNVYADSF_FTYASALWEI_FVDGVPFVV_HVTFFIYNK_IPRRNVATL_IPTNFTISV_ISDYDYYRY_ITLKKRWQL_KTFPPTEPK_KVSIWNLDY_LLYDANYFL_LTDEMIAQY_MGYINVFAF_MPASWVMRI_MTSCCSCLK_NSASFSTFK_NVFAFPFTIY_QELYSPIFL_RARSVSPKL_RLFRKSNLK_RTFKVSIWNL_SIIAYTMSL_SINFVRIIMR_SPRWYFYYL_TMADLVYAL_TVYSHLLLV_VEHVTFFIY_VRFPNITNL_WTAGAAAYY_YEQYIKWPW_YIFFASFYY_YLDAYNMMI_YLQPRTFLL_YLYALVYFL'
p14
g3
(g5
S'\x9fk\xa1\t\x89\xce\xef?'
tRp15
tp16
a(S'AEIRASANL_ALRANSAVK_FEYVSQPFL_FLLNKEMYL_FLNRFTTTL_FLPRVFSAV_FLQSINFVR_FPQSAPHGV_FPRGQGVPI_FTNVYADSF_FTYASALWEI_FVDGVPFVV_HVTFFIYNK_IPRRNVATL_IPTNFTISV_ISDYDYYRY_KAYNVTQAF_KTFPPTEPK_KVSIWNLDY_LLYDANYFL_LTDEMIAQY_MGYINVFAF_MPASWVMRI_MTSCCSCLK_NSASFSTFK_NVFAFPFTIY_QELYSPIFL_RARSVSPKL_RLFRKSNLK_RTFKVSIWNL_SIIAYTMSL_SINFVRIIMR_SPRWYFYYL_TMADLVYAL_TVYSHLLLV_VEHVTFFIY_VRFPNITNL_WTAGAAAYY_YEQYIKWPW_YIFFASFYY_YLDAYNMMI_YLQPRTFLL_YLYALVYFL'
p17
g3
(g5
S'K\x07?wb\xce\xef?'
tRp18
tp19
a(S'AEIRASANL_ALRANSAVK_FEYVSQPFL_FLNRFTTTL_FLPRVFSAV_FLQSINFVR_FPQSAPHGV_FPRGQGVPI_FTNVYADSF_FTYASALWEI_FVDGVPFVV_HVTFFIYNK_IPRRNVATL_IPTNFTISV_ISDYDYYRY_KAYNVTQAF_KTFPPTEPK_KVSIWNLDY_LLYDANYFL_LTDEMIAQY_MGYINVFAF_MPASWVMRI_MTSCCSCLK_NSASFSTFK_NVFAFPFTIY_QELYSPIFL_RARSVSPKL_RLFRKSNLK_RTFKVSIWNL_SIIAYTMSL_SINFVRIIMR_SPRWYFYYL_TMADLVYAL_TVYSHLLLV_VEHVTFFIY_VLWAHGFEL_VRFPNITNL_WTAGAAAYY_YEQYIKWPW_YIFFASFYY_YLDAYNMMI_YLQPRTFLL_YLYALVYFL'
p20
g3
(g5
S'\xf0>\x84\xf6^\xce\xef?'
tRp21
tp22
a(S'AEIRASANL_ALRANSAVK_FEYVSQPFL_FLLPSLATV_FLNRFTTTL_FLPRVFSAV_FLQSINFVR_FPQSAPHGV_FTNVYADSF_FTYASALWEI_FVDGVPFVV_HVTFFIYNK_IPIQASLPF_IPRRNVATL_IPTNFTISV_ISDYDYYRY_ITLKKRWQL_KTFPPTEPK_KVSIWNLDY_LLYDANYFL_LTDEMIAQY_MGYINVFAF_MPASWVMRI_MTSCCSCLK_NSASFSTFK_NVFAFPFTIY_QELYSPIFL_RARSVSPKL_RLFRKSNLK_RTFKVSIWNL_SIIAYTMSL_SINFVRIIMR_SPRWYFYYL_TMADLVYAL_TVYSHLLLV_VEHVTFFIY_VRFPNITNL_WTAGAAAYY_YEQYIKWPW_YIFFASFYY_YLDAYNMMI_YLQPRTFLL_YLYALVYFL'
p23
g3
(g5
S'\x97\x97\x9a\xe8\xca\xcd\xef?'
tRp24
tp25
a(S'AEIRASANL_AELEGIQY_ALRANSAVK_FEYVSQPFL_FLLPSLATV_FLNRFTTTL_FLPRVFSAV_FLQSINFVR_FPQSAPHGV_FTNVYADSF_FTYASALWEI_FVDGVPFVV_HVTFFIYNK_IPIQASLPF_IPRRNVATL_IPTNFTISV_ISDYDYYRY_ITLKKRWQL_KTFPPTEPK_KVSIWNLDY_LLYDANYFL_LTDEMIAQY_MGYINVFAF_MPASWVMRI_MTSCCSCLK_NSASFSTFK_NVFAFPFTIY_QELYSPIFL_RARSVSPKL_RLFRKSNLK_RTFKVSIWNL_SIIAYTMSL_SINFVRIIMR_SPRWYFYYL_TMADLVYAL_TVYSHLLLV_VRFPNITNL_WTAGAAAYY_YEQYIKWPW_YIFFASFYY_YLDAYNMMI_YLQPRTFLL_YLYALVYFL'
p26
g3
(g5
S'\xe5\xf0j\xf1\xaf\xcd\xef?'
tRp27
tp28
a(S'AEIRASANL_ALRANSAVK_FEYVSQPFL_FLLPSLATV_FLNRFTTTL_FLPRVFSAV_FLQSINFVR_FPQSAPHGV_FTNVYADSF_FTYASALWEI_FVDGVPFVV_HVTFFIYNK_IPIQASLPF_IPRRNVATL_IPTNFTISV_ISDYDYYRY_KAYNVTQAF_KTFPPTEPK_KVSIWNLDY_LLYDANYFL_LTDEMIAQY_MGYINVFAF_MPASWVMRI_MTSCCSCLK_NSASFSTFK_NVFAFPFTIY_QELYSPIFL_RARSVSPKL_RLFRKSNLK_RTFKVSIWNL_SIIAYTMSL_SINFVRIIMR_SPRWYFYYL_TMADLVYAL_TVYSHLLLV_VEHVTFFIY_VRFPNITNL_WTAGAAAYY_YEQYIKWPW_YIFFASFYY_YLDAYNMMI_YLQPRTFLL_YLYALVYFL'
p29
g3
(g5
S'\xdd\x0f\x93\x8e\xa1\xcd\xef?'
tRp30
tp31
a(S'AEIRASANL_ALRANSAVK_FEYVSQPFL_FLLPSLATV_FLNRFTTTL_FLPRVFSAV_FLQSINFVR_FPPTSFGPL_FPQSAPHGV_FTNVYADSF_FTYASALWEI_FVDGVPFVV_HVTFFIYNK_IPRRNVATL_IPTNFTISV_ISDYDYYRY_ITLKKRWQL_KTFPPTEPK_KVSIWNLDY_LLYDANYFL_LTDEMIAQY_MGYINVFAF_MPASWVMRI_MTSCCSCLK_NSASFSTFK_NVFAFPFTIY_QELYSPIFL_RARSVSPKL_RLFRKSNLK_RTFKVSIWNL_SIIAYTMSL_SINFVRIIMR_SPRWYFYYL_TMADLVYAL_TVYSHLLLV_VEHVTFFIY_VRFPNITNL_WTAGAAAYY_YEQYIKWPW_YIFFASFYY_YLDAYNMMI_YLQPRTFLL_YLYALVYFL'
p32
g3
(g5
S'\x95o\x84\x87\x9e\xcd\xef?'
tRp33
tp34
a.