(lp1
(S'AEIRASANL_ALRANSAVK_FLNRFTTTL_FPQSAPHGV_FTYASALWEI_HVTFFIYNK_KTFPPTEPK_LTDEMIAQY_NVFAFPFTIY_SIIAYTMSL_SPRWYFYYL_TMADLVYAL_TVYSHLLLV_YEQYIKWPW_YLQPRTFLL'
p2
cnumpy.core.multiarray
scalar
p3
(cnumpy
dtype
p4
(S'f8'
I0
I1
tRp5
(I3
S'<'
NNNI-1
I-1
I0
tbS'(\xaa\xbd\xc1\xd9\xe6\xef?'
tRp6
tp7
a(S'AEIRASANL_ALRANSAVK_FLNRFTTTL_FPQSAPHGV_FTYASALWEI_KTFPPTEPK_LTDEMIAQY_MTSCCSCLK_NVFAFPFTIY_SIIAYTMSL_SPRWYFYYL_TMADLVYAL_TVYSHLLLV_YEQYIKWPW_YLQPRTFLL'
p8
g3
(g5
S'\x89\xb3<\x1f\xd3\xe6\xef?'
tRp9
tp10
a(S'AEIRASANL_ALRANSAVK_FLNRFTTTL_FPQSAPHGV_FTYASALWEI_FVDGVPFVV_HVTFFIYNK_KTFPPTEPK_NVFAFPFTIY_SIIAYTMSL_SPRWYFYYL_TMADLVYAL_VRFPNITNL_YEQYIKWPW_YLQPRTFLL'
p11
g3
(g5
S'\x10\x9e\x9dy\xcd\xe6\xef?'
tRp12
tp13
a(S'AEIRASANL_ALRANSAVK_FLNRFTTTL_FPQSAPHGV_FTYASALWEI_FVDGVPFVV_HVTFFIYNK_KTFPPTEPK_LLYDANYFL_NVFAFPFTIY_SIIAYTMSL_SPRWYFYYL_VRFPNITNL_YEQYIKWPW_YLQPRTFLL'
p14
g3
(g5
S'\xd8X"\xa3\xc9\xe6\xef?'
tRp15
tp16
a(S'AEIRASANL_ALRANSAVK_FLNRFTTTL_FPQSAPHGV_FTYASALWEI_FVDGVPFVV_KTFPPTEPK_MTSCCSCLK_NVFAFPFTIY_SIIAYTMSL_SPRWYFYYL_TMADLVYAL_VRFPNITNL_YEQYIKWPW_YLQPRTFLL'
p17
g3
(g5
S'qu\xf4\x90\xc7\xe6\xef?'
tRp18
tp19
a(S'AEIRASANL_ALRANSAVK_FLNRFTTTL_FPQSAPHGV_FTYASALWEI_FVDGVPFVV_HVTFFIYNK_KTFPPTEPK_NVFAFPFTIY_SIIAYTMSL_SPRWYFYYL_TMADLVYAL_VEHVTFFIY_VRFPNITNL_YLQPRTFLL'
p20
g3
(g5
S'\x19\x0c\xf9/\xaa\xe6\xef?'
tRp21
tp22
a(S'AEIRASANL_AELEGIQY_ALRANSAVK_FLNRFTTTL_FPQSAPHGV_FTYASALWEI_FVDGVPFVV_HVTFFIYNK_KTFPPTEPK_NVFAFPFTIY_SIIAYTMSL_SPRWYFYYL_TMADLVYAL_VRFPNITNL_YLQPRTFLL'
p23
g3
(g5
S'm,\xe5\xa0\xa7\xe6\xef?'
tRp24
tp25
a(S'AEIRASANL_ALRANSAVK_FLNRFTTTL_FPQSAPHGV_FTYASALWEI_FVDGVPFVV_KTFPPTEPK_MTSCCSCLK_NVFAFPFTIY_SIIAYTMSL_SPRWYFYYL_TMADLVYAL_VEHVTFFIY_VRFPNITNL_YLQPRTFLL'
p26
g3
(g5
S'\x089\x8d\x18\xa6\xe6\xef?'
tRp27
tp28
a(S'AEIRASANL_ALRANSAVK_FLNRFTTTL_FPQSAPHGV_HVTFFIYNK_KTFPPTEPK_LTDEMIAQY_NVFAFPFTIY_SIIAYTMSL_SPRWYFYYL_TMADLVYAL_TVYSHLLLV_VRFPNITNL_YEQYIKWPW_YLQPRTFLL'
p29
g3
(g5
S')V\xfc\xba\xa4\xe6\xef?'
tRp30
tp31
a(S'AEIRASANL_AELEGIQY_ALRANSAVK_FLNRFTTTL_FPQSAPHGV_FTYASALWEI_FVDGVPFVV_KTFPPTEPK_MTSCCSCLK_NVFAFPFTIY_SIIAYTMSL_SPRWYFYYL_TMADLVYAL_VRFPNITNL_YLQPRTFLL'
p32
g3
(g5
S'\xd0\x03<\xb8\xa1\xe6\xef?'
tRp33
tp34
a.