(lp1
(S'NVFAFPFTIY_SPRWYFYYL_YLQPRTFLL'
p2
cnumpy.core.multiarray
scalar
p3
(cnumpy
dtype
p4
(S'f8'
I0
I1
tRp5
(I3
S'<'
NNNI-1
I-1
I0
tbS'T\xd25v\xe0\xfa\xef?'
tRp6
tp7
a(S'IPRRNVATL_NVFAFPFTIY_YLQPRTFLL'
p8
g3
(g5
S'P\xd25v\xe0\xfa\xef?'
tRp9
tp10
a(S'FPRGQGVPI_NVFAFPFTIY_YLQPRTFLL'
p11
g3
(g5
S'\x0b2\x86\x8d\xcd\xfa\xef?'
tRp12
tp13
a(S'KTFPPTEPK_NVFAFPFTIY_YLQPRTFLL'
p14
g3
(g5
S'\xe9)\xf0\x95\xab\xfa\xef?'
tRp15
tp16
a(S'ALRANSAVK_NVFAFPFTIY_YLQPRTFLL'
p17
g3
(g5
S'\xe5\xfc\x9f\xdc\xa2\xfa\xef?'
tRp18
tp19
a(S'FTNVYADSF_SPRWYFYYL_YLQPRTFLL'
p20
g3
(g5
S'\xf8\n\x8aL\\\xfa\xef?'
tRp21
tp22
a(S'FTNVYADSF_IPRRNVATL_YLQPRTFLL'
p23
g3
(g5
S'\xf0\n\x8aL\\\xfa\xef?'
tRp24
tp25
a(S'FPRGQGVPI_FTNVYADSF_YLQPRTFLL'
p26
g3
(g5
S'WsV\x88F\xfa\xef?'
tRp27
tp28
a(S'FPQSAPHGV_KTFPPTEPK_YLQPRTFLL'
p29
g3
(g5
S'\xd7\xe3\x89\x9fE\xfa\xef?'
tRp30
tp31
a(S'ALRANSAVK_FPQSAPHGV_YLQPRTFLL'
p32
g3
(g5
S'h\xf8tp;\xfa\xef?'
tRp33
tp34
a.