(lp1
(S'AEIRASANL_ALRANSAVK_FLNRFTTTL_FLQSINFVR_FPQSAPHGV_FTYASALWEI_HVTFFIYNK_IPRRNVATL_ISDYDYYRY_KTFPPTEPK_LLYDANYFL_LTDEMIAQY_MPASWVMRI_NVFAFPFTIY_SIIAYTMSL_SPRWYFYYL_TMADLVYAL_TVYSHLLLV_VRFPNITNL_YEQYIKWPW_YLDAYNMMI_YLQPRTFLL_YLYALVYFL'
p2
cnumpy.core.multiarray
scalar
p3
(cnumpy
dtype
p4
(S'f8'
I0
I1
tRp5
(I3
S'<'
NNNI-1
I-1
I0
tbS'_f&rT\xae\xef?'
tRp6
tp7
a(S'AEIRASANL_ALRANSAVK_FLNRFTTTL_FLQSINFVR_FPQSAPHGV_FTYASALWEI_HVTFFIYNK_IPRRNVATL_ISDYDYYRY_KTFPPTEPK_LTDEMIAQY_MPASWVMRI_NVFAFPFTIY_SIIAYTMSL_SPRWYFYYL_TMADLVYAL_TVYSHLLLV_VLWAHGFEL_VRFPNITNL_YEQYIKWPW_YLDAYNMMI_YLQPRTFLL_YLYALVYFL'
p8
g3
(g5
S'l~\xcc2\xff\xad\xef?'
tRp9
tp10
a(S'AEIRASANL_ALRANSAVK_FLNRFTTTL_FLPRVFSAV_FLQSINFVR_FPQSAPHGV_FTYASALWEI_HVTFFIYNK_IPRRNVATL_ISDYDYYRY_KTFPPTEPK_LTDEMIAQY_MPASWVMRI_NVFAFPFTIY_SIIAYTMSL_SPRWYFYYL_TMADLVYAL_TVYSHLLLV_VRFPNITNL_YEQYIKWPW_YLDAYNMMI_YLQPRTFLL_YLYALVYFL'
p11
g3
(g5
S'\xe8\x86lb\xf8\xad\xef?'
tRp12
tp13
a(S'AEIRASANL_ALRANSAVK_FLLPSLATV_FLNRFTTTL_FLQSINFVR_FPQSAPHGV_FTYASALWEI_HVTFFIYNK_IPRRNVATL_ISDYDYYRY_KTFPPTEPK_LTDEMIAQY_MPASWVMRI_NVFAFPFTIY_SIIAYTMSL_SPRWYFYYL_TMADLVYAL_TVYSHLLLV_VRFPNITNL_YEQYIKWPW_YLDAYNMMI_YLQPRTFLL_YLYALVYFL'
p14
g3
(g5
S'@\x9b;)\x88\xad\xef?'
tRp15
tp16
a(S'AEIRASANL_ALRANSAVK_FLLNKEMYL_FLNRFTTTL_FLQSINFVR_FPQSAPHGV_FTYASALWEI_HVTFFIYNK_IPRRNVATL_ISDYDYYRY_KTFPPTEPK_LTDEMIAQY_MPASWVMRI_NVFAFPFTIY_SIIAYTMSL_SPRWYFYYL_TMADLVYAL_TVYSHLLLV_VRFPNITNL_YEQYIKWPW_YLDAYNMMI_YLQPRTFLL_YLYALVYFL'
p17
g3
(g5
S'k\x94\x90\x8ds\xad\xef?'
tRp18
tp19
a(S'AEIRASANL_ALRANSAVK_FEYVSQPFL_FLNRFTTTL_FLQSINFVR_FPQSAPHGV_FPRGQGVPI_FTYASALWEI_HVTFFIYNK_KTFPPTEPK_LLYDANYFL_LTDEMIAQY_MPASWVMRI_NVFAFPFTIY_SIIAYTMSL_SPRWYFYYL_TMADLVYAL_TVYSHLLLV_VRFPNITNL_YEQYIKWPW_YLDAYNMMI_YLQPRTFLL_YLYALVYFL'
p20
g3
(g5
S'\x85]\xa9\xb2\xd2\xab\xef?'
tRp21
tp22
a(S'AEIRASANL_ALRANSAVK_FEYVSQPFL_FLNRFTTTL_FLQSINFVR_FPQSAPHGV_FPRGQGVPI_FTYASALWEI_HVTFFIYNK_KTFPPTEPK_LTDEMIAQY_MPASWVMRI_NVFAFPFTIY_SIIAYTMSL_SPRWYFYYL_TMADLVYAL_TVYSHLLLV_VLWAHGFEL_VRFPNITNL_YEQYIKWPW_YLDAYNMMI_YLQPRTFLL_YLYALVYFL'
p23
g3
(g5
S'K\xef\x1d\xcc\x82\xab\xef?'
tRp24
tp25
a(S'AEIRASANL_ALRANSAVK_FEYVSQPFL_FLNRFTTTL_FLPRVFSAV_FLQSINFVR_FPQSAPHGV_FPRGQGVPI_FTYASALWEI_HVTFFIYNK_KTFPPTEPK_LTDEMIAQY_MPASWVMRI_NVFAFPFTIY_SIIAYTMSL_SPRWYFYYL_TMADLVYAL_TVYSHLLLV_VRFPNITNL_YEQYIKWPW_YLDAYNMMI_YLQPRTFLL_YLYALVYFL'
p26
g3
(g5
S';Q\xa2\xd8t\xab\xef?'
tRp27
tp28
a(S'AEIRASANL_ALRANSAVK_FEYVSQPFL_FLNRFTTTL_FLQSINFVR_FPQSAPHGV_FTYASALWEI_HVTFFIYNK_IPRRNVATL_KTFPPTEPK_LLYDANYFL_LTDEMIAQY_MPASWVMRI_NVFAFPFTIY_SIIAYTMSL_SPRWYFYYL_TMADLVYAL_TVYSHLLLV_VRFPNITNL_YEQYIKWPW_YLDAYNMMI_YLQPRTFLL_YLYALVYFL'
p29
g3
(g5
S'\xe3\xc7\xac[)\xab\xef?'
tRp30
tp31
a(S'AEIRASANL_ALRANSAVK_FEYVSQPFL_FLLPSLATV_FLNRFTTTL_FLQSINFVR_FPQSAPHGV_FPRGQGVPI_FTYASALWEI_HVTFFIYNK_KTFPPTEPK_LTDEMIAQY_MPASWVMRI_NVFAFPFTIY_SIIAYTMSL_SPRWYFYYL_TMADLVYAL_TVYSHLLLV_VRFPNITNL_YEQYIKWPW_YLDAYNMMI_YLQPRTFLL_YLYALVYFL'
p32
g3
(g5
S'K\xd5\x96a\x1b\xab\xef?'
tRp33
tp34
a.