(lp1
(S'ALRANSAVK_FLNRFTTTL_FPQSAPHGV_FVDGVPFVV_HVTFFIYNK_KTFPPTEPK_SIIAYTMSL_SPRWYFYYL_TMADLVYAL_VRFPNITNL_YLQPRTFLL'
p2
cnumpy.core.multiarray
scalar
p3
(cnumpy
dtype
p4
(S'f8'
I0
I1
tRp5
(I3
S'<'
NNNI-1
I-1
I0
tbS'\x9bK\xf8A_\xd2\xef?'
tRp6
tp7
a(S'ALRANSAVK_FLNRFTTTL_FPQSAPHGV_FVDGVPFVV_KTFPPTEPK_MTSCCSCLK_SIIAYTMSL_SPRWYFYYL_TMADLVYAL_VRFPNITNL_YLQPRTFLL'
p8
g3
(g5
S'\xe7h\xb4\x82X\xd2\xef?'
tRp9
tp10
a(S'ALRANSAVK_FLNRFTTTL_FPQSAPHGV_HVTFFIYNK_KTFPPTEPK_LTDEMIAQY_SIIAYTMSL_SPRWYFYYL_TMADLVYAL_TVYSHLLLV_YLQPRTFLL'
p11
g3
(g5
S'P\xbe\xf3\xf5R\xd2\xef?'
tRp12
tp13
a(S'ALRANSAVK_FLNRFTTTL_FPQSAPHGV_KTFPPTEPK_LTDEMIAQY_MTSCCSCLK_SIIAYTMSL_SPRWYFYYL_TMADLVYAL_TVYSHLLLV_YLQPRTFLL'
p14
g3
(g5
S'5%\xb3\x11K\xd2\xef?'
tRp15
tp16
a(S'ALRANSAVK_FLNRFTTTL_FPQSAPHGV_FVDGVPFVV_HVTFFIYNK_KTFPPTEPK_LLYDANYFL_SIIAYTMSL_SPRWYFYYL_VRFPNITNL_YLQPRTFLL'
p17
g3
(g5
S'\xcc\x8cV\xb5<\xd2\xef?'
tRp18
tp19
a(S'ALRANSAVK_FLNRFTTTL_FPQSAPHGV_HVTFFIYNK_KTFPPTEPK_LTDEMIAQY_SIIAYTMSL_SPRWYFYYL_TMADLVYAL_VRFPNITNL_YLQPRTFLL'
p20
g3
(g5
S'\xf1\xb9\x837:\xd2\xef?'
tRp21
tp22
a(S'ALRANSAVK_FLNRFTTTL_FPQSAPHGV_HVTFFIYNK_KTFPPTEPK_LLYDANYFL_LTDEMIAQY_SIIAYTMSL_SPRWYFYYL_TVYSHLLLV_YLQPRTFLL'
p23
g3
(g5
S'c\x07\xb2`4\xd2\xef?'
tRp24
tp25
a(S'ALRANSAVK_FLNRFTTTL_FPQSAPHGV_KTFPPTEPK_LTDEMIAQY_MTSCCSCLK_SIIAYTMSL_SPRWYFYYL_TMADLVYAL_VRFPNITNL_YLQPRTFLL'
p26
g3
(g5
S'\xdb\xc0\xaf\x942\xd2\xef?'
tRp27
tp28
a(S'ALRANSAVK_FLNRFTTTL_FPQSAPHGV_HVTFFIYNK_KTFPPTEPK_LLYDANYFL_LTDEMIAQY_SIIAYTMSL_SPRWYFYYL_VRFPNITNL_YLQPRTFLL'
p29
g3
(g5
S'\x85\xfa/\xfa\x16\xd2\xef?'
tRp30
tp31
a(S'ALRANSAVK_FLNRFTTTL_FPQSAPHGV_HVTFFIYNK_ISDYDYYRY_KTFPPTEPK_SIIAYTMSL_SPRWYFYYL_TMADLVYAL_TVYSHLLLV_YLQPRTFLL'
p32
g3
(g5
S'\x13\x9a\xa5\xba\xdf\xd1\xef?'
tRp33
tp34
a.