(lp1
(S'ALRANSAVK_FLNRFTTTL_FPQSAPHGV_HVTFFIYNK_KTFPPTEPK_SIIAYTMSL_SPRWYFYYL_TMADLVYAL_TVYSHLLLV_YLQPRTFLL'
p2
cnumpy.core.multiarray
scalar
p3
(cnumpy
dtype
p4
(S'f8'
I0
I1
tRp5
(I3
S'<'
NNNI-1
I-1
I0
tbS'\x10\x90\x9dF\x19\xca\xef?'
tRp6
tp7
a(S'ALRANSAVK_FLNRFTTTL_FPQSAPHGV_KTFPPTEPK_MTSCCSCLK_SIIAYTMSL_SPRWYFYYL_TMADLVYAL_TVYSHLLLV_YLQPRTFLL'
p8
g3
(g5
S'\xa7& \x05\x11\xca\xef?'
tRp9
tp10
a(S'ALRANSAVK_FLNRFTTTL_FPQSAPHGV_HVTFFIYNK_KTFPPTEPK_LLYDANYFL_SIIAYTMSL_SPRWYFYYL_TVYSHLLLV_YLQPRTFLL'
p11
g3
(g5
S'UC\x89\xf7\xf8\xc9\xef?'
tRp12
tp13
a(S'ALRANSAVK_FLNRFTTTL_FPQSAPHGV_HVTFFIYNK_KTFPPTEPK_SIIAYTMSL_SPRWYFYYL_TMADLVYAL_VRFPNITNL_YLQPRTFLL'
p14
g3
(g5
S'd\xbd\xb6\x03\xf7\xc9\xef?'
tRp15
tp16
a(S'ALRANSAVK_FLNRFTTTL_FPQSAPHGV_KTFPPTEPK_MTSCCSCLK_SIIAYTMSL_SPRWYFYYL_TMADLVYAL_VRFPNITNL_YLQPRTFLL'
p17
g3
(g5
S'U\xc4\xe2`\xef\xc9\xef?'
tRp18
tp19
a(S'ALRANSAVK_FLNRFTTTL_FPQSAPHGV_HVTFFIYNK_KTFPPTEPK_SPRWYFYYL_TMADLVYAL_TVYSHLLLV_YLDAYNMMI_YLQPRTFLL'
p20
g3
(g5
S'w\xd8\xd0\xc5\xdf\xc9\xef?'
tRp21
tp22
a(S'ALRANSAVK_FLNRFTTTL_FPQSAPHGV_KTFPPTEPK_MTSCCSCLK_SPRWYFYYL_TMADLVYAL_TVYSHLLLV_YLDAYNMMI_YLQPRTFLL'
p23
g3
(g5
S'(\x9a\x92\xcf\xda\xc9\xef?'
tRp24
tp25
a(S'ALRANSAVK_FLNRFTTTL_FPQSAPHGV_HVTFFIYNK_KTFPPTEPK_LLYDANYFL_SIIAYTMSL_SPRWYFYYL_VRFPNITNL_YLQPRTFLL'
p26
g3
(g5
S'P\x04\x19\xe7\xce\xc9\xef?'
tRp27
tp28
a(S'ALRANSAVK_FLNRFTTTL_FPQSAPHGV_HVTFFIYNK_KTFPPTEPK_LLYDANYFL_SPRWYFYYL_TVYSHLLLV_YLDAYNMMI_YLQPRTFLL'
p29
g3
(g5
S'\xb9dp_\xce\xc9\xef?'
tRp30
tp31
a(S'ALRANSAVK_FLNRFTTTL_FPQSAPHGV_KTFPPTEPK_LLYDANYFL_MTSCCSCLK_SPRWYFYYL_TVYSHLLLV_YLDAYNMMI_YLQPRTFLL'
p32
g3
(g5
S'i?F\x0c\xc9\xc9\xef?'
tRp33
tp34
a.