(lp1
(S'AEIRASANL_AELEGIQY_ALRANSAVK_ATEGALNTPK_EEHVQIHTI_EILDITPCSF_FCNDPFLGVY_FEYVSQPFL_FLLNKEMYL_FLLPSLATV_FLNRFTTTL_FLPRVFSAV_FLQSINFVR_FPNITNLCPF_FPPTSFGPL_FPQSAPHGV_FPRGQGVPI_FTNVYADSF_FTYASALWEI_FVDGVPFVV_GVYFASTEK_HVTFFIYNK_IPIQASLPF_IPRRNVATL_IPTNFTISV_ISDYDYYRY_ITLATCELY_ITLKKRWQL_KAYNVTQAF_KMQRMLLEK_KTFPPTEPK_KVSIWNLDY_LIIMRTFKV_LLYDANYFL_LSPRWYFYY_LTDEMIAQY_LYSPIFLIV_MGYINVFAF_MIELSLIDFY_MPASWVMRI_MTSCCSCLK_NSASFSTFK_NVFAFPFTIY_NYNYLYRLF_QELYSPIFL_QLPQGTTLPK_QYIKWPWYI_RARSVSPKL_RISNCVADY_RLFRKSNLK_RLYYDSMSY_RQLLFVVEV_RTFKVSIWNL_SIIAYTMSL_SINFVRIIMR_SPRWYFYYL_TLKSFTVEK_TMADLVYAL_TVYSHLLLV_VEHVTFFIY_VLWAHGFEL_VRFPNITNL_VSIWNLDYII_VTPSGTWLTY_VVYRGTTTY_VYFLQSINF_WTAGAAAYY_YEQYIKWPW_YIFFASFYY_YLDAYNMMI_YLQPRTFLL_YLYALVYFL'
p2
cnumpy.core.multiarray
scalar
p3
(cnumpy
dtype
p4
(S'f8'
I0
I1
tRp5
(I3
S'<'
NNNI-1
I-1
I0
tbS'X\x05\xcd\xd8\x14\x9b\xef?'
tRp6
tp7
a(S'AEIRASANL_AELEGIQY_ALRANSAVK_ATEGALNTPK_EEHVQIHTI_EILDITPCSF_FCNDPFLGVY_FEYVSQPFL_FLLNKEMYL_FLLPSLATV_FLNRFTTTL_FLPRVFSAV_FLQSINFVR_FPNITNLCPF_FPPTSFGPL_FPQSAPHGV_FPRGQGVPI_FTNVYADSF_FTYASALWEI_FVDGVPFVV_GVYFASTEK_HVTFFIYNK_ILLIIMRTFK_IPIQASLPF_IPRRNVATL_IPTNFTISV_ISDYDYYRY_ITLATCELY_ITLKKRWQL_KAYNVTQAF_KMQRMLLEK_KTFPPTEPK_KVSIWNLDY_LIIMRTFKV_LLYDANYFL_LSPRWYFYY_LTDEMIAQY_LYSPIFLIV_MGYINVFAF_MIELSLIDFY_MPASWVMRI_MTSCCSCLK_NSASFSTFK_NVFAFPFTIY_NYNYLYRLF_QELYSPIFL_QYIKWPWYI_RARSVSPKL_RISNCVADY_RLFRKSNLK_RLYYDSMSY_RQLLFVVEV_RTFKVSIWNL_SIIAYTMSL_SINFVRIIMR_SPRWYFYYL_TLKSFTVEK_TMADLVYAL_TVYSHLLLV_VEHVTFFIY_VLWAHGFEL_VRFPNITNL_VSIWNLDYII_VTPSGTWLTY_VVYRGTTTY_VYFLQSINF_WTAGAAAYY_YEQYIKWPW_YIFFASFYY_YLDAYNMMI_YLQPRTFLL_YLYALVYFL'
p8
g6
tp9
a(S'AEIRASANL_AELEGIQY_ALRANSAVK_ATEGALNTPK_EEHVQIHTI_EILDITPCSF_FCNDPFLGVY_FEYVSQPFL_FLLNKEMYL_FLLPSLATV_FLNRFTTTL_FLPRVFSAV_FLQSINFVR_FPNITNLCPF_FPPTSFGPL_FPQSAPHGV_FPRGQGVPI_FTNVYADSF_FTYASALWEI_FVDGVPFVV_GVYFASTEK_HVTFFIYNK_IPIQASLPF_IPRRNVATL_IPTNFTISV_ISDYDYYRY_ITLATCELY_ITLKKRWQL_KAYNVTQAF_KMQRMLLEK_KTFPPTEPK_KVSIWNLDY_LIIMRTFKV_LLYDANYFL_LSPRWYFYY_LTDEMIAQY_LYSPIFLIV_MGYINVFAF_MIELSLIDFY_MPASWVMRI_MTSCCSCLK_NSASFSTFK_NVFAFPFTIY_NYNYLYRLF_QELYSPIFL_QYIKWPWYI_RARSVSPKL_RIRGGDGKMK_RISNCVADY_RLFRKSNLK_RLYYDSMSY_RQLLFVVEV_RTFKVSIWNL_SIIAYTMSL_SINFVRIIMR_SPRWYFYYL_TLKSFTVEK_TMADLVYAL_TVYSHLLLV_VEHVTFFIY_VLWAHGFEL_VRFPNITNL_VSIWNLDYII_VTPSGTWLTY_VVYRGTTTY_VYFLQSINF_WTAGAAAYY_YEQYIKWPW_YIFFASFYY_YLDAYNMMI_YLQPRTFLL_YLYALVYFL'
p10
g3
(g5
S'-i\xfa\x9d\x12\x9b\xef?'
tRp11
tp12
a(S'AEIRASANL_AELEGIQY_ALRANSAVK_ATEGALNTPK_EEHVQIHTI_EILDITPCSF_FCNDPFLGVY_FEYVSQPFL_FLLNKEMYL_FLLPSLATV_FLNRFTTTL_FLPRVFSAV_FLQSINFVR_FPNITNLCPF_FPPTSFGPL_FPQSAPHGV_FPRGQGVPI_FTNVYADSF_FTYASALWEI_FVDGVPFVV_GVYFASTEK_HVTFFIYNK_IPIQASLPF_IPRRNVATL_IPTNFTISV_ISDYDYYRY_ITLATCELY_ITLKKRWQL_KAYNVTQAF_KMQRMLLEK_KQIYKTPPIK_KTFPPTEPK_KVSIWNLDY_LIIMRTFKV_LLYDANYFL_LSPRWYFYY_LTDEMIAQY_LYSPIFLIV_MGYINVFAF_MIELSLIDFY_MPASWVMRI_MTSCCSCLK_NSASFSTFK_NVFAFPFTIY_NYNYLYRLF_QELYSPIFL_QYIKWPWYI_RARSVSPKL_RISNCVADY_RLFRKSNLK_RLYYDSMSY_RQLLFVVEV_RTFKVSIWNL_SIIAYTMSL_SINFVRIIMR_SPRWYFYYL_TLKSFTVEK_TMADLVYAL_TVYSHLLLV_VEHVTFFIY_VLWAHGFEL_VRFPNITNL_VSIWNLDYII_VTPSGTWLTY_VVYRGTTTY_VYFLQSINF_WTAGAAAYY_YEQYIKWPW_YIFFASFYY_YLDAYNMMI_YLQPRTFLL_YLYALVYFL'
p13
g11
tp14
a(S'AEIRASANL_AELEGIQY_ALRANSAVK_EEHVQIHTI_EILDITPCSF_FEYVSQPFL_FLLNKEMYL_FLLPSLATV_FLNRFTTTL_FLPRVFSAV_FLQSINFVR_FPNITNLCPF_FPPTSFGPL_FPQSAPHGV_FPRGQGVPI_FTNVYADSF_FTYASALWEI_FVDGVPFVV_GVYFASTEK_HVTFFIYNK_ILLIIMRTFK_IPIQASLPF_IPRRNVATL_IPTNFTISV_ISDYDYYRY_ITLATCELY_ITLKKRWQL_KAYNVTQAF_KMQRMLLEK_KTFPPTEPK_KVSIWNLDY_LIIMRTFKV_LLYDANYFL_LNDLCFTNVY_LSPRWYFYY_LTDEMIAQY_LYSPIFLIV_MGYINVFAF_MPASWVMRI_MTSCCSCLK_NSASFSTFK_NVFAFPFTIY_NYNYLYRLF_QELYSPIFL_QLPQGTTLPK_QYIKWPWYI_RARSVSPKL_RISNCVADY_RLFRKSNLK_RLYYDSMSY_RQLLFVVEV_RTFKVSIWNL_SIIAYTMSL_SINFVRIIMR_SPRWYFYYL_SSPDDQIGYY_TLKSFTVEK_TMADLVYAL_TVYSHLLLV_VEHVTFFIY_VLWAHGFEL_VRFPNITNL_VSIWNLDYII_VTPSGTWLTY_VVYRGTTTY_VYFLQSINF_WTAGAAAYY_YEQYIKWPW_YIFFASFYY_YLDAYNMMI_YLQPRTFLL_YLYALVYFL'
p15
g3
(g5
S'W\xa0S\xca\xfe\x9a\xef?'
tRp16
tp17
a(S'AEIRASANL_AELEGIQY_ALRANSAVK_ATEGALNTPK_EEHVQIHTI_EILDITPCSF_FEYVSQPFL_FLLNKEMYL_FLLPSLATV_FLNRFTTTL_FLPRVFSAV_FLQSINFVR_FPNITNLCPF_FPPTSFGPL_FPQSAPHGV_FPRGQGVPI_FTNVYADSF_FTYASALWEI_FVDGVPFVV_GVYFASTEK_HVTFFIYNK_IPIQASLPF_IPRRNVATL_IPTNFTISV_ISDYDYYRY_ITLATCELY_ITLKKRWQL_KAYNVTQAF_KMQRMLLEK_KTFPPTEPK_KVSIWNLDY_LIIMRTFKV_LLYDANYFL_LNDLCFTNVY_LSPRWYFYY_LTDEMIAQY_LYSPIFLIV_MGYINVFAF_MPASWVMRI_MTSCCSCLK_NSASFSTFK_NVFAFPFTIY_NYNYLYRLF_QELYSPIFL_QLPQGTTLPK_QYIKWPWYI_RARSVSPKL_RISNCVADY_RLFRKSNLK_RLYYDSMSY_RQLLFVVEV_RTFKVSIWNL_SIIAYTMSL_SINFVRIIMR_SPRWYFYYL_SSPDDQIGYY_TLKSFTVEK_TMADLVYAL_TVYSHLLLV_VEHVTFFIY_VLWAHGFEL_VRFPNITNL_VSIWNLDYII_VTPSGTWLTY_VVYRGTTTY_VYFLQSINF_WTAGAAAYY_YEQYIKWPW_YIFFASFYY_YLDAYNMMI_YLQPRTFLL_YLYALVYFL'
p18
g3
(g5
S'W\xa0S\xca\xfe\x9a\xef?'
tRp19
tp20
a(S'AEIRASANL_AELEGIQY_ALRANSAVK_ATEGALNTPK_CNDPFLGVY_EEHVQIHTI_EILDITPCSF_FEYVSQPFL_FLLNKEMYL_FLLPSLATV_FLNRFTTTL_FLPRVFSAV_FLQSINFVR_FPNITNLCPF_FPPTSFGPL_FPQSAPHGV_FPRGQGVPI_FTNVYADSF_FTYASALWEI_FVDGVPFVV_GVYFASTEK_HVTFFIYNK_IPIQASLPF_IPRRNVATL_IPTNFTISV_ISDYDYYRY_ITLATCELY_ITLKKRWQL_KAYNVTQAF_KMQRMLLEK_KTFPPTEPK_KVSIWNLDY_LIIMRTFKV_LLYDANYFL_LSPRWYFYY_LTDEMIAQY_LYSPIFLIV_MGYINVFAF_MPASWVMRI_MTSCCSCLK_NSASFSTFK_NVFAFPFTIY_NYNYLYRLF_QELYSPIFL_QLPQGTTLPK_QYIKWPWYI_RARSVSPKL_RISNCVADY_RLFRKSNLK_RLYYDSMSY_RQLLFVVEV_RTFKVSIWNL_SIIAYTMSL_SINFVRIIMR_SPRWYFYYL_SSPDDQIGYY_TLKSFTVEK_TMADLVYAL_TVYSHLLLV_VEHVTFFIY_VLWAHGFEL_VRFPNITNL_VSIWNLDYII_VTPSGTWLTY_VVYRGTTTY_VYFLQSINF_WTAGAAAYY_YEQYIKWPW_YIFFASFYY_YLDAYNMMI_YLQPRTFLL_YLYALVYFL'
p21
g3
(g5
S'W\xa0S\xca\xfe\x9a\xef?'
tRp22
tp23
a(S'AEIRASANL_AELEGIQY_ALRANSAVK_ATEGALNTPK_CNDPFLGVY_EEHVQIHTI_EILDITPCSF_FEYVSQPFL_FLLNKEMYL_FLLPSLATV_FLNRFTTTL_FLPRVFSAV_FLQSINFVR_FPNITNLCPF_FPPTSFGPL_FPQSAPHGV_FPRGQGVPI_FTNVYADSF_FTYASALWEI_FVDGVPFVV_GVYFASTEK_HVTFFIYNK_IPIQASLPF_IPRRNVATL_IPTNFTISV_ISDYDYYRY_ITLATCELY_ITLKKRWQL_KAYNVTQAF_KMQRMLLEK_KTFPPTEPK_KVSIWNLDY_LIIMRTFKV_LLYDANYFL_LNDLCFTNVY_LSPRWYFYY_LTDEMIAQY_LYSPIFLIV_MGYINVFAF_MPASWVMRI_MTSCCSCLK_NSASFSTFK_NVFAFPFTIY_NYNYLYRLF_QELYSPIFL_QLPQGTTLPK_QYIKWPWYI_RARSVSPKL_RISNCVADY_RLFRKSNLK_RLYYDSMSY_RQLLFVVEV_RTFKVSIWNL_SIIAYTMSL_SINFVRIIMR_SPRWYFYYL_TLKSFTVEK_TMADLVYAL_TVYSHLLLV_VEHVTFFIY_VLWAHGFEL_VRFPNITNL_VSIWNLDYII_VTPSGTWLTY_VVYRGTTTY_VYFLQSINF_WTAGAAAYY_YEQYIKWPW_YIFFASFYY_YLDAYNMMI_YLQPRTFLL_YLYALVYFL'
p24
g3
(g5
S'W\xa0S\xca\xfe\x9a\xef?'
tRp25
tp26
a(S'AEIRASANL_AELEGIQY_ALRANSAVK_ATEGALNTPK_CNDPFLGVY_EEHVQIHTI_EILDITPCSF_FEYVSQPFL_FLLNKEMYL_FLLPSLATV_FLNRFTTTL_FLPRVFSAV_FLQSINFVR_FPNITNLCPF_FPPTSFGPL_FPQSAPHGV_FPRGQGVPI_FTNVYADSF_FTYASALWEI_FVDGVPFVV_GVYFASTEK_HVTFFIYNK_ILLIIMRTFK_IPIQASLPF_IPRRNVATL_IPTNFTISV_ISDYDYYRY_ITLATCELY_ITLKKRWQL_KAYNVTQAF_KMQRMLLEK_KTFPPTEPK_KVSIWNLDY_LIIMRTFKV_LLYDANYFL_LSPRWYFYY_LTDEMIAQY_LYSPIFLIV_MGYINVFAF_MPASWVMRI_MTSCCSCLK_NSASFSTFK_NVFAFPFTIY_NYNYLYRLF_QELYSPIFL_QYIKWPWYI_RARSVSPKL_RISNCVADY_RLFRKSNLK_RLYYDSMSY_RQLLFVVEV_RTFKVSIWNL_SIIAYTMSL_SINFVRIIMR_SPRWYFYYL_SSPDDQIGYY_TLKSFTVEK_TMADLVYAL_TVYSHLLLV_VEHVTFFIY_VLWAHGFEL_VRFPNITNL_VSIWNLDYII_VTPSGTWLTY_VVYRGTTTY_VYFLQSINF_WTAGAAAYY_YEQYIKWPW_YIFFASFYY_YLDAYNMMI_YLQPRTFLL_YLYALVYFL'
p27
g22
tp28
a(S'AEIRASANL_AELEGIQY_ALRANSAVK_ATEGALNTPK_CNDPFLGVY_EEHVQIHTI_EILDITPCSF_FEYVSQPFL_FLLNKEMYL_FLLPSLATV_FLNRFTTTL_FLPRVFSAV_FLQSINFVR_FPNITNLCPF_FPPTSFGPL_FPQSAPHGV_FPRGQGVPI_FTNVYADSF_FTYASALWEI_FVDGVPFVV_GVYFASTEK_HVTFFIYNK_ILLIIMRTFK_IPIQASLPF_IPRRNVATL_IPTNFTISV_ISDYDYYRY_ITLATCELY_ITLKKRWQL_KAYNVTQAF_KMQRMLLEK_KTFPPTEPK_KVSIWNLDY_LIIMRTFKV_LLYDANYFL_LNDLCFTNVY_LSPRWYFYY_LTDEMIAQY_LYSPIFLIV_MGYINVFAF_MPASWVMRI_MTSCCSCLK_NSASFSTFK_NVFAFPFTIY_NYNYLYRLF_QELYSPIFL_QYIKWPWYI_RARSVSPKL_RISNCVADY_RLFRKSNLK_RLYYDSMSY_RQLLFVVEV_RTFKVSIWNL_SIIAYTMSL_SINFVRIIMR_SPRWYFYYL_TLKSFTVEK_TMADLVYAL_TVYSHLLLV_VEHVTFFIY_VLWAHGFEL_VRFPNITNL_VSIWNLDYII_VTPSGTWLTY_VVYRGTTTY_VYFLQSINF_WTAGAAAYY_YEQYIKWPW_YIFFASFYY_YLDAYNMMI_YLQPRTFLL_YLYALVYFL'
p29
g25
tp30
a.