(lp1
(S'AEIRASANL_ALRANSAVK_FLNRFTTTL_FLPRVFSAV_FLQSINFVR_FPQSAPHGV_FPRGQGVPI_FTYASALWEI_FVDGVPFVV_HVTFFIYNK_IPRRNVATL_ISDYDYYRY_KTFPPTEPK_LLYDANYFL_LTDEMIAQY_MGYINVFAF_MPASWVMRI_NVFAFPFTIY_RARSVSPKL_SIIAYTMSL_SINFVRIIMR_SPRWYFYYL_TMADLVYAL_TVYSHLLLV_VRFPNITNL_YEQYIKWPW_YIFFASFYY_YLDAYNMMI_YLQPRTFLL_YLYALVYFL'
p2
cnumpy.core.multiarray
scalar
p3
(cnumpy
dtype
p4
(S'f8'
I0
I1
tRp5
(I3
S'<'
NNNI-1
I-1
I0
tbS'g\x1db\xd5H\xc0\xef?'
tRp6
tp7
a(S'AEIRASANL_ALRANSAVK_FLNRFTTTL_FLQSINFVR_FPQSAPHGV_FPRGQGVPI_FTYASALWEI_FVDGVPFVV_HVTFFIYNK_IPRRNVATL_ISDYDYYRY_KTFPPTEPK_LLYDANYFL_LTDEMIAQY_MGYINVFAF_MPASWVMRI_NVFAFPFTIY_RARSVSPKL_SIIAYTMSL_SINFVRIIMR_SPRWYFYYL_TMADLVYAL_TVYSHLLLV_VLWAHGFEL_VRFPNITNL_YEQYIKWPW_YIFFASFYY_YLDAYNMMI_YLQPRTFLL_YLYALVYFL'
p8
g3
(g5
S'o5\xf6&\xf4\xbf\xef?'
tRp9
tp10
a(S'AEIRASANL_ALRANSAVK_FLNRFTTTL_FLPRVFSAV_FLQSINFVR_FPQSAPHGV_FPRGQGVPI_FTYASALWEI_FVDGVPFVV_HVTFFIYNK_IPRRNVATL_ISDYDYYRY_KTFPPTEPK_LTDEMIAQY_MGYINVFAF_MPASWVMRI_NVFAFPFTIY_RARSVSPKL_SIIAYTMSL_SINFVRIIMR_SPRWYFYYL_TMADLVYAL_TVYSHLLLV_VLWAHGFEL_VRFPNITNL_YEQYIKWPW_YIFFASFYY_YLDAYNMMI_YLQPRTFLL_YLYALVYFL'
p11
g3
(g5
S'\tw\xe5\x98\xed\xbf\xef?'
tRp12
tp13
a(S'AEIRASANL_ALRANSAVK_FLLNKEMYL_FLNRFTTTL_FLQSINFVR_FPQSAPHGV_FPRGQGVPI_FTYASALWEI_FVDGVPFVV_HVTFFIYNK_IPRRNVATL_ISDYDYYRY_KTFPPTEPK_LLYDANYFL_LTDEMIAQY_MGYINVFAF_MPASWVMRI_NVFAFPFTIY_RARSVSPKL_SIIAYTMSL_SINFVRIIMR_SPRWYFYYL_TMADLVYAL_TVYSHLLLV_VRFPNITNL_YEQYIKWPW_YIFFASFYY_YLDAYNMMI_YLQPRTFLL_YLYALVYFL'
p14
g3
(g5
S'\xc7\xb0\xe4e\xd6\xbf\xef?'
tRp15
tp16
a(S'AEIRASANL_ALRANSAVK_FLLPSLATV_FLNRFTTTL_FLQSINFVR_FPQSAPHGV_FPRGQGVPI_FTYASALWEI_FVDGVPFVV_HVTFFIYNK_IPRRNVATL_ISDYDYYRY_KTFPPTEPK_LLYDANYFL_LTDEMIAQY_MGYINVFAF_MPASWVMRI_NVFAFPFTIY_RARSVSPKL_SIIAYTMSL_SINFVRIIMR_SPRWYFYYL_TMADLVYAL_TVYSHLLLV_VRFPNITNL_YEQYIKWPW_YIFFASFYY_YLDAYNMMI_YLQPRTFLL_YLYALVYFL'
p17
g3
(g5
S'\xd8\xea\xfa\x08\xb2\xbf\xef?'
tRp18
tp19
a(S'AEIRASANL_ALRANSAVK_FLNRFTTTL_FLPRVFSAV_FLQSINFVR_FPQSAPHGV_FPRGQGVPI_FTYASALWEI_FVDGVPFVV_HVTFFIYNK_IPRRNVATL_ISDYDYYRY_KTFPPTEPK_LLYDANYFL_LTDEMIAQY_MGYINVFAF_MPASWVMRI_NVFAFPFTIY_SIIAYTMSL_SINFVRIIMR_SPRWYFYYL_TLKSFTVEK_TMADLVYAL_TVYSHLLLV_VRFPNITNL_YEQYIKWPW_YIFFASFYY_YLDAYNMMI_YLQPRTFLL_YLYALVYFL'
p20
g3
(g5
S'\xb3\xf5s\x18\x89\xbf\xef?'
tRp21
tp22
a(S'AEIRASANL_ALRANSAVK_FLLPSLATV_FLNRFTTTL_FLPRVFSAV_FLQSINFVR_FPQSAPHGV_FPRGQGVPI_FTYASALWEI_FVDGVPFVV_HVTFFIYNK_IPRRNVATL_ISDYDYYRY_KTFPPTEPK_LTDEMIAQY_MGYINVFAF_MPASWVMRI_NVFAFPFTIY_RARSVSPKL_SIIAYTMSL_SINFVRIIMR_SPRWYFYYL_TMADLVYAL_TVYSHLLLV_VRFPNITNL_YEQYIKWPW_YIFFASFYY_YLDAYNMMI_YLQPRTFLL_YLYALVYFL'
p23
g3
(g5
S'\xc1_\x85\x12z\xbf\xef?'
tRp24
tp25
a(S'AEIRASANL_ALRANSAVK_FLNRFTTTL_FLPRVFSAV_FLQSINFVR_FPQSAPHGV_FPRGQGVPI_FTYASALWEI_FVDGVPFVV_HVTFFIYNK_IPRRNVATL_ISDYDYYRY_KTFPPTEPK_KVSIWNLDY_LLYDANYFL_LTDEMIAQY_MGYINVFAF_MPASWVMRI_NVFAFPFTIY_RARSVSPKL_SIIAYTMSL_SPRWYFYYL_TMADLVYAL_TVYSHLLLV_VRFPNITNL_YEQYIKWPW_YIFFASFYY_YLDAYNMMI_YLQPRTFLL_YLYALVYFL'
p26
g3
(g5
S'\x11\r!\xe8o\xbf\xef?'
tRp27
tp28
a(S'AEIRASANL_ALRANSAVK_FEYVSQPFL_FLNRFTTTL_FLPRVFSAV_FLQSINFVR_FPQSAPHGV_FPRGQGVPI_FTYASALWEI_FVDGVPFVV_HVTFFIYNK_IPRRNVATL_ISDYDYYRY_KTFPPTEPK_LLYDANYFL_LTDEMIAQY_MGYINVFAF_MPASWVMRI_NVFAFPFTIY_RARSVSPKL_SIIAYTMSL_SPRWYFYYL_TMADLVYAL_TVYSHLLLV_VRFPNITNL_YEQYIKWPW_YIFFASFYY_YLDAYNMMI_YLQPRTFLL_YLYALVYFL'
p29
g3
(g5
S'\xc0\xadW\xb4g\xbf\xef?'
tRp30
tp31
a(S'AEIRASANL_ALRANSAVK_FLNRFTTTL_FLPRVFSAV_FLQSINFVR_FPQSAPHGV_FTYASALWEI_FVDGVPFVV_HVTFFIYNK_IPRRNVATL_ISDYDYYRY_KTFPPTEPK_LLYDANYFL_LTDEMIAQY_MGYINVFAF_MPASWVMRI_NVFAFPFTIY_RARSVSPKL_RLFRKSNLK_SIIAYTMSL_SINFVRIIMR_SPRWYFYYL_TMADLVYAL_TVYSHLLLV_VRFPNITNL_YEQYIKWPW_YIFFASFYY_YLDAYNMMI_YLQPRTFLL_YLYALVYFL'
p32
g3
(g5
S'\xa5)"\x1b\x13\xbf\xef?'
tRp33
tp34
a.