(lp1
(S'AEIRASANL_ALRANSAVK_FLNRFTTTL_FPQSAPHGV_FVDGVPFVV_HVTFFIYNK_KTFPPTEPK_SIIAYTMSL_SPRWYFYYL_TMADLVYAL_VRFPNITNL_YEQYIKWPW_YLQPRTFLL'
p2
cnumpy.core.multiarray
scalar
p3
(cnumpy
dtype
p4
(S'f8'
I0
I1
tRp5
(I3
S'<'
NNNI-1
I-1
I0
tbS'\xd1\x0c\xc4\xf7\x04\xde\xef?'
tRp6
tp7
a(S'AEIRASANL_ALRANSAVK_FLNRFTTTL_FPQSAPHGV_FVDGVPFVV_KTFPPTEPK_MTSCCSCLK_SIIAYTMSL_SPRWYFYYL_TMADLVYAL_VRFPNITNL_YEQYIKWPW_YLQPRTFLL'
p8
g3
(g5
S'\x00\xc4\xb8e\x01\xde\xef?'
tRp9
tp10
a(S'AEIRASANL_ALRANSAVK_FLNRFTTTL_FPQSAPHGV_FVDGVPFVV_HVTFFIYNK_KTFPPTEPK_LLYDANYFL_SIIAYTMSL_SPRWYFYYL_VRFPNITNL_YEQYIKWPW_YLQPRTFLL'
p11
g3
(g5
S'XdP\x83\xf0\xdd\xef?'
tRp12
tp13
a(S'AEIRASANL_AELEGIQY_ALRANSAVK_FLNRFTTTL_FPQSAPHGV_FVDGVPFVV_HVTFFIYNK_KTFPPTEPK_SIIAYTMSL_SPRWYFYYL_TMADLVYAL_VRFPNITNL_YLQPRTFLL'
p14
g3
(g5
S']\x08\x02\xf2\xd9\xdd\xef?'
tRp15
tp16
a(S'AEIRASANL_ALRANSAVK_FLNRFTTTL_FPQSAPHGV_FVDGVPFVV_HVTFFIYNK_KTFPPTEPK_SIIAYTMSL_SPRWYFYYL_TMADLVYAL_VEHVTFFIY_VRFPNITNL_YLQPRTFLL'
p17
g3
(g5
S'\x00\n\xa4\xd9\xd9\xdd\xef?'
tRp18
tp19
a(S'AEIRASANL_AELEGIQY_ALRANSAVK_FLNRFTTTL_FPQSAPHGV_FVDGVPFVV_KTFPPTEPK_MTSCCSCLK_SIIAYTMSL_SPRWYFYYL_TMADLVYAL_VRFPNITNL_YLQPRTFLL'
p20
g3
(g5
S'\x8d\xbf\xf6_\xd6\xdd\xef?'
tRp21
tp22
a(S'AEIRASANL_ALRANSAVK_FLNRFTTTL_FPQSAPHGV_FVDGVPFVV_KTFPPTEPK_MTSCCSCLK_SIIAYTMSL_SPRWYFYYL_TMADLVYAL_VEHVTFFIY_VRFPNITNL_YLQPRTFLL'
p23
g3
(g5
S'\xa5k[v\xd4\xdd\xef?'
tRp24
tp25
a(S'AEIRASANL_ALRANSAVK_FLNRFTTTL_FPQSAPHGV_HVTFFIYNK_KTFPPTEPK_LTDEMIAQY_NVFAFPFTIY_SIIAYTMSL_SPRWYFYYL_TMADLVYAL_TVYSHLLLV_YLQPRTFLL'
p26
g3
(g5
S'\x1f\xd3?@\xcd\xdd\xef?'
tRp27
tp28
a(S'AEIRASANL_ALRANSAVK_FLNRFTTTL_FPQSAPHGV_HVTFFIYNK_KTFPPTEPK_LTDEMIAQY_SIIAYTMSL_SPRWYFYYL_TMADLVYAL_TVYSHLLLV_YEQYIKWPW_YLQPRTFLL'
p29
g3
(g5
S'mi\xb5{\xc9\xdd\xef?'
tRp30
tp31
a(S'AEIRASANL_ALRANSAVK_FLNRFTTTL_FPQSAPHGV_KTFPPTEPK_LTDEMIAQY_MTSCCSCLK_NVFAFPFTIY_SIIAYTMSL_SPRWYFYYL_TMADLVYAL_TVYSHLLLV_YLQPRTFLL'
p32
g3
(g5
S'\x80\xdc\xbe\x9d\xc6\xdd\xef?'
tRp33
tp34
a.