(lp1
(S'AEIRASANL_ALRANSAVK_FLNRFTTTL_FPQSAPHGV_FVDGVPFVV_HVTFFIYNK_KTFPPTEPK_SIIAYTMSL_SPRWYFYYL_TMADLVYAL_VRFPNITNL_YLQPRTFLL'
p2
cnumpy.core.multiarray
scalar
p3
(cnumpy
dtype
p4
(S'f8'
I0
I1
tRp5
(I3
S'<'
NNNI-1
I-1
I0
tbS'\xfb\x95\x165\xb5\xd8\xef?'
tRp6
tp7
a(S'AEIRASANL_ALRANSAVK_FLNRFTTTL_FPQSAPHGV_FVDGVPFVV_KTFPPTEPK_MTSCCSCLK_SIIAYTMSL_SPRWYFYYL_TMADLVYAL_VRFPNITNL_YLQPRTFLL'
p8
g3
(g5
S'-M\x0b\xa3\xb1\xd8\xef?'
tRp9
tp10
a(S'AEIRASANL_ALRANSAVK_FLNRFTTTL_FPQSAPHGV_FVDGVPFVV_HVTFFIYNK_KTFPPTEPK_LLYDANYFL_SIIAYTMSL_SPRWYFYYL_VRFPNITNL_YLQPRTFLL'
p11
g3
(g5
S'\x87\xcdh\xe3\x8b\xd8\xef?'
tRp12
tp13
a(S'ALRANSAVK_FLNRFTTTL_FPQSAPHGV_FVDGVPFVV_HVTFFIYNK_KTFPPTEPK_SIIAYTMSL_SPRWYFYYL_TMADLVYAL_VRFPNITNL_YEQYIKWPW_YLQPRTFLL'
p14
g3
(g5
S'\x8c\x0c\xc3\xb1\x8a\xd8\xef?'
tRp15
tp16
a(S'ALRANSAVK_FLNRFTTTL_FPQSAPHGV_FVDGVPFVV_KTFPPTEPK_MTSCCSCLK_SIIAYTMSL_SPRWYFYYL_TMADLVYAL_VRFPNITNL_YEQYIKWPW_YLQPRTFLL'
p17
g3
(g5
S'\xd7)\x7f\xf2\x83\xd8\xef?'
tRp18
tp19
a(S'ALRANSAVK_FEYVSQPFL_FLNRFTTTL_FPQSAPHGV_HVTFFIYNK_KTFPPTEPK_LTDEMIAQY_SIIAYTMSL_SPRWYFYYL_TMADLVYAL_VRFPNITNL_YLQPRTFLL'
p20
g3
(g5
S'\r\x83\xfb\xa8\x83\xd8\xef?'
tRp21
tp22
a(S'AEIRASANL_ALRANSAVK_FLNRFTTTL_FPQSAPHGV_HVTFFIYNK_KTFPPTEPK_LTDEMIAQY_SIIAYTMSL_SPRWYFYYL_TMADLVYAL_TVYSHLLLV_YLQPRTFLL'
p23
g3
(g5
S'\\\xd8\xe8\x0e}\xd8\xef?'
tRp24
tp25
a(S'ALRANSAVK_FEYVSQPFL_FLNRFTTTL_FPQSAPHGV_KTFPPTEPK_LTDEMIAQY_MTSCCSCLK_SIIAYTMSL_SPRWYFYYL_TMADLVYAL_VRFPNITNL_YLQPRTFLL'
p26
g3
(g5
S'\x00y\x8d\xfey\xd8\xef?'
tRp27
tp28
a(S'ALRANSAVK_FEYVSQPFL_FLNRFTTTL_FPQSAPHGV_HVTFFIYNK_KTFPPTEPK_LTDEMIAQY_SIIAYTMSL_SPRWYFYYL_TMADLVYAL_TVYSHLLLV_YLQPRTFLL'
p29
g3
(g5
S'\x88\xde*4y\xd8\xef?'
tRp30
tp31
a(S'AEIRASANL_ALRANSAVK_FLNRFTTTL_FPQSAPHGV_KTFPPTEPK_LTDEMIAQY_MTSCCSCLK_SIIAYTMSL_SPRWYFYYL_TMADLVYAL_TVYSHLLLV_YLQPRTFLL'
p32
g3
(g5
S'(\xd9\xe0Wx\xd8\xef?'
tRp33
tp34
a.