(lp1
(S'IITLKKRWQLALSKGVHFV_PSDFVRATATIPIQASLPF_RWYFYYLGTGPEAGLPYGA_SRTLSYYKLGASQRVAGDS_TITSGWTFGAGAALQIPFA_TYTGAIKLDDKDPNFKDQV_VTQQLIRAAEIRASANLAA_YLYALVYFLQSINFVRIIM'
p2
cnumpy.core.multiarray
scalar
p3
(cnumpy
dtype
p4
(S'f8'
I0
I1
tRp5
(I3
S'<'
NNNI-1
I-1
I0
tbS'\xc3\xf0\x97\xb4\xc7X\xed?'
tRp6
tp7
a(S'IITLKKRWQLALSKGVHFV_PSDFVRATATIPIQASLPF_RWYFYYLGTGPEAGLPYGA_SRTLSYYKLGASQRVAGDS_TAPAICHDGKAHFPREGVF_TITSGWTFGAGAALQIPFA_VTQQLIRAAEIRASANLAA_YLYALVYFLQSINFVRIIM'
p8
g3
(g5
S'\xc3\xf0\x97\xb4\xc7X\xed?'
tRp9
tp10
a(S'HQPYVVDDPCPIHFYSKWYI_IITLKKRWQLALSKGVHFV_PSDFVRATATIPIQASLPF_RWYFYYLGTGPEAGLPYGA_SRTLSYYKLGASQRVAGDS_TITSGWTFGAGAALQIPFA_VTQQLIRAAEIRASANLAA_YLYALVYFLQSINFVRIIM'
p11
g3
(g5
S'\xc3\xf0\x97\xb4\xc7X\xed?'
tRp12
tp13
a(S'GAISSVLNDILSRLDKVEA_IITLKKRWQLALSKGVHFV_PSDFVRATATIPIQASLPF_RWYFYYLGTGPEAGLPYGA_SRTLSYYKLGASQRVAGDS_TITSGWTFGAGAALQIPFA_VTQQLIRAAEIRASANLAA_YLYALVYFLQSINFVRIIM'
p14
g3
(g5
S'\xc0\xf0\x97\xb4\xc7X\xed?'
tRp15
tp16
a(S'GAISSVLNDILSRLDKVEA_IITLKKRWQLALSKGVHFV_PSDFVRATATIPIQASLPF_RWYFYYLGTGPEAGLPYGA_TITSGWTFGAGAALQIPFA_TYTGAIKLDDKDPNFKDQV_VTQQLIRAAEIRASANLAA_YLYALVYFLQSINFVRIIM'
p17
g3
(g5
S'\xb1\xa8f\xfa{(\xed?'
tRp18
tp19
a(S'GAISSVLNDILSRLDKVEA_IITLKKRWQLALSKGVHFV_PSDFVRATATIPIQASLPF_RWYFYYLGTGPEAGLPYGA_TAPAICHDGKAHFPREGVF_TITSGWTFGAGAALQIPFA_VTQQLIRAAEIRASANLAA_YLYALVYFLQSINFVRIIM'
p20
g3
(g5
S'\xb1\xa8f\xfa{(\xed?'
tRp21
tp22
a(S'GAISSVLNDILSRLDKVEA_HQPYVVDDPCPIHFYSKWYI_IITLKKRWQLALSKGVHFV_PSDFVRATATIPIQASLPF_RWYFYYLGTGPEAGLPYGA_TITSGWTFGAGAALQIPFA_VTQQLIRAAEIRASANLAA_YLYALVYFLQSINFVRIIM'
p23
g3
(g5
S'\xb1\xa8f\xfa{(\xed?'
tRp24
tp25
a(S'HQPYVVDDPCPIHFYSKWYI_IITLKKRWQLALSKGVHFV_PSDFVRATATIPIQASLPF_RWYFYYLGTGPEAGLPYGA_TITSGWTFGAGAALQIPFA_TYTGAIKLDDKDPNFKDQV_VTQQLIRAAEIRASANLAA_YLYALVYFLQSINFVRIIM'
p26
g3
(g5
S'\xb0\xa8f\xfa{(\xed?'
tRp27
tp28
a(S'HQPYVVDDPCPIHFYSKWYI_IITLKKRWQLALSKGVHFV_PSDFVRATATIPIQASLPF_RWYFYYLGTGPEAGLPYGA_TAPAICHDGKAHFPREGVF_TITSGWTFGAGAALQIPFA_VTQQLIRAAEIRASANLAA_YLYALVYFLQSINFVRIIM'
p29
g3
(g5
S'\xb0\xa8f\xfa{(\xed?'
tRp30
tp31
a(S'IITLKKRWQLALSKGVHFV_PSDFVRATATIPIQASLPF_RWYFYYLGTGPEAGLPYGA_TAPAICHDGKAHFPREGVF_TITSGWTFGAGAALQIPFA_TYTGAIKLDDKDPNFKDQV_VTQQLIRAAEIRASANLAA_YLYALVYFLQSINFVRIIM'
p32
g3
(g5
S'\xaf\xa8f\xfa{(\xed?'
tRp33
tp34
a.