(lp1
(S'RWYFYYLGTGPEAGLPYGA_VTQQLIRAAEIRASANLAA'
p2
cnumpy.core.multiarray
scalar
p3
(cnumpy
dtype
p4
(S'f8'
I0
I1
tRp5
(I3
S'<'
NNNI-1
I-1
I0
tbS'\xacx}zD\xb8\xef?'
tRp6
tp7
a(S'FCTQLNRALTGIAVEQDKN_RWYFYYLGTGPEAGLPYGA'
p8
g3
(g5
S'\x8c\xe3\x91\xfc*\xae\xef?'
tRp9
tp10
a(S'GVFVSNGTHWFVTQRNFYE_RWYFYYLGTGPEAGLPYGA'
p11
g3
(g5
S's_4N#\xa2\xef?'
tRp12
tp13
a(S'FNPETNILLNVPLHGTILT_RWYFYYLGTGPEAGLPYGA'
p14
g3
(g5
S's_4N#\xa2\xef?'
tRp15
tp16
a(S'DQVILLNKHIDAYKTFPPT_RWYFYYLGTGPEAGLPYGA'
p17
g3
(g5
S's_4N#\xa2\xef?'
tRp18
tp19
a(S'DKNTQEVFAQVKQIYKTPP_RWYFYYLGTGPEAGLPYGA'
p20
g3
(g5
S's_4N#\xa2\xef?'
tRp21
tp22
a(S'PSDFVRATATIPIQASLPF_RWYFYYLGTGPEAGLPYGA'
p23
g3
(g5
S'q_4N#\xa2\xef?'
tRp24
tp25
a(S'NAQALNTLVKQLSSNFGAI_RWYFYYLGTGPEAGLPYGA'
p26
g3
(g5
S'q_4N#\xa2\xef?'
tRp27
tp28
a(S'DGVKHVYQLRARSVSPKLFI_RWYFYYLGTGPEAGLPYGA'
p29
g3
(g5
S'q_4N#\xa2\xef?'
tRp30
tp31
a(S'AYANRNRFLYIIKLIFLWL_RWYFYYLGTGPEAGLPYGA'
p32
g3
(g5
S'q_4N#\xa2\xef?'
tRp33
tp34
a.