(lp1
(S'AEIRASANLAATKMSECVL_AVFQSASKIITLKKRWQLA_DFGGFNFSQILPDPSKPSK_DGVKHVYQLRARSVSPKLFI_DLLFNKVTLADAGFIKQYG_DNKFALTCFSTQFAFACPDG_DQVILLNKHIDAYKTFPPT_ENQKLIANQFNSAIGKIQD_FCTQLNRALTGIAVEQDKN_FNPETNILLNVPLHGTILT_GAGAALQIPFAMQMAYRFN_GAISSVLNDILSRLDKVEA_HQPYVVDDPCPIHFYSKWYI_IITLKKRWQLALSKGVHFV_IQDSLSSTASALGKLQDVV_LICAQKFNGLTVLPPLLTD_LTDEMIAQYTSALLAGTIT_MDLFMRIFTIGTVTLKQGE_MWLSYFIASFRLFARTRSM_NGGDAALALLLLDRLNQLE_PKEITVATSRTLSYYKLGA_PRQKRTATKAYNVTQAFGR_PSDFVRATATIPIQASLPF_PSKRSFIEDLLFNKVTLAD_RQKKQQTVTLLPAADLDDF_RWYFYYLGTGPEAGLPYGA_SELVIGAVILRGHLRIAGH_SRTLSYYKLGASQRVAGDS_SYFTSDYYQLYSTQLSTDT_TAPAICHDGKAHFPREGVF_TITSGWTFGAGAALQIPFA_TYTGAIKLDDKDPNFKDQV_VEAEVQIDRLITGRLQSLQ_VFLHVTYVPAQEKNFTTAP_VKDCVVLHSYFTSDYYQLY_VTQQLIRAAEIRASANLAA_YGANKDGIIWVATEGALNT_YLYALVYFLQSINFVRIIM'
p2
cnumpy.core.multiarray
scalar
p3
(cnumpy
dtype
p4
(S'f8'
I0
I1
tRp5
(I3
S'<'
NNNI-1
I-1
I0
tbS'\xfbj\xc56\x1bJ\xea?'
tRp6
tp7
a(S'AEIRASANLAATKMSECVL_AVFQSASKIITLKKRWQLA_AYANRNRFLYIIKLIFLWL_DGVKHVYQLRARSVSPKLFI_DLLFNKVTLADAGFIKQYG_DNKFALTCFSTQFAFACPDG_DQVILLNKHIDAYKTFPPT_ENQKLIANQFNSAIGKIQD_FCTQLNRALTGIAVEQDKN_FNPETNILLNVPLHGTILT_GAGAALQIPFAMQMAYRFN_GAISSVLNDILSRLDKVEA_HQPYVVDDPCPIHFYSKWYI_IITLKKRWQLALSKGVHFV_IQDSLSSTASALGKLQDVV_LICAQKFNGLTVLPPLLTD_LTDEMIAQYTSALLAGTIT_MDLFMRIFTIGTVTLKQGE_MWLSYFIASFRLFARTRSM_NGGDAALALLLLDRLNQLE_PKEITVATSRTLSYYKLGA_PRQKRTATKAYNVTQAFGR_PSDFVRATATIPIQASLPF_PSKRSFIEDLLFNKVTLAD_RQKKQQTVTLLPAADLDDF_RWYFYYLGTGPEAGLPYGA_SELVIGAVILRGHLRIAGH_SRTLSYYKLGASQRVAGDS_SYFTSDYYQLYSTQLSTDT_TAPAICHDGKAHFPREGVF_TITSGWTFGAGAALQIPFA_TYTGAIKLDDKDPNFKDQV_VEAEVQIDRLITGRLQSLQ_VFLHVTYVPAQEKNFTTAP_VKDCVVLHSYFTSDYYQLY_VTQQLIRAAEIRASANLAA_YGANKDGIIWVATEGALNT_YLYALVYFLQSINFVRIIM'
p8
g3
(g5
S'\xf9j\xc56\x1bJ\xea?'
tRp9
tp10
a(S'AEIRASANLAATKMSECVL_AVFQSASKIITLKKRWQLA_AYANRNRFLYIIKLIFLWL_DGVKHVYQLRARSVSPKLFI_DLLFNKVTLADAGFIKQYG_DNKFALTCFSTQFAFACPDG_DQVILLNKHIDAYKTFPPT_ENQKLIANQFNSAIGKIQD_FCTQLNRALTGIAVEQDKN_FNPETNILLNVPLHGTILT_GAGAALQIPFAMQMAYRFN_GAISSVLNDILSRLDKVEA_HQPYVVDDPCPIHFYSKWYI_IITLKKRWQLALSKGVHFV_IQDSLSSTASALGKLQDVV_LICAQKFNGLTVLPPLLTD_LTDEMIAQYTSALLAGTIT_MDLFMRIFTIGTVTLKQGE_MWLSYFIASFRLFARTRSM_NGGDAALALLLLDRLNQLE_PKEITVATSRTLSYYKLGA_PRQKRTATKAYNVTQAFGR_PSDFVRATATIPIQASLPF_PSKRSFIEDLLFNKVTLAD_RQKKQQTVTLLPAADLDDF_RWYFYYLGTGPEAGLPYGA_SELVIGAVILRGHLRIAGH_SRTLSYYKLGASQRVAGDS_SYFTSDYYQLYSTQLSTDT_TAPAICHDGKAHFPREGVF_TITSGWTFGAGAALQIPFA_TYTGAIKLDDKDPNFKDQV_VEAEVQIDRLITGRLQSLQ_VFLHVTYVPAQEKNFTTAP_VKDCVVLHSYFTSDYYQLY_VKQLSSNFGAISSVLNDIL_VTQQLIRAAEIRASANLAA_YLYALVYFLQSINFVRIIM'
p11
g3
(g5
S'\xf9j\xc56\x1bJ\xea?'
tRp12
tp13
a(S'AEIRASANLAATKMSECVL_ANNAAIVLQLPQGTTLPKG_AVFQSASKIITLKKRWQLA_DFGGFNFSQILPDPSKPSK_DGVKHVYQLRARSVSPKLFI_DLLFNKVTLADAGFIKQYG_DNKFALTCFSTQFAFACPDG_DQVILLNKHIDAYKTFPPT_ENQKLIANQFNSAIGKIQD_FCTQLNRALTGIAVEQDKN_FNPETNILLNVPLHGTILT_GAGAALQIPFAMQMAYRFN_GAISSVLNDILSRLDKVEA_HQPYVVDDPCPIHFYSKWYI_IITLKKRWQLALSKGVHFV_IQDSLSSTASALGKLQDVV_LICAQKFNGLTVLPPLLTD_LTDEMIAQYTSALLAGTIT_MDLFMRIFTIGTVTLKQGE_MWLSYFIASFRLFARTRSM_NGGDAALALLLLDRLNQLE_PKEITVATSRTLSYYKLGA_PRQKRTATKAYNVTQAFGR_PSDFVRATATIPIQASLPF_PSKRSFIEDLLFNKVTLAD_RWYFYYLGTGPEAGLPYGA_SELVIGAVILRGHLRIAGH_SRTLSYYKLGASQRVAGDS_SYFTSDYYQLYSTQLSTDT_TAPAICHDGKAHFPREGVF_TITSGWTFGAGAALQIPFA_TYTGAIKLDDKDPNFKDQV_VEAEVQIDRLITGRLQSLQ_VFLHVTYVPAQEKNFTTAP_VKDCVVLHSYFTSDYYQLY_VTQQLIRAAEIRASANLAA_YGANKDGIIWVATEGALNT_YLYALVYFLQSINFVRIIM'
p14
g3
(g5
S'\xf9j\xc56\x1bJ\xea?'
tRp15
tp16
a(S'AEIRASANLAATKMSECVL_AVFQSASKIITLKKRWQLA_DFGGFNFSQILPDPSKPSK_DGVKHVYQLRARSVSPKLFI_DHIGTRNPANNAAIVLQLP_DNKFALTCFSTQFAFACPDG_DQVILLNKHIDAYKTFPPT_ENQKLIANQFNSAIGKIQD_FCTQLNRALTGIAVEQDKN_FNPETNILLNVPLHGTILT_GAGAALQIPFAMQMAYRFN_GAISSVLNDILSRLDKVEA_HQPYVVDDPCPIHFYSKWYI_IITLKKRWQLALSKGVHFV_IQDSLSSTASALGKLQDVV_LICAQKFNGLTVLPPLLTD_LTDEMIAQYTSALLAGTIT_MDLFMRIFTIGTVTLKQGE_MWLSYFIASFRLFARTRSM_NGGDAALALLLLDRLNQLE_PKEITVATSRTLSYYKLGA_PRQKRTATKAYNVTQAFGR_PSDFVRATATIPIQASLPF_PSKRSFIEDLLFNKVTLAD_RQKKQQTVTLLPAADLDDF_RWYFYYLGTGPEAGLPYGA_SELVIGAVILRGHLRIAGH_SRTLSYYKLGASQRVAGDS_SYFTSDYYQLYSTQLSTDT_TAPAICHDGKAHFPREGVF_TITSGWTFGAGAALQIPFA_TYTGAIKLDDKDPNFKDQV_VEAEVQIDRLITGRLQSLQ_VFLHVTYVPAQEKNFTTAP_VKDCVVLHSYFTSDYYQLY_VTQQLIRAAEIRASANLAA_YGANKDGIIWVATEGALNT_YLYALVYFLQSINFVRIIM'
p17
g3
(g5
S'\xf8j\xc56\x1bJ\xea?'
tRp18
tp19
a(S'AEIRASANLAATKMSECVL_AVFQSASKIITLKKRWQLA_DFGGFNFSQILPDPSKPSK_DGVKHVYQLRARSVSPKLFI_DHIGTRNPANNAAIVLQLP_DLLFNKVTLADAGFIKQYG_DNKFALTCFSTQFAFACPDG_DQVILLNKHIDAYKTFPPT_ENQKLIANQFNSAIGKIQD_FCTQLNRALTGIAVEQDKN_FNPETNILLNVPLHGTILT_GAGAALQIPFAMQMAYRFN_GAISSVLNDILSRLDKVEA_HQPYVVDDPCPIHFYSKWYI_IITLKKRWQLALSKGVHFV_IQDSLSSTASALGKLQDVV_LICAQKFNGLTVLPPLLTD_LTDEMIAQYTSALLAGTIT_MDLFMRIFTIGTVTLKQGE_MWLSYFIASFRLFARTRSM_NGGDAALALLLLDRLNQLE_PKEITVATSRTLSYYKLGA_PRQKRTATKAYNVTQAFGR_PSDFVRATATIPIQASLPF_PSKRSFIEDLLFNKVTLAD_RWYFYYLGTGPEAGLPYGA_SELVIGAVILRGHLRIAGH_SRTLSYYKLGASQRVAGDS_SYFTSDYYQLYSTQLSTDT_TAPAICHDGKAHFPREGVF_TITSGWTFGAGAALQIPFA_TYTGAIKLDDKDPNFKDQV_VEAEVQIDRLITGRLQSLQ_VFLHVTYVPAQEKNFTTAP_VKDCVVLHSYFTSDYYQLY_VTQQLIRAAEIRASANLAA_YGANKDGIIWVATEGALNT_YLYALVYFLQSINFVRIIM'
p20
g3
(g5
S'\xf8j\xc56\x1bJ\xea?'
tRp21
tp22
a(S'AEIRASANLAATKMSECVL_AVFQSASKIITLKKRWQLA_AYANRNRFLYIIKLIFLWL_DGVKHVYQLRARSVSPKLFI_DNKFALTCFSTQFAFACPDG_DQVILLNKHIDAYKTFPPT_ENQKLIANQFNSAIGKIQD_FCTQLNRALTGIAVEQDKN_FNPETNILLNVPLHGTILT_GAGAALQIPFAMQMAYRFN_GAISSVLNDILSRLDKVEA_HQPYVVDDPCPIHFYSKWYI_IITLKKRWQLALSKGVHFV_IQDSLSSTASALGKLQDVV_LICAQKFNGLTVLPPLLTD_LTDEMIAQYTSALLAGTIT_MDLFMRIFTIGTVTLKQGE_MWLSYFIASFRLFARTRSM_NGGDAALALLLLDRLNQLE_PKEITVATSRTLSYYKLGA_PRQKRTATKAYNVTQAFGR_PSDFVRATATIPIQASLPF_PSKRSFIEDLLFNKVTLAD_RQKKQQTVTLLPAADLDDF_RWYFYYLGTGPEAGLPYGA_SELVIGAVILRGHLRIAGH_SRTLSYYKLGASQRVAGDS_SYFTSDYYQLYSTQLSTDT_TAPAICHDGKAHFPREGVF_TITSGWTFGAGAALQIPFA_TYTGAIKLDDKDPNFKDQV_VEAEVQIDRLITGRLQSLQ_VFLHVTYVPAQEKNFTTAP_VKDCVVLHSYFTSDYYQLY_VKQLSSNFGAISSVLNDIL_VTQQLIRAAEIRASANLAA_YGANKDGIIWVATEGALNT_YLYALVYFLQSINFVRIIM'
p23
g3
(g5
S'\xf8j\xc56\x1bJ\xea?'
tRp24
tp25
a(S'AEIRASANLAATKMSECVL_ANNAAIVLQLPQGTTLPKG_AVFQSASKIITLKKRWQLA_DFGGFNFSQILPDPSKPSK_DGVKHVYQLRARSVSPKLFI_DNKFALTCFSTQFAFACPDG_DQVILLNKHIDAYKTFPPT_ENQKLIANQFNSAIGKIQD_FCTQLNRALTGIAVEQDKN_FNPETNILLNVPLHGTILT_GAGAALQIPFAMQMAYRFN_GAISSVLNDILSRLDKVEA_HQPYVVDDPCPIHFYSKWYI_IITLKKRWQLALSKGVHFV_IQDSLSSTASALGKLQDVV_LICAQKFNGLTVLPPLLTD_LTDEMIAQYTSALLAGTIT_MDLFMRIFTIGTVTLKQGE_MWLSYFIASFRLFARTRSM_NGGDAALALLLLDRLNQLE_PKEITVATSRTLSYYKLGA_PRQKRTATKAYNVTQAFGR_PSDFVRATATIPIQASLPF_PSKRSFIEDLLFNKVTLAD_RQKKQQTVTLLPAADLDDF_RWYFYYLGTGPEAGLPYGA_SELVIGAVILRGHLRIAGH_SRTLSYYKLGASQRVAGDS_SYFTSDYYQLYSTQLSTDT_TAPAICHDGKAHFPREGVF_TITSGWTFGAGAALQIPFA_TYTGAIKLDDKDPNFKDQV_VEAEVQIDRLITGRLQSLQ_VFLHVTYVPAQEKNFTTAP_VKDCVVLHSYFTSDYYQLY_VTQQLIRAAEIRASANLAA_YGANKDGIIWVATEGALNT_YLYALVYFLQSINFVRIIM'
p26
g3
(g5
S'\xf8j\xc56\x1bJ\xea?'
tRp27
tp28
a(S'AEIRASANLAATKMSECVL_AVFQSASKIITLKKRWQLA_DFGGFNFSQILPDPSKPSK_DGVKHVYQLRARSVSPKLFI_DNKFALTCFSTQFAFACPDG_DQVILLNKHIDAYKTFPPT_ENQKLIANQFNSAIGKIQD_FCTQLNRALTGIAVEQDKN_FNPETNILLNVPLHGTILT_GAGAALQIPFAMQMAYRFN_GAISSVLNDILSRLDKVEA_HQPYVVDDPCPIHFYSKWYI_IITLKKRWQLALSKGVHFV_IQDSLSSTASALGKLQDVV_LICAQKFNGLTVLPPLLTD_LTDEMIAQYTSALLAGTIT_MDLFMRIFTIGTVTLKQGE_MWLSYFIASFRLFARTRSM_NGGDAALALLLLDRLNQLE_PKEITVATSRTLSYYKLGA_PRQKRTATKAYNVTQAFGR_PSDFVRATATIPIQASLPF_PSKRSFIEDLLFNKVTLAD_RQKKQQTVTLLPAADLDDF_RWYFYYLGTGPEAGLPYGA_SELVIGAVILRGHLRIAGH_SRTLSYYKLGASQRVAGDS_SYFTSDYYQLYSTQLSTDT_TAPAICHDGKAHFPREGVF_TITSGWTFGAGAALQIPFA_TYTGAIKLDDKDPNFKDQV_VEAEVQIDRLITGRLQSLQ_VFLHVTYVPAQEKNFTTAP_VKDCVVLHSYFTSDYYQLY_VKQLSSNFGAISSVLNDIL_VTQQLIRAAEIRASANLAA_YGANKDGIIWVATEGALNT_YLYALVYFLQSINFVRIIM'
p29
g3
(g5
S'\xf7j\xc56\x1bJ\xea?'
tRp30
tp31
a(S'AEIRASANLAATKMSECVL_AVFQSASKIITLKKRWQLA_DFGGFNFSQILPDPSKPSK_DGVKHVYQLRARSVSPKLFI_DLLFNKVTLADAGFIKQYG_DNKFALTCFSTQFAFACPDG_DQVILLNKHIDAYKTFPPT_ENQKLIANQFNSAIGKIQD_FCTQLNRALTGIAVEQDKN_FNPETNILLNVPLHGTILT_GAGAALQIPFAMQMAYRFN_GAISSVLNDILSRLDKVEA_HQPYVVDDPCPIHFYSKWYI_IITLKKRWQLALSKGVHFV_IQDSLSSTASALGKLQDVV_LICAQKFNGLTVLPPLLTD_LTDEMIAQYTSALLAGTIT_MDLFMRIFTIGTVTLKQGE_MWLSYFIASFRLFARTRSM_NGGDAALALLLLDRLNQLE_PKEITVATSRTLSYYKLGA_PRQKRTATKAYNVTQAFGR_PSDFVRATATIPIQASLPF_PSKRSFIEDLLFNKVTLAD_RQKKQQTVTLLPAADLDDF_RWYFYYLGTGPEAGLPYGA_SELVIGAVILRGHLRIAGH_SRTLSYYKLGASQRVAGDS_SYFTSDYYQLYSTQLSTDT_TAPAICHDGKAHFPREGVF_TITSGWTFGAGAALQIPFA_TYTGAIKLDDKDPNFKDQV_VEAEVQIDRLITGRLQSLQ_VFLHVTYVPAQEKNFTTAP_VKDCVVLHSYFTSDYYQLY_VKQLSSNFGAISSVLNDIL_VTQQLIRAAEIRASANLAA_YLYALVYFLQSINFVRIIM'
p32
g3
(g5
S'\xf7j\xc56\x1bJ\xea?'
tRp33
tp34
a.