(lp1
(S'AEIRASANLAATKMSECVL_AVFQSASKIITLKKRWQLA_AYANRNRFLYIIKLIFLWL_DFGGFNFSQILPDPSKPSK_DGVKHVYQLRARSVSPKLFI_DHIGTRNPANNAAIVLQLP_DLLFNKVTLADAGFIKQYG_DNKFALTCFSTQFAFACPDG_DQVILLNKHIDAYKTFPPT_ENQKLIANQFNSAIGKIQD_FCTQLNRALTGIAVEQDKN_FNPETNILLNVPLHGTILT_GAGAALQIPFAMQMAYRFN_GAISSVLNDILSRLDKVEA_GVFVSNGTHWFVTQRNFYE_HQPYVVDDPCPIHFYSKWYI_IIMRTFKVSIWNLDYIINL_IITLKKRWQLALSKGVHFV_IQDSLSSTASALGKLQDVV_LICAQKFNGLTVLPPLLTD_LTDEMIAQYTSALLAGTIT_MDLFMRIFTIGTVTLKQGE_MWLSYFIASFRLFARTRSM_NGGDAALALLLLDRLNQLE_PKEITVATSRTLSYYKLGA_PRQKRTATKAYNVTQAFGR_PSDFVRATATIPIQASLPF_PSKRSFIEDLLFNKVTLAD_RQKKQQTVTLLPAADLDDF_RWYFYYLGTGPEAGLPYGA_SELVIGAVILRGHLRIAGH_SFRLFARTRSMWSFNPETN_SRTLSYYKLGASQRVAGDS_SYFTSDYYQLYSTQLSTDT_TAPAICHDGKAHFPREGVF_TITSGWTFGAGAALQIPFA_TYTGAIKLDDKDPNFKDQV_VEAEVQIDRLITGRLQSLQ_VFLHVTYVPAQEKNFTTAP_VKDCVVLHSYFTSDYYQLY_VKQLSSNFGAISSVLNDIL_VTQQLIRAAEIRASANLAA_YGANKDGIIWVATEGALNT_YLYALVYFLQSINFVRIIM'
p2
cnumpy.core.multiarray
scalar
p3
(cnumpy
dtype
p4
(S'f8'
I0
I1
tRp5
(I3
S'<'
NNNI-1
I-1
I0
tbS'\x90\xd7@+\xc3\xe6\xe9?'
tRp6
tp7
a(S'AEIRASANLAATKMSECVL_ANNAAIVLQLPQGTTLPKG_AVFQSASKIITLKKRWQLA_AYANRNRFLYIIKLIFLWL_DFGGFNFSQILPDPSKPSK_DGVKHVYQLRARSVSPKLFI_DLLFNKVTLADAGFIKQYG_DNKFALTCFSTQFAFACPDG_DQVILLNKHIDAYKTFPPT_ENQKLIANQFNSAIGKIQD_FCTQLNRALTGIAVEQDKN_FNPETNILLNVPLHGTILT_GAGAALQIPFAMQMAYRFN_GAISSVLNDILSRLDKVEA_GVFVSNGTHWFVTQRNFYE_HQPYVVDDPCPIHFYSKWYI_IIMRTFKVSIWNLDYIINL_IITLKKRWQLALSKGVHFV_IQDSLSSTASALGKLQDVV_LICAQKFNGLTVLPPLLTD_LTDEMIAQYTSALLAGTIT_MDLFMRIFTIGTVTLKQGE_MWLSYFIASFRLFARTRSM_NGGDAALALLLLDRLNQLE_PKEITVATSRTLSYYKLGA_PRQKRTATKAYNVTQAFGR_PSDFVRATATIPIQASLPF_PSKRSFIEDLLFNKVTLAD_RQKKQQTVTLLPAADLDDF_RWYFYYLGTGPEAGLPYGA_SELVIGAVILRGHLRIAGH_SFRLFARTRSMWSFNPETN_SRTLSYYKLGASQRVAGDS_SYFTSDYYQLYSTQLSTDT_TAPAICHDGKAHFPREGVF_TITSGWTFGAGAALQIPFA_TYTGAIKLDDKDPNFKDQV_VEAEVQIDRLITGRLQSLQ_VFLHVTYVPAQEKNFTTAP_VKDCVVLHSYFTSDYYQLY_VKQLSSNFGAISSVLNDIL_VTQQLIRAAEIRASANLAA_YGANKDGIIWVATEGALNT_YLYALVYFLQSINFVRIIM'
p8
g3
(g5
S'\x90\xd7@+\xc3\xe6\xe9?'
tRp9
tp10
a(S'AEIRASANLAATKMSECVL_ANNAAIVLQLPQGTTLPKG_AVFQSASKIITLKKRWQLA_AYANRNRFLYIIKLIFLWL_DFGGFNFSQILPDPSKPSK_DGVKHVYQLRARSVSPKLFI_DHIGTRNPANNAAIVLQLP_DNKFALTCFSTQFAFACPDG_DQVILLNKHIDAYKTFPPT_ENQKLIANQFNSAIGKIQD_FCTQLNRALTGIAVEQDKN_FNPETNILLNVPLHGTILT_GAGAALQIPFAMQMAYRFN_GAISSVLNDILSRLDKVEA_GVFVSNGTHWFVTQRNFYE_HQPYVVDDPCPIHFYSKWYI_IIMRTFKVSIWNLDYIINL_IITLKKRWQLALSKGVHFV_IQDSLSSTASALGKLQDVV_LICAQKFNGLTVLPPLLTD_LTDEMIAQYTSALLAGTIT_MDLFMRIFTIGTVTLKQGE_MWLSYFIASFRLFARTRSM_NGGDAALALLLLDRLNQLE_PKEITVATSRTLSYYKLGA_PRQKRTATKAYNVTQAFGR_PSDFVRATATIPIQASLPF_PSKRSFIEDLLFNKVTLAD_RQKKQQTVTLLPAADLDDF_RWYFYYLGTGPEAGLPYGA_SELVIGAVILRGHLRIAGH_SFRLFARTRSMWSFNPETN_SRTLSYYKLGASQRVAGDS_SYFTSDYYQLYSTQLSTDT_TAPAICHDGKAHFPREGVF_TITSGWTFGAGAALQIPFA_TYTGAIKLDDKDPNFKDQV_VEAEVQIDRLITGRLQSLQ_VFLHVTYVPAQEKNFTTAP_VKDCVVLHSYFTSDYYQLY_VKQLSSNFGAISSVLNDIL_VTQQLIRAAEIRASANLAA_YGANKDGIIWVATEGALNT_YLYALVYFLQSINFVRIIM'
p11
g3
(g5
S'\x90\xd7@+\xc3\xe6\xe9?'
tRp12
tp13
a(S'AEIRASANLAATKMSECVL_ANNAAIVLQLPQGTTLPKG_AVFQSASKIITLKKRWQLA_AYANRNRFLYIIKLIFLWL_DFGGFNFSQILPDPSKPSK_DGVKHVYQLRARSVSPKLFI_DHIGTRNPANNAAIVLQLP_DLLFNKVTLADAGFIKQYG_DNKFALTCFSTQFAFACPDG_DQVILLNKHIDAYKTFPPT_ENQKLIANQFNSAIGKIQD_FCTQLNRALTGIAVEQDKN_FNPETNILLNVPLHGTILT_GAGAALQIPFAMQMAYRFN_GAISSVLNDILSRLDKVEA_GVFVSNGTHWFVTQRNFYE_HQPYVVDDPCPIHFYSKWYI_IIMRTFKVSIWNLDYIINL_IITLKKRWQLALSKGVHFV_IQDSLSSTASALGKLQDVV_LICAQKFNGLTVLPPLLTD_LTDEMIAQYTSALLAGTIT_MDLFMRIFTIGTVTLKQGE_MWLSYFIASFRLFARTRSM_NGGDAALALLLLDRLNQLE_PKEITVATSRTLSYYKLGA_PRQKRTATKAYNVTQAFGR_PSDFVRATATIPIQASLPF_PSKRSFIEDLLFNKVTLAD_RWYFYYLGTGPEAGLPYGA_SELVIGAVILRGHLRIAGH_SFRLFARTRSMWSFNPETN_SRTLSYYKLGASQRVAGDS_SYFTSDYYQLYSTQLSTDT_TAPAICHDGKAHFPREGVF_TITSGWTFGAGAALQIPFA_TYTGAIKLDDKDPNFKDQV_VEAEVQIDRLITGRLQSLQ_VFLHVTYVPAQEKNFTTAP_VKDCVVLHSYFTSDYYQLY_VKQLSSNFGAISSVLNDIL_VTQQLIRAAEIRASANLAA_YGANKDGIIWVATEGALNT_YLYALVYFLQSINFVRIIM'
p14
g3
(g5
S'\x8f\xd7@+\xc3\xe6\xe9?'
tRp15
tp16
a(S'AEIRASANLAATKMSECVL_ANNAAIVLQLPQGTTLPKG_AVFQSASKIITLKKRWQLA_AYANRNRFLYIIKLIFLWL_DFGGFNFSQILPDPSKPSK_DGVKHVYQLRARSVSPKLFI_DHIGTRNPANNAAIVLQLP_DLLFNKVTLADAGFIKQYG_DNKFALTCFSTQFAFACPDG_DQVILLNKHIDAYKTFPPT_ENQKLIANQFNSAIGKIQD_FCTQLNRALTGIAVEQDKN_FNPETNILLNVPLHGTILT_GAGAALQIPFAMQMAYRFN_GAISSVLNDILSRLDKVEA_GVFVSNGTHWFVTQRNFYE_HQPYVVDDPCPIHFYSKWYI_IIMRTFKVSIWNLDYIINL_IITLKKRWQLALSKGVHFV_IQDSLSSTASALGKLQDVV_LICAQKFNGLTVLPPLLTD_LTDEMIAQYTSALLAGTIT_MDLFMRIFTIGTVTLKQGE_MWLSYFIASFRLFARTRSM_NGGDAALALLLLDRLNQLE_PKEITVATSRTLSYYKLGA_PRQKRTATKAYNVTQAFGR_PSDFVRATATIPIQASLPF_PSKRSFIEDLLFNKVTLAD_RQKKQQTVTLLPAADLDDF_RWYFYYLGTGPEAGLPYGA_SELVIGAVILRGHLRIAGH_SFRLFARTRSMWSFNPETN_SRTLSYYKLGASQRVAGDS_SYFTSDYYQLYSTQLSTDT_TAPAICHDGKAHFPREGVF_TITSGWTFGAGAALQIPFA_TYTGAIKLDDKDPNFKDQV_VEAEVQIDRLITGRLQSLQ_VFLHVTYVPAQEKNFTTAP_VKDCVVLHSYFTSDYYQLY_VKQLSSNFGAISSVLNDIL_VTQQLIRAAEIRASANLAA_YLYALVYFLQSINFVRIIM'
p17
g3
(g5
S'\x8f\xd7@+\xc3\xe6\xe9?'
tRp18
tp19
a(S'AEIRASANLAATKMSECVL_AVFQSASKIITLKKRWQLA_AYANRNRFLYIIKLIFLWL_DFGGFNFSQILPDPSKPSK_DGVKHVYQLRARSVSPKLFI_DHIGTRNPANNAAIVLQLP_DLLFNKVTLADAGFIKQYG_DNKFALTCFSTQFAFACPDG_DQVILLNKHIDAYKTFPPT_EHVTFFIYNKIVDEPEEHV_ENQKLIANQFNSAIGKIQD_FCTQLNRALTGIAVEQDKN_FNPETNILLNVPLHGTILT_GAGAALQIPFAMQMAYRFN_GAISSVLNDILSRLDKVEA_HQPYVVDDPCPIHFYSKWYI_IIMRTFKVSIWNLDYIINL_IITLKKRWQLALSKGVHFV_IQDSLSSTASALGKLQDVV_LICAQKFNGLTVLPPLLTD_LTDEMIAQYTSALLAGTIT_MDLFMRIFTIGTVTLKQGE_MWLSYFIASFRLFARTRSM_NGGDAALALLLLDRLNQLE_PKEITVATSRTLSYYKLGA_PRQKRTATKAYNVTQAFGR_PSDFVRATATIPIQASLPF_PSKRSFIEDLLFNKVTLAD_RQKKQQTVTLLPAADLDDF_RWYFYYLGTGPEAGLPYGA_SELVIGAVILRGHLRIAGH_SFRLFARTRSMWSFNPETN_SRTLSYYKLGASQRVAGDS_SYFTSDYYQLYSTQLSTDT_TAPAICHDGKAHFPREGVF_TITSGWTFGAGAALQIPFA_TYTGAIKLDDKDPNFKDQV_VEAEVQIDRLITGRLQSLQ_VFLHVTYVPAQEKNFTTAP_VKDCVVLHSYFTSDYYQLY_VKQLSSNFGAISSVLNDIL_VTQQLIRAAEIRASANLAA_YGANKDGIIWVATEGALNT_YLYALVYFLQSINFVRIIM'
p20
g3
(g5
S'\x8d\xd7@+\xc3\xe6\xe9?'
tRp21
tp22
a(S'AEIRASANLAATKMSECVL_ANNAAIVLQLPQGTTLPKG_AVFQSASKIITLKKRWQLA_AYANRNRFLYIIKLIFLWL_DFGGFNFSQILPDPSKPSK_DGVKHVYQLRARSVSPKLFI_DLLFNKVTLADAGFIKQYG_DNKFALTCFSTQFAFACPDG_DQVILLNKHIDAYKTFPPT_EHVTFFIYNKIVDEPEEHV_ENQKLIANQFNSAIGKIQD_FCTQLNRALTGIAVEQDKN_FNPETNILLNVPLHGTILT_GAGAALQIPFAMQMAYRFN_GAISSVLNDILSRLDKVEA_HQPYVVDDPCPIHFYSKWYI_IIMRTFKVSIWNLDYIINL_IITLKKRWQLALSKGVHFV_IQDSLSSTASALGKLQDVV_LICAQKFNGLTVLPPLLTD_LTDEMIAQYTSALLAGTIT_MDLFMRIFTIGTVTLKQGE_MWLSYFIASFRLFARTRSM_NGGDAALALLLLDRLNQLE_PKEITVATSRTLSYYKLGA_PRQKRTATKAYNVTQAFGR_PSDFVRATATIPIQASLPF_PSKRSFIEDLLFNKVTLAD_RQKKQQTVTLLPAADLDDF_RWYFYYLGTGPEAGLPYGA_SELVIGAVILRGHLRIAGH_SFRLFARTRSMWSFNPETN_SRTLSYYKLGASQRVAGDS_SYFTSDYYQLYSTQLSTDT_TAPAICHDGKAHFPREGVF_TITSGWTFGAGAALQIPFA_TYTGAIKLDDKDPNFKDQV_VEAEVQIDRLITGRLQSLQ_VFLHVTYVPAQEKNFTTAP_VKDCVVLHSYFTSDYYQLY_VKQLSSNFGAISSVLNDIL_VTQQLIRAAEIRASANLAA_YGANKDGIIWVATEGALNT_YLYALVYFLQSINFVRIIM'
p23
g3
(g5
S'\x8d\xd7@+\xc3\xe6\xe9?'
tRp24
tp25
a(S'AEIRASANLAATKMSECVL_ANNAAIVLQLPQGTTLPKG_AVFQSASKIITLKKRWQLA_AYANRNRFLYIIKLIFLWL_DFGGFNFSQILPDPSKPSK_DGVKHVYQLRARSVSPKLFI_DHIGTRNPANNAAIVLQLP_DLLFNKVTLADAGFIKQYG_DNKFALTCFSTQFAFACPDG_DQVILLNKHIDAYKTFPPT_ENQKLIANQFNSAIGKIQD_FCTQLNRALTGIAVEQDKN_FNPETNILLNVPLHGTILT_GAGAALQIPFAMQMAYRFN_GAISSVLNDILSRLDKVEA_GVFVSNGTHWFVTQRNFYE_HQPYVVDDPCPIHFYSKWYI_IIMRTFKVSIWNLDYIINL_IITLKKRWQLALSKGVHFV_IQDSLSSTASALGKLQDVV_LICAQKFNGLTVLPPLLTD_LTDEMIAQYTSALLAGTIT_MDLFMRIFTIGTVTLKQGE_MWLSYFIASFRLFARTRSM_NGGDAALALLLLDRLNQLE_PKEITVATSRTLSYYKLGA_PRQKRTATKAYNVTQAFGR_PSDFVRATATIPIQASLPF_PSKRSFIEDLLFNKVTLAD_RQKKQQTVTLLPAADLDDF_RWYFYYLGTGPEAGLPYGA_SELVIGAVILRGHLRIAGH_SFRLFARTRSMWSFNPETN_SRTLSYYKLGASQRVAGDS_SYFTSDYYQLYSTQLSTDT_TAPAICHDGKAHFPREGVF_TITSGWTFGAGAALQIPFA_TYTGAIKLDDKDPNFKDQV_VEAEVQIDRLITGRLQSLQ_VFLHVTYVPAQEKNFTTAP_VKDCVVLHSYFTSDYYQLY_VTQQLIRAAEIRASANLAA_YGANKDGIIWVATEGALNT_YLYALVYFLQSINFVRIIM'
p26
g3
(g5
S'\x8d\xd7@+\xc3\xe6\xe9?'
tRp27
tp28
a(S'AEIRASANLAATKMSECVL_AVFQSASKIITLKKRWQLA_AYANRNRFLYIIKLIFLWL_DFGGFNFSQILPDPSKPSK_DGVKHVYQLRARSVSPKLFI_DHIGTRNPANNAAIVLQLP_DLLFNKVTLADAGFIKQYG_DNKFALTCFSTQFAFACPDG_DQVILLNKHIDAYKTFPPT_EHVTFFIYNKIVDEPEEHV_ENQKLIANQFNSAIGKIQD_FCTQLNRALTGIAVEQDKN_FNPETNILLNVPLHGTILT_GAGAALQIPFAMQMAYRFN_GAISSVLNDILSRLDKVEA_GVFVSNGTHWFVTQRNFYE_HQPYVVDDPCPIHFYSKWYI_IIMRTFKVSIWNLDYIINL_IITLKKRWQLALSKGVHFV_IQDSLSSTASALGKLQDVV_LICAQKFNGLTVLPPLLTD_LTDEMIAQYTSALLAGTIT_MDLFMRIFTIGTVTLKQGE_MWLSYFIASFRLFARTRSM_NGGDAALALLLLDRLNQLE_PKEITVATSRTLSYYKLGA_PRQKRTATKAYNVTQAFGR_PSDFVRATATIPIQASLPF_PSKRSFIEDLLFNKVTLAD_RQKKQQTVTLLPAADLDDF_RWYFYYLGTGPEAGLPYGA_SELVIGAVILRGHLRIAGH_SFRLFARTRSMWSFNPETN_SRTLSYYKLGASQRVAGDS_SYFTSDYYQLYSTQLSTDT_TAPAICHDGKAHFPREGVF_TITSGWTFGAGAALQIPFA_TYTGAIKLDDKDPNFKDQV_VEAEVQIDRLITGRLQSLQ_VFLHVTYVPAQEKNFTTAP_VKDCVVLHSYFTSDYYQLY_VTQQLIRAAEIRASANLAA_YGANKDGIIWVATEGALNT_YLYALVYFLQSINFVRIIM'
p29
g3
(g5
S'0\x06\x9e\x80l\xe0\xe9?'
tRp30
tp31
a(S'AEIRASANLAATKMSECVL_ANNAAIVLQLPQGTTLPKG_AVFQSASKIITLKKRWQLA_AYANRNRFLYIIKLIFLWL_DFGGFNFSQILPDPSKPSK_DGVKHVYQLRARSVSPKLFI_DLLFNKVTLADAGFIKQYG_DNKFALTCFSTQFAFACPDG_DQVILLNKHIDAYKTFPPT_EHVTFFIYNKIVDEPEEHV_ENQKLIANQFNSAIGKIQD_FCTQLNRALTGIAVEQDKN_FNPETNILLNVPLHGTILT_GAGAALQIPFAMQMAYRFN_GAISSVLNDILSRLDKVEA_GVFVSNGTHWFVTQRNFYE_HQPYVVDDPCPIHFYSKWYI_IIMRTFKVSIWNLDYIINL_IITLKKRWQLALSKGVHFV_IQDSLSSTASALGKLQDVV_LICAQKFNGLTVLPPLLTD_LTDEMIAQYTSALLAGTIT_MDLFMRIFTIGTVTLKQGE_MWLSYFIASFRLFARTRSM_NGGDAALALLLLDRLNQLE_PKEITVATSRTLSYYKLGA_PRQKRTATKAYNVTQAFGR_PSDFVRATATIPIQASLPF_PSKRSFIEDLLFNKVTLAD_RQKKQQTVTLLPAADLDDF_RWYFYYLGTGPEAGLPYGA_SELVIGAVILRGHLRIAGH_SFRLFARTRSMWSFNPETN_SRTLSYYKLGASQRVAGDS_SYFTSDYYQLYSTQLSTDT_TAPAICHDGKAHFPREGVF_TITSGWTFGAGAALQIPFA_TYTGAIKLDDKDPNFKDQV_VEAEVQIDRLITGRLQSLQ_VFLHVTYVPAQEKNFTTAP_VKDCVVLHSYFTSDYYQLY_VTQQLIRAAEIRASANLAA_YGANKDGIIWVATEGALNT_YLYALVYFLQSINFVRIIM'
p32
g3
(g5
S'0\x06\x9e\x80l\xe0\xe9?'
tRp33
tp34
a.