(lp1
(S'FCTQLNRALTGIAVEQDKN_RWYFYYLGTGPEAGLPYGA_VTQQLIRAAEIRASANLAA'
p2
cnumpy.core.multiarray
scalar
p3
(cnumpy
dtype
p4
(S'f8'
I0
I1
tRp5
(I3
S'<'
NNNI-1
I-1
I0
tbS'gR\xd9A\xa6\xc2\xef?'
tRp6
tp7
a(S'PRQKRTATKAYNVTQAFGR_RWYFYYLGTGPEAGLPYGA_VTQQLIRAAEIRASANLAA'
p8
g3
(g5
S'\xadx}zD\xb8\xef?'
tRp9
tp10
a(S'EHVTFFIYNKIVDEPEEHV_RWYFYYLGTGPEAGLPYGA_VTQQLIRAAEIRASANLAA'
p11
g3
(g5
S'\xadx}zD\xb8\xef?'
tRp12
tp13
a(S'DKNTQEVFAQVKQIYKTPP_RWYFYYLGTGPEAGLPYGA_VTQQLIRAAEIRASANLAA'
p14
g3
(g5
S'\xadx}zD\xb8\xef?'
tRp15
tp16
a(S'DGVKHVYQLRARSVSPKLFI_RWYFYYLGTGPEAGLPYGA_VTQQLIRAAEIRASANLAA'
p17
g3
(g5
S'\xadx}zD\xb8\xef?'
tRp18
tp19
a(S'RWYFYYLGTGPEAGLPYGA_VTQQLIRAAEIRASANLAA_YSHLLLVAAGLEAPFLYLY'
p20
g3
(g5
S'\xacx}zD\xb8\xef?'
tRp21
tp22
a(S'RWYFYYLGTGPEAGLPYGA_VTQQLIRAAEIRASANLAA_YLYALVYFLQSINFVRIIM'
p23
g3
(g5
S'\xacx}zD\xb8\xef?'
tRp24
tp25
a(S'RWYFYYLGTGPEAGLPYGA_TSPARMAGNGGDAALALLL_VTQQLIRAAEIRASANLAA'
p26
g3
(g5
S'\xacx}zD\xb8\xef?'
tRp27
tp28
a(S'RWYFYYLGTGPEAGLPYGA_STQFAFACPDGVKHVYQLRA_VTQQLIRAAEIRASANLAA'
p29
g3
(g5
S'\xacx}zD\xb8\xef?'
tRp30
tp31
a(S'RWYFYYLGTGPEAGLPYGA_SPKLFIRQEEVQELYSPIFL_VTQQLIRAAEIRASANLAA'
p32
g3
(g5
S'\xacx}zD\xb8\xef?'
tRp33
tp34
a.