(lp1
(S'FCTQLNRALTGIAVEQDKN_PSDFVRATATIPIQASLPF_RWYFYYLGTGPEAGLPYGA_VTQQLIRAAEIRASANLAA'
p2
cnumpy.core.multiarray
scalar
p3
(cnumpy
dtype
p4
(S'f8'
I0
I1
tRp5
(I3
S'<'
NNNI-1
I-1
I0
tbS'\xf3\xc8\x80"\'\xc7\xee?'
tRp6
tp7
a(S'FCTQLNRALTGIAVEQDKN_RWYFYYLGTGPEAGLPYGA_TITSGWTFGAGAALQIPFA_VTQQLIRAAEIRASANLAA'
p8
g3
(g5
S'\xf1\xc8\x80"\'\xc7\xee?'
tRp9
tp10
a(S'FCTQLNRALTGIAVEQDKN_RWYFYYLGTGPEAGLPYGA_SRTLSYYKLGASQRVAGDS_VTQQLIRAAEIRASANLAA'
p11
g3
(g5
S'\xef\xc8\x80"\'\xc7\xee?'
tRp12
tp13
a(S'FCTQLNRALTGIAVEQDKN_IITLKKRWQLALSKGVHFV_RWYFYYLGTGPEAGLPYGA_VTQQLIRAAEIRASANLAA'
p14
g3
(g5
S'\xed\xc8\x80"\'\xc7\xee?'
tRp15
tp16
a(S'RWYFYYLGTGPEAGLPYGA_SRTLSYYKLGASQRVAGDS_VTQQLIRAAEIRASANLAA_YLYALVYFLQSINFVRIIM'
p17
g3
(g5
S'h\xd6\xda\xd3\xad\xb8\xee?'
tRp18
tp19
a(S'RWYFYYLGTGPEAGLPYGA_TITSGWTFGAGAALQIPFA_TSPARMAGNGGDAALALLL_VTQQLIRAAEIRASANLAA'
p20
g3
(g5
S'e\xd6\xda\xd3\xad\xb8\xee?'
tRp21
tp22
a(S'RWYFYYLGTGPEAGLPYGA_SPKLFIRQEEVQELYSPIFL_TITSGWTFGAGAALQIPFA_VTQQLIRAAEIRASANLAA'
p23
g3
(g5
S'e\xd6\xda\xd3\xad\xb8\xee?'
tRp24
tp25
a(S'PSDFVRATATIPIQASLPF_RWYFYYLGTGPEAGLPYGA_VTQQLIRAAEIRASANLAA_YSHLLLVAAGLEAPFLYLY'
p26
g3
(g5
S'e\xd6\xda\xd3\xad\xb8\xee?'
tRp27
tp28
a(S'PRQKRTATKAYNVTQAFGR_RWYFYYLGTGPEAGLPYGA_SRTLSYYKLGASQRVAGDS_VTQQLIRAAEIRASANLAA'
p29
g3
(g5
S'e\xd6\xda\xd3\xad\xb8\xee?'
tRp30
tp31
a(S'IITLKKRWQLALSKGVHFV_RWYFYYLGTGPEAGLPYGA_VTQQLIRAAEIRASANLAA_YLYALVYFLQSINFVRIIM'
p32
g3
(g5
S'e\xd6\xda\xd3\xad\xb8\xee?'
tRp33
tp34
a.