(lp1
(VITQMNLKYAISAKNRARTVA_KHFYWFFSNYLKRRV_VRKIFVDGVPFVVST
p2
cnumpy.core.multiarray
scalar
p3
(cnumpy
dtype
p4
(S'f8'
I0
I1
tRp5
(I3
S'<'
NNNI-1
I-1
I0
tbS";\xba\xea'\xbf{\xef?"
tRp6
tp7
a(VKHFYWFFSNYLKRRV_TQMNLKYAISAKNRARTVAG_VRKIFVDGVPFVVST
p8
g3
(g5
S'\xdc\x14\xe2\xd5\xad{\xef?'
tRp9
tp10
a(VKHFYWFFSNYLKRRV_TITQMNLKYAISAKNRARTV_VRKIFVDGVPFVVST
p11
g3
(g5
S'[\x14\xe2\xd5\xad{\xef?'
tRp12
tp13
a(VKHFYWFFSNYLKRRV_PTITQMNLKYAISAKNRART_VRKIFVDGVPFVVST
p14
g3
(g5
S'\x98\xd0\x8a]\x10{\xef?'
tRp15
tp16
a(VIPTITQMNLKYAISAKNRAR_KHFYWFFSNYLKRRV_VRKIFVDGVPFVVST
p17
g3
(g5
S'5\x0cr\r\x0cz\xef?'
tRp18
tp19
a.