(lp1
(VCTFEYVSQPFLMDLE_DISASIVAGGIVAIVV_DTDFVNEFYAYLRKHFSMMI_FKSVLYYQNNVFMSE_KHFYWFFSNYLKRRV_LNRNYVFTGYRVTKNSKVQI_PIGALDISASIVAGGIVAIV_QESPFVMMSAPPAQY_QMNLKYAISAKNRARTVAGV_QWLTNIFGTVYEKLK_SFRLFARTRSMWSFN_STQEFRYMNSQGLLP_TITQMNLKYAISAKNRARTV_TQQLIRAAEIRASANL_TYRRLISMMGFKMNY_VASIKNFKSVLYYQNNVFMS_VDTDFVNEFYAYLRK_VEAEVQIDRLITGRLQSLQ_VRKIFVDGVPFVVST
p2
cnumpy.core.multiarray
scalar
p3
(cnumpy
dtype
p4
(S'f8'
I0
I1
tRp5
(I3
S'<'
NNNI-1
I-1
I0
tbS'\x11\x1d\xbf\xc2\x8b/\xef?'
tRp6
tp7
a(VCTFEYVSQPFLMDLE_DISASIVAGGIVAIVV_DTDFVNEFYAYLRKHFSMMI_FKSVLYYQNNVFMSE_GALDISASIVAGGIV_KHFYWFFSNYLKRRV_LNRNYVFTGYRVTKNSKVQI_QESPFVMMSAPPAQY_QMNLKYAISAKNRARTVAGV_QWLTNIFGTVYEKLK_SFRLFARTRSMWSFN_STQEFRYMNSQGLLP_TITQMNLKYAISAKNRARTV_TQQLIRAAEIRASANL_TYRRLISMMGFKMNY_VASIKNFKSVLYYQNNVFMS_VDTDFVNEFYAYLRK_VEAEVQIDRLITGRLQSLQ_VRKIFVDGVPFVVST
p8
g3
(g5
S'\x11\x1d\xbf\xc2\x8b/\xef?'
tRp9
tp10
a(VCTFEYVSQPFLMDLE_DISASIVAGGIVAIVV_DTDFVNEFYAYLRKHFSMMI_FKSVLYYQNNVFMSE_GALDISASIVAGGIVA_KHFYWFFSNYLKRRV_LNRNYVFTGYRVTKNSKVQI_QESPFVMMSAPPAQY_QMNLKYAISAKNRARTVAGV_QWLTNIFGTVYEKLK_SFRLFARTRSMWSFN_STQEFRYMNSQGLLP_TITQMNLKYAISAKNRARTV_TQQLIRAAEIRASANL_TYRRLISMMGFKMNY_VASIKNFKSVLYYQNNVFMS_VDTDFVNEFYAYLRK_VEAEVQIDRLITGRLQSLQ_VRKIFVDGVPFVVST
p11
g3
(g5
S'\x11\x1d\xbf\xc2\x8b/\xef?'
tRp12
tp13
a(VCTFEYVSQPFLMDLE_DISASIVAGGIVAIVV_DTDFVNEFYAYLRKHFSMMI_KHFYWFFSNYLKRRV_KSVLYYQNNVFMSEA_LNRNYVFTGYRVTKNSKVQI_PIGALDISASIVAGGIVAIV_QESPFVMMSAPPAQY_QMNLKYAISAKNRARTVAGV_QWLTNIFGTVYEKLK_SFRLFARTRSMWSFN_STQEFRYMNSQGLLP_TITQMNLKYAISAKNRARTV_TQQLIRAAEIRASANL_TYRRLISMMGFKMNY_VASIKNFKSVLYYQNNVFMS_VDTDFVNEFYAYLRK_VEAEVQIDRLITGRLQSLQ_VRKIFVDGVPFVVST
p14
g3
(g5
S'\x10\x1d\xbf\xc2\x8b/\xef?'
tRp15
tp16
a(VCTFEYVSQPFLMDLE_DISASIVAGGIVAIVV_DTDFVNEFYAYLRKHFSMMI_GALDISASIVAGGIV_KHFYWFFSNYLKRRV_KSVLYYQNNVFMSEA_LNRNYVFTGYRVTKNSKVQI_QESPFVMMSAPPAQY_QMNLKYAISAKNRARTVAGV_QWLTNIFGTVYEKLK_SFRLFARTRSMWSFN_STQEFRYMNSQGLLP_TITQMNLKYAISAKNRARTV_TQQLIRAAEIRASANL_TYRRLISMMGFKMNY_VASIKNFKSVLYYQNNVFMS_VDTDFVNEFYAYLRK_VEAEVQIDRLITGRLQSLQ_VRKIFVDGVPFVVST
p17
g3
(g5
S'\x0f\x1d\xbf\xc2\x8b/\xef?'
tRp18
tp19
a.