(lp1
(VKHFYWFFSNYLKRRV_TITQMNLKYAISAKNRARTV_TQQLIRAAEIRASANL_VRKIFVDGVPFVVST
p2
cnumpy.core.multiarray
scalar
p3
(cnumpy
dtype
p4
(S'f8'
I0
I1
tRp5
(I3
S'<'
NNNI-1
I-1
I0
tbS'\xa8<\\5\x85\xca\xef?'
tRp6
tp7
a(VKHFYWFFSNYLKRRV_QQLIRAAEIRASANLA_TQMNLKYAISAKNRARTVAG_VRKIFVDGVPFVVST
p8
g3
(g5
S'\xa3<\\5\x85\xca\xef?'
tRp9
tp10
a(VITQMNLKYAISAKNRARTVA_KHFYWFFSNYLKRRV_QQLIRAAEIRASANLA_VRKIFVDGVPFVVST
p11
g3
(g5
S'\xa3<\\5\x85\xca\xef?'
tRp12
tp13
a(VITQMNLKYAISAKNRARTVA_KHFYWFFSNYLKRRV_TQQLIRAAEIRASANL_VRKIFVDGVPFVVST
p14
g3
(g5
S'\x97<\\5\x85\xca\xef?'
tRp15
tp16
a(VKHFYWFFSNYLKRRV_TQMNLKYAISAKNRARTVAG_TQQLIRAAEIRASANL_VRKIFVDGVPFVVST
p17
g3
(g5
S'\x95<\\5\x85\xca\xef?'
tRp18
tp19
a.