(lp1
(VCTFEYVSQPFLMDLE_DISASIVAGGIVAIVV_DTDFVNEFYAYLRKHFSMMI_FKSVLYYQNNVFMSE_KHFYWFFSNYLKRRV_LNRNYVFTGYRVTKNSKVQI_PIGALDISASIVAGGIVAIV_QESPFVMMSAPPAQY_QMNLKYAISAKNRARTVAGV_QWLTNIFGTVYEKLK_SFRLFARTRSMWSFN_STQEFRYMNSQGLLP_TITQMNLKYAISAKNRARTV_TQQLIRAAEIRASANL_TRYVLMDGSIIQFPN_TYRRLISMMGFKMNY_VASIKNFKSVLYYQNNVFMS_VDTDFVNEFYAYLRK_VEAEVQIDRLITGRLQSLQ_VRKIFVDGVPFVVST
p2
cnumpy.core.multiarray
scalar
p3
(cnumpy
dtype
p4
(S'f8'
I0
I1
tRp5
(I3
S'<'
NNNI-1
I-1
I0
tbS'\xab\xe9L\xfc\x91B\xef?'
tRp6
tp7
a(VCTFEYVSQPFLMDLE_DISASIVAGGIVAIVV_DTDFVNEFYAYLRKHFSMMI_FKSVLYYQNNVFMSE_GALDISASIVAGGIVA_KHFYWFFSNYLKRRV_LNRNYVFTGYRVTKNSKVQI_QESPFVMMSAPPAQY_QMNLKYAISAKNRARTVAGV_QWLTNIFGTVYEKLK_SFRLFARTRSMWSFN_STQEFRYMNSQGLLP_TITQMNLKYAISAKNRARTV_TQQLIRAAEIRASANL_TRYVLMDGSIIQFPN_TYRRLISMMGFKMNY_VASIKNFKSVLYYQNNVFMS_VDTDFVNEFYAYLRK_VEAEVQIDRLITGRLQSLQ_VRKIFVDGVPFVVST
p8
g3
(g5
S'\xab\xe9L\xfc\x91B\xef?'
tRp9
tp10
a(VCTFEYVSQPFLMDLE_DISASIVAGGIVAIVV_DTDFVNEFYAYLRKHFSMMI_DTRYVLMDGSIIQFP_FKSVLYYQNNVFMSE_KHFYWFFSNYLKRRV_LNRNYVFTGYRVTKNSKVQI_PIGALDISASIVAGGIVAIV_QESPFVMMSAPPAQY_QMNLKYAISAKNRARTVAGV_QWLTNIFGTVYEKLK_SFRLFARTRSMWSFN_STQEFRYMNSQGLLP_TITQMNLKYAISAKNRARTV_TQQLIRAAEIRASANL_TYRRLISMMGFKMNY_VASIKNFKSVLYYQNNVFMS_VDTDFVNEFYAYLRK_VEAEVQIDRLITGRLQSLQ_VRKIFVDGVPFVVST
p11
g6
tp12
a(VCTFEYVSQPFLMDLE_DISASIVAGGIVAIVV_DTDFVNEFYAYLRKHFSMMI_DTRYVLMDGSIIQFP_FKSVLYYQNNVFMSE_GALDISASIVAGGIVA_KHFYWFFSNYLKRRV_LNRNYVFTGYRVTKNSKVQI_QESPFVMMSAPPAQY_QMNLKYAISAKNRARTVAGV_QWLTNIFGTVYEKLK_SFRLFARTRSMWSFN_STQEFRYMNSQGLLP_TITQMNLKYAISAKNRARTV_TQQLIRAAEIRASANL_TYRRLISMMGFKMNY_VASIKNFKSVLYYQNNVFMS_VDTDFVNEFYAYLRK_VEAEVQIDRLITGRLQSLQ_VRKIFVDGVPFVVST
p13
g9
tp14
a(VCTFEYVSQPFLMDLE_DISASIVAGGIVAIVV_DTDFVNEFYAYLRKHFSMMI_FKSVLYYQNNVFMSE_GALDISASIVAGGIV_KHFYWFFSNYLKRRV_LNRNYVFTGYRVTKNSKVQI_QESPFVMMSAPPAQY_QMNLKYAISAKNRARTVAGV_QWLTNIFGTVYEKLK_SFRLFARTRSMWSFN_STQEFRYMNSQGLLP_TITQMNLKYAISAKNRARTV_TQQLIRAAEIRASANL_TRYVLMDGSIIQFPN_TYRRLISMMGFKMNY_VASIKNFKSVLYYQNNVFMS_VDTDFVNEFYAYLRK_VEAEVQIDRLITGRLQSLQ_VRKIFVDGVPFVVST
p15
g3
(g5
S'\xa9\xe9L\xfc\x91B\xef?'
tRp16
tp17
a.