(lp1
(VCTFEYVSQPFLMDLE_DISASIVAGGIVAIVV_DTDFVNEFYAYLRKHFSMMI_FKSVLYYQNNVFMSE_KHFYWFFSNYLKRRV_LNRNYVFTGYRVTKNSKVQI_LVVMAYITGGVVQLT_PIGALDISASIVAGGIVAIV_QESPFVMMSAPPAQY_QMNLKYAISAKNRARTVAGV_QWLTNIFGTVYEKLK_SFRLFARTRSMWSFN_STQEFRYMNSQGLLP_TITQMNLKYAISAKNRARTV_TQQLIRAAEIRASANL_TRYVLMDGSIIQFPN_TYRRLISMMGFKMNY_VASIKNFKSVLYYQNNVFMS_VDTDFVNEFYAYLRK_VEAEVQIDRLITGRLQSLQ_VRKIFVDGVPFVVST
p2
cnumpy.core.multiarray
scalar
p3
(cnumpy
dtype
p4
(S'f8'
I0
I1
tRp5
(I3
S'<'
NNNI-1
I-1
I0
tbS'm\xe6\xf5\xe7:M\xef?'
tRp6
tp7
a(VCTFEYVSQPFLMDLE_DISASIVAGGIVAIVV_DTDFVNEFYAYLRKHFSMMI_FKSVLYYQNNVFMSE_GALDISASIVAGGIV_KHFYWFFSNYLKRRV_LNRNYVFTGYRVTKNSKVQI_LVVMAYITGGVVQLT_QESPFVMMSAPPAQY_QMNLKYAISAKNRARTVAGV_QWLTNIFGTVYEKLK_SFRLFARTRSMWSFN_STQEFRYMNSQGLLP_TITQMNLKYAISAKNRARTV_TQQLIRAAEIRASANL_TRYVLMDGSIIQFPN_TYRRLISMMGFKMNY_VASIKNFKSVLYYQNNVFMS_VDTDFVNEFYAYLRK_VEAEVQIDRLITGRLQSLQ_VRKIFVDGVPFVVST
p8
g3
(g5
S'm\xe6\xf5\xe7:M\xef?'
tRp9
tp10
a(VCTFEYVSQPFLMDLE_DISASIVAGGIVAIVV_DTDFVNEFYAYLRKHFSMMI_FKSVLYYQNNVFMSE_GALDISASIVAGGIVA_KHFYWFFSNYLKRRV_LNRNYVFTGYRVTKNSKVQI_LVVMAYITGGVVQLT_QESPFVMMSAPPAQY_QMNLKYAISAKNRARTVAGV_QWLTNIFGTVYEKLK_SFRLFARTRSMWSFN_STQEFRYMNSQGLLP_TITQMNLKYAISAKNRARTV_TQQLIRAAEIRASANL_TRYVLMDGSIIQFPN_TYRRLISMMGFKMNY_VASIKNFKSVLYYQNNVFMS_VDTDFVNEFYAYLRK_VEAEVQIDRLITGRLQSLQ_VRKIFVDGVPFVVST
p11
g3
(g5
S'm\xe6\xf5\xe7:M\xef?'
tRp12
tp13
a(VCTFEYVSQPFLMDLE_DISASIVAGGIVAIVV_DTDFVNEFYAYLRKHFSMMI_DTRYVLMDGSIIQFP_FKSVLYYQNNVFMSE_KHFYWFFSNYLKRRV_LNRNYVFTGYRVTKNSKVQI_LVVMAYITGGVVQLT_PIGALDISASIVAGGIVAIV_QESPFVMMSAPPAQY_QMNLKYAISAKNRARTVAGV_QWLTNIFGTVYEKLK_SFRLFARTRSMWSFN_STQEFRYMNSQGLLP_TITQMNLKYAISAKNRARTV_TQQLIRAAEIRASANL_TYRRLISMMGFKMNY_VASIKNFKSVLYYQNNVFMS_VDTDFVNEFYAYLRK_VEAEVQIDRLITGRLQSLQ_VRKIFVDGVPFVVST
p14
g3
(g5
S'm\xe6\xf5\xe7:M\xef?'
tRp15
tp16
a(VCTFEYVSQPFLMDLE_DISASIVAGGIVAIVV_DTDFVNEFYAYLRKHFSMMI_DTRYVLMDGSIIQFP_FKSVLYYQNNVFMSE_GALDISASIVAGGIVA_KHFYWFFSNYLKRRV_LNRNYVFTGYRVTKNSKVQI_LVVMAYITGGVVQLT_QESPFVMMSAPPAQY_QMNLKYAISAKNRARTVAGV_QWLTNIFGTVYEKLK_SFRLFARTRSMWSFN_STQEFRYMNSQGLLP_TITQMNLKYAISAKNRARTV_TQQLIRAAEIRASANL_TYRRLISMMGFKMNY_VASIKNFKSVLYYQNNVFMS_VDTDFVNEFYAYLRK_VEAEVQIDRLITGRLQSLQ_VRKIFVDGVPFVVST
p17
g3
(g5
S'm\xe6\xf5\xe7:M\xef?'
tRp18
tp19
a.