(lp1
(VCTFEYVSQPFLMDLE_DISASIVAGGIVAIVV_DQVILLNKHIDAYKTFPPT_DTDFVNEFYAYLRKHFSMMI_FKSVLYYQNNVFMSE_GTITSGWTFGAGAALQIPFA_GWTFGAGAALQIPFAM_ISTKHFYWFFSNYLK_KHFYWFFSNYLKRRV_LNRNYVFTGYRVTKNSKVQI_LVVMAYITGGVVQLT_PIGALDISASIVAGGIVAIV_QESPFVMMSAPPAQY_QMNLKYAISAKNRARTVAGV_QPILLLDQALVSDVG_QWLTNIFGTVYEKLK_SFRLFARTRSMWSFN_STQEFRYMNSQGLLP_SVLLSMQGAVDINKL_TITQMNLKYAISAKNRARTV_TQQLIRAAEIRASANL_TRYVLMDGSIIQFPN_TYRRLISMMGFKMNY_VASIKNFKSVLYYQNNVFMS_VDTDFVNEFYAYLRK_VEAEVQIDRLITGRLQSLQ_VRKIFVDGVPFVVST
p2
cnumpy.core.multiarray
scalar
p3
(cnumpy
dtype
p4
(S'f8'
I0
I1
tRp5
(I3
S'<'
NNNI-1
I-1
I0
tbS'5\xfbCe)S\xef?'
tRp6
tp7
a(VCTFEYVSQPFLMDLE_DISASIVAGGIVAIVV_DQVILLNKHIDAYKTFPPT_DTDFVNEFYAYLRKHFSMMI_FKSVLYYQNNVFMSE_GTITSGWTFGAGAALQIPFA_ISTKHFYWFFSNYLK_KHFYWFFSNYLKRRV_LNRNYVFTGYRVTKNSKVQI_LVVMAYITGGVVQLT_PIGALDISASIVAGGIVAIV_QESPFVMMSAPPAQY_QMNLKYAISAKNRARTVAGV_QPILLLDQALVSDVG_QWLTNIFGTVYEKLK_SFRLFARTRSMWSFN_STQEFRYMNSQGLLP_SVLLSMQGAVDINKL_TITQMNLKYAISAKNRARTV_TQQLIRAAEIRASANL_TRYVLMDGSIIQFPN_TYRRLISMMGFKMNY_VASIKNFKSVLYYQNNVFMS_VDTDFVNEFYAYLRK_VEAEVQIDRLITGRLQSLQ_VRKIFVDGVPFVVST_WTFGAGAALQIPFAM
p8
g3
(g5
S'3\xfbCe)S\xef?'
tRp9
tp10
a(VCTFEYVSQPFLMDLE_DISASIVAGGIVAIVV_DQVILLNKHIDAYKTFPPT_DTDFVNEFYAYLRKHFSMMI_FKSVLYYQNNVFMSE_GTITSGWTFGAGAALQIPFA_GWTFGAGAALQIPFAM_IICISTKHFYWFFSNYLKRR_KHFYWFFSNYLKRRV_LNRNYVFTGYRVTKNSKVQI_LVVMAYITGGVVQLT_PIGALDISASIVAGGIVAIV_QESPFVMMSAPPAQY_QMNLKYAISAKNRARTVAGV_QPILLLDQALVSDVG_QWLTNIFGTVYEKLK_SFRLFARTRSMWSFN_STQEFRYMNSQGLLP_SVLLSMQGAVDINKL_TITQMNLKYAISAKNRARTV_TQQLIRAAEIRASANL_TRYVLMDGSIIQFPN_TYRRLISMMGFKMNY_VASIKNFKSVLYYQNNVFMS_VDTDFVNEFYAYLRK_VEAEVQIDRLITGRLQSLQ_VRKIFVDGVPFVVST
p11
g3
(g5
S'3\xfbCe)S\xef?'
tRp12
tp13
a(VCTFEYVSQPFLMDLE_DISASIVAGGIVAIVV_DQVILLNKHIDAYKTFPPT_DTDFVNEFYAYLRKHFSMMI_FKSVLYYQNNVFMSE_GALDISASIVAGGIVA_ISTKHFYWFFSNYLK_KHFYWFFSNYLKRRV_LNRNYVFTGYRVTKNSKVQI_LVVMAYITGGVVQLT_QESPFVMMSAPPAQY_QMNLKYAISAKNRARTVAGV_QPILLLDQALVSDVG_QWLTNIFGTVYEKLK_SFRLFARTRSMWSFN_STQEFRYMNSQGLLP_SVLLSMQGAVDINKL_TITQMNLKYAISAKNRARTV_TQQLIRAAEIRASANL_TRYVLMDGSIIQFPN_TSGWTFGAGAALQIP_TYRRLISMMGFKMNY_VASIKNFKSVLYYQNNVFMS_VDTDFVNEFYAYLRK_VEAEVQIDRLITGRLQSLQ_VRKIFVDGVPFVVST_WTFGAGAALQIPFAM
p14
g3
(g5
S'3\xfbCe)S\xef?'
tRp15
tp16
a(VCTFEYVSQPFLMDLE_DISASIVAGGIVAIVV_DQVILLNKHIDAYKTFPPT_DTDFVNEFYAYLRKHFSMMI_FKSVLYYQNNVFMSE_GALDISASIVAGGIVA_GTITSGWTFGAGAALQIPFA_ISTKHFYWFFSNYLK_KHFYWFFSNYLKRRV_LNRNYVFTGYRVTKNSKVQI_LVVMAYITGGVVQLT_QESPFVMMSAPPAQY_QMNLKYAISAKNRARTVAGV_QPILLLDQALVSDVG_QWLTNIFGTVYEKLK_SFRLFARTRSMWSFN_STQEFRYMNSQGLLP_SVLLSMQGAVDINKL_TITQMNLKYAISAKNRARTV_TQQLIRAAEIRASANL_TRYVLMDGSIIQFPN_TYRRLISMMGFKMNY_VASIKNFKSVLYYQNNVFMS_VDTDFVNEFYAYLRK_VEAEVQIDRLITGRLQSLQ_VRKIFVDGVPFVVST_WTFGAGAALQIPFAM
p17
g3
(g5
S'3\xfbCe)S\xef?'
tRp18
tp19
a.