(lp1
(VAMQTMLFTMLRKLDN_CTFEYVSQPFLMDLE_DEVARDLSLQFKRPI_DISASIVAGGIVAIVV_DQVILLNKHIDAYKTFPPT_DTDFVNEFYAYLRKHFSMMI_EKGIYQTSNFRVQPTESIVR_ESSAKSASVYYSQLM_FKSVLYYQNNVFMSE_GAGAALQIPFAMQMAYRFN_GTITSGWTFGAGAALQIPFA_IRAAEIRASANLAA_ISTKHFYWFFSNYLK_KDMTYRRLISMMGFK_KHFYWFFSNYLKRRV_KRNVIPTITQMNLKYAISAKNRART_KSAFVNLKQLPFFYYSDSPC_KVTSAMQTMLFTMLRKL_LNRNYVFTGYRVTKNSKVQI_LVVMAYITGGVVQLT_MWLSYFIASFRLFARTRSM_NATRFASVYAWNRKRISNC_NIFGTVYEKLKPVLD_NINIVGDFKLNEEIA_PAFDKSAFVNLKQLPFFYYS_PIGALDISASIVAGGIVAIV_PRQKRTATKAYNVTQAFGR_QESPFVMMSAPPAQY_QMNLKYAISAKNRARTVAGV_QPILLLDQALVSDVG_QWLTNIFGTVYEKLK_SFRLFARTRSMWSFN_STQEFRYMNSQGLLP_SVAYESLRPDTRYVLMDGSIIQFPN_SVLLSMQGAVDINKL_SYAAFATAQEAYEQA_TITQMNLKYAISAKNRARTV_TQQLIRAAEIRASANL_TRYVLMDGSIIQFPN_TYRRLISMMGFKMNY_VASIKNFKSVLYYQNNVFMS_VAYESLRPDTRYVLM_VDDIVKTDGTLMIER_VDTDFVNEFYAYLRK_VEAEVQIDRLITGRLQSLQ_VKDCVVLHSYFTSDYYQLY_VKYLYFIKGLNNLNR_VRKIFVDGVPFVVST_WTFGAGAALQIPFAM_YAYLRKHFSMMILSD_YFIASFRLFARTRSMWS_YIICISTKHFYWFFSNYLKRRVVFN_YLTFYLTNDVSFLAH_YSSANNCTFEYVSQPFLMD
p2
cnumpy.core.multiarray
scalar
p3
(cnumpy
dtype
p4
(S'f8'
I0
I1
tRp5
(I3
S'<'
NNNI-1
I-1
I0
tbS'\xd5B\x89p\x191\xef?'
tRp6
tp7
a(VAMQTMLFTMLRKLDN_CAGSTFISDEVARDLSLQFKRPI_CTFEYVSQPFLMDLE_DEVARDLSLQFKRPI_DISASIVAGGIVAIVV_DQVILLNKHIDAYKTFPPT_DTDFVNEFYAYLRKHFSMMI_EKGIYQTSNFRVQPTESIVR_ESSAKSASVYYSQLM_FKSVLYYQNNVFMSE_GAGAALQIPFAMQMAYRFN_GTITSGWTFGAGAALQIPFA_IRAAEIRASANLAA_ISTKHFYWFFSNYLK_KDMTYRRLISMMGFK_KHFYWFFSNYLKRRV_KRNVIPTITQMNLKYAISAKNRART_KSAFVNLKQLPFFYYSDSPC_KVTSAMQTMLFTMLRKL_LNRNYVFTGYRVTKNSKVQI_LVVMAYITGGVVQLT_MWLSYFIASFRLFARTRSM_NATRFASVYAWNRKRISNC_NIFGTVYEKLKPVLD_NINIVGDFKLNEEIA_PAFDKSAFVNLKQLPFFYYS_PIGALDISASIVAGGIVAIV_PRQKRTATKAYNVTQAFGR_QESPFVMMSAPPAQY_QMNLKYAISAKNRARTVAGV_QPILLLDQALVSDVG_QWLTNIFGTVYEKLK_SFRLFARTRSMWSFN_STQEFRYMNSQGLLP_SVAYESLRPDTRYVLMDGSIIQFPN_SVLLSMQGAVDINKL_SYAAFATAQEAYEQA_TITQMNLKYAISAKNRARTV_TQQLIRAAEIRASANL_TRYVLMDGSIIQFPN_TYRRLISMMGFKMNY_VASIKNFKSVLYYQNNVFMS_VAYESLRPDTRYVLM_VDTDFVNEFYAYLRK_VEAEVQIDRLITGRLQSLQ_VKDCVVLHSYFTSDYYQLY_VKYLYFIKGLNNLNR_VRKIFVDGVPFVVST_WTFGAGAALQIPFAM_YAYLRKHFSMMILSD_YFIASFRLFARTRSMWS_YIICISTKHFYWFFSNYLKRRVVFN_YLTFYLTNDVSFLAH_YSSANNCTFEYVSQPFLMD
p8
g6
tp9
a(VAMQTMLFTMLRKLDN_AYESLRPDTRYVLMD_CTFEYVSQPFLMDLE_DEVARDLSLQFKRPI_DISASIVAGGIVAIVV_DQVILLNKHIDAYKTFPPT_DTDFVNEFYAYLRKHFSMMI_EKGIYQTSNFRVQPTESIVR_ESSAKSASVYYSQLM_FKSVLYYQNNVFMSE_GAGAALQIPFAMQMAYRFN_GTITSGWTFGAGAALQIPFA_IRAAEIRASANLAA_ISTKHFYWFFSNYLK_KDMTYRRLISMMGFK_KHFYWFFSNYLKRRV_KRNVIPTITQMNLKYAISAKNRART_KSAFVNLKQLPFFYYSDSPC_KVTSAMQTMLFTMLRKL_LNRNYVFTGYRVTKNSKVQI_LVVMAYITGGVVQLT_MWLSYFIASFRLFARTRSM_NATRFASVYAWNRKRISNC_NIFGTVYEKLKPVLD_PAFDKSAFVNLKQLPFFYYS_PIGALDISASIVAGGIVAIV_PRQKRTATKAYNVTQAFGR_QESPFVMMSAPPAQY_QMNLKYAISAKNRARTVAGV_QPILLLDQALVSDVG_QWLTNIFGTVYEKLK_SATLVSDIDITFLKK_SFRLFARTRSMWSFN_STQEFRYMNSQGLLP_SVLLSMQGAVDINKL_SYAAFATAQEAYEQA_TITQMNLKYAISAKNRARTV_TPINLVRDLPQGFSA_TQQLIRAAEIRASANL_TRYVLMDGSIIQFPN_TYRRLISMMGFKMNY_VASIKNFKSVLYYQNNVFMS_VAYESLRPDTRYVLMDGSIIQFPN_VDTDFVNEFYAYLRK_VEAEVQIDRLITGRLQSLQ_VKDCVVLHSYFTSDYYQLY_VKYLYFIKGLNNLNR_VRKIFVDGVPFVVST_WTFGAGAALQIPFAM_YAYLRKHFSMMILSD_YFIASFRLFARTRSMWS_YIICISTKHFYWFFSNYLKRRVVFN_YLTFYLTNDVSFLAH_YSSANNCTFEYVSQPFLMD
p10
g3
(g5
S'\xd5B\x89p\x191\xef?'
tRp11
tp12
a(VAGSTFISDEVARDLSLQFKR_AMQTMLFTMLRKLDN_CTFEYVSQPFLMDLE_DEVARDLSLQFKRPI_DISASIVAGGIVAIVV_DQVILLNKHIDAYKTFPPT_DTDFVNEFYAYLRKHFSMMI_EKGIYQTSNFRVQPTESIVR_ESSAKSASVYYSQLM_FKSVLYYQNNVFMSE_GAGAALQIPFAMQMAYRFN_GTITSGWTFGAGAALQIPFA_IRAAEIRASANLAA_ISTKHFYWFFSNYLK_KDMTYRRLISMMGFK_KHFYWFFSNYLKRRV_KRNVIPTITQMNLKYAISAKNRART_KSAFVNLKQLPFFYYSDSPC_KVTSAMQTMLFTMLRKL_LNRNYVFTGYRVTKNSKVQI_LVVMAYITGGVVQLT_MWLSYFIASFRLFARTRSM_NATRFASVYAWNRKRISNC_NIFGTVYEKLKPVLD_PAFDKSAFVNLKQLPFFYYS_PIGALDISASIVAGGIVAIV_PRQKRTATKAYNVTQAFGR_QESPFVMMSAPPAQY_QMNLKYAISAKNRARTVAGV_QPILLLDQALVSDVG_QWLTNIFGTVYEKLK_SATLVSDIDITFLKK_SFRLFARTRSMWSFN_STQEFRYMNSQGLLP_SVLLSMQGAVDINKL_SYAAFATAQEAYEQA_TITQMNLKYAISAKNRARTV_TPINLVRDLPQGFSA_TQQLIRAAEIRASANL_TRYVLMDGSIIQFPN_TYRRLISMMGFKMNY_VASIKNFKSVLYYQNNVFMS_VAYESLRPDTRYVLMDGSIIQFPN_VDTDFVNEFYAYLRK_VEAEVQIDRLITGRLQSLQ_VKDCVVLHSYFTSDYYQLY_VKYLYFIKGLNNLNR_VRKIFVDGVPFVVST_WTFGAGAALQIPFAM_YAYLRKHFSMMILSD_YFIASFRLFARTRSMWS_YIICISTKHFYWFFSNYLKRRVVFN_YLTFYLTNDVSFLAH_YSSANNCTFEYVSQPFLMD
p13
g11
tp14
a(VAMQTMLFTMLRKLDN_CTFEYVSQPFLMDLE_DEVARDLSLQFKRPI_DISASIVAGGIVAIVV_DKSAFVNLKQLPFFYYSDSP_DQVILLNKHIDAYKTFPPT_DTDFVNEFYAYLRKHFSMMI_DTFCAGSTFISDEVARDLSLQFKRP_EKGIYQTSNFRVQPTESIVR_ESSAKSASVYYSQLM_FKSVLYYQNNVFMSE_GAGAALQIPFAMQMAYRFN_GTITSGWTFGAGAALQIPFA_IRAAEIRASANLAA_ISTKHFYWFFSNYLK_KDMTYRRLISMMGFK_KHFYWFFSNYLKRRV_KRNVIPTITQMNLKYAISAKNRART_KVTSAMQTMLFTMLRKL_LNRNYVFTGYRVTKNSKVQI_LVVMAYITGGVVQLT_MWLSYFIASFRLFARTRSM_NATRFASVYAWNRKRISNC_NIFGTVYEKLKPVLD_PAFDKSAFVNLKQLPFFYYS_PIGALDISASIVAGGIVAIV_PRQKRTATKAYNVTQAFGR_QESPFVMMSAPPAQY_QMNLKYAISAKNRARTVAGV_QPILLLDQALVSDVG_QWLTNIFGTVYEKLK_SATLVSDIDITFLKK_SFRLFARTRSMWSFN_STQEFRYMNSQGLLP_SVLLSMQGAVDINKL_SYAAFATAQEAYEQA_TITQMNLKYAISAKNRARTV_TPINLVRDLPQGFSA_TQQLIRAAEIRASANL_TRYVLMDGSIIQFPN_TYRRLISMMGFKMNY_VASIKNFKSVLYYQNNVFMS_VAYESLRPDTRYVLMDGSIIQFPN_VDTDFVNEFYAYLRK_VEAEVQIDRLITGRLQSLQ_VKDCVVLHSYFTSDYYQLY_VKYLYFIKGLNNLNR_VRKIFVDGVPFVVST_WTFGAGAALQIPFAM_YAYLRKHFSMMILSD_YFIASFRLFARTRSMWS_YIICISTKHFYWFFSNYLKRRVVFN_YLTFYLTNDVSFLAH_YSSANNCTFEYVSQPFLMD
p15
g3
(g5
S'\xd4B\x89p\x191\xef?'
tRp16
tp17
a.