(lp1
(VAMQTMLFTMLRKLDN_CTFEYVSQPFLMDLE_DEVARDLSLQFKRPI_DISASIVAGGIVAIVV_DQVILLNKHIDAYKTFPPT_DTDFVNEFYAYLRKHFSMMI_EKGIYQTSNFRVQPTESIVR_ESSAKSASVYYSQLM_FKSVLYYQNNVFMSE_GAGAALQIPFAMQMAYRFN_GTITSGWTFGAGAALQIPFA_IRAAEIRASANLAA_ISTKHFYWFFSNYLK_KDMTYRRLISMMGFK_KHFYWFFSNYLKRRV_KVTSAMQTMLFTMLRKL_LNRNYVFTGYRVTKNSKVQI_LVVMAYITGGVVQLT_MWLSYFIASFRLFARTRSM_NATRFASVYAWNRKRISNC_NIFGTVYEKLKPVLD_PIGALDISASIVAGGIVAIV_PRQKRTATKAYNVTQAFGR_QESPFVMMSAPPAQY_QMNLKYAISAKNRARTVAGV_QPILLLDQALVSDVG_QWLTNIFGTVYEKLK_SATLVSDIDITFLKK_SFRLFARTRSMWSFN_STQEFRYMNSQGLLP_SVLLSMQGAVDINKL_SYAAFATAQEAYEQA_TITQMNLKYAISAKNRARTV_TPINLVRDLPQGFSA_TQQLIRAAEIRASANL_TRYVLMDGSIIQFPN_TYRRLISMMGFKMNY_VASIKNFKSVLYYQNNVFMS_VAYESLRPDTRYVLMDGSIIQFPN_VDTDFVNEFYAYLRK_VEAEVQIDRLITGRLQSLQ_VKDCVVLHSYFTSDYYQLY_VKYLYFIKGLNNLNR_VRKIFVDGVPFVVST_WTFGAGAALQIPFAM_YAYLRKHFSMMILSD_YIICISTKHFYWFFSNYLKRRVVFN_YLTFYLTNDVSFLAH_YSSANNCTFEYVSQPFLMD
p2
cnumpy.core.multiarray
scalar
p3
(cnumpy
dtype
p4
(S'f8'
I0
I1
tRp5
(I3
S'<'
NNNI-1
I-1
I0
tbS'\x10\x04\xf0\x10|~\xef?'
tRp6
tp7
a(VAMQTMLFTMLRKLDN_CTFEYVSQPFLMDLE_DEVARDLSLQFKRPI_DISASIVAGGIVAIVV_DQVILLNKHIDAYKTFPPT_DTDFVNEFYAYLRKHFSMMI_EKGIYQTSNFRVQPTESIVR_ESSAKSASVYYSQLM_FKSVLYYQNNVFMSE_GAGAALQIPFAMQMAYRFN_GTITSGWTFGAGAALQIPFA_IRAAEIRASANLAA_ISTKHFYWFFSNYLK_KDMTYRRLISMMGFK_KHFYWFFSNYLKRRV_KVTSAMQTMLFTMLRKL_LNRNYVFTGYRVTKNSKVQI_LVVMAYITGGVVQLT_MWLSYFIASFRLFARTRSM_NATRFASVYAWNRKRISNC_NIFGTVYEKLKPVLD_NINIVGDFKLNEEIA_PIGALDISASIVAGGIVAIV_PRQKRTATKAYNVTQAFGR_QESPFVMMSAPPAQY_QMNLKYAISAKNRARTVAGV_QPILLLDQALVSDVG_QWLTNIFGTVYEKLK_SFRLFARTRSMWSFN_STQEFRYMNSQGLLP_SVAYESLRPDTRYVLMDGSIIQFPN_SVLLSMQGAVDINKL_SYAAFATAQEAYEQA_TITQMNLKYAISAKNRARTV_TQQLIRAAEIRASANL_TRYVLMDGSIIQFPN_TYRRLISMMGFKMNY_VASIKNFKSVLYYQNNVFMS_VAYESLRPDTRYVLM_VDTDFVNEFYAYLRK_VEAEVQIDRLITGRLQSLQ_VKDCVVLHSYFTSDYYQLY_VKYLYFIKGLNNLNR_VRKIFVDGVPFVVST_WTFGAGAALQIPFAM_YAYLRKHFSMMILSD_YIICISTKHFYWFFSNYLKRRVVFN_YLTFYLTNDVSFLAH_YSSANNCTFEYVSQPFLMD
p8
g3
(g5
S'\x10\x04\xf0\x10|~\xef?'
tRp9
tp10
a(VAMQTMLFTMLRKLDN_CTFEYVSQPFLMDLE_DEVARDLSLQFKRPI_DISASIVAGGIVAIVV_DQVILLNKHIDAYKTFPPT_DTDFVNEFYAYLRKHFSMMI_EKGIYQTSNFRVQPTESIVR_ESSAKSASVYYSQLM_FKSVLYYQNNVFMSE_GAGAALQIPFAMQMAYRFN_GALDISASIVAGGIVA_IRAAEIRASANLAA_ISTKHFYWFFSNYLK_KDMTYRRLISMMGFK_KHFYWFFSNYLKRRV_KVTSAMQTMLFTMLRKL_LNRNYVFTGYRVTKNSKVQI_LVVMAYITGGVVQLT_MWLSYFIASFRLFARTRSM_NATRFASVYAWNRKRISNC_NIFGTVYEKLKPVLD_PRQKRTATKAYNVTQAFGR_QESPFVMMSAPPAQY_QMNLKYAISAKNRARTVAGV_QPILLLDQALVSDVG_QWLTNIFGTVYEKLK_SFRLFARTRSMWSFN_STQEFRYMNSQGLLP_SVLLSMQGAVDINKL_SYAAFATAQEAYEQA_TITQMNLKYAISAKNRARTV_TQQLIRAAEIRASANL_TRYVLMDGSIIQFPN_TSGWTFGAGAALQIP_TVREVLSDRELHLSW_TYRRLISMMGFKMNY_VASIKNFKSVLYYQNNVFMS_VAYESLRPDTRYVLM_VAYESLRPDTRYVLMDGSIIQFPN_VDTDFVNEFYAYLRK_VEAEVQIDRLITGRLQSLQ_VKDCVVLHSYFTSDYYQLY_VKYLYFIKGLNNLNR_VRKIFVDGVPFVVST_WTFGAGAALQIPFAM_YAYLRKHFSMMILSD_YIICISTKHFYWFFSNYLKRRVVFN_YLTFYLTNDVSFLAH_YSSANNCTFEYVSQPFLMD
p11
g3
(g5
S'\x10\x04\xf0\x10|~\xef?'
tRp12
tp13
a(VAMQTMLFTMLRKLDN_CTFEYVSQPFLMDLE_DEVARDLSLQFKRPI_DISASIVAGGIVAIVV_DQVILLNKHIDAYKTFPPT_DTDFVNEFYAYLRKHFSMMI_EKGIYQTSNFRVQPTESIVR_ESSAKSASVYYSQLM_FKSVLYYQNNVFMSE_GAGAALQIPFAMQMAYRFN_GALDISASIVAGGIVA_IRAAEIRASANLAA_ISTKHFYWFFSNYLK_KDMTYRRLISMMGFK_KHFYWFFSNYLKRRV_KVTSAMQTMLFTMLRKL_LNRNYVFTGYRVTKNSKVQI_LVVMAYITGGVVQLT_MWLSYFIASFRLFARTRSM_NATRFASVYAWNRKRISNC_NIFGTVYEKLKPVLD_PRQKRTATKAYNVTQAFGR_QESPFVMMSAPPAQY_QMNLKYAISAKNRARTVAGV_QPILLLDQALVSDVG_QWLTNIFGTVYEKLK_SFRLFARTRSMWSFN_STQEFRYMNSQGLLP_SVAYESLRPDTRYVLMDGSIIQFPN_SVLLSMQGAVDINKL_SYAAFATAQEAYEQA_TITQMNLKYAISAKNRARTV_TPINLVRDLPQGFSAL_TQQLIRAAEIRASANL_TRYVLMDGSIIQFPN_TSGWTFGAGAALQIP_TVREVLSDRELHLSW_TYRRLISMMGFKMNY_VASIKNFKSVLYYQNNVFMS_VDTDFVNEFYAYLRK_VEAEVQIDRLITGRLQSLQ_VKDCVVLHSYFTSDYYQLY_VKYLYFIKGLNNLNR_VRKIFVDGVPFVVST_WTFGAGAALQIPFAM_YAYLRKHFSMMILSD_YIICISTKHFYWFFSNYLKRRVVFN_YLTFYLTNDVSFLAH_YSSANNCTFEYVSQPFLMD
p14
g3
(g5
S'\x10\x04\xf0\x10|~\xef?'
tRp15
tp16
a(VAMQTMLFTMLRKLDN_CTFEYVSQPFLMDLE_DEVARDLSLQFKRPI_DISASIVAGGIVAIVV_DQVILLNKHIDAYKTFPPT_DTDFVNEFYAYLRKHFSMMI_EKGIYQTSNFRVQPTESIVR_ESSAKSASVYYSQLM_FKSVLYYQNNVFMSE_GAGAALQIPFAMQMAYRFN_GALDISASIVAGGIVA_IRAAEIRASANLAA_ISTKHFYWFFSNYLK_KDMTYRRLISMMGFK_KHFYWFFSNYLKRRV_KVTSAMQTMLFTMLRKL_LNRNYVFTGYRVTKNSKVQI_LVVMAYITGGVVQLT_MWLSYFIASFRLFARTRSM_NATRFASVYAWNRKRISNC_NIFGTVYEKLKPVLD_PINLVRDLPQGFSAL_PRQKRTATKAYNVTQAFGR_QESPFVMMSAPPAQY_QMNLKYAISAKNRARTVAGV_QPILLLDQALVSDVG_QWLTNIFGTVYEKLK_SFRLFARTRSMWSFN_STQEFRYMNSQGLLP_SVAYESLRPDTRYVLMDGSIIQFPN_SVLLSMQGAVDINKL_SYAAFATAQEAYEQA_TITQMNLKYAISAKNRARTV_TQQLIRAAEIRASANL_TRYVLMDGSIIQFPN_TSGWTFGAGAALQIP_TVREVLSDRELHLSW_TYRRLISMMGFKMNY_VASIKNFKSVLYYQNNVFMS_VDTDFVNEFYAYLRK_VEAEVQIDRLITGRLQSLQ_VKDCVVLHSYFTSDYYQLY_VKYLYFIKGLNNLNR_VRKIFVDGVPFVVST_WTFGAGAALQIPFAM_YAYLRKHFSMMILSD_YIICISTKHFYWFFSNYLKRRVVFN_YLTFYLTNDVSFLAH_YSSANNCTFEYVSQPFLMD
p17
g3
(g5
S'\x10\x04\xf0\x10|~\xef?'
tRp18
tp19
a.