(lp1
(VCTFEYVSQPFLMDLE_DISASIVAGGIVAIVV_DQVILLNKHIDAYKTFPPT_DTDFVNEFYAYLRKHFSMMI_FKSVLYYQNNVFMSE_KHFYWFFSNYLKRRV_LNRNYVFTGYRVTKNSKVQI_LVVMAYITGGVVQLT_PIGALDISASIVAGGIVAIV_QESPFVMMSAPPAQY_QMNLKYAISAKNRARTVAGV_QPILLLDQALVSDVG_QWLTNIFGTVYEKLK_SFRLFARTRSMWSFN_SGWTFGAGAALQIPF_STQEFRYMNSQGLLP_SVLLSMQGAVDINKL_TITQMNLKYAISAKNRARTV_TQQLIRAAEIRASANL_TRYVLMDGSIIQFPN_TYRRLISMMGFKMNY_VASIKNFKSVLYYQNNVFMS_VDTDFVNEFYAYLRK_VEAEVQIDRLITGRLQSLQ_VRKIFVDGVPFVVST
p2
cnumpy.core.multiarray
scalar
p3
(cnumpy
dtype
p4
(S'f8'
I0
I1
tRp5
(I3
S'<'
NNNI-1
I-1
I0
tbS'hq\xa1\x10\x93\x92\xef?'
tRp6
tp7
a(VCTFEYVSQPFLMDLE_DISASIVAGGIVAIVV_DQVILLNKHIDAYKTFPPT_DTDFVNEFYAYLRKHFSMMI_FKSVLYYQNNVFMSE_GTITSGWTFGAGAALQIPFA_KHFYWFFSNYLKRRV_LNRNYVFTGYRVTKNSKVQI_LVVMAYITGGVVQLT_PIGALDISASIVAGGIVAIV_QESPFVMMSAPPAQY_QMNLKYAISAKNRARTVAGV_QPILLLDQALVSDVG_QWLTNIFGTVYEKLK_SFRLFARTRSMWSFN_STQEFRYMNSQGLLP_SVLLSMQGAVDINKL_TITQMNLKYAISAKNRARTV_TQQLIRAAEIRASANL_TRYVLMDGSIIQFPN_TYRRLISMMGFKMNY_VASIKNFKSVLYYQNNVFMS_VDTDFVNEFYAYLRK_VEAEVQIDRLITGRLQSLQ_VRKIFVDGVPFVVST
p8
g3
(g5
S'hq\xa1\x10\x93\x92\xef?'
tRp9
tp10
a(VCTFEYVSQPFLMDLE_DISASIVAGGIVAIVV_DQVILLNKHIDAYKTFPPT_DTDFVNEFYAYLRKHFSMMI_FKSVLYYQNNVFMSE_GALDISASIVAGGIVA_KHFYWFFSNYLKRRV_LNRNYVFTGYRVTKNSKVQI_LVVMAYITGGVVQLT_QESPFVMMSAPPAQY_QMNLKYAISAKNRARTVAGV_QPILLLDQALVSDVG_QWLTNIFGTVYEKLK_SFRLFARTRSMWSFN_STQEFRYMNSQGLLP_SVLLSMQGAVDINKL_TITQMNLKYAISAKNRARTV_TQQLIRAAEIRASANL_TRYVLMDGSIIQFPN_TYRRLISMMGFKMNY_VASIKNFKSVLYYQNNVFMS_VDTDFVNEFYAYLRK_VEAEVQIDRLITGRLQSLQ_VRKIFVDGVPFVVST_WTFGAGAALQIPFAM
p11
g3
(g5
S'hq\xa1\x10\x93\x92\xef?'
tRp12
tp13
a(VCTFEYVSQPFLMDLE_DISASIVAGGIVAIVV_DQVILLNKHIDAYKTFPPT_DTDFVNEFYAYLRKHFSMMI_FKSVLYYQNNVFMSE_KHFYWFFSNYLKRRV_LNRNYVFTGYRVTKNSKVQI_LVVMAYITGGVVQLT_PIGALDISASIVAGGIVAIV_QESPFVMMSAPPAQY_QMNLKYAISAKNRARTVAGV_QWLTNIFGTVYEKLK_SFRLFARTRSMWSFN_SGWTFGAGAALQIPF_STQEFRYMNSQGLLP_SVLLSMQGAVDINKL_TITQMNLKYAISAKNRARTV_TQQLIRAAEIRASANL_TRYVLMDGSIIQFPN_TYRRLISMMGFKMNY_VASIKNFKSVLYYQNNVFMS_VAYESLRPDTRYVLMDGSIIQFPN_VDTDFVNEFYAYLRK_VEAEVQIDRLITGRLQSLQ_VRKIFVDGVPFVVST
p14
g3
(g5
S'gq\xa1\x10\x93\x92\xef?'
tRp15
tp16
a(VCTFEYVSQPFLMDLE_DISASIVAGGIVAIVV_DQVILLNKHIDAYKTFPPT_DTDFVNEFYAYLRKHFSMMI_FKSVLYYQNNVFMSE_KHFYWFFSNYLKRRV_LNRNYVFTGYRVTKNSKVQI_LVVMAYITGGVVQLT_PIGALDISASIVAGGIVAIV_QESPFVMMSAPPAQY_QMNLKYAISAKNRARTVAGV_QWLTNIFGTVYEKLK_SFRLFARTRSMWSFN_SGWTFGAGAALQIPF_STQEFRYMNSQGLLP_SVAYESLRPDTRYVLMDGSIIQFPN_SVLLSMQGAVDINKL_TITQMNLKYAISAKNRARTV_TQQLIRAAEIRASANL_TRYVLMDGSIIQFPN_TYRRLISMMGFKMNY_VASIKNFKSVLYYQNNVFMS_VDTDFVNEFYAYLRK_VEAEVQIDRLITGRLQSLQ_VRKIFVDGVPFVVST
p17
g15
tp18
a.