(lp1
(VCTFEYVSQPFLMDLE_DISASIVAGGIVAIVV_DTDFVNEFYAYLRKHFSMMI_FKSVLYYQNNVFMSE_KHFYWFFSNYLKRRV_LNRNYVFTGYRVTKNSKVQI_LVVMAYITGGVVQLT_PIGALDISASIVAGGIVAIV_QESPFVMMSAPPAQY_QMNLKYAISAKNRARTVAGV_QWLTNIFGTVYEKLK_SFRLFARTRSMWSFN_SGWTFGAGAALQIPF_STQEFRYMNSQGLLP_TITQMNLKYAISAKNRARTV_TQQLIRAAEIRASANL_TRYVLMDGSIIQFPN_TYRRLISMMGFKMNY_VASIKNFKSVLYYQNNVFMS_VDTDFVNEFYAYLRK_VEAEVQIDRLITGRLQSLQ_VRKIFVDGVPFVVST
p2
cnumpy.core.multiarray
scalar
p3
(cnumpy
dtype
p4
(S'f8'
I0
I1
tRp5
(I3
S'<'
NNNI-1
I-1
I0
tbS'\xc8\x80\x1d\x96\xd4w\xef?'
tRp6
tp7
a(VCTFEYVSQPFLMDLE_DISASIVAGGIVAIVV_DTDFVNEFYAYLRKHFSMMI_FKSVLYYQNNVFMSE_GTITSGWTFGAGAALQIPFA_KHFYWFFSNYLKRRV_LNRNYVFTGYRVTKNSKVQI_LVVMAYITGGVVQLT_PIGALDISASIVAGGIVAIV_QESPFVMMSAPPAQY_QMNLKYAISAKNRARTVAGV_QWLTNIFGTVYEKLK_SFRLFARTRSMWSFN_STQEFRYMNSQGLLP_TITQMNLKYAISAKNRARTV_TQQLIRAAEIRASANL_TRYVLMDGSIIQFPN_TYRRLISMMGFKMNY_VASIKNFKSVLYYQNNVFMS_VDTDFVNEFYAYLRK_VEAEVQIDRLITGRLQSLQ_VRKIFVDGVPFVVST
p8
g6
tp9
a(VCTFEYVSQPFLMDLE_DISASIVAGGIVAIVV_DTDFVNEFYAYLRKHFSMMI_FKSVLYYQNNVFMSE_GALDISASIVAGGIV_KHFYWFFSNYLKRRV_LNRNYVFTGYRVTKNSKVQI_LVVMAYITGGVVQLT_QESPFVMMSAPPAQY_QMNLKYAISAKNRARTVAGV_QWLTNIFGTVYEKLK_SFRLFARTRSMWSFN_STQEFRYMNSQGLLP_TITQMNLKYAISAKNRARTV_TQQLIRAAEIRASANL_TRYVLMDGSIIQFPN_TSGWTFGAGAALQIP_TYRRLISMMGFKMNY_VASIKNFKSVLYYQNNVFMS_VDTDFVNEFYAYLRK_VEAEVQIDRLITGRLQSLQ_VRKIFVDGVPFVVST
p10
g3
(g5
S'\xc8\x80\x1d\x96\xd4w\xef?'
tRp11
tp12
a(VCTFEYVSQPFLMDLE_DISASIVAGGIVAIVV_DTDFVNEFYAYLRKHFSMMI_FKSVLYYQNNVFMSE_GALDISASIVAGGIV_KHFYWFFSNYLKRRV_LNRNYVFTGYRVTKNSKVQI_LVVMAYITGGVVQLT_QESPFVMMSAPPAQY_QMNLKYAISAKNRARTVAGV_QWLTNIFGTVYEKLK_SFRLFARTRSMWSFN_SGWTFGAGAALQIPF_STQEFRYMNSQGLLP_TITQMNLKYAISAKNRARTV_TQQLIRAAEIRASANL_TRYVLMDGSIIQFPN_TYRRLISMMGFKMNY_VASIKNFKSVLYYQNNVFMS_VDTDFVNEFYAYLRK_VEAEVQIDRLITGRLQSLQ_VRKIFVDGVPFVVST
p13
g11
tp14
a(VCTFEYVSQPFLMDLE_DISASIVAGGIVAIVV_DTDFVNEFYAYLRKHFSMMI_FKSVLYYQNNVFMSE_GALDISASIVAGGIVA_KHFYWFFSNYLKRRV_LNRNYVFTGYRVTKNSKVQI_LVVMAYITGGVVQLT_QESPFVMMSAPPAQY_QMNLKYAISAKNRARTVAGV_QWLTNIFGTVYEKLK_SFRLFARTRSMWSFN_STQEFRYMNSQGLLP_TITQMNLKYAISAKNRARTV_TQQLIRAAEIRASANL_TRYVLMDGSIIQFPN_TYRRLISMMGFKMNY_VASIKNFKSVLYYQNNVFMS_VDTDFVNEFYAYLRK_VEAEVQIDRLITGRLQSLQ_VRKIFVDGVPFVVST_WTFGAGAALQIPFAM
p15
g3
(g5
S'\xc8\x80\x1d\x96\xd4w\xef?'
tRp16
tp17
a.