(lp1
(VAMQTMLFTMLRKLDN_CTFEYVSQPFLMDLE_DISASIVAGGIVAIVV_DQVILLNKHIDAYKTFPPT_DTDFVNEFYAYLRKHFSMMI_EKGIYQTSNFRVQPTESIVR_FKSVLYYQNNVFMSE_GTITSGWTFGAGAALQIPFA_ISTKHFYWFFSNYLK_KDMTYRRLISMMGFK_KHFYWFFSNYLKRRV_LNRNYVFTGYRVTKNSKVQI_LVVMAYITGGVVQLT_NIFGTVYEKLKPVLD_PIGALDISASIVAGGIVAIV_QESPFVMMSAPPAQY_QMNLKYAISAKNRARTVAGV_QPILLLDQALVSDVG_QWLTNIFGTVYEKLK_SFRLFARTRSMWSFN_STQEFRYMNSQGLLP_SVLLSMQGAVDINKL_SYAAFATAQEAYEQA_TITQMNLKYAISAKNRARTV_TQQLIRAAEIRASANL_TRYVLMDGSIIQFPN_TYRRLISMMGFKMNY_VASIKNFKSVLYYQNNVFMS_VAYESLRPDTRYVLMDGSIIQFPN_VDTDFVNEFYAYLRK_VEAEVQIDRLITGRLQSLQ_VRKIFVDGVPFVVST_WTFGAGAALQIPFAM_YAYLRKHFSMMILSD_YIICISTKHFYWFFSNYLKRRVVFN
p2
cnumpy.core.multiarray
scalar
p3
(cnumpy
dtype
p4
(S'f8'
I0
I1
tRp5
(I3
S'<'
NNNI-1
I-1
I0
tbS'\x15T!_\xe8c\xef?'
tRp6
tp7
a(VAMQTMLFTMLRKLDN_CTFEYVSQPFLMDLE_DISASIVAGGIVAIVV_DQVILLNKHIDAYKTFPPT_DTDFVNEFYAYLRKHFSMMI_EKGIYQTSNFRVQPTESIVR_FKSVLYYQNNVFMSE_GTITSGWTFGAGAALQIPFA_ISTKHFYWFFSNYLK_KDMTYRRLISMMGFK_KHFYWFFSNYLKRRV_LNRNYVFTGYRVTKNSKVQI_LVVMAYITGGVVQLT_NIFGTVYEKLKPVLD_PIGALDISASIVAGGIVAIV_QESPFVMMSAPPAQY_QMNLKYAISAKNRARTVAGV_QPILLLDQALVSDVG_QWLTNIFGTVYEKLK_SFRLFARTRSMWSFN_STQEFRYMNSQGLLP_SVAYESLRPDTRYVLMDGSIIQFPN_SVLLSMQGAVDINKL_SYAAFATAQEAYEQA_TITQMNLKYAISAKNRARTV_TQQLIRAAEIRASANL_TRYVLMDGSIIQFPN_TYRRLISMMGFKMNY_VASIKNFKSVLYYQNNVFMS_VDTDFVNEFYAYLRK_VEAEVQIDRLITGRLQSLQ_VRKIFVDGVPFVVST_WTFGAGAALQIPFAM_YAYLRKHFSMMILSD_YIICISTKHFYWFFSNYLKRRVVFN
p8
g3
(g5
S'\x15T!_\xe8c\xef?'
tRp9
tp10
a(VAMQTMLFTMLRKLDN_CTFEYVSQPFLMDLE_DISASIVAGGIVAIVV_DQVILLNKHIDAYKTFPPT_DTDFVNEFYAYLRKHFSMMI_EKGIYQTSNFRVQPTESIVR_FKSVLYYQNNVFMSE_GALDISASIVAGGIVA_ISTKHFYWFFSNYLK_KDMTYRRLISMMGFK_KHFYWFFSNYLKRRV_LNRNYVFTGYRVTKNSKVQI_LVVMAYITGGVVQLT_NIFGTVYEKLKPVLD_QESPFVMMSAPPAQY_QMNLKYAISAKNRARTVAGV_QPILLLDQALVSDVG_QWLTNIFGTVYEKLK_SFRLFARTRSMWSFN_STQEFRYMNSQGLLP_SVLLSMQGAVDINKL_SYAAFATAQEAYEQA_TITQMNLKYAISAKNRARTV_TQQLIRAAEIRASANL_TRYVLMDGSIIQFPN_TSGWTFGAGAALQIP_TYRRLISMMGFKMNY_VASIKNFKSVLYYQNNVFMS_VAYESLRPDTRYVLMDGSIIQFPN_VDTDFVNEFYAYLRK_VEAEVQIDRLITGRLQSLQ_VRKIFVDGVPFVVST_WTFGAGAALQIPFAM_YAYLRKHFSMMILSD_YIICISTKHFYWFFSNYLKRRVVFN
p11
g3
(g5
S'\x15T!_\xe8c\xef?'
tRp12
tp13
a(VAMQTMLFTMLRKLDN_CTFEYVSQPFLMDLE_DISASIVAGGIVAIVV_DQVILLNKHIDAYKTFPPT_DTDFVNEFYAYLRKHFSMMI_EKGIYQTSNFRVQPTESIVR_FKSVLYYQNNVFMSE_GALDISASIVAGGIVA_ISTKHFYWFFSNYLK_KDMTYRRLISMMGFK_KHFYWFFSNYLKRRV_LNRNYVFTGYRVTKNSKVQI_LVVMAYITGGVVQLT_NIFGTVYEKLKPVLD_QESPFVMMSAPPAQY_QMNLKYAISAKNRARTVAGV_QPILLLDQALVSDVG_QWLTNIFGTVYEKLK_SFRLFARTRSMWSFN_STQEFRYMNSQGLLP_SVAYESLRPDTRYVLMDGSIIQFPN_SVLLSMQGAVDINKL_SYAAFATAQEAYEQA_TITQMNLKYAISAKNRARTV_TQQLIRAAEIRASANL_TRYVLMDGSIIQFPN_TSGWTFGAGAALQIP_TYRRLISMMGFKMNY_VASIKNFKSVLYYQNNVFMS_VDTDFVNEFYAYLRK_VEAEVQIDRLITGRLQSLQ_VRKIFVDGVPFVVST_WTFGAGAALQIPFAM_YAYLRKHFSMMILSD_YIICISTKHFYWFFSNYLKRRVVFN
p14
g3
(g5
S'\x15T!_\xe8c\xef?'
tRp15
tp16
a(VAMQTMLFTMLRKLDN_CTFEYVSQPFLMDLE_DISASIVAGGIVAIVV_DQVILLNKHIDAYKTFPPT_DTDFVNEFYAYLRKHFSMMI_EKGIYQTSNFRVQPTESIVR_FKSVLYYQNNVFMSE_GALDISASIVAGGIVA_GTITSGWTFGAGAALQIPFA_ISTKHFYWFFSNYLK_KDMTYRRLISMMGFK_KHFYWFFSNYLKRRV_LNRNYVFTGYRVTKNSKVQI_LVVMAYITGGVVQLT_NIFGTVYEKLKPVLD_QESPFVMMSAPPAQY_QMNLKYAISAKNRARTVAGV_QPILLLDQALVSDVG_QWLTNIFGTVYEKLK_SFRLFARTRSMWSFN_STQEFRYMNSQGLLP_SVLLSMQGAVDINKL_SYAAFATAQEAYEQA_TITQMNLKYAISAKNRARTV_TQQLIRAAEIRASANL_TRYVLMDGSIIQFPN_TYRRLISMMGFKMNY_VASIKNFKSVLYYQNNVFMS_VAYESLRPDTRYVLMDGSIIQFPN_VDTDFVNEFYAYLRK_VEAEVQIDRLITGRLQSLQ_VRKIFVDGVPFVVST_WTFGAGAALQIPFAM_YAYLRKHFSMMILSD_YIICISTKHFYWFFSNYLKRRVVFN
p17
g3
(g5
S'\x15T!_\xe8c\xef?'
tRp18
tp19
a.