(lp1
(VAMQTMLFTMLRKLDN_CTFEYVSQPFLMDLE_DEVARDLSLQFKRPI_DISASIVAGGIVAIVV_DQVILLNKHIDAYKTFPPT_DTDFVNEFYAYLRKHFSMMI_EKGIYQTSNFRVQPTESIVR_ESSAKSASVYYSQLM_FKSVLYYQNNVFMSE_GAGAALQIPFAMQMAYRFN_GTITSGWTFGAGAALQIPFA_IRAAEIRASANLAA_ISTKHFYWFFSNYLK_KDMTYRRLISMMGFK_KHFYWFFSNYLKRRV_KRNVIPTITQMNLKYAISAKNRART_KSAFVNLKQLPFFYYSDSPC_KVTSAMQTMLFTMLRKL_LNRNYVFTGYRVTKNSKVQI_LVVMAYITGGVVQLT_MWLSYFIASFRLFARTRSM_NATRFASVYAWNRKRISNC_NIFGTVYEKLKPVLD_NINIVGDFKLNEEIA_PAFDKSAFVNLKQLPFFYYS_PIGALDISASIVAGGIVAIV_PRQKRTATKAYNVTQAFGR_QESPFVMMSAPPAQY_QMNLKYAISAKNRARTVAGV_QPILLLDQALVSDVG_QWLTNIFGTVYEKLK_RHSLSHFVNLDNLRA_RVVFNGVSFSTFEEA_SFRLFARTRSMWSFN_STQEFRYMNSQGLLP_SVAYESLRPDTRYVLMDGSIIQFPN_SVLLSMQGAVDINKL_SYAAFATAQEAYEQA_TFLLNKEMYLKLRSD_TITQMNLKYAISAKNRARTV_TNVLEGSVAYESLRP_TQQLIRAAEIRASANL_TRYVLMDGSIIQFPN_TYRRLISMMGFKMNY_VASIKNFKSVLYYQNNVFMS_VAYESLRPDTRYVLM_VDDIVKTDGTLMIER_VDTDFVNEFYAYLRK_VEAEVQIDRLITGRLQSLQ_VKDCVVLHSYFTSDYYQLY_VKYLYFIKGLNNLNR_VRKIFVDGVPFVVST_VVFVLWAHGFELTSMKYFVK_WTFGAGAALQIPFAM_YAYLRKHFSMMILSD_YFIASFRLFARTRSMWS_YIICISTKHFYWFFSNYLKRRVVFN_YLTFYLTNDVSFLAH_YSSANNCTFEYVSQPFLMD
p2
cnumpy.core.multiarray
scalar
p3
(cnumpy
dtype
p4
(S'f8'
I0
I1
tRp5
(I3
S'<'
NNNI-1
I-1
I0
tbS'}\x10\x02\xad+n\xef?'
tRp6
tp7
a(VAMQTMLFTMLRKLDN_CTFEYVSQPFLMDLE_DEVARDLSLQFKRPI_DISASIVAGGIVAIVV_DQVILLNKHIDAYKTFPPT_DTDFVNEFYAYLRKHFSMMI_EKGIYQTSNFRVQPTESIVR_ESSAKSASVYYSQLM_FKSVLYYQNNVFMSE_GAGAALQIPFAMQMAYRFN_GTITSGWTFGAGAALQIPFA_IRAAEIRASANLAA_ISTKHFYWFFSNYLK_KDMTYRRLISMMGFK_KHFYWFFSNYLKRRV_KRNVIPTITQMNLKYAISAKNRART_KSAFVNLKQLPFFYYSDSPC_KVTSAMQTMLFTMLRKL_LNRNYVFTGYRVTKNSKVQI_LVVMAYITGGVVQLT_MWLSYFIASFRLFARTRSM_NATRFASVYAWNRKRISNC_NIFGTVYEKLKPVLD_NINIVGDFKLNEEIA_PAFDKSAFVNLKQLPFFYYS_PIGALDISASIVAGGIVAIV_PRQKRTATKAYNVTQAFGR_QESPFVMMSAPPAQY_QMNLKYAISAKNRARTVAGV_QPILLLDQALVSDVG_QWLTNIFGTVYEKLK_RHSLSHFVNLDNLRA_RVVFNGVSFSTFEEAA_SFRLFARTRSMWSFN_STQEFRYMNSQGLLP_SVAYESLRPDTRYVLMDGSIIQFPN_SVLLSMQGAVDINKL_SYAAFATAQEAYEQA_TFLLNKEMYLKLRSD_TITQMNLKYAISAKNRARTV_TNVLEGSVAYESLRP_TQQLIRAAEIRASANL_TRYVLMDGSIIQFPN_TYRRLISMMGFKMNY_VASIKNFKSVLYYQNNVFMS_VAYESLRPDTRYVLM_VDDIVKTDGTLMIER_VDTDFVNEFYAYLRK_VEAEVQIDRLITGRLQSLQ_VKDCVVLHSYFTSDYYQLY_VKYLYFIKGLNNLNR_VRKIFVDGVPFVVST_VVFVLWAHGFELTSMKYFVK_WTFGAGAALQIPFAM_YAYLRKHFSMMILSD_YFIASFRLFARTRSMWS_YIICISTKHFYWFFSNYLKRRVVFN_YLTFYLTNDVSFLAH_YSSANNCTFEYVSQPFLMD
p8
g3
(g5
S'}\x10\x02\xad+n\xef?'
tRp9
tp10
a(VAMQTMLFTMLRKLDN_CTFEYVSQPFLMDLE_DEVARDLSLQFKRPI_DISASIVAGGIVAIVV_DQVILLNKHIDAYKTFPPT_DTDFVNEFYAYLRKHFSMMI_EKGIYQTSNFRVQPTESIVR_ESSAKSASVYYSQLM_FKSVLYYQNNVFMSE_GAGAALQIPFAMQMAYRFN_GTITSGWTFGAGAALQIPFA_IRAAEIRASANLAA_ISTKHFYWFFSNYLK_KDMTYRRLISMMGFK_KHFYWFFSNYLKRRV_KRNVIPTITQMNLKYAISAKNRART_KSAFVNLKQLPFFYYSDSPC_KVTSAMQTMLFTMLRKL_LNRNYVFTGYRVTKNSKVQI_LVVMAYITGGVVQLT_MWLSYFIASFRLFARTRSM_NATRFASVYAWNRKRISNC_NIFGTVYEKLKPVLD_NINIVGDFKLNEEIA_PAFDKSAFVNLKQLPFFYYS_PIGALDISASIVAGGIVAIV_PRQKRTATKAYNVTQAFGR_QESPFVMMSAPPAQY_QMNLKYAISAKNRARTVAGV_QPILLLDQALVSDVG_QWLTNIFGTVYEKLK_RHSLSHFVNLDNLRA_RVVFNGVSFSTFEEAAL_SFRLFARTRSMWSFN_STQEFRYMNSQGLLP_SVAYESLRPDTRYVLMDGSIIQFPN_SVLLSMQGAVDINKL_SYAAFATAQEAYEQA_TFLLNKEMYLKLRSD_TITQMNLKYAISAKNRARTV_TNVLEGSVAYESLRP_TQQLIRAAEIRASANL_TRYVLMDGSIIQFPN_TYRRLISMMGFKMNY_VASIKNFKSVLYYQNNVFMS_VAYESLRPDTRYVLM_VDDIVKTDGTLMIER_VDTDFVNEFYAYLRK_VEAEVQIDRLITGRLQSLQ_VKDCVVLHSYFTSDYYQLY_VKYLYFIKGLNNLNR_VRKIFVDGVPFVVST_VVFVLWAHGFELTSMKYFVK_WTFGAGAALQIPFAM_YAYLRKHFSMMILSD_YFIASFRLFARTRSMWS_YIICISTKHFYWFFSNYLKRRVVFN_YLTFYLTNDVSFLAH_YSSANNCTFEYVSQPFLMD
p11
g9
tp12
a(VAMQTMLFTMLRKLDN_CTFEYVSQPFLMDLE_DEVARDLSLQFKRPI_DISASIVAGGIVAIVV_DQVILLNKHIDAYKTFPPT_DTDFVNEFYAYLRKHFSMMI_EKGIYQTSNFRVQPTESIVR_ESSAKSASVYYSQLM_FKSVLYYQNNVFMSE_GAGAALQIPFAMQMAYRFN_GTITSGWTFGAGAALQIPFA_IRAAEIRASANLAA_ISTKHFYWFFSNYLK_KDMTYRRLISMMGFK_KHFYWFFSNYLKRRV_KRNVIPTITQMNLKYAISAKNRART_KSAFVNLKQLPFFYYSDSPC_KVTSAMQTMLFTMLRKL_LCTFLLNKEMYLKLR_LNRNYVFTGYRVTKNSKVQI_LVVMAYITGGVVQLT_MWLSYFIASFRLFARTRSM_NATRFASVYAWNRKRISNC_NIFGTVYEKLKPVLD_NINIVGDFKLNEEIA_PAFDKSAFVNLKQLPFFYYS_PIGALDISASIVAGGIVAIV_PRQKRTATKAYNVTQAFGR_QESPFVMMSAPPAQY_QMNLKYAISAKNRARTVAGV_QPILLLDQALVSDVG_QWLTNIFGTVYEKLK_RHSLSHFVNLDNLRA_RVVFNGVSFSTFEEA_SFRLFARTRSMWSFN_STQEFRYMNSQGLLP_SVAYESLRPDTRYVLMDGSIIQFPN_SVLLSMQGAVDINKL_SYAAFATAQEAYEQA_TITQMNLKYAISAKNRARTV_TNVLEGSVAYESLRP_TQQLIRAAEIRASANL_TRYVLMDGSIIQFPN_TYRRLISMMGFKMNY_VASIKNFKSVLYYQNNVFMS_VAYESLRPDTRYVLM_VDDIVKTDGTLMIER_VDTDFVNEFYAYLRK_VEAEVQIDRLITGRLQSLQ_VFVLWAHGFELTSMKYFVKI_VKDCVVLHSYFTSDYYQLY_VKYLYFIKGLNNLNR_VRKIFVDGVPFVVST_WTFGAGAALQIPFAM_YAYLRKHFSMMILSD_YFIASFRLFARTRSMWS_YIICISTKHFYWFFSNYLKRRVVFN_YLTFYLTNDVSFLAH_YSSANNCTFEYVSQPFLMD
p13
g3
(g5
S'}\x10\x02\xad+n\xef?'
tRp14
tp15
a(VAMQTMLFTMLRKLDN_CTFEYVSQPFLMDLE_DEVARDLSLQFKRPI_DISASIVAGGIVAIVV_DQVILLNKHIDAYKTFPPT_DTDFVNEFYAYLRKHFSMMI_EKGIYQTSNFRVQPTESIVR_ESSAKSASVYYSQLM_FKSVLYYQNNVFMSE_GAGAALQIPFAMQMAYRFN_GTITSGWTFGAGAALQIPFA_IRAAEIRASANLAA_ISTKHFYWFFSNYLK_KDMTYRRLISMMGFK_KHFYWFFSNYLKRRV_KRNVIPTITQMNLKYAISAKNRART_KSAFVNLKQLPFFYYSDSPC_KVTSAMQTMLFTMLRKL_LCTFLLNKEMYLKLR_LNRNYVFTGYRVTKNSKVQI_LVVMAYITGGVVQLT_MWLSYFIASFRLFARTRSM_NATRFASVYAWNRKRISNC_NIFGTVYEKLKPVLD_NINIVGDFKLNEEIA_PAFDKSAFVNLKQLPFFYYS_PIGALDISASIVAGGIVAIV_PRQKRTATKAYNVTQAFGR_QESPFVMMSAPPAQY_QMNLKYAISAKNRARTVAGV_QPILLLDQALVSDVG_QWLTNIFGTVYEKLK_RHSLSHFVNLDNLRA_RVVFNGVSFSTFEEAA_SFRLFARTRSMWSFN_STQEFRYMNSQGLLP_SVAYESLRPDTRYVLMDGSIIQFPN_SVLLSMQGAVDINKL_SYAAFATAQEAYEQA_TITQMNLKYAISAKNRARTV_TNVLEGSVAYESLRP_TQQLIRAAEIRASANL_TRYVLMDGSIIQFPN_TYRRLISMMGFKMNY_VASIKNFKSVLYYQNNVFMS_VAYESLRPDTRYVLM_VDDIVKTDGTLMIER_VDTDFVNEFYAYLRK_VEAEVQIDRLITGRLQSLQ_VFVLWAHGFELTSMKYFVKI_VKDCVVLHSYFTSDYYQLY_VKYLYFIKGLNNLNR_VRKIFVDGVPFVVST_WTFGAGAALQIPFAM_YAYLRKHFSMMILSD_YFIASFRLFARTRSMWS_YIICISTKHFYWFFSNYLKRRVVFN_YLTFYLTNDVSFLAH_YSSANNCTFEYVSQPFLMD
p16
g3
(g5
S'}\x10\x02\xad+n\xef?'
tRp17
tp18
a.