(lp1
(VITQMNLKYAISAKNRARTVA_KHFYWFFSNYLKRRV
p2
cnumpy.core.multiarray
scalar
p3
(cnumpy
dtype
p4
(S'f8'
I0
I1
tRp5
(I3
S'<'
NNNI-1
I-1
I0
tbS'\xa1\x84\xf0\xc5\xa0\x00\xef?'
tRp6
tp7
a(VKHFYWFFSNYLKRRV_TQMNLKYAISAKNRARTVAG
p8
g3
(g5
S'\x93\x1e\x97\xa1y\x00\xef?'
tRp9
tp10
a(VKHFYWFFSNYLKRRV_TITQMNLKYAISAKNRARTV
p11
g3
(g5
S',\x1e\x97\xa1y\x00\xef?'
tRp12
tp13
a(VKHFYWFFSNYLKRRV_PTITQMNLKYAISAKNRART
p14
g3
(g5
S'p\x9b(\x17\xb7\xff\xee?'
tRp15
tp16
a(VIPTITQMNLKYAISAKNRAR_KHFYWFFSNYLKRRV
p17
g3
(g5
S'PjF\xef\x07\xfe\xee?'
tRp18
tp19
a.