(lp1
(VKHFYWFFSNYLKRRV_QWLTNIFGTVYEKLK_TITQMNLKYAISAKNRARTV_TQQLIRAAEIRASANL_TYRRLISMMGFKMNY_VRKIFVDGVPFVVST
p2
cnumpy.core.multiarray
scalar
p3
(cnumpy
dtype
p4
(S'f8'
I0
I1
tRp5
(I3
S'<'
NNNI-1
I-1
I0
tbS'@\x96\xa7\xde\xe7\xe7\xed?'
tRp6
tp7
a(VITQMNLKYAISAKNRARTVA_KHFYWFFSNYLKRRV_QQLIRAAEIRASANLA_QWLTNIFGTVYEKLK_TYRRLISMMGFKMNY_VRKIFVDGVPFVVST
p8
g3
(g5
S"\x99\xca\xf7L'\xd4\xed?"
tRp9
tp10
a(VKHFYWFFSNYLKRRV_QQLIRAAEIRASANLA_QWLTNIFGTVYEKLK_TQMNLKYAISAKNRARTVAG_TYRRLISMMGFKMNY_VRKIFVDGVPFVVST
p11
g3
(g5
S'\x90\xe6\xd4\x1c \xd4\xed?'
tRp12
tp13
a(VITQMNLKYAISAKNRARTVA_KHFYWFFSNYLKRRV_QWLTNIFGTVYEKLK_TQQLIRAAEIRASANL_TYRRLISMMGFKMNY_VRKIFVDGVPFVVST
p14
g3
(g5
S'9\x83\xb8I\x07\xcf\xed?'
tRp15
tp16
a(VKHFYWFFSNYLKRRV_QWLTNIFGTVYEKLK_TQMNLKYAISAKNRARTVAG_TQQLIRAAEIRASANL_TYRRLISMMGFKMNY_VRKIFVDGVPFVVST
p17
g3
(g5
S'/\x9f\x95\x19\x00\xcf\xed?'
tRp18
tp19
a.