(lp1
(VDTDFVNEFYAYLRKHFSMMI_KHFYWFFSNYLKRRV_LNRNYVFTGYRVTKNSKVQI_LVASIKNFKSVLYYQNNVFM_NFKSVLYYQNNVFMS_QESPFVMMSAPPAQY_QWLTNIFGTVYEKLK_STQEFRYMNSQGLLP_TITQMNLKYAISAKNRARTV_TQQLIRAAEIRASANL_TYRRLISMMGFKMNY_VEAEVQIDRLITGRLQSLQ_VRKIFVDGVPFVVST
p2
cnumpy.core.multiarray
scalar
p3
(cnumpy
dtype
p4
(S'f8'
I0
I1
tRp5
(I3
S'<'
NNNI-1
I-1
I0
tbS'S\xcb S\xdck\xee?'
tRp6
tp7
a(VDTDFVNEFYAYLRKHFSMMI_KHFYWFFSNYLKRRV_LVASIKNFKSVLYYQNNVFM_NFKSVLYYQNNVFMS_NRNYVFTGYRVTKNSKVQIG_QESPFVMMSAPPAQY_QWLTNIFGTVYEKLK_STQEFRYMNSQGLLP_TITQMNLKYAISAKNRARTV_TQQLIRAAEIRASANL_TYRRLISMMGFKMNY_VEAEVQIDRLITGRLQSLQ_VRKIFVDGVPFVVST
p8
g3
(g5
S'P\xcb S\xdck\xee?'
tRp9
tp10
a(VDTDFVNEFYAYLRKHFSMMI_FKSVLYYQNNVFMSE_KHFYWFFSNYLKRRV_LNRNYVFTGYRVTKNSKVQI_QESPFVMMSAPPAQY_QWLTNIFGTVYEKLK_STQEFRYMNSQGLLP_TITQMNLKYAISAKNRARTV_TQQLIRAAEIRASANL_TYRRLISMMGFKMNY_VASIKNFKSVLYYQNNVFMS_VEAEVQIDRLITGRLQSLQ_VRKIFVDGVPFVVST
p11
g3
(g5
S'\xbbs\xe4\x9d\x8bk\xee?'
tRp12
tp13
a(VDTDFVNEFYAYLRKHFSMMI_FKSVLYYQNNVFMSE_KHFYWFFSNYLKRRV_LNRNYVFTGYRVTKNSKVQI_LVASIKNFKSVLYYQNNVFM_QESPFVMMSAPPAQY_QWLTNIFGTVYEKLK_STQEFRYMNSQGLLP_TITQMNLKYAISAKNRARTV_TQQLIRAAEIRASANL_TYRRLISMMGFKMNY_VEAEVQIDRLITGRLQSLQ_VRKIFVDGVPFVVST
p14
g3
(g5
S'\xbbs\xe4\x9d\x8bk\xee?'
tRp15
tp16
a(VDTDFVNEFYAYLRKHFSMMI_KHFYWFFSNYLKRRV_KSVLYYQNNVFMSEA_LNRNYVFTGYRVTKNSKVQI_QESPFVMMSAPPAQY_QWLTNIFGTVYEKLK_STQEFRYMNSQGLLP_TITQMNLKYAISAKNRARTV_TQQLIRAAEIRASANL_TYRRLISMMGFKMNY_VASIKNFKSVLYYQNNVFMS_VEAEVQIDRLITGRLQSLQ_VRKIFVDGVPFVVST
p17
g3
(g5
S'\xb8s\xe4\x9d\x8bk\xee?'
tRp18
tp19
a.