(lp1
(VDTDFVNEFYAYLRKHFSMMI_KHFYWFFSNYLKRRV_QWLTNIFGTVYEKLK_STQEFRYMNSQGLLP_TITQMNLKYAISAKNRARTV_TQQLIRAAEIRASANL_TYRRLISMMGFKMNY_VRKIFVDGVPFVVST
p2
cnumpy.core.multiarray
scalar
p3
(cnumpy
dtype
p4
(S'f8'
I0
I1
tRp5
(I3
S'<'
NNNI-1
I-1
I0
tbS'\x00\xee\xdd\x03\xa4\x93\xed?'
tRp6
tp7
a(VITQMNLKYAISAKNRARTVA_KHFYWFFSNYLKRRV_LNRNYVFTGYRVTKNSKVQI_QQLIRAAEIRASANLA_QWLTNIFGTVYEKLK_STQEFRYMNSQGLLP_TYRRLISMMGFKMNY_VRKIFVDGVPFVVST
p8
g3
(g5
S'\xeb\xc7"S\x05\x89\xed?'
tRp9
tp10
a(VITQMNLKYAISAKNRARTVA_KHFYWFFSNYLKRRV_LNRNYVFTGYRVTKNSKVQI_QWLTNIFGTVYEKLK_STQEFRYMNSQGLLP_TQQLIRAAEIRASANL_TYRRLISMMGFKMNY_VRKIFVDGVPFVVST
p11
g3
(g5
S'\xe3\xc7"S\x05\x89\xed?'
tRp12
tp13
a(VKHFYWFFSNYLKRRV_LNRNYVFTGYRVTKNSKVQI_QWLTNIFGTVYEKLK_STQEFRYMNSQGLLP_TITQMNLKYAISAKNRARTV_TQQLIRAAEIRASANL_TYRRLISMMGFKMNY_VRKIFVDGVPFVVST
p14
g3
(g5
S'\xa4\xbd\xe4/\xef\x88\xed?'
tRp15
tp16
a(VKHFYWFFSNYLKRRV_LNRNYVFTGYRVTKNSKVQI_QQLIRAAEIRASANLA_QWLTNIFGTVYEKLK_STQEFRYMNSQGLLP_TQMNLKYAISAKNRARTVAG_TYRRLISMMGFKMNY_VRKIFVDGVPFVVST
p17
g3
(g5
S'\x90\xbd\xe4/\xef\x88\xed?'
tRp18
tp19
a.