(lp1
(VITQMNLKYAISAKNRARTVA_KHFYWFFSNYLKRRV_QQLIRAAEIRASANLA_QWLTNIFGTVYEKLK_STQEFRYMNSQGLLP_TYRRLISMMGFKMNY_VRKIFVDGVPFVVST
p2
cnumpy.core.multiarray
scalar
p3
(cnumpy
dtype
p4
(S'f8'
I0
I1
tRp5
(I3
S'<'
NNNI-1
I-1
I0
tbS'8\xf7\x9a@w\xcd\xee?'
tRp6
tp7
a(VITQMNLKYAISAKNRARTVA_KHFYWFFSNYLKRRV_QWLTNIFGTVYEKLK_STQEFRYMNSQGLLP_TQQLIRAAEIRASANL_TYRRLISMMGFKMNY_VRKIFVDGVPFVVST
p8
g3
(g5
S'4\xf7\x9a@w\xcd\xee?'
tRp9
tp10
a(VKHFYWFFSNYLKRRV_QWLTNIFGTVYEKLK_STQEFRYMNSQGLLP_TITQMNLKYAISAKNRARTV_TQQLIRAAEIRASANL_TYRRLISMMGFKMNY_VRKIFVDGVPFVVST
p11
g3
(g5
S'\xdf\xc4&lq\xcd\xee?'
tRp12
tp13
a(VKHFYWFFSNYLKRRV_QQLIRAAEIRASANLA_QWLTNIFGTVYEKLK_STQEFRYMNSQGLLP_TQMNLKYAISAKNRARTVAG_TYRRLISMMGFKMNY_VRKIFVDGVPFVVST
p14
g3
(g5
S'\xd0\xc4&lq\xcd\xee?'
tRp15
tp16
a(VKHFYWFFSNYLKRRV_QWLTNIFGTVYEKLK_STQEFRYMNSQGLLP_TQMNLKYAISAKNRARTVAG_TQQLIRAAEIRASANL_TYRRLISMMGFKMNY_VRKIFVDGVPFVVST
p17
g3
(g5
S'\xcd\xc4&lq\xcd\xee?'
tRp18
tp19
a.