(lp1
(VAIASEFSSLPSYAAF_ALDISASIVAGGIV_AMQTMLFTMLRKLDN_CTFEYVSQPFLMDLE_DEVARDLSLQFKRPI_DISASIVAGGIVAIVV_DMILSLLSKGRLIIR_DQVILLNKHIDAYKTFPPT_DTDFVNEFYAYLRKHFSMMI_EEAIRHVRAWIGFDV_EHVTFFIYNKIVDEPEEHV_EKGIYQTSNFRVQPTESIVR_ERYKLEGYAFEHIVY_ESSAKSASVYYSQLM_FKSVLYYQNNVFMSE_GAGAALQIPFAMQMAYRFN_GAISSVLNDILSRLDKVEA_GNYNYLYRLFRKSNLKPFER_GTITSGWTFGAGAALQIPFA_GVFVSNGTHWFVTQRNFYE_HLYLQYIRKLHDELT_HQKLLKSIAATRGAT_IRAAEIRASANLAA_ISTKHFYWFFSNYLK_KDMTYRRLISMMGFK_KDYLASGGQPITNCV_KHFYWFFSNYLKRRV_KRNVIPTITQMNLKYAISAKNRART_KSAFVNLKQLPFFYYSDSPC_KTDGTLMIERFVSLA_KVTSAMQTMLFTMLRKL_LFVAAIFYLITPVHV_LLESELVIGAVILRGHL_LMIERFVSLAIDAYP_LNRNYVFTGYRVTKNSKVQI_LVASIKNFKSVLYYQ_LVVMAYITGGVVQLT_MWLSYFIASFRLFARTRSM_NATRFASVYAWNRKRISNC_NGDFLHFLPRVFSAV_NIFGTVYEKLKPVLD_NINIVGDFKLNEEIA_PAFDKSAFVNLKQLPFFYYS_PASRELKVTFFPDLN_PIGALDISASIVAGGIVAIV_PINLVRDLPQGFSAL_PLSLNMARKTLNSLE_PRQKRTATKAYNVTQAFGR_QESPFVMMSAPPAQY_QMNLKYAISAKNRARTVAGV_QPILLLDQALVSDVG_QQVVDADSKIVQLSE_QTMLFTMLRKLDNDALN_QWLTNIFGTVYEKLK_RHSLSHFVNLDNLRA_RIMASLVLARKHTTC_RLISMMGFKMNYQVN_RVVFNGVSFSTFEEAA_SATLVSDIDITFLKK_SDRDLYDKLQFTSLEIPRRN_SEFSSLPSYAAFATA_SELVIGAVILRGHLRIAGH_SEQLRKQIRSAAKKNNLPFK_SFKELLVYAADPAMH_SFRLFARTRSMWSFN_SGWTFGAGAALQIPFAMQMAYRFNG_SHRFYRLANECAQVL_SLLSKGRLIIRENNRVV_STGSNVFQTRAGCLIGAEH_STQEFRYMNSQGLLP_SVAYESLRPDTRYVLMDGSIIQFPN_SVLLSMQGAVDINKL_SYAAFATAQEAYEQA_TDFVNEFYAYLRKHFSMMILSDDA_TFLLNKEMYLKLRSD_TITQMNLKYAISAKNRARTV_TITSGWTFGAGAALQIPFAMQMAY_TNVLEGSVAYESLRP_TQQLIRAAEIRASANL_TRYVLMDGSIIQFPN_TYRRLISMMGFKMNY_VASIKNFKSVLYYQNNVFMS_VAYESLRPDTRYVLM_VDDIVKTDGTLMIER_VDGVPFVVSTGYHFR_VDTDFVNEFYAYLRK_VEAEVQIDRLITGRLQSLQ_VITFDNLKTLLSLRE_VKDCVVLHSYFTSDYYQLY_VKYLYFIKGLNNLNR_VRKIFVDGVPFVVST_VVFVLWAHGFELTSMKYFVK_WTFGAGAALQIPFAM_YAYLRKHFSMMILSD_YFIASFRLFARTRSMWS_YIICISTKHFYWFFSNYLKRRVVFN_YLKRRVVFNGVSFSTFE_YLTFYLTNDVSFLAH_YSSANNCTFEYVSQPFLMD
p2
cnumpy.core.multiarray
scalar
p3
(cnumpy
dtype
p4
(S'f8'
I0
I1
tRp5
(I3
S'<'
NNNI-1
I-1
I0
tbS'\x93@:\xe3=\xd9\xee?'
tRp6
tp7
a(VAIASEFSSLPSYAAF_ALDISASIVAGGIV_AMQTMLFTMLRKLDN_CTFEYVSQPFLMDLE_DEVARDLSLQFKRPI_DISASIVAGGIVAIVV_DMILSLLSKGRLIIR_DQVILLNKHIDAYKTFPPT_DTDFVNEFYAYLRKHFSMMI_EEAIRHVRAWIGFDV_EHVTFFIYNKIVDEPEEHV_EKGIYQTSNFRVQPTESIVR_ERYKLEGYAFEHIVY_ESSAKSASVYYSQLM_FKSVLYYQNNVFMSE_GAGAALQIPFAMQMAYRFN_GAISSVLNDILSRLDKVEA_GNYNYLYRLFRKSNLKPFER_GTITSGWTFGAGAALQIPFA_GVFVSNGTHWFVTQRNFYE_HLYLQYIRKLHDELT_HQKLLKSIAATRGAT_IRAAEIRASANLAA_ISTKHFYWFFSNYLK_KDMTYRRLISMMGFK_KDYLASGGQPITNCV_KHFYWFFSNYLKRRV_KRNVIPTITQMNLKYAISAKNRART_KSAFVNLKQLPFFYYSDSPC_KTDGTLMIERFVSLA_KVTSAMQTMLFTMLRKL_LMIERFVSLAIDAYP_LNRNYVFTGYRVTKNSKVQI_LVASIKNFKSVLYYQ_LVVMAYITGGVVQLT_MWLSYFIASFRLFARTRSM_NATRFASVYAWNRKRISNC_NGDFLHFLPRVFSAV_NIFGTVYEKLKPVLD_NINIVGDFKLNEEIA_NRYFRLTLGVYDYLV_PAFDKSAFVNLKQLPFFYYS_PASRELKVTFFPDLN_PIGALDISASIVAGGIVAIV_PINLVRDLPQGFSAL_PLSLNMARKTLNSLE_PRQKRTATKAYNVTQAFGR_QESPFVMMSAPPAQY_QMNLKYAISAKNRARTVAGV_QPILLLDQALVSDVG_QQVVDADSKIVQLSE_QTMLFTMLRKLDNDALN_QWLTNIFGTVYEKLK_RHSLSHFVNLDNLRA_RIMASLVLARKHTTC_RVVFNGVSFSTFEEAA_SATLVSDIDITFLKK_SDRDLYDKLQFTSLEIPRRN_SEFSSLPSYAAFATA_SELVIGAVILRGHLRIAGH_SEQLRKQIRSAAKKNNLPFK_SFKELLVYAADPAMH_SFRLFARTRSMWSFN_SGWTFGAGAALQIPFAMQMAYRFNG_SHRFYRLANECAQVL_SIIQFPNTYLEGSVR_SLLSKGRLIIRENNRVV_STGSNVFQTRAGCLIGAEH_STQEFRYMNSQGLLP_SVAYESLRPDTRYVLMDGSIIQFPN_SVLLSMQGAVDINKL_SYAAFATAQEAYEQA_TDFVNEFYAYLRKHFSMMILSDDA_TFLLNKEMYLKLRSD_TITQMNLKYAISAKNRARTV_TITSGWTFGAGAALQIPFAMQMAY_TNVLEGSVAYESLRP_TQQLIRAAEIRASANL_TRYVLMDGSIIQFPN_TYRRLISMMGFKMNY_VASIKNFKSVLYYQNNVFMS_VAYESLRPDTRYVLM_VDDIVKTDGTLMIER_VDGVPFVVSTGYHFR_VDTDFVNEFYAYLRK_VEAEVQIDRLITGRLQSLQ_VITFDNLKTLLSLRE_VKDCVVLHSYFTSDYYQLY_VKYLYFIKGLNNLNR_VRKIFVDGVPFVVST_VVFVLWAHGFELTSMKYFVK_WTFGAGAALQIPFAM_YAYLRKHFSMMILSD_YFIASFRLFARTRSMWS_YIICISTKHFYWFFSNYLKRRVVFN_YKRNRATRVECTTIV_YLKRRVVFNGVSFSTFE_YLTFYLTNDVSFLAH_YSSANNCTFEYVSQPFLMD
p8
g3
(g5
S'\xe0G\xd5!6\xd9\xee?'
tRp9
tp10
a(VAIASEFSSLPSYAAF_ALDISASIVAGGIV_AMQTMLFTMLRKLDN_CTFEYVSQPFLMDLE_DEVARDLSLQFKRPI_DISASIVAGGIVAIVV_DMILSLLSKGRLIIR_DQVILLNKHIDAYKTFPPT_DTDFVNEFYAYLRKHFSMMI_EEAIRHVRAWIGFDV_EHVTFFIYNKIVDEPEEHV_EKGIYQTSNFRVQPTESIVR_ERYKLEGYAFEHIVY_ESSAKSASVYYSQLM_FKSVLYYQNNVFMSE_GAGAALQIPFAMQMAYRFN_GAISSVLNDILSRLDKVEA_GNYNYLYRLFRKSNLKPFER_GTITSGWTFGAGAALQIPFA_GVFVSNGTHWFVTQRNFYE_HLYLQYIRKLHDELT_HQKLLKSIAATRGAT_IRAAEIRASANLAA_ISTKHFYWFFSNYLK_KDMTYRRLISMMGFK_KDYLASGGQPITNCV_KHFYWFFSNYLKRRV_KRNVIPTITQMNLKYAISAKNRART_KSAFVNLKQLPFFYYSDSPC_KTDGTLMIERFVSLA_KVTSAMQTMLFTMLRKL_LMIERFVSLAIDAYP_LNRNYVFTGYRVTKNSKVQI_LVASIKNFKSVLYYQ_LVVMAYITGGVVQLT_MWLSYFIASFRLFARTRSM_NATRFASVYAWNRKRISNC_NGDFLHFLPRVFSAV_NIFGTVYEKLKPVLD_NINIVGDFKLNEEIA_NRYFRLTLGVYDYLV_PAFDKSAFVNLKQLPFFYYS_PASRELKVTFFPDLN_PIGALDISASIVAGGIVAIV_PINLVRDLPQGFSAL_PLLESELVIGAVILRGH_PLSLNMARKTLNSLE_PRQKRTATKAYNVTQAFGR_QESPFVMMSAPPAQY_QMNLKYAISAKNRARTVAGV_QPILLLDQALVSDVG_QQVVDADSKIVQLSE_QTMLFTMLRKLDNDALN_QWLTNIFGTVYEKLK_RHSLSHFVNLDNLRA_RIMASLVLARKHTTC_RLIIRENNRVVISS_RVVFNGVSFSTFEEAA_SATLVSDIDITFLKK_SDRDLYDKLQFTSLEIPRRN_SEFSSLPSYAAFATA_SELVIGAVILRGHLRIAGH_SEQLRKQIRSAAKKNNLPFK_SFKELLVYAADPAMH_SFRLFARTRSMWSFN_SGWTFGAGAALQIPFAMQMAYRFNG_SHRFYRLANECAQVL_SIIQFPNTYLEGSVR_STGSNVFQTRAGCLIGAEH_STQEFRYMNSQGLLP_SVAYESLRPDTRYVLMDGSIIQFPN_SVLLSMQGAVDINKL_SYAAFATAQEAYEQA_TDFVNEFYAYLRKHFSMMILSDDA_TFLLNKEMYLKLRSD_TITQMNLKYAISAKNRARTV_TITSGWTFGAGAALQIPFAMQMAYR_TNVLEGSVAYESLRP_TQQLIRAAEIRASANL_TRYVLMDGSIIQFPN_TYRRLISMMGFKMNY_VASIKNFKSVLYYQNNVFMS_VAYESLRPDTRYVLM_VDDIVKTDGTLMIER_VDGVPFVVSTGYHFR_VDTDFVNEFYAYLRK_VEAEVQIDRLITGRLQSLQ_VITFDNLKTLLSLRE_VKDCVVLHSYFTSDYYQLY_VKYLYFIKGLNNLNR_VRKIFVDGVPFVVST_VVFVLWAHGFELTSMKYFVK_WTFGAGAALQIPFAM_YAYLRKHFSMMILSD_YFIASFRLFARTRSMWS_YIICISTKHFYWFFSNYLKRRVVFN_YLKRRVVFNGVSFSTFE_YLTFYLTNDVSFLAH_YSSANNCTFEYVSQPFLMD
p11
g3
(g5
S'\xe0G\xd5!6\xd9\xee?'
tRp12
tp13
a(VAIASEFSSLPSYAAF_ALDISASIVAGGIV_AMQTMLFTMLRKLDN_CTFEYVSQPFLMDLE_DEVARDLSLQFKRPI_DISASIVAGGIVAIVV_DMILSLLSKGRLIIR_DQVILLNKHIDAYKTFPPT_DTDFVNEFYAYLRKHFSMMI_EEAIRHVRAWIGFDV_EHVTFFIYNKIVDEPEEHV_EKGIYQTSNFRVQPTESIVR_ERYKLEGYAFEHIVY_ESSAKSASVYYSQLM_FKSVLYYQNNVFMSE_GAGAALQIPFAMQMAYRFN_GAISSVLNDILSRLDKVEA_GNYNYLYRLFRKSNLKPFER_GTITSGWTFGAGAALQIPFA_GVFVSNGTHWFVTQRNFYE_HLYLQYIRKLHDELT_HQKLLKSIAATRGAT_IRAAEIRASANLAA_ISTKHFYWFFSNYLK_KDMTYRRLISMMGFK_KDYLASGGQPITNCV_KHFYWFFSNYLKRRV_KRNVIPTITQMNLKYAISAKNRART_KSAFVNLKQLPFFYYSDSPC_KTDGTLMIERFVSLA_KVTSAMQTMLFTMLRKL_LMIERFVSLAIDAYP_LNRNYVFTGYRVTKNSKVQI_LVASIKNFKSVLYYQ_LVVMAYITGGVVQLT_MWLSYFIASFRLFARTRSM_NATRFASVYAWNRKRISNC_NGDFLHFLPRVFSAV_NIFGTVYEKLKPVLD_NINIVGDFKLNEEIA_NRYFRLTLGVYDYLV_PAFDKSAFVNLKQLPFFYYS_PASRELKVTFFPDLN_PIGALDISASIVAGGIVAIV_PINLVRDLPQGFSAL_PLLESELVIGAVILRGHLRI_PLSLNMARKTLNSLE_PRQKRTATKAYNVTQAFGR_QESPFVMMSAPPAQY_QMNLKYAISAKNRARTVAGV_QPILLLDQALVSDVG_QQVVDADSKIVQLSE_QTMLFTMLRKLDNDALN_QWLTNIFGTVYEKLK_RHSLSHFVNLDNLRA_RIMASLVLARKHTTC_RVVFNGVSFSTFEEAA_SATLVSDIDITFLKK_SDRDLYDKLQFTSLEIPRRN_SEFSSLPSYAAFATA_SELVIGAVILRGHLRIAGH_SEQLRKQIRSAAKKNNLPFK_SFKELLVYAADPAMH_SFRLFARTRSMWSFN_SGWTFGAGAALQIPFAMQMAYRFNG_SHRFYRLANECAQVL_SIIQFPNTYLEGSVR_SLLSKGRLIIRENNRVV_STGSNVFQTRAGCLIGAEH_STQEFRYMNSQGLLP_SVAYESLRPDTRYVLMDGSIIQFPN_SVLLSMQGAVDINKL_SYAAFATAQEAYEQA_TDFVNEFYAYLRKHFSMMILSDDA_TFLLNKEMYLKLRSD_TITQMNLKYAISAKNRARTV_TITSGWTFGAGAALQIPFAMQMAYR_TNVLEGSVAYESLRP_TQQLIRAAEIRASANL_TRYVLMDGSIIQFPN_TYRRLISMMGFKMNY_VASIKNFKSVLYYQNNVFMS_VAYESLRPDTRYVLM_VDDIVKTDGTLMIER_VDGVPFVVSTGYHFR_VDTDFVNEFYAYLRK_VEAEVQIDRLITGRLQSLQ_VITFDNLKTLLSLRE_VKDCVVLHSYFTSDYYQLY_VKYLYFIKGLNNLNR_VRKIFVDGVPFVVST_VVFVLWAHGFELTSMKYFVK_WTFGAGAALQIPFAM_YAYLRKHFSMMILSD_YFIASFRLFARTRSMWS_YIICISTKHFYWFFSNYLKRRVVFN_YLKRRVVFNGVSFSTFE_YLTFYLTNDVSFLAH_YSSANNCTFEYVSQPFLMD
p14
g3
(g5
S'\xe0G\xd5!6\xd9\xee?'
tRp15
tp16
a(VAIASEFSSLPSYAAF_ALDISASIVAGGIV_AMQTMLFTMLRKLDN_CTFEYVSQPFLMDLE_DEVARDLSLQFKRPI_DISASIVAGGIVAIVV_DMILSLLSKGRLIIR_DQVILLNKHIDAYKTFPPT_DTDFVNEFYAYLRKHFSMMI_EEAIRHVRAWIGFDV_EHVTFFIYNKIVDEPEEHV_EKGIYQTSNFRVQPTESIVR_ERYKLEGYAFEHIVY_ESSAKSASVYYSQLM_FKSVLYYQNNVFMSE_GAGAALQIPFAMQMAYRFN_GAISSVLNDILSRLDKVEA_GNYNYLYRLFRKSNLKPFER_GTITSGWTFGAGAALQIPFA_GVFVSNGTHWFVTQRNFYE_HLYLQYIRKLHDELT_HQKLLKSIAATRGAT_IRAAEIRASANLAA_ISTKHFYWFFSNYLK_KDMTYRRLISMMGFK_KDYLASGGQPITNCV_KHFYWFFSNYLKRRV_KRNVIPTITQMNLKYAISAKNRART_KSAFVNLKQLPFFYYSDSPC_KTDGTLMIERFVSLA_KVTSAMQTMLFTMLRKL_LLESELVIGAVILRGHL_LMIERFVSLAIDAYP_LNRNYVFTGYRVTKNSKVQI_LVASIKNFKSVLYYQ_LVVMAYITGGVVQLT_MWLSYFIASFRLFARTRSM_NATRFASVYAWNRKRISNC_NGDFLHFLPRVFSAV_NIFGTVYEKLKPVLD_NINIVGDFKLNEEIA_NRYFRLTLGVYDYLV_PAFDKSAFVNLKQLPFFYYS_PASRELKVTFFPDLN_PIGALDISASIVAGGIVAIV_PINLVRDLPQGFSAL_PLSLNMARKTLNSLE_PRQKRTATKAYNVTQAFGR_QESPFVMMSAPPAQY_QMNLKYAISAKNRARTVAGV_QPILLLDQALVSDVG_QQVVDADSKIVQLSE_QTMLFTMLRKLDNDALN_QWLTNIFGTVYEKLK_RHSLSHFVNLDNLRA_RIMASLVLARKHTTC_RVVFNGVSFSTFEEAA_SATLVSDIDITFLKK_SDRDLYDKLQFTSLEIPRRN_SEFSSLPSYAAFATA_SELVIGAVILRGHLRIAGH_SEQLRKQIRSAAKKNNLPFK_SFKELLVYAADPAMH_SFRLFARTRSMWSFN_SGWTFGAGAALQIPFAMQMAYRFNG_SHRFYRLANECAQVL_SIIQFPNTYLEGSVR_SLLSKGRLIIRENNRVV_STGSNVFQTRAGCLIGAEH_STQEFRYMNSQGLLP_SVAYESLRPDTRYVLMDGSIIQFPN_SVLLSMQGAVDINKL_SYAAFATAQEAYEQA_TDFVNEFYAYLRKHFSMMILSDDA_TFLLNKEMYLKLRSD_TITQMNLKYAISAKNRARTV_TITSGWTFGAGAALQIPFAMQMAY_TNVLEGSVAYESLRP_TQQLIRAAEIRASANL_TRYVLMDGSIIQFPN_TYRRLISMMGFKMNY_VASIKNFKSVLYYQNNVFMS_VAYESLRPDTRYVLM_VDDIVKTDGTLMIER_VDGVPFVVSTGYHFR_VDTDFVNEFYAYLRK_VEAEVQIDRLITGRLQSLQ_VITFDNLKTLLSLRE_VKDCVVLHSYFTSDYYQLY_VKYLYFIKGLNNLNR_VRKIFVDGVPFVVST_VVFVLWAHGFELTSMKYFVK_WTFGAGAALQIPFAM_YAYLRKHFSMMILSD_YFIASFRLFARTRSMWS_YIICISTKHFYWFFSNYLKRRVVFN_YLKRRVVFNGVSFSTFE_YLTFYLTNDVSFLAH_YSSANNCTFEYVSQPFLMD
p17
g3
(g5
S'\xe0G\xd5!6\xd9\xee?'
tRp18
tp19
a.