(lp1
(VDTDFVNEFYAYLRKHFSMMI_KHFYWFFSNYLKRRV_LVASIKNFKSVLYYQNNVFM_NFKSVLYYQNNVFMS_NRNYVFTGYRVTKNSKVQIG_QESPFVMMSAPPAQY_QWLTNIFGTVYEKLK_STQEFRYMNSQGLLP_TITQMNLKYAISAKNRARTV_TQQLIRAAEIRASANL_TYRRLISMMGFKMNY_VRKIFVDGVPFVVST
p2
cnumpy.core.multiarray
scalar
p3
(cnumpy
dtype
p4
(S'f8'
I0
I1
tRp5
(I3
S'<'
NNNI-1
I-1
I0
tbS'\\\xa0\r\xe4h4\xee?'
tRp6
tp7
a(VDTDFVNEFYAYLRKHFSMMI_KHFYWFFSNYLKRRV_LNRNYVFTGYRVTKNSKVQI_LVASIKNFKSVLYYQNNVFM_NFKSVLYYQNNVFMS_QESPFVMMSAPPAQY_QWLTNIFGTVYEKLK_STQEFRYMNSQGLLP_TITQMNLKYAISAKNRARTV_TQQLIRAAEIRASANL_TYRRLISMMGFKMNY_VRKIFVDGVPFVVST
p8
g3
(g5
S'\\\xa0\r\xe4h4\xee?'
tRp9
tp10
a(VDTDFVNEFYAYLRKHFSMMI_FKSVLYYQNNVFMSE_KHFYWFFSNYLKRRV_LNRNYVFTGYRVTKNSKVQI_QESPFVMMSAPPAQY_QWLTNIFGTVYEKLK_STQEFRYMNSQGLLP_TITQMNLKYAISAKNRARTV_TQQLIRAAEIRASANL_TYRRLISMMGFKMNY_VASIKNFKSVLYYQNNVFMS_VRKIFVDGVPFVVST
p11
g3
(g5
S'\xcfH\xd1.\x184\xee?'
tRp12
tp13
a(VDTDFVNEFYAYLRKHFSMMI_FKSVLYYQNNVFMSE_KHFYWFFSNYLKRRV_LNRNYVFTGYRVTKNSKVQI_LVASIKNFKSVLYYQNNVFM_QESPFVMMSAPPAQY_QWLTNIFGTVYEKLK_STQEFRYMNSQGLLP_TITQMNLKYAISAKNRARTV_TQQLIRAAEIRASANL_TYRRLISMMGFKMNY_VRKIFVDGVPFVVST
p14
g3
(g5
S'\xcfH\xd1.\x184\xee?'
tRp15
tp16
a(VDTDFVNEFYAYLRKHFSMMI_KHFYWFFSNYLKRRV_KSVLYYQNNVFMSEA_LNRNYVFTGYRVTKNSKVQI_QESPFVMMSAPPAQY_QWLTNIFGTVYEKLK_STQEFRYMNSQGLLP_TITQMNLKYAISAKNRARTV_TQQLIRAAEIRASANL_TYRRLISMMGFKMNY_VASIKNFKSVLYYQNNVFMS_VRKIFVDGVPFVVST
p17
g3
(g5
S'\xccH\xd1.\x184\xee?'
tRp18
tp19
a.