(lp1
(VDTDFVNEFYAYLRKHFSMMI_KHFYWFFSNYLKRRV_LNRNYVFTGYRVTKNSKVQI_QESPFVMMSAPPAQY_QWLTNIFGTVYEKLK_STQEFRYMNSQGLLP_TITQMNLKYAISAKNRARTV_TQQLIRAAEIRASANL_TYRRLISMMGFKMNY_VASIKNFKSVLYYQNNVFMS_VRKIFVDGVPFVVST
p2
cnumpy.core.multiarray
scalar
p3
(cnumpy
dtype
p4
(S'f8'
I0
I1
tRp5
(I3
S'<'
NNNI-1
I-1
I0
tbS'\x885\xd5\x9b\xc6\xf4\xed?'
tRp6
tp7
a(VDTDFVNEFYAYLRKHFSMMI_KHFYWFFSNYLKRRV_LNRNYVFTGYRVTKNSKVQI_LVASIKNFKSVLYYQNNVFM_QESPFVMMSAPPAQY_QWLTNIFGTVYEKLK_STQEFRYMNSQGLLP_TITQMNLKYAISAKNRARTV_TQQLIRAAEIRASANL_TYRRLISMMGFKMNY_VRKIFVDGVPFVVST
p8
g3
(g5
S'\x885\xd5\x9b\xc6\xf4\xed?'
tRp9
tp10
a(VDTDFVNEFYAYLRKHFSMMI_KHFYWFFSNYLKRRV_NRNYVFTGYRVTKNSKVQIG_QESPFVMMSAPPAQY_QWLTNIFGTVYEKLK_STQEFRYMNSQGLLP_TITQMNLKYAISAKNRARTV_TQQLIRAAEIRASANL_TYRRLISMMGFKMNY_VASIKNFKSVLYYQNNVFMS_VRKIFVDGVPFVVST
p11
g3
(g5
S'\xebq\x0ef\xce\xeb\xed?'
tRp12
tp13
a(VDTDFVNEFYAYLRKHFSMMI_KHFYWFFSNYLKRRV_LVASIKNFKSVLYYQNNVFM_NRNYVFTGYRVTKNSKVQIG_QESPFVMMSAPPAQY_QWLTNIFGTVYEKLK_STQEFRYMNSQGLLP_TITQMNLKYAISAKNRARTV_TQQLIRAAEIRASANL_TYRRLISMMGFKMNY_VRKIFVDGVPFVVST
p14
g3
(g5
S'\xebq\x0ef\xce\xeb\xed?'
tRp15
tp16
a(VDTDFVNEFYAYLRKHFSMMI_KHFYWFFSNYLKRRV_QESPFVMMSAPPAQY_QWLTNIFGTVYEKLK_STQEFRYMNSQGLLP_TITQMNLKYAISAKNRARTV_TQQLIRAAEIRASANL_TYRRLISMMGFKMNY_VASIKNFKSVLYYQNNVFMS_VFTGYRVTKNSKVQI_VRKIFVDGVPFVVST
p17
g3
(g5
S'h\x8f\xe6\xf1\xfd\xe4\xed?'
tRp18
tp19
a.