(lp1
(VAIASEFSSLPSYAAF_ALDISASIVAGGIV_AMQTMLFTMLRKLDN_CTFEYVSQPFLMDLE_DEVARDLSLQFKRPI_DISASIVAGGIVAIVV_DQVILLNKHIDAYKTFPPT_DTDFVNEFYAYLRKHFSMMI_EEAIRHVRAWIGFDV_EHVTFFIYNKIVDEPEEHV_EKGIYQTSNFRVQPTESIVR_ESSAKSASVYYSQLM_FKSVLYYQNNVFMSE_GAGAALQIPFAMQMAYRFN_GAISSVLNDILSRLDKVEA_GNYNYLYRLFRKSNLKPFER_GTITSGWTFGAGAALQIPFA_GVFVSNGTHWFVTQRNFYE_HLYLQYIRKLHDELT_HQKLLKSIAATRGAT_IRAAEIRASANLAA_ISTKHFYWFFSNYLK_KDMTYRRLISMMGFK_KHFYWFFSNYLKRRV_KRNVIPTITQMNLKYAISAKNRART_KSAFVNLKQLPFFYYSDSPC_KVTSAMQTMLFTMLRKL_LMIERFVSLAIDAYP_LNRNYVFTGYRVTKNSKVQI_LVASIKNFKSVLYYQ_LVVMAYITGGVVQLT_MWLSYFIASFRLFARTRSM_NATRFASVYAWNRKRISNC_NIFGTVYEKLKPVLD_NINIVGDFKLNEEIA_PAFDKSAFVNLKQLPFFYYS_PIGALDISASIVAGGIVAIV_PINLVRDLPQGFSAL_PLSLNMARKTLNSLE_PRQKRTATKAYNVTQAFGR_QESPFVMMSAPPAQY_QMNLKYAISAKNRARTVAGV_QPILLLDQALVSDVG_QTMLFTMLRKLDNDALN_QWLTNIFGTVYEKLK_RHSLSHFVNLDNLRA_RIMASLVLARKHTTC_RVVFNGVSFSTFEEAA_SDRDLYDKLQFTSLEIPRRN_SEFSSLPSYAAFATA_SELVIGAVILRGHLRIAGH_SEQLRKQIRSAAKKNNLPFK_SFRLFARTRSMWSFN_STQEFRYMNSQGLLP_SVAYESLRPDTRYVLMDGSIIQFPN_SVLLSMQGAVDINKL_SYAAFATAQEAYEQA_TFLLNKEMYLKLRSD_TITQMNLKYAISAKNRARTV_TNVLEGSVAYESLRP_TQQLIRAAEIRASANL_TRYVLMDGSIIQFPN_TSGWTFGAGAALQIPFAMQMAYRFN_TVREVLSDRELHLSW_TYRRLISMMGFKMNY_VASIKNFKSVLYYQNNVFMS_VAYESLRPDTRYVLM_VDDIVKTDGTLMIER_VDGVPFVVSTGYHFR_VDTDFVNEFYAYLRK_VEAEVQIDRLITGRLQSLQ_VITFDNLKTLLSLRE_VKDCVVLHSYFTSDYYQLY_VKYLYFIKGLNNLNR_VRKIFVDGVPFVVST_VVFVLWAHGFELTSMKYFVK_WTFGAGAALQIPFAM_YAYLRKHFSMMILSD_YFIASFRLFARTRSMWS_YIICISTKHFYWFFSNYLKRRVVFN_YLTFYLTNDVSFLAH_YSSANNCTFEYVSQPFLMD
p2
cnumpy.core.multiarray
scalar
p3
(cnumpy
dtype
p4
(S'f8'
I0
I1
tRp5
(I3
S'<'
NNNI-1
I-1
I0
tbS'\xcds\x1e\xd0O\x0b\xef?'
tRp6
tp7
a(VAIASEFSSLPSYAAF_ALDISASIVAGGIV_AMQTMLFTMLRKLDN_CTFEYVSQPFLMDLE_DEVARDLSLQFKRPI_DISASIVAGGIVAIVV_DQVILLNKHIDAYKTFPPT_DTDFVNEFYAYLRKHFSMMI_EEAIRHVRAWIGFDV_EHVTFFIYNKIVDEPEEHV_EKGIYQTSNFRVQPTESIVR_ESSAKSASVYYSQLM_FKSVLYYQNNVFMSE_GAGAALQIPFAMQMAYRFN_GAISSVLNDILSRLDKVEA_GNYNYLYRLFRKSNLKPFER_GTITSGWTFGAGAALQIPFA_GVFVSNGTHWFVTQRNFYE_HLYLQYIRKLHDELT_HQKLLKSIAATRGAT_IRAAEIRASANLAA_ISTKHFYWFFSNYLK_KDMTYRRLISMMGFK_KHFYWFFSNYLKRRV_KRNVIPTITQMNLKYAISAKNRART_KSAFVNLKQLPFFYYSDSPC_KVTSAMQTMLFTMLRKL_LMIERFVSLAIDAYP_LNRNYVFTGYRVTKNSKVQI_LVASIKNFKSVLYYQ_LVVMAYITGGVVQLT_MWLSYFIASFRLFARTRSM_NATRFASVYAWNRKRISNC_NIFGTVYEKLKPVLD_NINIVGDFKLNEEIA_PAFDKSAFVNLKQLPFFYYS_PIGALDISASIVAGGIVAIV_PINLVRDLPQGFSAL_PLSLNMARKTLNSLE_PRQKRTATKAYNVTQAFGR_QESPFVMMSAPPAQY_QMNLKYAISAKNRARTVAGV_QPILLLDQALVSDVG_QTMLFTMLRKLDNDALN_QWLTNIFGTVYEKLK_RHSLSHFVNLDNLRA_RIMASLVLARKHTTC_RVVFNGVSFSTFEEAA_SATLVSDIDITFLKK_SDRDLYDKLQFTSLEIPRRN_SEFSSLPSYAAFATA_SELVIGAVILRGHLRIAGH_SEQLRKQIRSAAKKNNLPFK_SFRLFARTRSMWSFN_SGWTFGAGAALQIPFAMQMAYRFNG_STQEFRYMNSQGLLP_SVAYESLRPDTRYVLMDGSIIQFPN_SVLLSMQGAVDINKL_SYAAFATAQEAYEQA_TFLLNKEMYLKLRSD_TITQMNLKYAISAKNRARTV_TNVLEGSVAYESLRP_TQQLIRAAEIRASANL_TRYVLMDGSIIQFPN_TYRRLISMMGFKMNY_VASIKNFKSVLYYQNNVFMS_VAYESLRPDTRYVLM_VDDIVKTDGTLMIER_VDGVPFVVSTGYHFR_VDTDFVNEFYAYLRK_VEAEVQIDRLITGRLQSLQ_VITFDNLKTLLSLRE_VKDCVVLHSYFTSDYYQLY_VKYLYFIKGLNNLNR_VRKIFVDGVPFVVST_VVFVLWAHGFELTSMKYFVK_WTFGAGAALQIPFAM_YAYLRKHFSMMILSD_YFIASFRLFARTRSMWS_YIICISTKHFYWFFSNYLKRRVVFN_YLTFYLTNDVSFLAH_YSSANNCTFEYVSQPFLMD
p8
g3
(g5
S'\xcds\x1e\xd0O\x0b\xef?'
tRp9
tp10
a(VAIASEFSSLPSYAAF_ALDISASIVAGGIV_AMQTMLFTMLRKLDN_CTFEYVSQPFLMDLE_DEVARDLSLQFKRPI_DISASIVAGGIVAIVV_DQVILLNKHIDAYKTFPPT_DTDFVNEFYAYLRKHFSMMI_EEAIRHVRAWIGFDV_EHVTFFIYNKIVDEPEEHV_EKGIYQTSNFRVQPTESIVR_ESSAKSASVYYSQLM_FKSVLYYQNNVFMSE_GAGAALQIPFAMQMAYRFN_GAISSVLNDILSRLDKVEA_GNYNYLYRLFRKSNLKPFER_GTITSGWTFGAGAALQIPFA_GVFVSNGTHWFVTQRNFYE_HLYLQYIRKLHDELT_HQKLLKSIAATRGAT_IRAAEIRASANLAA_ISTKHFYWFFSNYLK_ITFDNLKTLLSLREV_KDMTYRRLISMMGFK_KHFYWFFSNYLKRRV_KRNVIPTITQMNLKYAISAKNRART_KSAFVNLKQLPFFYYSDSPC_KVTSAMQTMLFTMLRKL_LMIERFVSLAIDAYP_LNRNYVFTGYRVTKNSKVQI_LVASIKNFKSVLYYQ_LVVMAYITGGVVQLT_MWLSYFIASFRLFARTRSM_NATRFASVYAWNRKRISNC_NIFGTVYEKLKPVLD_NINIVGDFKLNEEIA_PAFDKSAFVNLKQLPFFYYS_PIGALDISASIVAGGIVAIV_PINLVRDLPQGFSAL_PLSLNMARKTLNSLE_PRQKRTATKAYNVTQAFGR_QESPFVMMSAPPAQY_QMNLKYAISAKNRARTVAGV_QPILLLDQALVSDVG_QTMLFTMLRKLDNDALN_QWLTNIFGTVYEKLK_RHSLSHFVNLDNLRA_RIMASLVLARKHTTC_RVVFNGVSFSTFEEAA_SDRDLYDKLQFTSLEIPRRN_SEFSSLPSYAAFATA_SELVIGAVILRGHLRIAGH_SEQLRKQIRSAAKKNNLPFK_SFRLFARTRSMWSFN_STQEFRYMNSQGLLP_SVAYESLRPDTRYVLMDGSIIQFPN_SVLLSMQGAVDINKL_SYAAFATAQEAYEQA_TFLLNKEMYLKLRSD_TITQMNLKYAISAKNRARTV_TNVLEGSVAYESLRP_TQQLIRAAEIRASANL_TRYVLMDGSIIQFPN_TSGWTFGAGAALQIPFAMQMAYRFN_TVREVLSDRELHLSW_TYRRLISMMGFKMNY_VASIKNFKSVLYYQNNVFMS_VAYESLRPDTRYVLM_VDDIVKTDGTLMIER_VDGVPFVVSTGYHFR_VDTDFVNEFYAYLRK_VEAEVQIDRLITGRLQSLQ_VKDCVVLHSYFTSDYYQLY_VKYLYFIKGLNNLNR_VRKIFVDGVPFVVST_VVFVLWAHGFELTSMKYFVK_WTFGAGAALQIPFAM_YAYLRKHFSMMILSD_YFIASFRLFARTRSMWS_YIICISTKHFYWFFSNYLKRRVVFN_YLTFYLTNDVSFLAH_YSSANNCTFEYVSQPFLMD
p11
g6
tp12
a(VAIASEFSSLPSYAAF_ALDISASIVAGGIV_AMQTMLFTMLRKLDN_CTFEYVSQPFLMDLE_DEVARDLSLQFKRPI_DISASIVAGGIVAIVV_DQVILLNKHIDAYKTFPPT_DTDFVNEFYAYLRKHFSMMI_EEAIRHVRAWIGFDV_EHVTFFIYNKIVDEPEEHV_EKGIYQTSNFRVQPTESIVR_ESSAKSASVYYSQLM_FKSVLYYQNNVFMSE_GAGAALQIPFAMQMAYRFN_GAISSVLNDILSRLDKVEA_GNYNYLYRLFRKSNLKPFER_GTITSGWTFGAGAALQIPFA_GVFVSNGTHWFVTQRNFYE_HLYLQYIRKLHDELT_HQKLLKSIAATRGAT_IRAAEIRASANLAA_ISTKHFYWFFSNYLK_ITFDNLKTLLSLREV_KDMTYRRLISMMGFK_KHFYWFFSNYLKRRV_KRNVIPTITQMNLKYAISAKNRART_KSAFVNLKQLPFFYYSDSPC_KVTSAMQTMLFTMLRKL_LMIERFVSLAIDAYP_LNRNYVFTGYRVTKNSKVQI_LVASIKNFKSVLYYQ_LVVMAYITGGVVQLT_MWLSYFIASFRLFARTRSM_NATRFASVYAWNRKRISNC_NIFGTVYEKLKPVLD_NINIVGDFKLNEEIA_PAFDKSAFVNLKQLPFFYYS_PIGALDISASIVAGGIVAIV_PINLVRDLPQGFSAL_PLSLNMARKTLNSLE_PRQKRTATKAYNVTQAFGR_QESPFVMMSAPPAQY_QMNLKYAISAKNRARTVAGV_QPILLLDQALVSDVG_QTMLFTMLRKLDNDALN_QWLTNIFGTVYEKLK_RHSLSHFVNLDNLRA_RIMASLVLARKHTTC_RVVFNGVSFSTFEEAA_SATLVSDIDITFLKK_SDRDLYDKLQFTSLEIPRRN_SEFSSLPSYAAFATA_SELVIGAVILRGHLRIAGH_SEQLRKQIRSAAKKNNLPFK_SFRLFARTRSMWSFN_SGWTFGAGAALQIPFAMQMAYRFNG_STQEFRYMNSQGLLP_SVAYESLRPDTRYVLMDGSIIQFPN_SVLLSMQGAVDINKL_SYAAFATAQEAYEQA_TFLLNKEMYLKLRSD_TITQMNLKYAISAKNRARTV_TNVLEGSVAYESLRP_TQQLIRAAEIRASANL_TRYVLMDGSIIQFPN_TYRRLISMMGFKMNY_VASIKNFKSVLYYQNNVFMS_VAYESLRPDTRYVLM_VDDIVKTDGTLMIER_VDGVPFVVSTGYHFR_VDTDFVNEFYAYLRK_VEAEVQIDRLITGRLQSLQ_VKDCVVLHSYFTSDYYQLY_VKYLYFIKGLNNLNR_VRKIFVDGVPFVVST_VVFVLWAHGFELTSMKYFVK_WTFGAGAALQIPFAM_YAYLRKHFSMMILSD_YFIASFRLFARTRSMWS_YIICISTKHFYWFFSNYLKRRVVFN_YLTFYLTNDVSFLAH_YSSANNCTFEYVSQPFLMD
p13
g9
tp14
a(VAIASEFSSLPSYAAF_ALDISASIVAGGIV_AMQTMLFTMLRKLDN_CTFEYVSQPFLMDLE_DEVARDLSLQFKRPI_DISASIVAGGIVAIVV_DQVILLNKHIDAYKTFPPT_DTDFVNEFYAYLRKHFSMMI_EEAIRHVRAWIGFDV_EHVTFFIYNKIVDEPEEHV_EKGIYQTSNFRVQPTESIVR_ESSAKSASVYYSQLM_FKSVLYYQNNVFMSE_GAGAALQIPFAMQMAYRFN_GAISSVLNDILSRLDKVEA_GNYNYLYRLFRKSNLKPFER_GTITSGWTFGAGAALQIPFA_GVFVSNGTHWFVTQRNFYE_HLYLQYIRKLHDELT_HQKLLKSIAATRGAT_IQQVVDADSKIVQLS_IRAAEIRASANLAA_ISTKHFYWFFSNYLK_KDMTYRRLISMMGFK_KHFYWFFSNYLKRRV_KRNVIPTITQMNLKYAISAKNRART_KSAFVNLKQLPFFYYSDSPC_KVTSAMQTMLFTMLRKL_LMIERFVSLAIDAYP_LNRNYVFTGYRVTKNSKVQI_LVASIKNFKSVLYYQ_LVVMAYITGGVVQLT_MQTMLFTMLRKLDNDALNNI_MWLSYFIASFRLFARTRSM_NATRFASVYAWNRKRISNC_NIFGTVYEKLKPVLD_NINIVGDFKLNEEIA_PAFDKSAFVNLKQLPFFYYS_PIGALDISASIVAGGIVAIV_PLSLNMARKTLNSLE_PRQKRTATKAYNVTQAFGR_QESPFVMMSAPPAQY_QMNLKYAISAKNRARTVAGV_QPILLLDQALVSDVG_QWLTNIFGTVYEKLK_RHSLSHFVNLDNLRA_RIMASLVLARKHTTC_RVVFNGVSFSTFEEAA_SDRDLYDKLQFTSLEIPRRN_SEFSSLPSYAAFATA_SELVIGAVILRGHLRIAGH_SEQLRKQIRSAAKKNNLPFK_SFRLFARTRSMWSFN_STQEFRYMNSQGLLP_SVAYESLRPDTRYVLMDGSIIQFPN_SVLLSMQGAVDINKL_SYAAFATAQEAYEQA_TFCAGSTFISDEVARDLSLQFKRP_TFLLNKEMYLKLRSD_TITQMNLKYAISAKNRARTV_TNVLEGSVAYESLRP_TQQLIRAAEIRASANL_TRYVLMDGSIIQFPN_TSGWTFGAGAALQIPFAMQMAYRFN_TYRRLISMMGFKMNY_VASIKNFKSVLYYQNNVFMS_VAYESLRPDTRYVLM_VDDIVKTDGTLMIER_VDGVPFVVSTGYHFR_VDTDFVNEFYAYLRK_VEAEVQIDRLITGRLQSLQ_VITFDNLKTLLSLRE_VKDCVVLHSYFTSDYYQLY_VKYLYFIKGLNNLNR_VRKIFVDGVPFVVST_VVFVLWAHGFELTSMKYFVK_WTFGAGAALQIPFAM_YAYLRKHFSMMILSD_YFIASFRLFARTRSMWS_YIICISTKHFYWFFSNYLKRRVVFN_YLTFYLTNDVSFLAH_YSSANNCTFEYVSQPFLMD
p15
g3
(g5
S'\xcds\x1e\xd0O\x0b\xef?'
tRp16
tp17
a.