(lp1
(VKHFYWFFSNYLKRRV_TQMNLKYAISAKNRARTVAG_TQQLIRAAEIRASANL_TYRRLISMMGFKMNY_VRKIFVDGVPFVVST
p2
cnumpy.core.multiarray
scalar
p3
(cnumpy
dtype
p4
(S'f8'
I0
I1
tRp5
(I3
S'<'
NNNI-1
I-1
I0
tbS'\xddh\xa0\xc3\x1d!\xef?'
tRp6
tp7
a(VITQMNLKYAISAKNRARTVA_KHFYWFFSNYLKRRV_TQQLIRAAEIRASANL_TYRRLISMMGFKMNY_VRKIFVDGVPFVVST
p8
g3
(g5
S'\xdch\xa0\xc3\x1d!\xef?'
tRp9
tp10
a(VKHFYWFFSNYLKRRV_TITQMNLKYAISAKNRARTV_TQQLIRAAEIRASANL_TYRRLISMMGFKMNY_VRKIFVDGVPFVVST
p11
g3
(g5
S'\xd0h\xa0\xc3\x1d!\xef?'
tRp12
tp13
a(VKHFYWFFSNYLKRRV_QQLIRAAEIRASANLA_TQMNLKYAISAKNRARTVAG_TYRRLISMMGFKMNY_VRKIFVDGVPFVVST
p14
g3
(g5
S'\xc8h\xa0\xc3\x1d!\xef?'
tRp15
tp16
a(VITQMNLKYAISAKNRARTVA_KHFYWFFSNYLKRRV_QQLIRAAEIRASANLA_TYRRLISMMGFKMNY_VRKIFVDGVPFVVST
p17
g3
(g5
S'\xc8h\xa0\xc3\x1d!\xef?'
tRp18
tp19
a.