(lp1
(VDTDFVNEFYAYLRKHFSMMI_KHFYWFFSNYLKRRV_NFKSVLYYQNNVFMS_QESPFVMMSAPPAQY_QWLTNIFGTVYEKLK_STQEFRYMNSQGLLP_TITQMNLKYAISAKNRARTV_TQQLIRAAEIRASANL_TYRRLISMMGFKMNY_VRKIFVDGVPFVVST
p2
cnumpy.core.multiarray
scalar
p3
(cnumpy
dtype
p4
(S'f8'
I0
I1
tRp5
(I3
S'<'
NNNI-1
I-1
I0
tbS'\xa7\xf5H\x16_\xad\xee?'
tRp6
tp7
a(VDTDFVNEFYAYLRKHFSMMI_FKSVLYYQNNVFMSE_KHFYWFFSNYLKRRV_QESPFVMMSAPPAQY_QWLTNIFGTVYEKLK_STQEFRYMNSQGLLP_TITQMNLKYAISAKNRARTV_TQQLIRAAEIRASANL_TYRRLISMMGFKMNY_VRKIFVDGVPFVVST
p8
g3
(g5
S'\x18[~\x0c\x13\xa2\xee?'
tRp9
tp10
a(VDTDFVNEFYAYLRKHFSMMI_KHFYWFFSNYLKRRV_KSVLYYQNNVFMSEA_QESPFVMMSAPPAQY_QWLTNIFGTVYEKLK_STQEFRYMNSQGLLP_TITQMNLKYAISAKNRARTV_TQQLIRAAEIRASANL_TYRRLISMMGFKMNY_VRKIFVDGVPFVVST
p11
g3
(g5
S'\x13[~\x0c\x13\xa2\xee?'
tRp12
tp13
a(VDTDFVNEFYAYLRKHFSMMI_KHFYWFFSNYLKRRV_QESPFVMMSAPPAQY_QWLTNIFGTVYEKLK_STQEFRYMNSQGLLP_TITQMNLKYAISAKNRARTV_TQQLIRAAEIRASANL_TYRRLISMMGFKMNY_VASIKNFKSVLYYQNNVFMS_VRKIFVDGVPFVVST
p14
g3
(g5
S'\xd5\xacU\xc0"\xa1\xee?'
tRp15
tp16
a(VDTDFVNEFYAYLRKHFSMMI_KHFYWFFSNYLKRRV_LVASIKNFKSVLYYQNNVFM_QESPFVMMSAPPAQY_QWLTNIFGTVYEKLK_STQEFRYMNSQGLLP_TITQMNLKYAISAKNRARTV_TQQLIRAAEIRASANL_TYRRLISMMGFKMNY_VRKIFVDGVPFVVST
p17
g15
tp18
a.