(lp1
(S'IITLKKRWQLALSKGVHFV_RWYFYYLGTGPEAGLPYGA_SELVIGAVILRGHLRIAGH_SFRLFARTRSMWSFNPETN_SRTLSYYKLGASQRVAGDS_SYFTSDYYQLYSTQLSTDT_VKDCVVLHSYFTSDYYQLY'
p2
cnumpy.core.multiarray
scalar
p3
(cnumpy
dtype
p4
(S'f8'
I0
I1
tRp5
(I3
S'<'
NNNI-1
I-1
I0
tbS'P\xdd\xa5\xbf\xaa\xbf\xee?'
tRp6
tp7
a(S'IITLKKRWQLALSKGVHFV_RWYFYYLGTGPEAGLPYGA_SELVIGAVILRGHLRIAGH_SFRLFARTRSMWSFNPETN_SSPDDQIGYYRRATRRIRG_SYFTSDYYQLYSTQLSTDT_VKDCVVLHSYFTSDYYQLY'
p8
g3
(g5
S'O\xdd\xa5\xbf\xaa\xbf\xee?'
tRp9
tp10
a(S'IITLKKRWQLALSKGVHFV_PRQKRTATKAYNVTQAFGR_RWYFYYLGTGPEAGLPYGA_SYFTSDYYQLYSTQLSTDT_TGPEAGLPYGANKDGIIWV_TSPARMAGNGGDAALALLL_VKDCVVLHSYFTSDYYQLY'
p11
g3
(g5
S'e\x1ed\xaaD\xbe\xee?'
tRp12
tp13
a(S'IITLKKRWQLALSKGVHFV_PRQKRTATKAYNVTQAFGR_RCSFYEDFLEYHDVRVVLDFI_RWYFYYLGTGPEAGLPYGA_SYFTSDYYQLYSTQLSTDT_TSPARMAGNGGDAALALLL_VKDCVVLHSYFTSDYYQLY'
p14
g3
(g5
S'e\x1ed\xaaD\xbe\xee?'
tRp15
tp16
a(S'IITLKKRWQLALSKGVHFV_PRQKRTATKAYNVTQAFGR_RCSFYEDFLEYHDVRVVLDFI_RWYFYYLGTGPEAGLPYGA_SYFTSDYYQLYSTQLSTDT_TGPEAGLPYGANKDGIIWV_VKDCVVLHSYFTSDYYQLY'
p17
g3
(g5
S'e\x1ed\xaaD\xbe\xee?'
tRp18
tp19
a(S'AVFQSASKIITLKKRWQLA_IITLKKRWQLALSKGVHFV_RWYFYYLGTGPEAGLPYGA_SELVIGAVILRGHLRIAGH_SFRLFARTRSMWSFNPETN_SRTLSYYKLGASQRVAGDS_VKDCVVLHSYFTSDYYQLY'
p20
g3
(g5
S'\x17Fy\xce\xad\xa5\xee?'
tRp21
tp22
a(S'AVFQSASKIITLKKRWQLA_IITLKKRWQLALSKGVHFV_RWYFYYLGTGPEAGLPYGA_SELVIGAVILRGHLRIAGH_SFRLFARTRSMWSFNPETN_SRTLSYYKLGASQRVAGDS_SYFTSDYYQLYSTQLSTDT'
p23
g3
(g5
S'\x17Fy\xce\xad\xa5\xee?'
tRp24
tp25
a(S'AVFQSASKIITLKKRWQLA_IITLKKRWQLALSKGVHFV_RWYFYYLGTGPEAGLPYGA_SELVIGAVILRGHLRIAGH_SFRLFARTRSMWSFNPETN_SSPDDQIGYYRRATRRIRG_VKDCVVLHSYFTSDYYQLY'
p26
g3
(g5
S'\x15Fy\xce\xad\xa5\xee?'
tRp27
tp28
a(S'AVFQSASKIITLKKRWQLA_IITLKKRWQLALSKGVHFV_RWYFYYLGTGPEAGLPYGA_SELVIGAVILRGHLRIAGH_SFRLFARTRSMWSFNPETN_SSPDDQIGYYRRATRRIRG_SYFTSDYYQLYSTQLSTDT'
p29
g3
(g5
S'\x14Fy\xce\xad\xa5\xee?'
tRp30
tp31
a(S'AVFQSASKIITLKKRWQLA_IITLKKRWQLALSKGVHFV_PRQKRTATKAYNVTQAFGR_RWYFYYLGTGPEAGLPYGA_SYFTSDYYQLYSTQLSTDT_TGPEAGLPYGANKDGIIWV_TSPARMAGNGGDAALALLL'
p32
g3
(g5
S'\x13Fy\xce\xad\xa5\xee?'
tRp33
tp34
a.