(lp1
(S'AVFQSASKIITLKKRWQLA_DGVKHVYQLRARSVSPKLFI_DNKFALTCFSTQFAFACPDG_DQVILLNKHIDAYKTFPPT_EHVTFFIYNKIVDEPEEHV_HQPYVVDDPCPIHFYSKWYI_IITLKKRWQLALSKGVHFV_MDLFMRIFTIGTVTLKQGE_MWLSYFIASFRLFARTRSM_NGGDAALALLLLDRLNQLE_PKEITVATSRTLSYYKLGA_PRQKRTATKAYNVTQAFGR_PSDFVRATATIPIQASLPF_RWYFYYLGTGPEAGLPYGA_SFRLFARTRSMWSFNPETN_SYFTSDYYQLYSTQLSTDT_TGPEAGLPYGANKDGIIWV_TSPARMAGNGGDAALALLL_TYTGAIKLDDKDPNFKDQV_VKDCVVLHSYFTSDYYQLY'
p2
cnumpy.core.multiarray
scalar
p3
(cnumpy
dtype
p4
(S'f8'
I0
I1
tRp5
(I3
S'<'
NNNI-1
I-1
I0
tbS'\xf8\xd0X\xdbaK\xed?'
tRp6
tp7
a(S'AVFQSASKIITLKKRWQLA_DGVKHVYQLRARSVSPKLFI_DNKFALTCFSTQFAFACPDG_DQVILLNKHIDAYKTFPPT_EHVTFFIYNKIVDEPEEHV_HQPYVVDDPCPIHFYSKWYI_IITLKKRWQLALSKGVHFV_MDLFMRIFTIGTVTLKQGE_MWLSYFIASFRLFARTRSM_NGGDAALALLLLDRLNQLE_PKEITVATSRTLSYYKLGA_PRQKRTATKAYNVTQAFGR_PSDFVRATATIPIQASLPF_RCSFYEDFLEYHDVRVVLDFI_RWYFYYLGTGPEAGLPYGA_SFRLFARTRSMWSFNPETN_SYFTSDYYQLYSTQLSTDT_TSPARMAGNGGDAALALLL_TYTGAIKLDDKDPNFKDQV_VKDCVVLHSYFTSDYYQLY'
p8
g3
(g5
S'\xf8\xd0X\xdbaK\xed?'
tRp9
tp10
a(S'AVFQSASKIITLKKRWQLA_DGVKHVYQLRARSVSPKLFI_DNKFALTCFSTQFAFACPDG_DQVILLNKHIDAYKTFPPT_EHVTFFIYNKIVDEPEEHV_HQPYVVDDPCPIHFYSKWYI_IITLKKRWQLALSKGVHFV_MDLFMRIFTIGTVTLKQGE_MWLSYFIASFRLFARTRSM_NGGDAALALLLLDRLNQLE_PKEITVATSRTLSYYKLGA_PRQKRTATKAYNVTQAFGR_PSDFVRATATIPIQASLPF_RCSFYEDFLEYHDVRVVLDFI_RWYFYYLGTGPEAGLPYGA_SFRLFARTRSMWSFNPETN_SYFTSDYYQLYSTQLSTDT_TGPEAGLPYGANKDGIIWV_TYTGAIKLDDKDPNFKDQV_VKDCVVLHSYFTSDYYQLY'
p11
g3
(g5
S'\xf8\xd0X\xdbaK\xed?'
tRp12
tp13
a(S'AVFQSASKIITLKKRWQLA_DGVKHVYQLRARSVSPKLFI_DNKFALTCFSTQFAFACPDG_DQVILLNKHIDAYKTFPPT_HQPYVVDDPCPIHFYSKWYI_IITLKKRWQLALSKGVHFV_MDLFMRIFTIGTVTLKQGE_MWLSYFIASFRLFARTRSM_NGGDAALALLLLDRLNQLE_PKEITVATSRTLSYYKLGA_PRQKRTATKAYNVTQAFGR_PSDFVRATATIPIQASLPF_RWYFYYLGTGPEAGLPYGA_SFRLFARTRSMWSFNPETN_SYFTSDYYQLYSTQLSTDT_TGPEAGLPYGANKDGIIWV_TSPARMAGNGGDAALALLL_TYTGAIKLDDKDPNFKDQV_VKDCVVLHSYFTSDYYQLY_YLYALVYFLQSINFVRIIM'
p14
g3
(g5
S'!\xe0F\x9e\xbaH\xed?'
tRp15
tp16
a(S'AVFQSASKIITLKKRWQLA_DGVKHVYQLRARSVSPKLFI_DNKFALTCFSTQFAFACPDG_DQVILLNKHIDAYKTFPPT_EHVTFFIYNKIVDEPEEHV_HQPYVVDDPCPIHFYSKWYI_IITLKKRWQLALSKGVHFV_MDLFMRIFTIGTVTLKQGE_MWLSYFIASFRLFARTRSM_NGGDAALALLLLDRLNQLE_PKEITVATSRTLSYYKLGA_PRQKRTATKAYNVTQAFGR_PSDFVRATATIPIQASLPF_RWYFYYLGTGPEAGLPYGA_SYFTSDYYQLYSTQLSTDT_TGPEAGLPYGANKDGIIWV_TSPARMAGNGGDAALALLL_TYTGAIKLDDKDPNFKDQV_VKDCVVLHSYFTSDYYQLY_YLYALVYFLQSINFVRIIM'
p17
g3
(g5
S'!\xe0F\x9e\xbaH\xed?'
tRp18
tp19
a(S'AVFQSASKIITLKKRWQLA_DGVKHVYQLRARSVSPKLFI_DNKFALTCFSTQFAFACPDG_EHVTFFIYNKIVDEPEEHV_HQPYVVDDPCPIHFYSKWYI_IITLKKRWQLALSKGVHFV_MDLFMRIFTIGTVTLKQGE_MWLSYFIASFRLFARTRSM_NGGDAALALLLLDRLNQLE_PKEITVATSRTLSYYKLGA_PRQKRTATKAYNVTQAFGR_PSDFVRATATIPIQASLPF_RWYFYYLGTGPEAGLPYGA_SFRLFARTRSMWSFNPETN_SYFTSDYYQLYSTQLSTDT_TGPEAGLPYGANKDGIIWV_TSPARMAGNGGDAALALLL_TYTGAIKLDDKDPNFKDQV_VKDCVVLHSYFTSDYYQLY_YLYALVYFLQSINFVRIIM'
p20
g3
(g5
S' \xe0F\x9e\xbaH\xed?'
tRp21
tp22
a(S'AVFQSASKIITLKKRWQLA_DGVKHVYQLRARSVSPKLFI_DNKFALTCFSTQFAFACPDG_EHVTFFIYNKIVDEPEEHV_HQPYVVDDPCPIHFYSKWYI_IITLKKRWQLALSKGVHFV_MDLFMRIFTIGTVTLKQGE_MWLSYFIASFRLFARTRSM_NGGDAALALLLLDRLNQLE_PKEITVATSRTLSYYKLGA_PRQKRTATKAYNVTQAFGR_PSDFVRATATIPIQASLPF_RCSFYEDFLEYHDVRVVLDFI_RWYFYYLGTGPEAGLPYGA_SFRLFARTRSMWSFNPETN_SYFTSDYYQLYSTQLSTDT_TSPARMAGNGGDAALALLL_TYTGAIKLDDKDPNFKDQV_VKDCVVLHSYFTSDYYQLY_YLYALVYFLQSINFVRIIM'
p23
g3
(g5
S' \xe0F\x9e\xbaH\xed?'
tRp24
tp25
a(S'AVFQSASKIITLKKRWQLA_DGVKHVYQLRARSVSPKLFI_DNKFALTCFSTQFAFACPDG_EHVTFFIYNKIVDEPEEHV_HQPYVVDDPCPIHFYSKWYI_IITLKKRWQLALSKGVHFV_MDLFMRIFTIGTVTLKQGE_MWLSYFIASFRLFARTRSM_NGGDAALALLLLDRLNQLE_PKEITVATSRTLSYYKLGA_PRQKRTATKAYNVTQAFGR_PSDFVRATATIPIQASLPF_RCSFYEDFLEYHDVRVVLDFI_RWYFYYLGTGPEAGLPYGA_SFRLFARTRSMWSFNPETN_SYFTSDYYQLYSTQLSTDT_TGPEAGLPYGANKDGIIWV_TYTGAIKLDDKDPNFKDQV_VKDCVVLHSYFTSDYYQLY_YLYALVYFLQSINFVRIIM'
p26
g3
(g5
S' \xe0F\x9e\xbaH\xed?'
tRp27
tp28
a(S'AVFQSASKIITLKKRWQLA_DGVKHVYQLRARSVSPKLFI_DNKFALTCFSTQFAFACPDG_DQVILLNKHIDAYKTFPPT_EHVTFFIYNKIVDEPEEHV_HQPYVVDDPCPIHFYSKWYI_IITLKKRWQLALSKGVHFV_MDLFMRIFTIGTVTLKQGE_MWLSYFIASFRLFARTRSM_NGGDAALALLLLDRLNQLE_PKEITVATSRTLSYYKLGA_PRQKRTATKAYNVTQAFGR_PSDFVRATATIPIQASLPF_RCSFYEDFLEYHDVRVVLDFI_RWYFYYLGTGPEAGLPYGA_SYFTSDYYQLYSTQLSTDT_TSPARMAGNGGDAALALLL_TYTGAIKLDDKDPNFKDQV_VKDCVVLHSYFTSDYYQLY_YLYALVYFLQSINFVRIIM'
p29
g3
(g5
S' \xe0F\x9e\xbaH\xed?'
tRp30
tp31
a(S'AVFQSASKIITLKKRWQLA_DGVKHVYQLRARSVSPKLFI_DNKFALTCFSTQFAFACPDG_DQVILLNKHIDAYKTFPPT_EHVTFFIYNKIVDEPEEHV_HQPYVVDDPCPIHFYSKWYI_IITLKKRWQLALSKGVHFV_MDLFMRIFTIGTVTLKQGE_MWLSYFIASFRLFARTRSM_NGGDAALALLLLDRLNQLE_PKEITVATSRTLSYYKLGA_PRQKRTATKAYNVTQAFGR_PSDFVRATATIPIQASLPF_RCSFYEDFLEYHDVRVVLDFI_RWYFYYLGTGPEAGLPYGA_SYFTSDYYQLYSTQLSTDT_TGPEAGLPYGANKDGIIWV_TYTGAIKLDDKDPNFKDQV_VKDCVVLHSYFTSDYYQLY_YLYALVYFLQSINFVRIIM'
p32
g3
(g5
S' \xe0F\x9e\xbaH\xed?'
tRp33
tp34
a.