(lp1
(S'SELVIGAVILRGHLRIAGH'
p2
cnumpy.core.multiarray
scalar
p3
(cnumpy
dtype
p4
(S'f8'
I0
I1
tRp5
(I3
S'<'
NNNI-1
I-1
I0
tbS'\x8b3]w\xcc\xc4\xef?'
tRp6
tp7
a(S'PRQKRTATKAYNVTQAFGR'
p8
g3
(g5
S'\x8b3]w\xcc\xc4\xef?'
tRp9
tp10
a(S'IITLKKRWQLALSKGVHFV'
p11
g3
(g5
S'\x8b3]w\xcc\xc4\xef?'
tRp12
tp13
a(S'DGVKHVYQLRARSVSPKLFI'
p14
g3
(g5
S'\x8b3]w\xcc\xc4\xef?'
tRp15
tp16
a(S'SRTLSYYKLGASQRVAGDS'
p17
g3
(g5
S'\x893]w\xcc\xc4\xef?'
tRp18
tp19
a(S'PSFYVYSRVKNLNSSRVPDLLV'
p20
g3
(g5
S'\x893]w\xcc\xc4\xef?'
tRp21
tp22
a(S'LACFVLAAVYRINWITGGI'
p23
g3
(g5
S'\x893]w\xcc\xc4\xef?'
tRp24
tp25
a(S'IVNVSLVKPSFYVYSRVKN'
p26
g21
tp27
a(S'AVFQSASKIITLKKRWQLA'
p28
g3
(g5
S'\x893]w\xcc\xc4\xef?'
tRp29
tp30
a(S'YSHLLLVAAGLEAPFLYLY'
p31
g3
(g5
S'\x883]w\xcc\xc4\xef?'
tRp32
tp33
a.