(lp1
(S'AVFQSASKIITLKKRWQLA_IITLKKRWQLALSKGVHFV_RWYFYYLGTGPEAGLPYGA_SELVIGAVILRGHLRIAGH_SFRLFARTRSMWSFNPETN_SSPDDQIGYYRRATRRIRG_SYFTSDYYQLYSTQLSTDT_VKDCVVLHSYFTSDYYQLY'
p2
cnumpy.core.multiarray
scalar
p3
(cnumpy
dtype
p4
(S'f8'
I0
I1
tRp5
(I3
S'<'
NNNI-1
I-1
I0
tbS'YL\x0c\xa1\xb6\xbf\xee?'
tRp6
tp7
a(S'AVFQSASKIITLKKRWQLA_IITLKKRWQLALSKGVHFV_RWYFYYLGTGPEAGLPYGA_SELVIGAVILRGHLRIAGH_SFRLFARTRSMWSFNPETN_SRTLSYYKLGASQRVAGDS_SYFTSDYYQLYSTQLSTDT_VKDCVVLHSYFTSDYYQLY'
p8
g3
(g5
S'XL\x0c\xa1\xb6\xbf\xee?'
tRp9
tp10
a(S'AVFQSASKIITLKKRWQLA_IITLKKRWQLALSKGVHFV_PRQKRTATKAYNVTQAFGR_RWYFYYLGTGPEAGLPYGA_SYFTSDYYQLYSTQLSTDT_TGPEAGLPYGANKDGIIWV_TSPARMAGNGGDAALALLL_VKDCVVLHSYFTSDYYQLY'
p11
g3
(g5
S'WL\x0c\xa1\xb6\xbf\xee?'
tRp12
tp13
a(S'AVFQSASKIITLKKRWQLA_IITLKKRWQLALSKGVHFV_PRQKRTATKAYNVTQAFGR_RCSFYEDFLEYHDVRVVLDFI_RWYFYYLGTGPEAGLPYGA_SYFTSDYYQLYSTQLSTDT_TSPARMAGNGGDAALALLL_VKDCVVLHSYFTSDYYQLY'
p14
g3
(g5
S'WL\x0c\xa1\xb6\xbf\xee?'
tRp15
tp16
a(S'AVFQSASKIITLKKRWQLA_IITLKKRWQLALSKGVHFV_PRQKRTATKAYNVTQAFGR_RCSFYEDFLEYHDVRVVLDFI_RWYFYYLGTGPEAGLPYGA_SYFTSDYYQLYSTQLSTDT_TGPEAGLPYGANKDGIIWV_VKDCVVLHSYFTSDYYQLY'
p17
g3
(g5
S'WL\x0c\xa1\xb6\xbf\xee?'
tRp18
tp19
a(S'IITLKKRWQLALSKGVHFV_PSFYVYSRVKNLNSSRVPDLLV_RWYFYYLGTGPEAGLPYGA_SELVIGAVILRGHLRIAGH_SFRLFARTRSMWSFNPETN_SRTLSYYKLGASQRVAGDS_SYFTSDYYQLYSTQLSTDT_VKDCVVLHSYFTSDYYQLY'
p20
g3
(g5
S'S\xdd\xa5\xbf\xaa\xbf\xee?'
tRp21
tp22
a(S'IITLKKRWQLALSKGVHFV_NGGDAALALLLLDRLNQLE_RWYFYYLGTGPEAGLPYGA_SELVIGAVILRGHLRIAGH_SFRLFARTRSMWSFNPETN_SSPDDQIGYYRRATRRIRG_SYFTSDYYQLYSTQLSTDT_VKDCVVLHSYFTSDYYQLY'
p23
g3
(g5
S'S\xdd\xa5\xbf\xaa\xbf\xee?'
tRp24
tp25
a(S'IITLKKRWQLALSKGVHFV_LACFVLAAVYRINWITGGI_RWYFYYLGTGPEAGLPYGA_SELVIGAVILRGHLRIAGH_SFRLFARTRSMWSFNPETN_SRTLSYYKLGASQRVAGDS_SYFTSDYYQLYSTQLSTDT_VKDCVVLHSYFTSDYYQLY'
p26
g3
(g5
S'S\xdd\xa5\xbf\xaa\xbf\xee?'
tRp27
tp28
a(S'IITLKKRWQLALSKGVHFV_IVNVSLVKPSFYVYSRVKN_RWYFYYLGTGPEAGLPYGA_SELVIGAVILRGHLRIAGH_SFRLFARTRSMWSFNPETN_SRTLSYYKLGASQRVAGDS_SYFTSDYYQLYSTQLSTDT_VKDCVVLHSYFTSDYYQLY'
p29
g21
tp30
a(S'DGVKHVYQLRARSVSPKLFI_IITLKKRWQLALSKGVHFV_RWYFYYLGTGPEAGLPYGA_SELVIGAVILRGHLRIAGH_SFRLFARTRSMWSFNPETN_SRTLSYYKLGASQRVAGDS_SYFTSDYYQLYSTQLSTDT_VKDCVVLHSYFTSDYYQLY'
p31
g3
(g5
S'S\xdd\xa5\xbf\xaa\xbf\xee?'
tRp32
tp33
a.