(lp1
(S'IITLKKRWQLALSKGVHFV_RWYFYYLGTGPEAGLPYGA_SELVIGAVILRGHLRIAGH_SFRLFARTRSMWSFNPETN_SRTLSYYKLGASQRVAGDS_VKDCVVLHSYFTSDYYQLY'
p2
cnumpy.core.multiarray
scalar
p3
(cnumpy
dtype
p4
(S'f8'
I0
I1
tRp5
(I3
S'<'
NNNI-1
I-1
I0
tbS'\x17\xac0\xa5Y\xee\xee?'
tRp6
tp7
a(S'IITLKKRWQLALSKGVHFV_RWYFYYLGTGPEAGLPYGA_SELVIGAVILRGHLRIAGH_SFRLFARTRSMWSFNPETN_SRTLSYYKLGASQRVAGDS_SYFTSDYYQLYSTQLSTDT'
p8
g3
(g5
S'\x15\xac0\xa5Y\xee\xee?'
tRp9
tp10
a(S'IITLKKRWQLALSKGVHFV_RWYFYYLGTGPEAGLPYGA_SELVIGAVILRGHLRIAGH_SFRLFARTRSMWSFNPETN_SSPDDQIGYYRRATRRIRG_VKDCVVLHSYFTSDYYQLY'
p11
g3
(g5
S'\x13\xac0\xa5Y\xee\xee?'
tRp12
tp13
a(S'IITLKKRWQLALSKGVHFV_RWYFYYLGTGPEAGLPYGA_SELVIGAVILRGHLRIAGH_SFRLFARTRSMWSFNPETN_SSPDDQIGYYRRATRRIRG_SYFTSDYYQLYSTQLSTDT'
p14
g3
(g5
S'\x13\xac0\xa5Y\xee\xee?'
tRp15
tp16
a(S'IITLKKRWQLALSKGVHFV_PRQKRTATKAYNVTQAFGR_RWYFYYLGTGPEAGLPYGA_TGPEAGLPYGANKDGIIWV_TSPARMAGNGGDAALALLL_VKDCVVLHSYFTSDYYQLY'
p17
g3
(g5
S'\x10\xac0\xa5Y\xee\xee?'
tRp18
tp19
a(S'IITLKKRWQLALSKGVHFV_PRQKRTATKAYNVTQAFGR_RWYFYYLGTGPEAGLPYGA_SYFTSDYYQLYSTQLSTDT_TGPEAGLPYGANKDGIIWV_TSPARMAGNGGDAALALLL'
p20
g3
(g5
S'\x10\xac0\xa5Y\xee\xee?'
tRp21
tp22
a(S'IITLKKRWQLALSKGVHFV_PRQKRTATKAYNVTQAFGR_RCSFYEDFLEYHDVRVVLDFI_RWYFYYLGTGPEAGLPYGA_TSPARMAGNGGDAALALLL_VKDCVVLHSYFTSDYYQLY'
p23
g3
(g5
S'\x10\xac0\xa5Y\xee\xee?'
tRp24
tp25
a(S'IITLKKRWQLALSKGVHFV_PRQKRTATKAYNVTQAFGR_RCSFYEDFLEYHDVRVVLDFI_RWYFYYLGTGPEAGLPYGA_TGPEAGLPYGANKDGIIWV_VKDCVVLHSYFTSDYYQLY'
p26
g3
(g5
S'\x10\xac0\xa5Y\xee\xee?'
tRp27
tp28
a(S'IITLKKRWQLALSKGVHFV_PRQKRTATKAYNVTQAFGR_RCSFYEDFLEYHDVRVVLDFI_RWYFYYLGTGPEAGLPYGA_SYFTSDYYQLYSTQLSTDT_TSPARMAGNGGDAALALLL'
p29
g3
(g5
S'\x10\xac0\xa5Y\xee\xee?'
tRp30
tp31
a(S'IITLKKRWQLALSKGVHFV_PRQKRTATKAYNVTQAFGR_RCSFYEDFLEYHDVRVVLDFI_RWYFYYLGTGPEAGLPYGA_SYFTSDYYQLYSTQLSTDT_TGPEAGLPYGANKDGIIWV'
p32
g3
(g5
S'\x10\xac0\xa5Y\xee\xee?'
tRp33
tp34
a.