(lp1
(S'IITLKKRWQLALSKGVHFV_SELVIGAVILRGHLRIAGH_SFRLFARTRSMWSFNPETN_SSPDDQIGYYRRATRRIRG'
p2
cnumpy.core.multiarray
scalar
p3
(cnumpy
dtype
p4
(S'f8'
I0
I1
tRp5
(I3
S'<'
NNNI-1
I-1
I0
tbS'\xc8EI\x05\x0c\x01\xef?'
tRp6
tp7
a(S'IITLKKRWQLALSKGVHFV_SELVIGAVILRGHLRIAGH_SFRLFARTRSMWSFNPETN_SRTLSYYKLGASQRVAGDS'
p8
g3
(g5
S'\xc8EI\x05\x0c\x01\xef?'
tRp9
tp10
a(S'IITLKKRWQLALSKGVHFV_PRQKRTATKAYNVTQAFGR_TGPEAGLPYGANKDGIIWV_TSPARMAGNGGDAALALLL'
p11
g3
(g5
S'\xc8EI\x05\x0c\x01\xef?'
tRp12
tp13
a(S'IITLKKRWQLALSKGVHFV_PRQKRTATKAYNVTQAFGR_RCSFYEDFLEYHDVRVVLDFI_TSPARMAGNGGDAALALLL'
p14
g3
(g5
S'\xc8EI\x05\x0c\x01\xef?'
tRp15
tp16
a(S'IITLKKRWQLALSKGVHFV_PRQKRTATKAYNVTQAFGR_RCSFYEDFLEYHDVRVVLDFI_TGPEAGLPYGANKDGIIWV'
p17
g3
(g5
S'\xc8EI\x05\x0c\x01\xef?'
tRp18
tp19
a(S'IITLKKRWQLALSKGVHFV_PKGFYAEGSRGGSQASSRS_PRQKRTATKAYNVTQAFGR_STQFAFACPDGVKHVYQLRA'
p20
g3
(g5
S'\xc8EI\x05\x0c\x01\xef?'
tRp21
tp22
a(S'IITLKKRWQLALSKGVHFV_MFHLVDFQVTIAEILLIIM_PRQKRTATKAYNVTQAFGR_YSHLLLVAAGLEAPFLYLY'
p23
g3
(g5
S'\xc8EI\x05\x0c\x01\xef?'
tRp24
tp25
a(S'IITLKKRWQLALSKGVHFV_MFHLVDFQVTIAEILLIIM_PRQKRTATKAYNVTQAFGR_STQFAFACPDGVKHVYQLRA'
p26
g3
(g5
S'\xc8EI\x05\x0c\x01\xef?'
tRp27
tp28
a(S'IITLKKRWQLALSKGVHFV_MFHLVDFQVTIAEILLIIM_PRQKRTATKAYNVTQAFGR_SPKLFIRQEEVQELYSPIFL'
p29
g3
(g5
S'\xc8EI\x05\x0c\x01\xef?'
tRp30
tp31
a(S'IITLKKRWQLALSKGVHFV_MFHLVDFQVTIAEILLIIM_PKGFYAEGSRGGSQASSRS_PRQKRTATKAYNVTQAFGR'
p32
g3
(g5
S'\xc8EI\x05\x0c\x01\xef?'
tRp33
tp34
a.