(lp1
(S'IITLKKRWQLALSKGVHFV_RWYFYYLGTGPEAGLPYGA_SELVIGAVILRGHLRIAGH_SFRLFARTRSMWSFNPETN_SRTLSYYKLGASQRVAGDS'
p2
cnumpy.core.multiarray
scalar
p3
(cnumpy
dtype
p4
(S'f8'
I0
I1
tRp5
(I3
S'<'
NNNI-1
I-1
I0
tbS'\xd5\xa5\x9d\xd2P\xd4\xee?'
tRp6
tp7
a(S'IITLKKRWQLALSKGVHFV_RWYFYYLGTGPEAGLPYGA_SELVIGAVILRGHLRIAGH_SFRLFARTRSMWSFNPETN_SSPDDQIGYYRRATRRIRG'
p8
g3
(g5
S'\xd4\xa5\x9d\xd2P\xd4\xee?'
tRp9
tp10
a(S'IITLKKRWQLALSKGVHFV_PRQKRTATKAYNVTQAFGR_RWYFYYLGTGPEAGLPYGA_TGPEAGLPYGANKDGIIWV_TSPARMAGNGGDAALALLL'
p11
g3
(g5
S'\xd3\xa5\x9d\xd2P\xd4\xee?'
tRp12
tp13
a(S'IITLKKRWQLALSKGVHFV_PRQKRTATKAYNVTQAFGR_RCSFYEDFLEYHDVRVVLDFI_RWYFYYLGTGPEAGLPYGA_TSPARMAGNGGDAALALLL'
p14
g3
(g5
S'\xd3\xa5\x9d\xd2P\xd4\xee?'
tRp15
tp16
a(S'IITLKKRWQLALSKGVHFV_PRQKRTATKAYNVTQAFGR_RCSFYEDFLEYHDVRVVLDFI_RWYFYYLGTGPEAGLPYGA_TGPEAGLPYGANKDGIIWV'
p17
g3
(g5
S'\xd3\xa5\x9d\xd2P\xd4\xee?'
tRp18
tp19
a(S'IITLKKRWQLALSKGVHFV_MFHLVDFQVTIAEILLIIM_PRQKRTATKAYNVTQAFGR_RWYFYYLGTGPEAGLPYGA_STQFAFACPDGVKHVYQLRA'
p20
g3
(g5
S'\xd3\xa5\x9d\xd2P\xd4\xee?'
tRp21
tp22
a(S'IITLKKRWQLALSKGVHFV_MFHLVDFQVTIAEILLIIM_PRQKRTATKAYNVTQAFGR_RWYFYYLGTGPEAGLPYGA_SPKLFIRQEEVQELYSPIFL'
p23
g3
(g5
S'\xd3\xa5\x9d\xd2P\xd4\xee?'
tRp24
tp25
a(S'IITLKKRWQLALSKGVHFV_MFHLVDFQVTIAEILLIIM_PKGFYAEGSRGGSQASSRS_PRQKRTATKAYNVTQAFGR_RWYFYYLGTGPEAGLPYGA'
p26
g3
(g5
S'\xd3\xa5\x9d\xd2P\xd4\xee?'
tRp27
tp28
a(S'IITLKKRWQLALSKGVHFV_PKGFYAEGSRGGSQASSRS_PRQKRTATKAYNVTQAFGR_RWYFYYLGTGPEAGLPYGA_STQFAFACPDGVKHVYQLRA'
p29
g3
(g5
S'\xd1\xa5\x9d\xd2P\xd4\xee?'
tRp30
tp31
a(S'IITLKKRWQLALSKGVHFV_MFHLVDFQVTIAEILLIIM_PRQKRTATKAYNVTQAFGR_RWYFYYLGTGPEAGLPYGA_YSHLLLVAAGLEAPFLYLY'
p32
g3
(g5
S'\xd0\xa5\x9d\xd2P\xd4\xee?'
tRp33
tp34
a.