(lp1
(S'IITLKKRWQLALSKGVHFV_PRQKRTATKAYNVTQAFGR_STQFAFACPDGVKHVYQLRA'
p2
cnumpy.core.multiarray
scalar
p3
(cnumpy
dtype
p4
(S'f8'
I0
I1
tRp5
(I3
S'<'
NNNI-1
I-1
I0
tbS'\xc8EI\x05\x0c\x01\xef?'
tRp6
tp7
a(S'IITLKKRWQLALSKGVHFV_PRQKRTATKAYNVTQAFGR_SPKLFIRQEEVQELYSPIFL'
p8
g3
(g5
S'\xc8EI\x05\x0c\x01\xef?'
tRp9
tp10
a(S'IITLKKRWQLALSKGVHFV_PRQKRTATKAYNVTQAFGR_RCSFYEDFLEYHDVRVVLDFI'
p11
g3
(g5
S'\xc8EI\x05\x0c\x01\xef?'
tRp12
tp13
a(S'IITLKKRWQLALSKGVHFV_MFHLVDFQVTIAEILLIIM_PRQKRTATKAYNVTQAFGR'
p14
g3
(g5
S'\xc8EI\x05\x0c\x01\xef?'
tRp15
tp16
a(S'IITLKKRWQLALSKGVHFV_ITTVAAFHQECSLQSCTQHQ_PRQKRTATKAYNVTQAFGR'
p17
g6
tp18
a(S'IITLKKRWQLALSKGVHFV_SELVIGAVILRGHLRIAGH_SFRLFARTRSMWSFNPETN'
p19
g3
(g5
S'\xc7EI\x05\x0c\x01\xef?'
tRp20
tp21
a(S'IITLKKRWQLALSKGVHFV_PRQKRTATKAYNVTQAFGR_YSHLLLVAAGLEAPFLYLY'
p22
g3
(g5
S'\xc7EI\x05\x0c\x01\xef?'
tRp23
tp24
a(S'IITLKKRWQLALSKGVHFV_PRQKRTATKAYNVTQAFGR_TSPARMAGNGGDAALALLL'
p25
g3
(g5
S'\xc7EI\x05\x0c\x01\xef?'
tRp26
tp27
a(S'IITLKKRWQLALSKGVHFV_PRQKRTATKAYNVTQAFGR_TGPEAGLPYGANKDGIIWV'
p28
g26
tp29
a(S'IITLKKRWQLALSKGVHFV_LACFVLAAVYRINWITGGI_TSPARMAGNGGDAALALLL'
p30
g3
(g5
S'\xc7EI\x05\x0c\x01\xef?'
tRp31
tp32
a.