(lp1
(S'AVFQSASKIITLKKRWQLA_HQPYVVDDPCPIHFYSKWYI_IITLKKRWQLALSKGVHFV_NGGDAALALLLLDRLNQLE_PKEITVATSRTLSYYKLGA_PRQKRTATKAYNVTQAFGR_RWYFYYLGTGPEAGLPYGA_SYFTSDYYQLYSTQLSTDT_TGPEAGLPYGANKDGIIWV_TSPARMAGNGGDAALALLL_TYTGAIKLDDKDPNFKDQV_VKDCVVLHSYFTSDYYQLY'
p2
cnumpy.core.multiarray
scalar
p3
(cnumpy
dtype
p4
(S'f8'
I0
I1
tRp5
(I3
S'<'
NNNI-1
I-1
I0
tbS'\x8dL\x0e\xbf\xfe\xc0\xed?'
tRp6
tp7
a(S'AVFQSASKIITLKKRWQLA_HQPYVVDDPCPIHFYSKWYI_IITLKKRWQLALSKGVHFV_NGGDAALALLLLDRLNQLE_PKEITVATSRTLSYYKLGA_PRQKRTATKAYNVTQAFGR_RCSFYEDFLEYHDVRVVLDFI_RWYFYYLGTGPEAGLPYGA_SYFTSDYYQLYSTQLSTDT_TSPARMAGNGGDAALALLL_TYTGAIKLDDKDPNFKDQV_VKDCVVLHSYFTSDYYQLY'
p8
g3
(g5
S'\x8dL\x0e\xbf\xfe\xc0\xed?'
tRp9
tp10
a(S'AVFQSASKIITLKKRWQLA_HQPYVVDDPCPIHFYSKWYI_IITLKKRWQLALSKGVHFV_NGGDAALALLLLDRLNQLE_PKEITVATSRTLSYYKLGA_PRQKRTATKAYNVTQAFGR_RCSFYEDFLEYHDVRVVLDFI_RWYFYYLGTGPEAGLPYGA_SYFTSDYYQLYSTQLSTDT_TGPEAGLPYGANKDGIIWV_TYTGAIKLDDKDPNFKDQV_VKDCVVLHSYFTSDYYQLY'
p11
g3
(g5
S'\x8dL\x0e\xbf\xfe\xc0\xed?'
tRp12
tp13
a(S'AVFQSASKIITLKKRWQLA_HQPYVVDDPCPIHFYSKWYI_IITLKKRWQLALSKGVHFV_MDLFMRIFTIGTVTLKQGE_PKEITVATSRTLSYYKLGA_PRQKRTATKAYNVTQAFGR_RWYFYYLGTGPEAGLPYGA_SYFTSDYYQLYSTQLSTDT_TGPEAGLPYGANKDGIIWV_TSPARMAGNGGDAALALLL_TYTGAIKLDDKDPNFKDQV_VKDCVVLHSYFTSDYYQLY'
p14
g3
(g5
S'\xbc\x07\xdf\xa6\x01\xa7\xed?'
tRp15
tp16
a(S'AVFQSASKIITLKKRWQLA_IITLKKRWQLALSKGVHFV_MDLFMRIFTIGTVTLKQGE_NGGDAALALLLLDRLNQLE_PKEITVATSRTLSYYKLGA_PRQKRTATKAYNVTQAFGR_RWYFYYLGTGPEAGLPYGA_SYFTSDYYQLYSTQLSTDT_TGPEAGLPYGANKDGIIWV_TSPARMAGNGGDAALALLL_TYTGAIKLDDKDPNFKDQV_VKDCVVLHSYFTSDYYQLY'
p17
g3
(g5
S'\xbb\x07\xdf\xa6\x01\xa7\xed?'
tRp18
tp19
a(S'AVFQSASKIITLKKRWQLA_IITLKKRWQLALSKGVHFV_MDLFMRIFTIGTVTLKQGE_NGGDAALALLLLDRLNQLE_PKEITVATSRTLSYYKLGA_PRQKRTATKAYNVTQAFGR_RCSFYEDFLEYHDVRVVLDFI_RWYFYYLGTGPEAGLPYGA_SYFTSDYYQLYSTQLSTDT_TSPARMAGNGGDAALALLL_TYTGAIKLDDKDPNFKDQV_VKDCVVLHSYFTSDYYQLY'
p20
g3
(g5
S'\xbb\x07\xdf\xa6\x01\xa7\xed?'
tRp21
tp22
a(S'AVFQSASKIITLKKRWQLA_IITLKKRWQLALSKGVHFV_MDLFMRIFTIGTVTLKQGE_NGGDAALALLLLDRLNQLE_PKEITVATSRTLSYYKLGA_PRQKRTATKAYNVTQAFGR_RCSFYEDFLEYHDVRVVLDFI_RWYFYYLGTGPEAGLPYGA_SYFTSDYYQLYSTQLSTDT_TGPEAGLPYGANKDGIIWV_TYTGAIKLDDKDPNFKDQV_VKDCVVLHSYFTSDYYQLY'
p23
g3
(g5
S'\xbb\x07\xdf\xa6\x01\xa7\xed?'
tRp24
tp25
a(S'AVFQSASKIITLKKRWQLA_HQPYVVDDPCPIHFYSKWYI_IITLKKRWQLALSKGVHFV_PKEITVATSRTLSYYKLGA_PRQKRTATKAYNVTQAFGR_PSDFVRATATIPIQASLPF_RCSFYEDFLEYHDVRVVLDFI_RWYFYYLGTGPEAGLPYGA_SYFTSDYYQLYSTQLSTDT_TSPARMAGNGGDAALALLL_TYTGAIKLDDKDPNFKDQV_VKDCVVLHSYFTSDYYQLY'
p26
g3
(g5
S'\xbb\x07\xdf\xa6\x01\xa7\xed?'
tRp27
tp28
a(S'AVFQSASKIITLKKRWQLA_HQPYVVDDPCPIHFYSKWYI_IITLKKRWQLALSKGVHFV_PKEITVATSRTLSYYKLGA_PRQKRTATKAYNVTQAFGR_PSDFVRATATIPIQASLPF_RCSFYEDFLEYHDVRVVLDFI_RWYFYYLGTGPEAGLPYGA_SYFTSDYYQLYSTQLSTDT_TGPEAGLPYGANKDGIIWV_TYTGAIKLDDKDPNFKDQV_VKDCVVLHSYFTSDYYQLY'
p29
g3
(g5
S'\xbb\x07\xdf\xa6\x01\xa7\xed?'
tRp30
tp31
a(S'AVFQSASKIITLKKRWQLA_HQPYVVDDPCPIHFYSKWYI_IITLKKRWQLALSKGVHFV_MDLFMRIFTIGTVTLKQGE_PKEITVATSRTLSYYKLGA_PRQKRTATKAYNVTQAFGR_RCSFYEDFLEYHDVRVVLDFI_RWYFYYLGTGPEAGLPYGA_SYFTSDYYQLYSTQLSTDT_TSPARMAGNGGDAALALLL_TYTGAIKLDDKDPNFKDQV_VKDCVVLHSYFTSDYYQLY'
p32
g3
(g5
S'\xbb\x07\xdf\xa6\x01\xa7\xed?'
tRp33
tp34
a.