(lp1
(S'AVFQSASKIITLKKRWQLA_HQPYVVDDPCPIHFYSKWYI_IITLKKRWQLALSKGVHFV_MDLFMRIFTIGTVTLKQGE_NGGDAALALLLLDRLNQLE_PKEITVATSRTLSYYKLGA_PRQKRTATKAYNVTQAFGR_PSDFVRATATIPIQASLPF_RWYFYYLGTGPEAGLPYGA_SYFTSDYYQLYSTQLSTDT_TGPEAGLPYGANKDGIIWV_TSPARMAGNGGDAALALLL_TYTGAIKLDDKDPNFKDQV_VKDCVVLHSYFTSDYYQLY'
p2
cnumpy.core.multiarray
scalar
p3
(cnumpy
dtype
p4
(S'f8'
I0
I1
tRp5
(I3
S'<'
NNNI-1
I-1
I0
tbS'\xb9V\x9e\x12@\xd1\xed?'
tRp6
tp7
a(S'AVFQSASKIITLKKRWQLA_HQPYVVDDPCPIHFYSKWYI_IITLKKRWQLALSKGVHFV_MDLFMRIFTIGTVTLKQGE_NGGDAALALLLLDRLNQLE_PKEITVATSRTLSYYKLGA_PRQKRTATKAYNVTQAFGR_PSDFVRATATIPIQASLPF_RCSFYEDFLEYHDVRVVLDFI_RWYFYYLGTGPEAGLPYGA_SYFTSDYYQLYSTQLSTDT_TSPARMAGNGGDAALALLL_TYTGAIKLDDKDPNFKDQV_VKDCVVLHSYFTSDYYQLY'
p8
g3
(g5
S'\xb9V\x9e\x12@\xd1\xed?'
tRp9
tp10
a(S'AVFQSASKIITLKKRWQLA_HQPYVVDDPCPIHFYSKWYI_IITLKKRWQLALSKGVHFV_MDLFMRIFTIGTVTLKQGE_NGGDAALALLLLDRLNQLE_PKEITVATSRTLSYYKLGA_PRQKRTATKAYNVTQAFGR_PSDFVRATATIPIQASLPF_RCSFYEDFLEYHDVRVVLDFI_RWYFYYLGTGPEAGLPYGA_SYFTSDYYQLYSTQLSTDT_TGPEAGLPYGANKDGIIWV_TYTGAIKLDDKDPNFKDQV_VKDCVVLHSYFTSDYYQLY'
p11
g3
(g5
S'\xb9V\x9e\x12@\xd1\xed?'
tRp12
tp13
a(S'AVFQSASKIITLKKRWQLA_HQPYVVDDPCPIHFYSKWYI_IITLKKRWQLALSKGVHFV_NGGDAALALLLLDRLNQLE_PKEITVATSRTLSYYKLGA_PRQKRTATKAYNVTQAFGR_PSDFVRATATIPIQASLPF_RCSFYEDFLEYHDVRVVLDFI_RWYFYYLGTGPEAGLPYGA_SYFTSDYYQLYSTQLSTDT_TSPARMAGNGGDAALALLL_TYTGAIKLDDKDPNFKDQV_VKDCVVLHSYFTSDYYQLY_YLYALVYFLQSINFVRIIM'
p14
g3
(g5
S'\x80\\\xd3C~\xd0\xed?'
tRp15
tp16
a(S'AVFQSASKIITLKKRWQLA_HQPYVVDDPCPIHFYSKWYI_IITLKKRWQLALSKGVHFV_NGGDAALALLLLDRLNQLE_PKEITVATSRTLSYYKLGA_PRQKRTATKAYNVTQAFGR_PSDFVRATATIPIQASLPF_RCSFYEDFLEYHDVRVVLDFI_RWYFYYLGTGPEAGLPYGA_SYFTSDYYQLYSTQLSTDT_TGPEAGLPYGANKDGIIWV_TYTGAIKLDDKDPNFKDQV_VKDCVVLHSYFTSDYYQLY_YLYALVYFLQSINFVRIIM'
p17
g3
(g5
S'\x80\\\xd3C~\xd0\xed?'
tRp18
tp19
a(S'AVFQSASKIITLKKRWQLA_HQPYVVDDPCPIHFYSKWYI_IITLKKRWQLALSKGVHFV_MDLFMRIFTIGTVTLKQGE_NGGDAALALLLLDRLNQLE_PKEITVATSRTLSYYKLGA_PRQKRTATKAYNVTQAFGR_RWYFYYLGTGPEAGLPYGA_SYFTSDYYQLYSTQLSTDT_TGPEAGLPYGANKDGIIWV_TSPARMAGNGGDAALALLL_TYTGAIKLDDKDPNFKDQV_VKDCVVLHSYFTSDYYQLY_YLYALVYFLQSINFVRIIM'
p20
g3
(g5
S'\x80\\\xd3C~\xd0\xed?'
tRp21
tp22
a(S'AVFQSASKIITLKKRWQLA_HQPYVVDDPCPIHFYSKWYI_IITLKKRWQLALSKGVHFV_MDLFMRIFTIGTVTLKQGE_NGGDAALALLLLDRLNQLE_PKEITVATSRTLSYYKLGA_PRQKRTATKAYNVTQAFGR_RCSFYEDFLEYHDVRVVLDFI_RWYFYYLGTGPEAGLPYGA_SYFTSDYYQLYSTQLSTDT_TSPARMAGNGGDAALALLL_TYTGAIKLDDKDPNFKDQV_VKDCVVLHSYFTSDYYQLY_YLYALVYFLQSINFVRIIM'
p23
g3
(g5
S'\x7f\\\xd3C~\xd0\xed?'
tRp24
tp25
a(S'AVFQSASKIITLKKRWQLA_HQPYVVDDPCPIHFYSKWYI_IITLKKRWQLALSKGVHFV_MDLFMRIFTIGTVTLKQGE_NGGDAALALLLLDRLNQLE_PKEITVATSRTLSYYKLGA_PRQKRTATKAYNVTQAFGR_RCSFYEDFLEYHDVRVVLDFI_RWYFYYLGTGPEAGLPYGA_SYFTSDYYQLYSTQLSTDT_TGPEAGLPYGANKDGIIWV_TYTGAIKLDDKDPNFKDQV_VKDCVVLHSYFTSDYYQLY_YLYALVYFLQSINFVRIIM'
p26
g3
(g5
S'\x7f\\\xd3C~\xd0\xed?'
tRp27
tp28
a(S'AVFQSASKIITLKKRWQLA_HQPYVVDDPCPIHFYSKWYI_IITLKKRWQLALSKGVHFV_NGGDAALALLLLDRLNQLE_PKEITVATSRTLSYYKLGA_PRQKRTATKAYNVTQAFGR_PSDFVRATATIPIQASLPF_RWYFYYLGTGPEAGLPYGA_SYFTSDYYQLYSTQLSTDT_TGPEAGLPYGANKDGIIWV_TSPARMAGNGGDAALALLL_TYTGAIKLDDKDPNFKDQV_VKDCVVLHSYFTSDYYQLY_YLYALVYFLQSINFVRIIM'
p29
g3
(g5
S'}\\\xd3C~\xd0\xed?'
tRp30
tp31
a(S'AVFQSASKIITLKKRWQLA_DNKFALTCFSTQFAFACPDG_HQPYVVDDPCPIHFYSKWYI_IITLKKRWQLALSKGVHFV_MDLFMRIFTIGTVTLKQGE_NGGDAALALLLLDRLNQLE_PKEITVATSRTLSYYKLGA_PRQKRTATKAYNVTQAFGR_RWYFYYLGTGPEAGLPYGA_SYFTSDYYQLYSTQLSTDT_TGPEAGLPYGANKDGIIWV_TSPARMAGNGGDAALALLL_TYTGAIKLDDKDPNFKDQV_VKDCVVLHSYFTSDYYQLY'
p32
g3
(g5
S'-\x8d\xb9g\x13\xd0\xed?'
tRp33
tp34
a.