(lp1
(S'SELVIGAVILRGHLRIAGH_YLYALVYFLQSINFVRIIM'
p2
cnumpy.core.multiarray
scalar
p3
(cnumpy
dtype
p4
(S'f8'
I0
I1
tRp5
(I3
S'<'
NNNI-1
I-1
I0
tbS'c\x87\xe7\xa6\xe9\x9b\xef?'
tRp6
tp7
a(S'SELVIGAVILRGHLRIAGH_SFRLFARTRSMWSFNPETN'
p8
g3
(g5
S'a\x87\xe7\xa6\xe9\x9b\xef?'
tRp9
tp10
a(S'MWLSYFIASFRLFARTRSM_SELVIGAVILRGHLRIAGH'
p11
g3
(g5
S'a\x87\xe7\xa6\xe9\x9b\xef?'
tRp12
tp13
a(S'IITLKKRWQLALSKGVHFV_PRQKRTATKAYNVTQAFGR'
p14
g3
(g5
S'a\x87\xe7\xa6\xe9\x9b\xef?'
tRp15
tp16
a(S'IITLKKRWQLALSKGVHFV_MFHLVDFQVTIAEILLIIM'
p17
g3
(g5
S'a\x87\xe7\xa6\xe9\x9b\xef?'
tRp18
tp19
a(S'IITLKKRWQLALSKGVHFV_LACFVLAAVYRINWITGGI'
p20
g3
(g5
S'a\x87\xe7\xa6\xe9\x9b\xef?'
tRp21
tp22
a(S'IIMRLWLCWKCRSKNPLLY_PRQKRTATKAYNVTQAFGR'
p23
g3
(g5
S'a\x87\xe7\xa6\xe9\x9b\xef?'
tRp24
tp25
a(S'GMSRIGMEVTPSGTWLTYT_PRQKRTATKAYNVTQAFGR'
p26
g3
(g5
S'a\x87\xe7\xa6\xe9\x9b\xef?'
tRp27
tp28
a(S'FPFTIYSLLLCRMNSRNYI_PRQKRTATKAYNVTQAFGR'
p29
g24
tp30
a(S'EHVTFFIYNKIVDEPEEHV_SELVIGAVILRGHLRIAGH'
p31
g3
(g5
S'a\x87\xe7\xa6\xe9\x9b\xef?'
tRp32
tp33
a.