(lp1
(S'AELEGIQY_ATSRTLSYY_FAYANRNRF_FLNRFTTTL_FLQSINFVR_FVDGVPFVV_KTFPPTEPK_NVFAFPFTIY_RARSVSPKL_SINFVRIIMR_SPRWYFYYL_TMADLVYAL_VLWAHGFEL_VRFPNITNL_WTAGAAAYY_YIFFASFYY_YLDAYNMMI_YLQPRTFLL'
p2
cnumpy.core.multiarray
scalar
p3
(cnumpy
dtype
p4
(S'f8'
I0
I1
tRp5
(I3
S'<'
NNNI-1
I-1
I0
tbS'\x98\xdb\x9fc\xaf\xba\xef?'
tRp6
tp7
a(S'AELEGIQY_ATSRTLSYY_FAYANRNRF_FLNRFTTTL_FLQSINFVR_FVDGVPFVV_KTFPPTEPK_NVFAFPFTIY_RARSVSPKL_SINFVRIIMR_SPRWYFYYL_VLWAHGFEL_VRFPNITNL_WTAGAAAYY_YIFFASFYY_YLDAYNMMI_YLQPRTFLL_YLYALVYFL'
p8
g3
(g5
S'\xe3\xd0O\xcd\xad\xba\xef?'
tRp9
tp10
a(S'AELEGIQY_ATSRTLSYY_FAYANRNRF_FLNRFTTTL_FLQSINFVR_FVDGVPFVV_KTFPPTEPK_LLYDANYFL_NVFAFPFTIY_RARSVSPKL_SINFVRIIMR_SPRWYFYYL_VLWAHGFEL_VRFPNITNL_WTAGAAAYY_YIFFASFYY_YLDAYNMMI_YLQPRTFLL'
p11
g3
(g5
S'tk\xf7\xc3\xad\xba\xef?'
tRp12
tp13
a(S'ATSRTLSYY_FAYANRNRF_FLNRFTTTL_FLQSINFVR_FVDGVPFVV_KTFPPTEPK_NVFAFPFTIY_RARSVSPKL_SINFVRIIMR_SPRWYFYYL_TMADLVYAL_VEHVTFFIY_VLWAHGFEL_VRFPNITNL_WTAGAAAYY_YIFFASFYY_YLDAYNMMI_YLQPRTFLL'
p14
g3
(g5
S'\x04\tB\x19\xaa\xba\xef?'
tRp15
tp16
a(S'ATSRTLSYY_FAYANRNRF_FLNRFTTTL_FLQSINFVR_FVDGVPFVV_KTFPPTEPK_NVFAFPFTIY_RARSVSPKL_SINFVRIIMR_SPRWYFYYL_VEHVTFFIY_VLWAHGFEL_VRFPNITNL_WTAGAAAYY_YIFFASFYY_YLDAYNMMI_YLQPRTFLL_YLYALVYFL'
p17
g3
(g5
S'\xc9\x8c\xc2\x9b\xa8\xba\xef?'
tRp18
tp19
a(S'ATSRTLSYY_FAYANRNRF_FLNRFTTTL_FLQSINFVR_FVDGVPFVV_KTFPPTEPK_LLYDANYFL_NVFAFPFTIY_RARSVSPKL_SINFVRIIMR_SPRWYFYYL_VEHVTFFIY_VLWAHGFEL_VRFPNITNL_WTAGAAAYY_YIFFASFYY_YLDAYNMMI_YLQPRTFLL'
p20
g3
(g5
S'\xe3\x98\x99y\xa8\xba\xef?'
tRp21
tp22
a(S'AELEGIQY_ATSRTLSYY_EILDITPCSF_FAYANRNRF_FLNRFTTTL_FLQSINFVR_FVDGVPFVV_KTFPPTEPK_RARSVSPKL_SINFVRIIMR_SPRWYFYYL_TMADLVYAL_VLWAHGFEL_VRFPNITNL_WTAGAAAYY_YIFFASFYY_YLDAYNMMI_YLQPRTFLL'
p23
g3
(g5
S'\x952\xb8~\x8c\xba\xef?'
tRp24
tp25
a(S'AELEGIQY_ATSRTLSYY_EILDITPCSF_FAYANRNRF_FLNRFTTTL_FLQSINFVR_FVDGVPFVV_KTFPPTEPK_RARSVSPKL_SINFVRIIMR_SPRWYFYYL_VLWAHGFEL_VRFPNITNL_WTAGAAAYY_YIFFASFYY_YLDAYNMMI_YLQPRTFLL_YLYALVYFL'
p26
g3
(g5
S"\xdd'h\xe8\x8a\xba\xef?"
tRp27
tp28
a(S'AELEGIQY_ATSRTLSYY_EILDITPCSF_FAYANRNRF_FLNRFTTTL_FLQSINFVR_FVDGVPFVV_KTFPPTEPK_LLYDANYFL_RARSVSPKL_SINFVRIIMR_SPRWYFYYL_VLWAHGFEL_VRFPNITNL_WTAGAAAYY_YIFFASFYY_YLDAYNMMI_YLQPRTFLL'
p29
g3
(g5
S'u\xc2\x0f\xdf\x8a\xba\xef?'
tRp30
tp31
a(S'ATSRTLSYY_EILDITPCSF_FAYANRNRF_FLNRFTTTL_FLQSINFVR_FVDGVPFVV_KTFPPTEPK_RARSVSPKL_SINFVRIIMR_SPRWYFYYL_TMADLVYAL_VEHVTFFIY_VLWAHGFEL_VRFPNITNL_WTAGAAAYY_YIFFASFYY_YLDAYNMMI_YLQPRTFLL'
p32
g3
(g5
S'\x8d\xb5\x97\x05\x89\xba\xef?'
tRp33
tp34
a.