(lp1
(S'ATSRTLSYY_FAYANRNRF_FLNRFTTTL_FLQSINFVR_FPRGQGVPI_FVDGVPFVV_KTFPPTEPK_MGYINVFAF_NVFAFPFTIY_RARSVSPKL_SINFVRIIMR_SPRWYFYYL_TMADLVYAL_TSRTLSYYK_TVYSHLLLV_VEHVTFFIY_VLWAHGFEL_VRFPNITNL_WTAGAAAYY_YANRNRFLY_YIFFASFYY_YLDAYNMMI_YLQPRTFLL_YLYALVYFL'
p2
cnumpy.core.multiarray
scalar
p3
(cnumpy
dtype
p4
(S'f8'
I0
I1
tRp5
(I3
S'<'
NNNI-1
I-1
I0
tbS'\x08\xe7?\xb5$\xca\xef?'
tRp6
tp7
a(S'ATSRTLSYY_FAYANRNRF_FLNRFTTTL_FLQSINFVR_FPRGQGVPI_FVDGVPFVV_KTFPPTEPK_LLYDANYFL_MGYINVFAF_NVFAFPFTIY_RARSVSPKL_SINFVRIIMR_SPRWYFYYL_TMADLVYAL_TSRTLSYYK_TVYSHLLLV_VEHVTFFIY_VLWAHGFEL_VRFPNITNL_WTAGAAAYY_YANRNRFLY_YIFFASFYY_YLDAYNMMI_YLQPRTFLL'
p8
g3
(g5
S'\x1f\xf3\x16\x93$\xca\xef?'
tRp9
tp10
a(S'ATSRTLSYY_FAYANRNRF_FLNRFTTTL_FLQSINFVR_FPRGQGVPI_FVDGVPFVV_KTFPPTEPK_LLYDANYFL_MGYINVFAF_NVFAFPFTIY_RARSVSPKL_SINFVRIIMR_SPRWYFYYL_TSRTLSYYK_TVYSHLLLV_VEHVTFFIY_VLWAHGFEL_VRFPNITNL_WTAGAAAYY_YANRNRFLY_YIFFASFYY_YLDAYNMMI_YLQPRTFLL_YLYALVYFL'
p11
g3
(g5
S'P\x1a\x8e\x90#\xca\xef?'
tRp12
tp13
a(S'AELEGIQY_ATSRTLSYY_FAYANRNRF_FLNRFTTTL_FLQSINFVR_FPRGQGVPI_FVDGVPFVV_KTFPPTEPK_MGYINVFAF_NVFAFPFTIY_RARSVSPKL_SINFVRIIMR_SPRWYFYYL_TMADLVYAL_TSRTLSYYK_TVYSHLLLV_VLWAHGFEL_VRFPNITNL_WTAGAAAYY_YANRNRFLY_YIFFASFYY_YLDAYNMMI_YLQPRTFLL_YLYALVYFL'
p14
g3
(g5
S'\xf7\xca\x05R\x1b\xca\xef?'
tRp15
tp16
a(S'AELEGIQY_ATSRTLSYY_FAYANRNRF_FLNRFTTTL_FLQSINFVR_FPRGQGVPI_FVDGVPFVV_KTFPPTEPK_LLYDANYFL_MGYINVFAF_NVFAFPFTIY_RARSVSPKL_SINFVRIIMR_SPRWYFYYL_TMADLVYAL_TSRTLSYYK_TVYSHLLLV_VLWAHGFEL_VRFPNITNL_WTAGAAAYY_YANRNRFLY_YIFFASFYY_YLDAYNMMI_YLQPRTFLL'
p17
g3
(g5
S'\x8ce\xadH\x1b\xca\xef?'
tRp18
tp19
a(S'ALRANSAVK_ATSRTLSYY_FAYANRNRF_FLNRFTTTL_FLQSINFVR_FPRGQGVPI_FVDGVPFVV_KTFPPTEPK_MGYINVFAF_NVFAFPFTIY_RARSVSPKL_SINFVRIIMR_SPRWYFYYL_TMADLVYAL_TVYSHLLLV_VEHVTFFIY_VLWAHGFEL_VRFPNITNL_WTAGAAAYY_YANRNRFLY_YIFFASFYY_YLDAYNMMI_YLQPRTFLL_YLYALVYFL'
p20
g3
(g5
S'u\x92\xd0\xf5\x1a\xca\xef?'
tRp21
tp22
a(S'ALRANSAVK_ATSRTLSYY_FAYANRNRF_FLNRFTTTL_FLQSINFVR_FPRGQGVPI_FVDGVPFVV_KTFPPTEPK_LLYDANYFL_MGYINVFAF_NVFAFPFTIY_RARSVSPKL_SINFVRIIMR_SPRWYFYYL_TMADLVYAL_TVYSHLLLV_VEHVTFFIY_VLWAHGFEL_VRFPNITNL_WTAGAAAYY_YANRNRFLY_YIFFASFYY_YLDAYNMMI_YLQPRTFLL'
p23
g3
(g5
S'\x8c\x9e\xa7\xd3\x1a\xca\xef?'
tRp24
tp25
a(S'AELEGIQY_ATSRTLSYY_FAYANRNRF_FLNRFTTTL_FLQSINFVR_FPRGQGVPI_FVDGVPFVV_KTFPPTEPK_LLYDANYFL_MGYINVFAF_NVFAFPFTIY_RARSVSPKL_SINFVRIIMR_SPRWYFYYL_TSRTLSYYK_TVYSHLLLV_VLWAHGFEL_VRFPNITNL_WTAGAAAYY_YANRNRFLY_YIFFASFYY_YLDAYNMMI_YLQPRTFLL_YLYALVYFL'
p26
g3
(g5
S'C\xfeS-\x1a\xca\xef?'
tRp27
tp28
a(S'ALRANSAVK_ATSRTLSYY_FAYANRNRF_FLNRFTTTL_FLQSINFVR_FPRGQGVPI_FVDGVPFVV_KTFPPTEPK_LLYDANYFL_MGYINVFAF_NVFAFPFTIY_RARSVSPKL_SINFVRIIMR_SPRWYFYYL_TVYSHLLLV_VEHVTFFIY_VLWAHGFEL_VRFPNITNL_WTAGAAAYY_YANRNRFLY_YIFFASFYY_YLDAYNMMI_YLQPRTFLL_YLYALVYFL'
p29
g3
(g5
S'\xc1\xc5\x1e\xd1\x19\xca\xef?'
tRp30
tp31
a(S'AELEGIQY_ALRANSAVK_ATSRTLSYY_FAYANRNRF_FLNRFTTTL_FLQSINFVR_FPRGQGVPI_FVDGVPFVV_KTFPPTEPK_MGYINVFAF_NVFAFPFTIY_RARSVSPKL_SINFVRIIMR_SPRWYFYYL_TMADLVYAL_TVYSHLLLV_VLWAHGFEL_VRFPNITNL_WTAGAAAYY_YANRNRFLY_YIFFASFYY_YLDAYNMMI_YLQPRTFLL_YLYALVYFL'
p32
g3
(g5
S'k\x82{\xb6\x11\xca\xef?'
tRp33
tp34
a.