(lp1
(S'AELEGIQY_ATSRTLSYY_FAYANRNRF_FLNRFTTTL_FLQSINFVR_FVDGVPFVV_KTFPPTEPK_NVFAFPFTIY_RARSVSPKL_SINFVRIIMR_SPRWYFYYL_VLWAHGFEL_VRFPNITNL_WTAGAAAYY_YIFFASFYY_YLDAYNMMI_YLQPRTFLL'
p2
cnumpy.core.multiarray
scalar
p3
(cnumpy
dtype
p4
(S'f8'
I0
I1
tRp5
(I3
S'<'
NNNI-1
I-1
I0
tbS'\xd7(\xc1\xc1\x14\xdd\xef?'
tRp6
tp7
a(S'ATSRTLSYY_FAYANRNRF_FLNRFTTTL_FLQSINFVR_FVDGVPFVV_KTFPPTEPK_NVFAFPFTIY_RARSVSPKL_SINFVRIIMR_SPRWYFYYL_VEHVTFFIY_VLWAHGFEL_VRFPNITNL_WTAGAAAYY_YIFFASFYY_YLDAYNMMI_YLQPRTFLL'
p8
g3
(g5
S'\xe3\x0e\xe5\x03\x14\xdd\xef?'
tRp9
tp10
a(S'AELEGIQY_ATSRTLSYY_EILDITPCSF_FAYANRNRF_FLNRFTTTL_FLQSINFVR_FVDGVPFVV_KTFPPTEPK_RARSVSPKL_SINFVRIIMR_SPRWYFYYL_VLWAHGFEL_VRFPNITNL_WTAGAAAYY_YIFFASFYY_YLDAYNMMI_YLQPRTFLL'
p11
g3
(g5
S' r\x13`\xfc\xdc\xef?'
tRp12
tp13
a(S'ATSRTLSYY_EILDITPCSF_FAYANRNRF_FLNRFTTTL_FLQSINFVR_FVDGVPFVV_KTFPPTEPK_RARSVSPKL_SINFVRIIMR_SPRWYFYYL_VEHVTFFIY_VLWAHGFEL_VRFPNITNL_WTAGAAAYY_YIFFASFYY_YLDAYNMMI_YLQPRTFLL'
p14
g3
(g5
S'(X7\xa2\xfb\xdc\xef?'
tRp15
tp16
a(S'ATSRTLSYY_FAYANRNRF_FLNRFTTTL_FLQSINFVR_FVDGVPFVV_KTFPPTEPK_NVFAFPFTIY_RARSVSPKL_RLYYDSMSY_SINFVRIIMR_SPRWYFYYL_VEHVTFFIY_VLWAHGFEL_VRFPNITNL_WTAGAAAYY_YLDAYNMMI_YLQPRTFLL'
p17
g3
(g5
S'u\x85\x10>\xf0\xdc\xef?'
tRp18
tp19
a(S'AELEGIQY_ATSRTLSYY_FAYANRNRF_FLNRFTTTL_FLQSINFVR_FVDGVPFVV_KTFPPTEPK_NVFAFPFTIY_RARSVSPKL_RLYYDSMSY_SINFVRIIMR_SPRWYFYYL_VLWAHGFEL_VRFPNITNL_WTAGAAAYY_YLDAYNMMI_YLQPRTFLL'
p20
g3
(g5
S'\xad\x10%\xc9\xed\xdc\xef?'
tRp21
tp22
a(S'ATSRTLSYY_FAYANRNRF_FLNRFTTTL_FLQSINFVR_FVDGVPFVV_NVFAFPFTIY_RARSVSPKL_SINFVRIIMR_SPRWYFYYL_TSRTLSYYK_VEHVTFFIY_VLWAHGFEL_VRFPNITNL_WTAGAAAYY_YIFFASFYY_YLDAYNMMI_YLQPRTFLL'
p23
g3
(g5
S'w3.+\xe1\xdc\xef?'
tRp24
tp25
a(S'ATSRTLSYY_EILDITPCSF_FAYANRNRF_FLNRFTTTL_FLQSINFVR_FVDGVPFVV_KTFPPTEPK_RARSVSPKL_RLYYDSMSY_SINFVRIIMR_SPRWYFYYL_VEHVTFFIY_VLWAHGFEL_VRFPNITNL_WTAGAAAYY_YLDAYNMMI_YLQPRTFLL'
p26
g3
(g5
S' "\xb6\xe1\xd7\xdc\xef?'
tRp27
tp28
a(S'AELEGIQY_ATSRTLSYY_EILDITPCSF_FAYANRNRF_FLNRFTTTL_FLQSINFVR_FVDGVPFVV_KTFPPTEPK_RARSVSPKL_RLYYDSMSY_SINFVRIIMR_SPRWYFYYL_VLWAHGFEL_VRFPNITNL_WTAGAAAYY_YLDAYNMMI_YLQPRTFLL'
p29
g3
(g5
S'S\xad\xcal\xd5\xdc\xef?'
tRp30
tp31
a(S'ATSRTLSYY_EILDITPCSF_FAYANRNRF_FLNRFTTTL_FLQSINFVR_FVDGVPFVV_RARSVSPKL_SINFVRIIMR_SPRWYFYYL_TSRTLSYYK_VEHVTFFIY_VLWAHGFEL_VRFPNITNL_WTAGAAAYY_YIFFASFYY_YLDAYNMMI_YLQPRTFLL'
p32
g3
(g5
S'\xbd|\x80\xc9\xc8\xdc\xef?'
tRp33
tp34
a.