(lp1
(S'ATSRTLSYY_FAYANRNRF_FLNRFTTTL_FLQSINFVR_FVDGVPFVV_KTFPPTEPK_VRFPNITNL_YLDAYNMMI_YLQPRTFLL'
p2
cnumpy.core.multiarray
scalar
p3
(cnumpy
dtype
p4
(S'f8'
I0
I1
tRp5
(I3
S'<'
NNNI-1
I-1
I0
tbS'\xd5w\xd2\x93\xcb\xcd\xef?'
tRp6
tp7
a(S'ATSRTLSYY_FAYANRNRF_FLNRFTTTL_FVDGVPFVV_KTFPPTEPK_SINFVRIIMR_VRFPNITNL_YLDAYNMMI_YLQPRTFLL'
p8
g3
(g5
S'$\xa4\x9dr\xc9\xcd\xef?'
tRp9
tp10
a(S'ATSRTLSYY_FAYANRNRF_FLNRFTTTL_FLQSINFVR_FVDGVPFVV_KTFPPTEPK_VLWAHGFEL_VRFPNITNL_YLQPRTFLL'
p11
g3
(g5
S'CV\xa1Jl\xcd\xef?'
tRp12
tp13
a(S'ATSRTLSYY_FAYANRNRF_FLNRFTTTL_FVDGVPFVV_KTFPPTEPK_SINFVRIIMR_VLWAHGFEL_VRFPNITNL_YLQPRTFLL'
p14
g3
(g5
S'\xbdk\x12Xf\xcd\xef?'
tRp15
tp16
a(S'ATSRTLSYY_FAYANRNRF_FLNRFTTTL_FLQSINFVR_FVDGVPFVV_TSRTLSYYK_VRFPNITNL_YLDAYNMMI_YLQPRTFLL'
p17
g3
(g5
S'yM\x12\xeaa\xcd\xef?'
tRp18
tp19
a(S'ATSRTLSYY_FAYANRNRF_FLNRFTTTL_FVDGVPFVV_RARSVSPKL_SINFVRIIMR_VRFPNITNL_YLDAYNMMI_YLQPRTFLL'
p20
g3
(g5
S'\xcb-\x8e%[\xcd\xef?'
tRp21
tp22
a(S'ATSRTLSYY_FAYANRNRF_FLNRFTTTL_FLQSINFVR_FVDGVPFVV_RARSVSPKL_VRFPNITNL_YLDAYNMMI_YLQPRTFLL'
p23
g3
(g5
S'8\x8c#\x80W\xcd\xef?'
tRp24
tp25
a(S'ATSRTLSYY_FAYANRNRF_FLNRFTTTL_FLQSINFVR_FVDGVPFVV_KTFPPTEPK_TMADLVYAL_VRFPNITNL_YLQPRTFLL'
p26
g3
(g5
S'M\x00]\xa5\x1e\xcd\xef?'
tRp27
tp28
a(S'ATSRTLSYY_FAYANRNRF_FLNRFTTTL_FLQSINFVR_FVDGVPFVV_KTFPPTEPK_LLYDANYFL_VRFPNITNL_YLQPRTFLL'
p29
g3
(g5
S'\xd0\x18P\xe1\x1d\xcd\xef?'
tRp30
tp31
a(S'ATSRTLSYY_FAYANRNRF_FLNRFTTTL_FLQSINFVR_FVDGVPFVV_KTFPPTEPK_VRFPNITNL_YLQPRTFLL_YLYALVYFL'
p32
g3
(g5
S'\xbd\xef\xd7\xd1\x1d\xcd\xef?'
tRp33
tp34
a.