(lp1
(S'ATSRTLSYY_FAYANRNRF_FLNRFTTTL_FLQSINFVR_FVDGVPFVV_KTFPPTEPK_VRFPNITNL_YLQPRTFLL'
p2
cnumpy.core.multiarray
scalar
p3
(cnumpy
dtype
p4
(S'f8'
I0
I1
tRp5
(I3
S'<'
NNNI-1
I-1
I0
tbS'1\x9a3U\x9b\xed\xef?'
tRp6
tp7
a(S'ATSRTLSYY_FAYANRNRF_FLNRFTTTL_FVDGVPFVV_KTFPPTEPK_SINFVRIIMR_VRFPNITNL_YLQPRTFLL'
p8
g3
(g5
S']\x05\xe6B\x99\xed\xef?'
tRp9
tp10
a(S'ATSRTLSYY_FAYANRNRF_FLNRFTTTL_FLQSINFVR_FVDGVPFVV_RARSVSPKL_VRFPNITNL_YLQPRTFLL'
p11
g3
(g5
S'\xb1\xfc\xd6\x1a\x85\xed\xef?'
tRp12
tp13
a(S'ATSRTLSYY_FAYANRNRF_FLNRFTTTL_FVDGVPFVV_RARSVSPKL_SINFVRIIMR_VRFPNITNL_YLQPRTFLL'
p14
g3
(g5
S'\xfc(\xa2\xf9\x82\xed\xef?'
tRp15
tp16
a(S'ATSRTLSYY_FAYANRNRF_FLNRFTTTL_FLQSINFVR_FVDGVPFVV_TSRTLSYYK_VRFPNITNL_YLQPRTFLL'
p17
g3
(g5
S'\xf1\x8f\xc8\xfd}\xed\xef?'
tRp18
tp19
a(S'ATSRTLSYY_FAYANRNRF_FLQSINFVR_FVDGVPFVV_RARSVSPKL_VRFPNITNL_YLDAYNMMI_YLQPRTFLL'
p20
g3
(g5
S'\x97\x8cCY-\xed\xef?'
tRp21
tp22
a(S'ATSRTLSYY_FAYANRNRF_FVDGVPFVV_RARSVSPKL_SINFVRIIMR_VRFPNITNL_YLDAYNMMI_YLQPRTFLL'
p23
g3
(g5
S'\xe1\xb8\x0e8+\xed\xef?'
tRp24
tp25
a(S'ASKIITLKK_ATSRTLSYY_FAYANRNRF_FLNRFTTTL_FLQSINFVR_FVDGVPFVV_VRFPNITNL_YLQPRTFLL'
p26
g3
(g5
S'\xa7`}\xd3"\xed\xef?'
tRp27
tp28
a(S'ATSRTLSYY_FAYANRNRF_FLNRFTTTL_FLQSINFVR_FVDGVPFVV_TLKSFTVEK_VRFPNITNL_YLQPRTFLL'
p29
g3
(g5
S'\xe9\x9a\x08\x17"\xed\xef?'
tRp30
tp31
a(S'ATSRTLSYY_FAYANRNRF_FLNRFTTTL_FLQSINFVR_FVDGVPFVV_RLFRKSNLK_VRFPNITNL_YLQPRTFLL'
p32
g3
(g5
S'\xe8\x9a\x08\x17"\xed\xef?'
tRp33
tp34
a.