(lp1
(S'ATSRTLSYY_FAYANRNRF_KTFPPTEPK_YLQPRTFLL'
p2
cnumpy.core.multiarray
scalar
p3
(cnumpy
dtype
p4
(S'f8'
I0
I1
tRp5
(I3
S'<'
NNNI-1
I-1
I0
tbS'\xc4\xf2Kb\xd3\xfc\xef?'
tRp6
tp7
a(S'ATSRTLSYY_FAYANRNRF_RARSVSPKL_YLQPRTFLL'
p8
g3
(g5
S'\xb8\xc7\xd2\x92\xc0\xfc\xef?'
tRp9
tp10
a(S'ALRANSAVK_ATSRTLSYY_FAYANRNRF_YLQPRTFLL'
p11
g3
(g5
S'\r*\xa1\x89\xba\xfc\xef?'
tRp12
tp13
a(S'ATSRTLSYY_FAYANRNRF_TSRTLSYYK_YLQPRTFLL'
p14
g3
(g5
S'\x0b*\xa1\x89\xba\xfc\xef?'
tRp15
tp16
a(S'ATSRTLSYY_FAYANRNRF_TLKSFTVEK_YLQPRTFLL'
p17
g3
(g5
S'\x08*\xa1\x89\xba\xfc\xef?'
tRp18
tp19
a(S'ATSRTLSYY_FAYANRNRF_SSRGTSPAR_YLQPRTFLL'
p20
g3
(g5
S'\x08*\xa1\x89\xba\xfc\xef?'
tRp21
tp22
a(S'ATSRTLSYY_FAYANRNRF_RLFRKSNLK_YLQPRTFLL'
p23
g3
(g5
S'\x08*\xa1\x89\xba\xfc\xef?'
tRp24
tp25
a(S'ATSRTLSYY_FAYANRNRF_KMQRMLLEK_YLQPRTFLL'
p26
g3
(g5
S'\x08*\xa1\x89\xba\xfc\xef?'
tRp27
tp28
a(S'ASKIITLKK_ATSRTLSYY_FAYANRNRF_YLQPRTFLL'
p29
g3
(g5
S'\x07*\xa1\x89\xba\xfc\xef?'
tRp30
tp31
a(S'FAYANRNRF_FVDGVPFVV_RARSVSPKL_YLQPRTFLL'
p32
g3
(g5
S"\x1d5W'\xa0\xfc\xef?"
tRp33
tp34
a.