(lp1
(S'ATSRTLSYY_FAYANRNRF_FLQSINFVR_FVDGVPFVV_RARSVSPKL_VRFPNITNL_YLQPRTFLL'
p2
cnumpy.core.multiarray
scalar
p3
(cnumpy
dtype
p4
(S'f8'
I0
I1
tRp5
(I3
S'<'
NNNI-1
I-1
I0
tbS'\xe5T\x8d\x93\xee\xfa\xef?'
tRp6
tp7
a(S'ATSRTLSYY_FAYANRNRF_FVDGVPFVV_RARSVSPKL_SINFVRIIMR_VRFPNITNL_YLQPRTFLL'
p8
g3
(g5
S'\x0f\xc0?\x81\xec\xfa\xef?'
tRp9
tp10
a(S'ATSRTLSYY_FAYANRNRF_FLQSINFVR_FVDGVPFVV_KTFPPTEPK_VRFPNITNL_YLQPRTFLL'
p11
g3
(g5
S'\x8b3\xe2\xe1\xcb\xfa\xef?'
tRp12
tp13
a(S'ATSRTLSYY_FAYANRNRF_FVDGVPFVV_KTFPPTEPK_SINFVRIIMR_VRFPNITNL_YLQPRTFLL'
p14
g3
(g5
S'\xb5\x9e\x94\xcf\xc9\xfa\xef?'
tRp15
tp16
a(S'ATSRTLSYY_FAYANRNRF_FLQSINFVR_FVDGVPFVV_TSRTLSYYK_VRFPNITNL_YLQPRTFLL'
p17
g3
(g5
S'\xf7\x84\xca/\xc5\xfa\xef?'
tRp18
tp19
a(S'ATSRTLSYY_FAYANRNRF_FLQSINFVR_FVDGVPFVV_TLKSFTVEK_VRFPNITNL_YLQPRTFLL'
p20
g3
(g5
S'\xf5\x84\xca/\xc5\xfa\xef?'
tRp21
tp22
a(S'ATSRTLSYY_FAYANRNRF_FLQSINFVR_FVDGVPFVV_SSRGTSPAR_VRFPNITNL_YLQPRTFLL'
p23
g3
(g5
S'\xf5\x84\xca/\xc5\xfa\xef?'
tRp24
tp25
a(S'ATSRTLSYY_FAYANRNRF_FLQSINFVR_FVDGVPFVV_RLFRKSNLK_VRFPNITNL_YLQPRTFLL'
p26
g3
(g5
S'\xf5\x84\xca/\xc5\xfa\xef?'
tRp27
tp28
a(S'ATSRTLSYY_FAYANRNRF_FLQSINFVR_FVDGVPFVV_KMQRMLLEK_VRFPNITNL_YLQPRTFLL'
p29
g3
(g5
S'\xf5\x84\xca/\xc5\xfa\xef?'
tRp30
tp31
a(S'ASKIITLKK_ATSRTLSYY_FAYANRNRF_FLQSINFVR_FVDGVPFVV_VRFPNITNL_YLQPRTFLL'
p32
g3
(g5
S'\xf5\x84\xca/\xc5\xfa\xef?'
tRp33
tp34
a.