(lp1
(S'ATSRTLSYY_FAYANRNRF_FLNRFTTTL_FLQSINFVR_FVDGVPFVV_KTFPPTEPK_NVFAFPFTIY_RARSVSPKL_SINFVRIIMR_VEHVTFFIY_VRFPNITNL_WTAGAAAYY_YIFFASFYY_YLDAYNMMI_YLQPRTFLL'
p2
cnumpy.core.multiarray
scalar
p3
(cnumpy
dtype
p4
(S'f8'
I0
I1
tRp5
(I3
S'<'
NNNI-1
I-1
I0
tbS'\x91\xb2?\x86\x90\xf0\xef?'
tRp6
tp7
a(S'ATSRTLSYY_EILDITPCSF_FAYANRNRF_FLNRFTTTL_FLQSINFVR_FVDGVPFVV_KTFPPTEPK_RARSVSPKL_SINFVRIIMR_VEHVTFFIY_VRFPNITNL_WTAGAAAYY_YIFFASFYY_YLDAYNMMI_YLQPRTFLL'
p8
g3
(g5
S'E:\x04W\x8e\xf0\xef?'
tRp9
tp10
a(S'AELEGIQY_ATSRTLSYY_FAYANRNRF_FLNRFTTTL_FLQSINFVR_FVDGVPFVV_KTFPPTEPK_NVFAFPFTIY_RARSVSPKL_SINFVRIIMR_VRFPNITNL_WTAGAAAYY_YIFFASFYY_YLDAYNMMI_YLQPRTFLL'
p11
g3
(g5
S'\x9c\xe3j2\x89\xf0\xef?'
tRp12
tp13
a(S'AELEGIQY_ATSRTLSYY_EILDITPCSF_FAYANRNRF_FLNRFTTTL_FLQSINFVR_FVDGVPFVV_KTFPPTEPK_RARSVSPKL_SINFVRIIMR_VRFPNITNL_WTAGAAAYY_YIFFASFYY_YLDAYNMMI_YLQPRTFLL'
p14
g3
(g5
S'Ok/\x03\x87\xf0\xef?'
tRp15
tp16
a(S'ATSRTLSYY_FAYANRNRF_FLNRFTTTL_FLQSINFVR_FVDGVPFVV_KTFPPTEPK_NVFAFPFTIY_RARSVSPKL_RLYYDSMSY_SINFVRIIMR_VEHVTFFIY_VRFPNITNL_WTAGAAAYY_YLDAYNMMI_YLQPRTFLL'
p17
g3
(g5
S'\xe5K\x15\x1e\x81\xf0\xef?'
tRp18
tp19
a(S'ATSRTLSYY_EILDITPCSF_FAYANRNRF_FLNRFTTTL_FLQSINFVR_FVDGVPFVV_KTFPPTEPK_RARSVSPKL_RLYYDSMSY_SINFVRIIMR_VEHVTFFIY_VRFPNITNL_WTAGAAAYY_YLDAYNMMI_YLQPRTFLL'
p20
g3
(g5
S'\x98\xd3\xd9\xee~\xf0\xef?'
tRp21
tp22
a(S'ATSRTLSYY_FAYANRNRF_FLNRFTTTL_FLQSINFVR_FVDGVPFVV_NVFAFPFTIY_RARSVSPKL_SINFVRIIMR_TSRTLSYYK_VEHVTFFIY_VRFPNITNL_WTAGAAAYY_YIFFASFYY_YLDAYNMMI_YLQPRTFLL'
p23
g3
(g5
S'\x11\x887p}\xf0\xef?'
tRp24
tp25
a(S'AELEGIQY_ATSRTLSYY_FAYANRNRF_FLNRFTTTL_FLQSINFVR_FVDGVPFVV_KTFPPTEPK_NVFAFPFTIY_RARSVSPKL_RLYYDSMSY_SINFVRIIMR_VRFPNITNL_WTAGAAAYY_YLDAYNMMI_YLQPRTFLL'
p26
g3
(g5
S'\x83<\x97\x1b}\xf0\xef?'
tRp27
tp28
a(S'ATSRTLSYY_EILDITPCSF_FAYANRNRF_FLNRFTTTL_FLQSINFVR_FVDGVPFVV_RARSVSPKL_SINFVRIIMR_TSRTLSYYK_VEHVTFFIY_VRFPNITNL_WTAGAAAYY_YIFFASFYY_YLDAYNMMI_YLQPRTFLL'
p29
g3
(g5
S'\xc7\x0f\xfc@{\xf0\xef?'
tRp30
tp31
a(S'AELEGIQY_ATSRTLSYY_EILDITPCSF_FAYANRNRF_FLNRFTTTL_FLQSINFVR_FVDGVPFVV_KTFPPTEPK_RARSVSPKL_RLYYDSMSY_SINFVRIIMR_VRFPNITNL_WTAGAAAYY_YLDAYNMMI_YLQPRTFLL'
p32
g3
(g5
S'3\xc4[\xecz\xf0\xef?'
tRp33
tp34
a.