(lp1
(S'FAYANRNRF_KTFPPTEPK_YLQPRTFLL'
p2
cnumpy.core.multiarray
scalar
p3
(cnumpy
dtype
p4
(S'f8'
I0
I1
tRp5
(I3
S'<'
NNNI-1
I-1
I0
tbS'\x15\xfd\xd61~\xf8\xef?'
tRp6
tp7
a(S'FAYANRNRF_RARSVSPKL_YLQPRTFLL'
p8
g3
(g5
S'\xbb\xbc\x1b\x0ey\xf8\xef?'
tRp9
tp10
a(S'FAYANRNRF_TSRTLSYYK_YLQPRTFLL'
p11
g3
(g5
S'S\xd1\x05\x90_\xf8\xef?'
tRp12
tp13
a(S'ASKIITLKK_FAYANRNRF_YLQPRTFLL'
p14
g3
(g5
S'M\xd1\x05\x90_\xf8\xef?'
tRp15
tp16
a(S'ALRANSAVK_FAYANRNRF_YLQPRTFLL'
p17
g3
(g5
S'H\xd1\x05\x90_\xf8\xef?'
tRp18
tp19
a(S'FAYANRNRF_TLKSFTVEK_YLQPRTFLL'
p20
g3
(g5
S'G\xd1\x05\x90_\xf8\xef?'
tRp21
tp22
a(S'FAYANRNRF_RLFRKSNLK_YLQPRTFLL'
p23
g3
(g5
S'@\xd1\x05\x90_\xf8\xef?'
tRp24
tp25
a(S'FAYANRNRF_KMQRMLLEK_YLQPRTFLL'
p26
g3
(g5
S'@\xd1\x05\x90_\xf8\xef?'
tRp27
tp28
a(S'FAYANRNRF_SSRGTSPAR_YLQPRTFLL'
p29
g3
(g5
S'=\xd1\x05\x90_\xf8\xef?'
tRp30
tp31
a(S'FAYANRNRF_FPRGQGVPI_YLQPRTFLL'
p32
g3
(g5
S'\xa0\xd9\x7fK\x05\xf8\xef?'
tRp33
tp34
a.