(lp1
(S'AELEGIQY_ATSRTLSYY_FAYANRNRF_FLNRFTTTL_FLQSINFVR_FPRGQGVPI_FVDGVPFVV_KTFPPTEPK_NVFAFPFTIY_RARSVSPKL_SINFVRIIMR_SPRWYFYYL_TMADLVYAL_TVYSHLLLV_VLWAHGFEL_VRFPNITNL_WTAGAAAYY_YANRNRFLY_YIFFASFYY_YLDAYNMMI_YLQPRTFLL'
p2
cnumpy.core.multiarray
scalar
p3
(cnumpy
dtype
p4
(S'f8'
I0
I1
tRp5
(I3
S'<'
NNNI-1
I-1
I0
tbS'\x15\xaf\xedqB\xd7\xef?'
tRp6
tp7
a(S'AELEGIQY_ATSRTLSYY_FAYANRNRF_FLNRFTTTL_FLQSINFVR_FPRGQGVPI_FVDGVPFVV_KTFPPTEPK_LLYDANYFL_NVFAFPFTIY_RARSVSPKL_SINFVRIIMR_SPRWYFYYL_TVYSHLLLV_VLWAHGFEL_VRFPNITNL_WTAGAAAYY_YANRNRFLY_YIFFASFYY_YLDAYNMMI_YLQPRTFLL'
p8
g3
(g5
S'\r\x19r\xdf@\xd7\xef?'
tRp9
tp10
a(S'AELEGIQY_ATSRTLSYY_FAYANRNRF_FLNRFTTTL_FLQSINFVR_FPRGQGVPI_FVDGVPFVV_KTFPPTEPK_NVFAFPFTIY_RARSVSPKL_SINFVRIIMR_SPRWYFYYL_TVYSHLLLV_VLWAHGFEL_VRFPNITNL_WTAGAAAYY_YANRNRFLY_YIFFASFYY_YLDAYNMMI_YLQPRTFLL_YLYALVYFL'
p11
g3
(g5
S'\x03\xf0\xf9\xcf@\xd7\xef?'
tRp12
tp13
a(S'ATSRTLSYY_FAYANRNRF_FLNRFTTTL_FLQSINFVR_FPRGQGVPI_FVDGVPFVV_KTFPPTEPK_NVFAFPFTIY_RARSVSPKL_SINFVRIIMR_SPRWYFYYL_TMADLVYAL_TVYSHLLLV_VEHVTFFIY_VLWAHGFEL_VRFPNITNL_WTAGAAAYY_YANRNRFLY_YIFFASFYY_YLDAYNMMI_YLQPRTFLL'
p14
g3
(g5
S'H\xe1\xb9\x9c?\xd7\xef?'
tRp15
tp16
a(S'ATSRTLSYY_FAYANRNRF_FLNRFTTTL_FLQSINFVR_FPRGQGVPI_FVDGVPFVV_KTFPPTEPK_LLYDANYFL_NVFAFPFTIY_RARSVSPKL_SINFVRIIMR_SPRWYFYYL_TVYSHLLLV_VEHVTFFIY_VLWAHGFEL_VRFPNITNL_WTAGAAAYY_YANRNRFLY_YIFFASFYY_YLDAYNMMI_YLQPRTFLL'
p17
g3
(g5
S'?K>\n>\xd7\xef?'
tRp18
tp19
a(S'ATSRTLSYY_FAYANRNRF_FLNRFTTTL_FLQSINFVR_FPRGQGVPI_FVDGVPFVV_KTFPPTEPK_NVFAFPFTIY_RARSVSPKL_SINFVRIIMR_SPRWYFYYL_TVYSHLLLV_VEHVTFFIY_VLWAHGFEL_VRFPNITNL_WTAGAAAYY_YANRNRFLY_YIFFASFYY_YLDAYNMMI_YLQPRTFLL_YLYALVYFL'
p20
g3
(g5
S'0"\xc6\xfa=\xd7\xef?'
tRp21
tp22
a(S'AELEGIQY_ATSRTLSYY_EILDITPCSF_FAYANRNRF_FLNRFTTTL_FLQSINFVR_FPRGQGVPI_FVDGVPFVV_KTFPPTEPK_RARSVSPKL_SINFVRIIMR_SPRWYFYYL_TMADLVYAL_TVYSHLLLV_VLWAHGFEL_VRFPNITNL_WTAGAAAYY_YANRNRFLY_YIFFASFYY_YLDAYNMMI_YLQPRTFLL'
p23
g3
(g5
S'\xd3p\x85\xc0)\xd7\xef?'
tRp24
tp25
a(S'AELEGIQY_ATSRTLSYY_EILDITPCSF_FAYANRNRF_FLNRFTTTL_FLQSINFVR_FPRGQGVPI_FVDGVPFVV_KTFPPTEPK_LLYDANYFL_RARSVSPKL_SINFVRIIMR_SPRWYFYYL_TVYSHLLLV_VLWAHGFEL_VRFPNITNL_WTAGAAAYY_YANRNRFLY_YIFFASFYY_YLDAYNMMI_YLQPRTFLL'
p26
g3
(g5
S'\xcb\xda\t.(\xd7\xef?'
tRp27
tp28
a(S'AELEGIQY_ATSRTLSYY_EILDITPCSF_FAYANRNRF_FLNRFTTTL_FLQSINFVR_FPRGQGVPI_FVDGVPFVV_KTFPPTEPK_RARSVSPKL_SINFVRIIMR_SPRWYFYYL_TVYSHLLLV_VLWAHGFEL_VRFPNITNL_WTAGAAAYY_YANRNRFLY_YIFFASFYY_YLDAYNMMI_YLQPRTFLL_YLYALVYFL'
p29
g3
(g5
S'\xb8\xb1\x91\x1e(\xd7\xef?'
tRp30
tp31
a(S'ATSRTLSYY_EILDITPCSF_FAYANRNRF_FLNRFTTTL_FLQSINFVR_FPRGQGVPI_FVDGVPFVV_KTFPPTEPK_RARSVSPKL_SINFVRIIMR_SPRWYFYYL_TMADLVYAL_TVYSHLLLV_VEHVTFFIY_VLWAHGFEL_VRFPNITNL_WTAGAAAYY_YANRNRFLY_YIFFASFYY_YLDAYNMMI_YLQPRTFLL'
p32
g3
(g5
S'\x00\xa3Q\xeb&\xd7\xef?'
tRp33
tp34
a.