(lp1
(S'ATSRTLSYY_FAYANRNRF_FVDGVPFVV_RARSVSPKL_VRFPNITNL_YLQPRTFLL'
p2
cnumpy.core.multiarray
scalar
p3
(cnumpy
dtype
p4
(S'f8'
I0
I1
tRp5
(I3
S'<'
NNNI-1
I-1
I0
tbS'\xbf\xd5l\x90g\xf9\xef?'
tRp6
tp7
a(S'ATSRTLSYY_FAYANRNRF_FVDGVPFVV_KTFPPTEPK_VRFPNITNL_YLQPRTFLL'
p8
g3
(g5
S'\x00\xf3vjP\xf9\xef?'
tRp9
tp10
a(S'ATSRTLSYY_FAYANRNRF_FVDGVPFVV_SSRGTSPAR_VRFPNITNL_YLQPRTFLL'
p11
g3
(g5
S'\xb4\xfdE-$\xf9\xef?'
tRp12
tp13
a(S'ATSRTLSYY_FAYANRNRF_FVDGVPFVV_RLFRKSNLK_VRFPNITNL_YLQPRTFLL'
p14
g3
(g5
S'\xb3\xfdE-$\xf9\xef?'
tRp15
tp16
a(S'ATSRTLSYY_FAYANRNRF_FVDGVPFVV_KMQRMLLEK_VRFPNITNL_YLQPRTFLL'
p17
g3
(g5
S'\xb3\xfdE-$\xf9\xef?'
tRp18
tp19
a(S'ATSRTLSYY_FAYANRNRF_FVDGVPFVV_TSRTLSYYK_VRFPNITNL_YLQPRTFLL'
p20
g3
(g5
S'\xb1\xfdE-$\xf9\xef?'
tRp21
tp22
a(S'ATSRTLSYY_FAYANRNRF_FVDGVPFVV_TLKSFTVEK_VRFPNITNL_YLQPRTFLL'
p23
g3
(g5
S'\xb0\xfdE-$\xf9\xef?'
tRp24
tp25
a(S'ASKIITLKK_ATSRTLSYY_FAYANRNRF_FVDGVPFVV_VRFPNITNL_YLQPRTFLL'
p26
g3
(g5
S'\xb0\xfdE-$\xf9\xef?'
tRp27
tp28
a(S'ALRANSAVK_ATSRTLSYY_FAYANRNRF_FVDGVPFVV_VRFPNITNL_YLQPRTFLL'
p29
g3
(g5
S'\xab\xfdE-$\xf9\xef?'
tRp30
tp31
a(S'ATSRTLSYY_FAYANRNRF_FVDGVPFVV_RARSVSPKL_TVYSHLLLV_YLQPRTFLL'
p32
g3
(g5
S'\x11 \xc6\xc8\x17\xf9\xef?'
tRp33
tp34
a.