(lp1
(S'AELEGIQY_ATSRTLSYY_FAYANRNRF_FEYVSQPFL_FLNRFTTTL_FLQSINFVR_FPRGQGVPI_FTYASALWEI_FVDGVPFVV_ISDYDYYRY_KTFPPTEPK_LLYDANYFL_MGYINVFAF_MPASWVMRI_NVFAFPFTIY_RARSVSPKL_RLYYDSMSY_SINFVRIIMR_SPRWYFYYL_TMADLVYAL_TSRTLSYYK_TVYSHLLLV_VEHVTFFIY_VLWAHGFEL_VRFPNITNL_WTAGAAAYY_YANRNRFLY_YFIASFRLF_YIFFASFYY_YLDAYNMMI_YLQPRTFLL_YLYALVYFL'
p2
cnumpy.core.multiarray
scalar
p3
(cnumpy
dtype
p4
(S'f8'
I0
I1
tRp5
(I3
S'<'
NNNI-1
I-1
I0
tbS'0\xe3p\xa8J\xd2\xef?'
tRp6
tp7
a(S'AELEGIQY_ATSRTLSYY_FAYANRNRF_FEYVSQPFL_FLNRFTTTL_FLQSINFVR_FPRGQGVPI_FTYASALWEI_FVDGVPFVV_ISDYDYYRY_KTFPPTEPK_LLYDANYFL_MGYINVFAF_MPASWVMRI_NVFAFPFTIY_RARSVSPKL_RLYYDSMSY_SINFVRIIMR_SPRWYFYYL_TMADLVYAL_TSRTLSYYK_TVYSHLLLV_VEHVTFFIY_VLWAHGFEL_VRFPNITNL_VYFLQSINF_WTAGAAAYY_YANRNRFLY_YIFFASFYY_YLDAYNMMI_YLQPRTFLL_YLYALVYFL'
p8
g3
(g5
S'ar\xb4\xeaI\xd2\xef?'
tRp9
tp10
a(S'AELEGIQY_ATSRTLSYY_FAYANRNRF_FEYVSQPFL_FLNRFTTTL_FLQSINFVR_FPRGQGVPI_FTYASALWEI_FVDGVPFVV_ISDYDYYRY_KTFPPTEPK_LLYDANYFL_MGYINVFAF_MPASWVMRI_NVFAFPFTIY_RARSVSPKL_RLYYDSMSY_SINFVRIIMR_SPRWYFYYL_SYFIASFRLF_TMADLVYAL_TSRTLSYYK_TVYSHLLLV_VEHVTFFIY_VLWAHGFEL_VRFPNITNL_WTAGAAAYY_YANRNRFLY_YIFFASFYY_YLDAYNMMI_YLQPRTFLL_YLYALVYFL'
p11
g3
(g5
S'ar\xb4\xeaI\xd2\xef?'
tRp12
tp13
a(S'AELEGIQY_ATSRTLSYY_FAYANRNRF_FEYVSQPFL_FLLPSLATV_FLNRFTTTL_FLQSINFVR_FPRGQGVPI_FTYASALWEI_FVDGVPFVV_ISDYDYYRY_KTFPPTEPK_MGYINVFAF_MPASWVMRI_NVFAFPFTIY_RARSVSPKL_RLYYDSMSY_SINFVRIIMR_SPRWYFYYL_TMADLVYAL_TSRTLSYYK_TVYSHLLLV_VEHVTFFIY_VLWAHGFEL_VRFPNITNL_WTAGAAAYY_YANRNRFLY_YFIASFRLF_YIFFASFYY_YLDAYNMMI_YLQPRTFLL_YLYALVYFL'
p14
g3
(g5
S'\x91\xdc|\xe1H\xd2\xef?'
tRp15
tp16
a(S'AELEGIQY_ATSRTLSYY_FAYANRNRF_FEYVSQPFL_FLNRFTTTL_FLPRVFSAV_FLQSINFVR_FPRGQGVPI_FTYASALWEI_FVDGVPFVV_ISDYDYYRY_KTFPPTEPK_MGYINVFAF_MPASWVMRI_NVFAFPFTIY_RARSVSPKL_RLYYDSMSY_SINFVRIIMR_SPRWYFYYL_TMADLVYAL_TSRTLSYYK_TVYSHLLLV_VEHVTFFIY_VLWAHGFEL_VRFPNITNL_WTAGAAAYY_YANRNRFLY_YFIASFRLF_YIFFASFYY_YLDAYNMMI_YLQPRTFLL_YLYALVYFL'
p17
g3
(g5
S'\xbdW7\xd9H\xd2\xef?'
tRp18
tp19
a(S'AELEGIQY_ATSRTLSYY_FAYANRNRF_FEYVSQPFL_FLLNKEMYL_FLNRFTTTL_FLQSINFVR_FPRGQGVPI_FTYASALWEI_FVDGVPFVV_ISDYDYYRY_KTFPPTEPK_MGYINVFAF_MPASWVMRI_NVFAFPFTIY_RARSVSPKL_RLYYDSMSY_SINFVRIIMR_SPRWYFYYL_TMADLVYAL_TSRTLSYYK_TVYSHLLLV_VEHVTFFIY_VLWAHGFEL_VRFPNITNL_WTAGAAAYY_YANRNRFLY_YFIASFRLF_YIFFASFYY_YLDAYNMMI_YLQPRTFLL_YLYALVYFL'
p20
g3
(g5
S'\xb9W7\xd9H\xd2\xef?'
tRp21
tp22
a(S'AELEGIQY_ATSRTLSYY_FAYANRNRF_FEYVSQPFL_FLNRFTTTL_FLQSINFVR_FPRGQGVPI_FTYASALWEI_FVDGVPFVV_ISDYDYYRY_ITLATCELY_KTFPPTEPK_LLYDANYFL_MGYINVFAF_MPASWVMRI_NVFAFPFTIY_RARSVSPKL_SINFVRIIMR_SPRWYFYYL_TMADLVYAL_TSRTLSYYK_TVYSHLLLV_VEHVTFFIY_VLWAHGFEL_VRFPNITNL_WTAGAAAYY_YANRNRFLY_YFIASFRLF_YIFFASFYY_YLDAYNMMI_YLQPRTFLL_YLYALVYFL'
p23
g3
(g5
S'\xc7\x9f\xdbX>\xd2\xef?'
tRp24
tp25
a(S'AELEGIQY_ATSRTLSYY_FAYANRNRF_FEYVSQPFL_FLNRFTTTL_FLQSINFVR_FPRGQGVPI_FTYASALWEI_FVDGVPFVV_ISDYDYYRY_ITLATCELY_KTFPPTEPK_LLYDANYFL_MGYINVFAF_MPASWVMRI_NVFAFPFTIY_RARSVSPKL_SINFVRIIMR_SPRWYFYYL_TMADLVYAL_TSRTLSYYK_TVYSHLLLV_VEHVTFFIY_VLWAHGFEL_VRFPNITNL_VYFLQSINF_WTAGAAAYY_YANRNRFLY_YIFFASFYY_YLDAYNMMI_YLQPRTFLL_YLYALVYFL'
p26
g3
(g5
S'\xf8.\x1f\x9b=\xd2\xef?'
tRp27
tp28
a(S'AELEGIQY_ATSRTLSYY_FAYANRNRF_FEYVSQPFL_FLNRFTTTL_FLQSINFVR_FPRGQGVPI_FTYASALWEI_FVDGVPFVV_ISDYDYYRY_ITLATCELY_KTFPPTEPK_LLYDANYFL_MGYINVFAF_MPASWVMRI_NVFAFPFTIY_RARSVSPKL_SINFVRIIMR_SPRWYFYYL_SYFIASFRLF_TMADLVYAL_TSRTLSYYK_TVYSHLLLV_VEHVTFFIY_VLWAHGFEL_VRFPNITNL_WTAGAAAYY_YANRNRFLY_YIFFASFYY_YLDAYNMMI_YLQPRTFLL_YLYALVYFL'
p29
g3
(g5
S'\xf7.\x1f\x9b=\xd2\xef?'
tRp30
tp31
a(S'AELEGIQY_ATSRTLSYY_FAYANRNRF_FEYVSQPFL_FLNRFTTTL_FLQSINFVR_FPRGQGVPI_FTYASALWEI_FVDGVPFVV_ISDYDYYRY_KTFPPTEPK_LLYDANYFL_LYSPIFLIV_MGYINVFAF_MPASWVMRI_NVFAFPFTIY_RARSVSPKL_RLYYDSMSY_SINFVRIIMR_SPRWYFYYL_TMADLVYAL_TSRTLSYYK_TVYSHLLLV_VEHVTFFIY_VLWAHGFEL_VRFPNITNL_WTAGAAAYY_YANRNRFLY_YIFFASFYY_YLDAYNMMI_YLQPRTFLL_YLYALVYFL'
p32
g3
(g5
S'\xed\xc0X\x83$\xd2\xef?'
tRp33
tp34
a.