(lp1
(S'AELEGIQY_ATSRTLSYY_FAYANRNRF_FLNRFTTTL_FLQSINFVR_FVDGVPFVV_KTFPPTEPK_NVFAFPFTIY_RARSVSPKL_SINFVRIIMR_SPRWYFYYL_TMADLVYAL_VLWAHGFEL_VRFPNITNL_WTAGAAAYY_YANRNRFLY_YIFFASFYY_YLDAYNMMI_YLQPRTFLL'
p2
cnumpy.core.multiarray
scalar
p3
(cnumpy
dtype
p4
(S'f8'
I0
I1
tRp5
(I3
S'<'
NNNI-1
I-1
I0
tbS'\x93\xcd\xfd\xbd\xe0\xc6\xef?'
tRp6
tp7
a(S'AELEGIQY_ATSRTLSYY_FAYANRNRF_FLNRFTTTL_FLQSINFVR_FVDGVPFVV_KTFPPTEPK_NVFAFPFTIY_RARSVSPKL_SINFVRIIMR_SPRWYFYYL_VLWAHGFEL_VRFPNITNL_WTAGAAAYY_YANRNRFLY_YIFFASFYY_YLDAYNMMI_YLQPRTFLL_YLYALVYFL'
p8
g3
(g5
S' *\x970\xdf\xc6\xef?'
tRp9
tp10
a(S'AELEGIQY_ATSRTLSYY_FAYANRNRF_FLNRFTTTL_FLQSINFVR_FVDGVPFVV_KTFPPTEPK_LLYDANYFL_NVFAFPFTIY_RARSVSPKL_SINFVRIIMR_SPRWYFYYL_VLWAHGFEL_VRFPNITNL_WTAGAAAYY_YANRNRFLY_YIFFASFYY_YLDAYNMMI_YLQPRTFLL'
p11
g3
(g5
S"\xb3\xc4>'\xdf\xc6\xef?"
tRp12
tp13
a(S'ATSRTLSYY_FAYANRNRF_FLNRFTTTL_FLQSINFVR_FVDGVPFVV_KTFPPTEPK_NVFAFPFTIY_RARSVSPKL_SINFVRIIMR_SPRWYFYYL_TMADLVYAL_VEHVTFFIY_VLWAHGFEL_VRFPNITNL_WTAGAAAYY_YANRNRFLY_YIFFASFYY_YLDAYNMMI_YLQPRTFLL'
p14
g3
(g5
S'\x1c\xfav\xe5\xdc\xc6\xef?'
tRp15
tp16
a(S'ATSRTLSYY_FAYANRNRF_FLNRFTTTL_FLQSINFVR_FVDGVPFVV_KTFPPTEPK_NVFAFPFTIY_RARSVSPKL_SINFVRIIMR_SPRWYFYYL_VEHVTFFIY_VLWAHGFEL_VRFPNITNL_WTAGAAAYY_YANRNRFLY_YIFFASFYY_YLDAYNMMI_YLQPRTFLL_YLYALVYFL'
p17
g3
(g5
S'(\xe5\xe0p\xdb\xc6\xef?'
tRp18
tp19
a(S'ATSRTLSYY_FAYANRNRF_FLNRFTTTL_FLQSINFVR_FVDGVPFVV_KTFPPTEPK_LLYDANYFL_NVFAFPFTIY_RARSVSPKL_SINFVRIIMR_SPRWYFYYL_VEHVTFFIY_VLWAHGFEL_VRFPNITNL_WTAGAAAYY_YANRNRFLY_YIFFASFYY_YLDAYNMMI_YLQPRTFLL'
p20
g3
(g5
S'<\xf1\xb7N\xdb\xc6\xef?'
tRp21
tp22
a(S'AELEGIQY_ATSRTLSYY_EILDITPCSF_FAYANRNRF_FLNRFTTTL_FLQSINFVR_FVDGVPFVV_KTFPPTEPK_RARSVSPKL_SINFVRIIMR_SPRWYFYYL_TMADLVYAL_VLWAHGFEL_VRFPNITNL_WTAGAAAYY_YANRNRFLY_YIFFASFYY_YLDAYNMMI_YLQPRTFLL'
p23
g3
(g5
S'\xcb\x9b@\x9c\xc2\xc6\xef?'
tRp24
tp25
a(S'AELEGIQY_ATSRTLSYY_EILDITPCSF_FAYANRNRF_FLNRFTTTL_FLQSINFVR_FVDGVPFVV_KTFPPTEPK_RARSVSPKL_SINFVRIIMR_SPRWYFYYL_VLWAHGFEL_VRFPNITNL_WTAGAAAYY_YANRNRFLY_YIFFASFYY_YLDAYNMMI_YLQPRTFLL_YLYALVYFL'
p26
g3
(g5
S'X\xf8\xd9\x0e\xc1\xc6\xef?'
tRp27
tp28
a(S'AELEGIQY_ATSRTLSYY_EILDITPCSF_FAYANRNRF_FLNRFTTTL_FLQSINFVR_FVDGVPFVV_KTFPPTEPK_LLYDANYFL_RARSVSPKL_SINFVRIIMR_SPRWYFYYL_VLWAHGFEL_VRFPNITNL_WTAGAAAYY_YANRNRFLY_YIFFASFYY_YLDAYNMMI_YLQPRTFLL'
p29
g3
(g5
S'\xed\x92\x81\x05\xc1\xc6\xef?'
tRp30
tp31
a(S'ATSRTLSYY_EILDITPCSF_FAYANRNRF_FLNRFTTTL_FLQSINFVR_FVDGVPFVV_KTFPPTEPK_RARSVSPKL_SINFVRIIMR_SPRWYFYYL_TMADLVYAL_VEHVTFFIY_VLWAHGFEL_VRFPNITNL_WTAGAAAYY_YANRNRFLY_YIFFASFYY_YLDAYNMMI_YLQPRTFLL'
p32
g3
(g5
S'\xe0\x1d\xf7\x94\xc0\xc6\xef?'
tRp33
tp34
a.