(lp1
(S'AELEGIQY_ALRANSAVK_ASKIITLKK_ATSRTLSYY_EEHVQIHTI_EELKKLLEQW_EILDITPCSF_FAYANRNRF_FCNDPFLGVY_FEYVSQPFL_FLLNKEMYL_FLLPSLATV_FLNRFTTTL_FLPRVFSAV_FLQSINFVR_FPNITNLCPF_FPRGQGVPI_FTNVYADSF_FTYASALWEI_FVDGVPFVV_GVYFASTEK_HVTFFIYNK_IELSLIDFYL_IMRTFKVSI_IPIQASLPF_IPRRNVATL_ISDYDYYRY_ITLATCELY_ITLKKRWQL_KAYNVTQAF_KMQRMLLEK_KTFPPTEPK_KVSIWNLDY_LEYHDVRVV_LLYDANYFL_LNDLCFTNVY_LPFFSNVTW_LPFNDGVYF_LSPRWYFYY_LWPVTLACF_LYNSASFSTF_LYSPIFLIV_MEVTPSGTWL_MGYINVFAF_MIELSLIDFY_MPASWVMRI_NSASFSTFK_NVFAFPFTIY_NYNYLYRLF_QELIRQGTDY_QELYSPIFL_QLPQGTTLPK_RARSVSPKL_RISNCVADY_RLFRKSNLK_RLYYDSMSY_RTFKVSIWNL_SINFVRIIMR_SPRWYFYYL_SSPDDQIGYY_SYFTSDYYQL_TLKSFTVEK_TMADLVYAL_TSRTLSYYK_TVYSHLLLV_VEHVTFFIY_VLWAHGFEL_VRFPNITNL_VSIWNLDYII_VTPSGTWLTY_VVYRGTTTY_VYFLQSINF_VYYPDKVFR_WPVTLACFVL_WTAGAAAYY_YANRNRFLY_YDANYFLCW_YFIASFRLF_YIFFASFYY_YIIKLIFLW_YLDAYNMMI_YLQPRTFLL_YLYALVYFL'
p2
cnumpy.core.multiarray
scalar
p3
(cnumpy
dtype
p4
(S'f8'
I0
I1
tRp5
(I3
S'<'
NNNI-1
I-1
I0
tbS'\x0c^\x86\x92#\xa2\xef?'
tRp6
tp7
a(S'AELEGIQY_ALRANSAVK_ASKIITLKK_ATSRTLSYY_EEHVQIHTI_EELKKLLEQW_EILDITPCSF_FAYANRNRF_FCNDPFLGVY_FEYVSQPFL_FLLNKEMYL_FLLPSLATV_FLNRFTTTL_FLPRVFSAV_FLQSINFVR_FPNITNLCPF_FPRGQGVPI_FTNVYADSF_FTYASALWEI_FVDGVPFVV_GVYFASTEK_HVTFFIYNK_IELSLIDFYL_IMRTFKVSI_IPIQASLPF_IPRRNVATL_ISDYDYYRY_ITLATCELY_ITLKKRWQL_KAYNVTQAF_KMQRMLLEK_KTFPPTEPK_KVSIWNLDY_LEYHDVRVV_LLYDANYFL_LNDLCFTNVY_LPFFSNVTW_LPFNDGVYF_LSPRWYFYY_LWLLWPVTL_LYNSASFSTF_LYSPIFLIV_MEVTPSGTWL_MGYINVFAF_MIELSLIDFY_MPASWVMRI_NSASFSTFK_NVFAFPFTIY_NYNYLYRLF_QELIRQGTDY_QELYSPIFL_QLPQGTTLPK_RARSVSPKL_RISNCVADY_RLFRKSNLK_RLYYDSMSY_RTFKVSIWNL_SINFVRIIMR_SPRWYFYYL_SSPDDQIGYY_SYFTSDYYQL_TLKSFTVEK_TMADLVYAL_TSRTLSYYK_TVYSHLLLV_VEHVTFFIY_VLWAHGFEL_VRFPNITNL_VSIWNLDYII_VTPSGTWLTY_VVYRGTTTY_VYFLQSINF_VYYPDKVFR_WPVTLACFVL_WTAGAAAYY_YANRNRFLY_YDANYFLCW_YFIASFRLF_YIFFASFYY_YIIKLIFLW_YLDAYNMMI_YLQPRTFLL_YLYALVYFL'
p8
g3
(g5
S'\x0c^\x86\x92#\xa2\xef?'
tRp9
tp10
a(S'AELEGIQY_ALRANSAVK_ASKIITLKK_ATSRTLSYY_EEHVQIHTI_EELKKLLEQW_EILDITPCSF_FAYANRNRF_FCNDPFLGVY_FEYVSQPFL_FLLNKEMYL_FLLPSLATV_FLNRFTTTL_FLPRVFSAV_FLQSINFVR_FPNITNLCPF_FPRGQGVPI_FTNVYADSF_FTYASALWEI_FVDGVPFVV_GVYFASTEK_HVTFFIYNK_IELSLIDFYL_ILLIIMRTFK_IMRTFKVSI_IPIQASLPF_IPRRNVATL_ISDYDYYRY_ITLATCELY_ITLKKRWQL_KAYNVTQAF_KMQRMLLEK_KTFPPTEPK_KVSIWNLDY_LEYHDVRVV_LLYDANYFL_LNDLCFTNVY_LPFFSNVTW_LPFNDGVYF_LSPRWYFYY_LWPVTLACF_LYNSASFSTF_LYSPIFLIV_MEVTPSGTWL_MGYINVFAF_MIELSLIDFY_MPASWVMRI_NSASFSTFK_NVFAFPFTIY_NYNYLYRLF_QELIRQGTDY_QELYSPIFL_RARSVSPKL_RISNCVADY_RLFRKSNLK_RLYYDSMSY_RTFKVSIWNL_SINFVRIIMR_SPRWYFYYL_SSPDDQIGYY_SYFTSDYYQL_TLKSFTVEK_TMADLVYAL_TSRTLSYYK_TVYSHLLLV_VEHVTFFIY_VLWAHGFEL_VRFPNITNL_VSIWNLDYII_VTPSGTWLTY_VVYRGTTTY_VYFLQSINF_VYYPDKVFR_WPVTLACFVL_WTAGAAAYY_YANRNRFLY_YDANYFLCW_YFIASFRLF_YIFFASFYY_YIIKLIFLW_YLDAYNMMI_YLQPRTFLL_YLYALVYFL'
p11
g6
tp12
a(S'AELEGIQY_ALRANSAVK_ASKIITLKK_ATSRTLSYY_EEHVQIHTI_EELKKLLEQW_EILDITPCSF_FAYANRNRF_FCNDPFLGVY_FEYVSQPFL_FLLNKEMYL_FLLPSLATV_FLNRFTTTL_FLPRVFSAV_FLQSINFVR_FPNITNLCPF_FPRGQGVPI_FTNVYADSF_FTYASALWEI_FVDGVPFVV_GVYFASTEK_HVTFFIYNK_IELSLIDFYL_ILLIIMRTFK_IMRTFKVSI_IPIQASLPF_IPRRNVATL_ISDYDYYRY_ITLATCELY_ITLKKRWQL_KAYNVTQAF_KMQRMLLEK_KTFPPTEPK_KVSIWNLDY_LEYHDVRVV_LLYDANYFL_LNDLCFTNVY_LPFFSNVTW_LPFNDGVYF_LSPRWYFYY_LWLLWPVTL_LYNSASFSTF_LYSPIFLIV_MEVTPSGTWL_MGYINVFAF_MIELSLIDFY_MPASWVMRI_NSASFSTFK_NVFAFPFTIY_NYNYLYRLF_QELIRQGTDY_QELYSPIFL_RARSVSPKL_RISNCVADY_RLFRKSNLK_RLYYDSMSY_RTFKVSIWNL_SINFVRIIMR_SPRWYFYYL_SSPDDQIGYY_SYFTSDYYQL_TLKSFTVEK_TMADLVYAL_TSRTLSYYK_TVYSHLLLV_VEHVTFFIY_VLWAHGFEL_VRFPNITNL_VSIWNLDYII_VTPSGTWLTY_VVYRGTTTY_VYFLQSINF_VYYPDKVFR_WPVTLACFVL_WTAGAAAYY_YANRNRFLY_YDANYFLCW_YFIASFRLF_YIFFASFYY_YIIKLIFLW_YLDAYNMMI_YLQPRTFLL_YLYALVYFL'
p13
g9
tp14
a(S'AELEGIQY_ALRANSAVK_ASKIITLKK_ATEGALNTPK_ATSRTLSYY_EEHVQIHTI_EELKKLLEQW_EILDITPCSF_FAYANRNRF_FCNDPFLGVY_FEYVSQPFL_FLLNKEMYL_FLLPSLATV_FLNRFTTTL_FLPRVFSAV_FLQSINFVR_FPNITNLCPF_FPRGQGVPI_FTNVYADSF_FTYASALWEI_FVDGVPFVV_GVYFASTEK_HVTFFIYNK_IELSLIDFYL_IMRTFKVSI_IPIQASLPF_IPRRNVATL_ISDYDYYRY_ITLATCELY_ITLKKRWQL_KAYNVTQAF_KMQRMLLEK_KTFPPTEPK_KVSIWNLDY_LEYHDVRVV_LLYDANYFL_LNDLCFTNVY_LPFFSNVTW_LPFNDGVYF_LSPRWYFYY_LWPVTLACF_LYNSASFSTF_LYSPIFLIV_MEVTPSGTWL_MGYINVFAF_MIELSLIDFY_MPASWVMRI_NSASFSTFK_NVFAFPFTIY_NYNYLYRLF_QELIRQGTDY_QELYSPIFL_RARSVSPKL_RISNCVADY_RLFRKSNLK_RLYYDSMSY_RTFKVSIWNL_SINFVRIIMR_SPRWYFYYL_SSPDDQIGYY_SYFTSDYYQL_TLKSFTVEK_TMADLVYAL_TSRTLSYYK_TVYSHLLLV_VEHVTFFIY_VLWAHGFEL_VRFPNITNL_VSIWNLDYII_VTPSGTWLTY_VVYRGTTTY_VYFLQSINF_VYYPDKVFR_WPVTLACFVL_WTAGAAAYY_YANRNRFLY_YDANYFLCW_YFIASFRLF_YIFFASFYY_YIIKLIFLW_YLDAYNMMI_YLQPRTFLL_YLYALVYFL'
p15
g3
(g5
S'\x0c^\x86\x92#\xa2\xef?'
tRp16
tp17
a(S'AELEGIQY_ALRANSAVK_ASKIITLKK_ATEGALNTPK_ATSRTLSYY_EEHVQIHTI_EELKKLLEQW_EILDITPCSF_FAYANRNRF_FCNDPFLGVY_FEYVSQPFL_FLLNKEMYL_FLLPSLATV_FLNRFTTTL_FLPRVFSAV_FLQSINFVR_FPNITNLCPF_FPRGQGVPI_FTNVYADSF_FTYASALWEI_FVDGVPFVV_GVYFASTEK_HVTFFIYNK_IELSLIDFYL_IMRTFKVSI_IPIQASLPF_IPRRNVATL_ISDYDYYRY_ITLATCELY_ITLKKRWQL_KAYNVTQAF_KMQRMLLEK_KTFPPTEPK_KVSIWNLDY_LEYHDVRVV_LLYDANYFL_LNDLCFTNVY_LPFFSNVTW_LPFNDGVYF_LSPRWYFYY_LWLLWPVTL_LYNSASFSTF_LYSPIFLIV_MEVTPSGTWL_MGYINVFAF_MIELSLIDFY_MPASWVMRI_NSASFSTFK_NVFAFPFTIY_NYNYLYRLF_QELIRQGTDY_QELYSPIFL_RARSVSPKL_RISNCVADY_RLFRKSNLK_RLYYDSMSY_RTFKVSIWNL_SINFVRIIMR_SPRWYFYYL_SSPDDQIGYY_SYFTSDYYQL_TLKSFTVEK_TMADLVYAL_TSRTLSYYK_TVYSHLLLV_VEHVTFFIY_VLWAHGFEL_VRFPNITNL_VSIWNLDYII_VTPSGTWLTY_VVYRGTTTY_VYFLQSINF_VYYPDKVFR_WPVTLACFVL_WTAGAAAYY_YANRNRFLY_YDANYFLCW_YFIASFRLF_YIFFASFYY_YIIKLIFLW_YLDAYNMMI_YLQPRTFLL_YLYALVYFL'
p18
g3
(g5
S'\x0c^\x86\x92#\xa2\xef?'
tRp19
tp20
a(S'AELEGIQY_ALRANSAVK_ASKIITLKK_ATEGALNTPK_ATSRTLSYY_CNDPFLGVY_EEHVQIHTI_EELKKLLEQW_EILDITPCSF_FAYANRNRF_FEYVSQPFL_FLLNKEMYL_FLLPSLATV_FLNRFTTTL_FLPRVFSAV_FLQSINFVR_FPNITNLCPF_FPRGQGVPI_FTNVYADSF_FTYASALWEI_FVDGVPFVV_GVYFASTEK_HVTFFIYNK_IELSLIDFYL_IMRTFKVSI_IPIQASLPF_IPRRNVATL_ISDYDYYRY_ITLATCELY_ITLKKRWQL_KAYNVTQAF_KMQRMLLEK_KTFPPTEPK_KVSIWNLDY_LEYHDVRVV_LLYDANYFL_LNDLCFTNVY_LPFFSNVTW_LPFNDGVYF_LSPRWYFYY_LWPVTLACF_LYNSASFSTF_LYSPIFLIV_MEVTPSGTWL_MGYINVFAF_MIELSLIDFY_MPASWVMRI_NSASFSTFK_NVFAFPFTIY_NYNYLYRLF_QELIRQGTDY_QELYSPIFL_RARSVSPKL_RISNCVADY_RLFRKSNLK_RLYYDSMSY_RTFKVSIWNL_SINFVRIIMR_SPRWYFYYL_SSPDDQIGYY_SYFTSDYYQL_TLKSFTVEK_TMADLVYAL_TSRTLSYYK_TVYSHLLLV_VEHVTFFIY_VLWAHGFEL_VRFPNITNL_VSIWNLDYII_VTPSGTWLTY_VVYRGTTTY_VYFLQSINF_VYYPDKVFR_WPVTLACFVL_WTAGAAAYY_YANRNRFLY_YDANYFLCW_YFIASFRLF_YIFFASFYY_YIIKLIFLW_YLDAYNMMI_YLQPRTFLL_YLYALVYFL'
p21
g3
(g5
S'\x0c^\x86\x92#\xa2\xef?'
tRp22
tp23
a(S'AELEGIQY_ALRANSAVK_ASKIITLKK_ATEGALNTPK_ATSRTLSYY_CNDPFLGVY_EEHVQIHTI_EELKKLLEQW_EILDITPCSF_FAYANRNRF_FEYVSQPFL_FLLNKEMYL_FLLPSLATV_FLNRFTTTL_FLPRVFSAV_FLQSINFVR_FPNITNLCPF_FPRGQGVPI_FTNVYADSF_FTYASALWEI_FVDGVPFVV_GVYFASTEK_HVTFFIYNK_IELSLIDFYL_IMRTFKVSI_IPIQASLPF_IPRRNVATL_ISDYDYYRY_ITLATCELY_ITLKKRWQL_KAYNVTQAF_KMQRMLLEK_KTFPPTEPK_KVSIWNLDY_LEYHDVRVV_LLYDANYFL_LNDLCFTNVY_LPFFSNVTW_LPFNDGVYF_LSPRWYFYY_LWLLWPVTL_LYNSASFSTF_LYSPIFLIV_MEVTPSGTWL_MGYINVFAF_MIELSLIDFY_MPASWVMRI_NSASFSTFK_NVFAFPFTIY_NYNYLYRLF_QELIRQGTDY_QELYSPIFL_RARSVSPKL_RISNCVADY_RLFRKSNLK_RLYYDSMSY_RTFKVSIWNL_SINFVRIIMR_SPRWYFYYL_SSPDDQIGYY_SYFTSDYYQL_TLKSFTVEK_TMADLVYAL_TSRTLSYYK_TVYSHLLLV_VEHVTFFIY_VLWAHGFEL_VRFPNITNL_VSIWNLDYII_VTPSGTWLTY_VVYRGTTTY_VYFLQSINF_VYYPDKVFR_WPVTLACFVL_WTAGAAAYY_YANRNRFLY_YDANYFLCW_YFIASFRLF_YIFFASFYY_YIIKLIFLW_YLDAYNMMI_YLQPRTFLL_YLYALVYFL'
p24
g3
(g5
S'\x0c^\x86\x92#\xa2\xef?'
tRp25
tp26
a(S'AELEGIQY_ALRANSAVK_ASKIITLKK_ATEGALNTPK_ATSRTLSYY_CNDPFLGVYY_EEHVQIHTI_EELKKLLEQW_EILDITPCSF_FAYANRNRF_FEYVSQPFL_FLLNKEMYL_FLLPSLATV_FLNRFTTTL_FLPRVFSAV_FLQSINFVR_FPNITNLCPF_FPRGQGVPI_FTNVYADSF_FTYASALWEI_FVDGVPFVV_GVYFASTEK_HVTFFIYNK_IELSLIDFYL_IMRTFKVSI_IPIQASLPF_IPRRNVATL_ISDYDYYRY_ITLATCELY_ITLKKRWQL_KAYNVTQAF_KMQRMLLEK_KTFPPTEPK_KVSIWNLDY_LEYHDVRVV_LLYDANYFL_LNDLCFTNVY_LPFFSNVTW_LPFNDGVYF_LSPRWYFYY_LWPVTLACF_LYNSASFSTF_LYSPIFLIV_MEVTPSGTWL_MGYINVFAF_MIELSLIDFY_MPASWVMRI_NSASFSTFK_NVFAFPFTIY_NYNYLYRLF_QELIRQGTDY_QELYSPIFL_RARSVSPKL_RISNCVADY_RLFRKSNLK_RLYYDSMSY_RTFKVSIWNL_SINFVRIIMR_SPRWYFYYL_SSPDDQIGYY_SYFTSDYYQL_TLKSFTVEK_TMADLVYAL_TSRTLSYYK_TVYSHLLLV_VEHVTFFIY_VLWAHGFEL_VRFPNITNL_VSIWNLDYII_VTPSGTWLTY_VVYRGTTTY_VYFLQSINF_VYYPDKVFR_WPVTLACFVL_WTAGAAAYY_YANRNRFLY_YDANYFLCW_YFIASFRLF_YIFFASFYY_YIIKLIFLW_YLDAYNMMI_YLQPRTFLL_YLYALVYFL'
p27
g3
(g5
S'\x0c^\x86\x92#\xa2\xef?'
tRp28
tp29
a(S'AELEGIQY_ALRANSAVK_ASKIITLKK_ATEGALNTPK_ATSRTLSYY_CNDPFLGVYY_EEHVQIHTI_EELKKLLEQW_EILDITPCSF_FAYANRNRF_FEYVSQPFL_FLLNKEMYL_FLLPSLATV_FLNRFTTTL_FLPRVFSAV_FLQSINFVR_FPNITNLCPF_FPRGQGVPI_FTNVYADSF_FTYASALWEI_FVDGVPFVV_GVYFASTEK_HVTFFIYNK_IELSLIDFYL_IMRTFKVSI_IPIQASLPF_IPRRNVATL_ISDYDYYRY_ITLATCELY_ITLKKRWQL_KAYNVTQAF_KMQRMLLEK_KTFPPTEPK_KVSIWNLDY_LEYHDVRVV_LLYDANYFL_LNDLCFTNVY_LPFFSNVTW_LPFNDGVYF_LSPRWYFYY_LWLLWPVTL_LYNSASFSTF_LYSPIFLIV_MEVTPSGTWL_MGYINVFAF_MIELSLIDFY_MPASWVMRI_NSASFSTFK_NVFAFPFTIY_NYNYLYRLF_QELIRQGTDY_QELYSPIFL_RARSVSPKL_RISNCVADY_RLFRKSNLK_RLYYDSMSY_RTFKVSIWNL_SINFVRIIMR_SPRWYFYYL_SSPDDQIGYY_SYFTSDYYQL_TLKSFTVEK_TMADLVYAL_TSRTLSYYK_TVYSHLLLV_VEHVTFFIY_VLWAHGFEL_VRFPNITNL_VSIWNLDYII_VTPSGTWLTY_VVYRGTTTY_VYFLQSINF_VYYPDKVFR_WPVTLACFVL_WTAGAAAYY_YANRNRFLY_YDANYFLCW_YFIASFRLF_YIFFASFYY_YIIKLIFLW_YLDAYNMMI_YLQPRTFLL_YLYALVYFL'
p30
g3
(g5
S'\x0c^\x86\x92#\xa2\xef?'
tRp31
tp32
a.