(lp1
(S'AELEGIQY_ATSRTLSYY_FAYANRNRF_FLNRFTTTL_FLQSINFVR_FVDGVPFVV_KTFPPTEPK_NVFAFPFTIY_RARSVSPKL_SINFVRIIMR_VLWAHGFEL_VRFPNITNL_WTAGAAAYY_YIFFASFYY_YLDAYNMMI_YLQPRTFLL'
p2
cnumpy.core.multiarray
scalar
p3
(cnumpy
dtype
p4
(S'f8'
I0
I1
tRp5
(I3
S'<'
NNNI-1
I-1
I0
tbS'\x03\xef^\x1d\x00\xd1\xef?'
tRp6
tp7
a(S'ATSRTLSYY_FAYANRNRF_FLNRFTTTL_FLQSINFVR_FVDGVPFVV_KTFPPTEPK_NVFAFPFTIY_RARSVSPKL_SINFVRIIMR_VEHVTFFIY_VLWAHGFEL_VRFPNITNL_WTAGAAAYY_YIFFASFYY_YLDAYNMMI_YLQPRTFLL'
p8
g3
(g5
S'\xe3\xbaFQ\xff\xd0\xef?'
tRp9
tp10
a(S'AELEGIQY_ATSRTLSYY_EILDITPCSF_FAYANRNRF_FLNRFTTTL_FLQSINFVR_FVDGVPFVV_KTFPPTEPK_RARSVSPKL_SINFVRIIMR_VLWAHGFEL_VRFPNITNL_WTAGAAAYY_YIFFASFYY_YLDAYNMMI_YLQPRTFLL'
p11
g3
(g5
S'\xe3U\xb0\x10\xe7\xd0\xef?'
tRp12
tp13
a(S'ATSRTLSYY_EILDITPCSF_FAYANRNRF_FLNRFTTTL_FLQSINFVR_FVDGVPFVV_KTFPPTEPK_RARSVSPKL_SINFVRIIMR_VEHVTFFIY_VLWAHGFEL_VRFPNITNL_WTAGAAAYY_YIFFASFYY_YLDAYNMMI_YLQPRTFLL'
p14
g3
(g5
S'\xc0!\x98D\xe6\xd0\xef?'
tRp15
tp16
a(S'ATSRTLSYY_FAYANRNRF_FLNRFTTTL_FLQSINFVR_FVDGVPFVV_KTFPPTEPK_NVFAFPFTIY_RARSVSPKL_RLYYDSMSY_SINFVRIIMR_VEHVTFFIY_VLWAHGFEL_VRFPNITNL_WTAGAAAYY_YLDAYNMMI_YLQPRTFLL'
p17
g3
(g5
S'}\t\xb7\xd9\xd8\xd0\xef?'
tRp18
tp19
a(S'AELEGIQY_ATSRTLSYY_FAYANRNRF_FLNRFTTTL_FLQSINFVR_FVDGVPFVV_KTFPPTEPK_NVFAFPFTIY_RARSVSPKL_RLYYDSMSY_SINFVRIIMR_VLWAHGFEL_VRFPNITNL_WTAGAAAYY_YLDAYNMMI_YLQPRTFLL'
p20
g3
(g5
S'\xe3\xae\x07s\xd6\xd0\xef?'
tRp21
tp22
a(S'ATSRTLSYY_FAYANRNRF_FLNRFTTTL_FLQSINFVR_FVDGVPFVV_NVFAFPFTIY_RARSVSPKL_SINFVRIIMR_TSRTLSYYK_VEHVTFFIY_VLWAHGFEL_VRFPNITNL_WTAGAAAYY_YIFFASFYY_YLDAYNMMI_YLQPRTFLL'
p23
g3
(g5
S'=\xc1i\x01\xc6\xd0\xef?'
tRp24
tp25
a(S'ATSRTLSYY_EILDITPCSF_FAYANRNRF_FLNRFTTTL_FLQSINFVR_FVDGVPFVV_KTFPPTEPK_RARSVSPKL_RLYYDSMSY_SINFVRIIMR_VEHVTFFIY_VLWAHGFEL_VRFPNITNL_WTAGAAAYY_YLDAYNMMI_YLQPRTFLL'
p26
g3
(g5
S'\xbd\xc3[\xd2\xbf\xd0\xef?'
tRp27
tp28
a(S'AELEGIQY_ATSRTLSYY_EILDITPCSF_FAYANRNRF_FLNRFTTTL_FLQSINFVR_FVDGVPFVV_KTFPPTEPK_RARSVSPKL_RLYYDSMSY_SINFVRIIMR_VLWAHGFEL_VRFPNITNL_WTAGAAAYY_YLDAYNMMI_YLQPRTFLL'
p29
g3
(g5
S'$i\xack\xbd\xd0\xef?'
tRp30
tp31
a(S'ATSRTLSYY_EILDITPCSF_FAYANRNRF_FLNRFTTTL_FLQSINFVR_FVDGVPFVV_RARSVSPKL_SINFVRIIMR_TSRTLSYYK_VEHVTFFIY_VLWAHGFEL_VRFPNITNL_WTAGAAAYY_YIFFASFYY_YLDAYNMMI_YLQPRTFLL'
p32
g3
(g5
S'\x1d(\xbb\xf4\xac\xd0\xef?'
tRp33
tp34
a.