(lp1
(S'AELEGIQY_ALRANSAVK_ASKIITLKK_ATSRTLSYY_EEHVQIHTI_EILDITPCSF_FAYANRNRF_FEYVSQPFL_FLLNKEMYL_FLLPSLATV_FLNRFTTTL_FLPRVFSAV_FLQSINFVR_FPNITNLCPF_FPRGQGVPI_FTNVYADSF_FTYASALWEI_FVDGVPFVV_HVTFFIYNK_IELSLIDFYL_IPRRNVATL_ISDYDYYRY_ITLATCELY_ITLKKRWQL_KAYNVTQAF_KMQRMLLEK_KTFPPTEPK_KVSIWNLDY_LLYDANYFL_LPFNDGVYF_LSPRWYFYY_LWPVTLACF_LYNSASFSTF_LYSPIFLIV_MGYINVFAF_MIELSLIDFY_MPASWVMRI_NSASFSTFK_NVFAFPFTIY_NYNYLYRLF_QELYSPIFL_RARSVSPKL_RISNCVADY_RLFRKSNLK_RLYYDSMSY_RTFKVSIWNL_SINFVRIIMR_SPRWYFYYL_SSPDDQIGYY_TMADLVYAL_TSRTLSYYK_TVYSHLLLV_VEHVTFFIY_VLWAHGFEL_VRFPNITNL_VTPSGTWLTY_VVYRGTTTY_VYFLQSINF_WPVTLACFVL_WTAGAAAYY_YANRNRFLY_YFIASFRLF_YIFFASFYY_YIIKLIFLW_YLDAYNMMI_YLQPRTFLL_YLYALVYFL'
p2
cnumpy.core.multiarray
scalar
p3
(cnumpy
dtype
p4
(S'f8'
I0
I1
tRp5
(I3
S'<'
NNNI-1
I-1
I0
tbS'\xc5\xb6\xc7P\x00\xae\xef?'
tRp6
tp7
a(S'AELEGIQY_ALRANSAVK_ASKIITLKK_ATSRTLSYY_EEHVQIHTI_EILDITPCSF_FAYANRNRF_FEYVSQPFL_FLLNKEMYL_FLLPSLATV_FLNRFTTTL_FLPRVFSAV_FLQSINFVR_FPNITNLCPF_FPRGQGVPI_FTNVYADSF_FTYASALWEI_FVDGVPFVV_HVTFFIYNK_IELSLIDFYL_IPRRNVATL_ISDYDYYRY_ITLATCELY_ITLKKRWQL_KAYNVTQAF_KMQRMLLEK_KTFPPTEPK_KVSIWNLDY_LLYDANYFL_LPFNDGVYF_LSPRWYFYY_LWLLWPVTL_LYNSASFSTF_LYSPIFLIV_MGYINVFAF_MIELSLIDFY_MPASWVMRI_NSASFSTFK_NVFAFPFTIY_NYNYLYRLF_QELYSPIFL_RARSVSPKL_RISNCVADY_RLFRKSNLK_RLYYDSMSY_RTFKVSIWNL_SINFVRIIMR_SPRWYFYYL_SSPDDQIGYY_TMADLVYAL_TSRTLSYYK_TVYSHLLLV_VEHVTFFIY_VLWAHGFEL_VRFPNITNL_VTPSGTWLTY_VVYRGTTTY_VYFLQSINF_WPVTLACFVL_WTAGAAAYY_YANRNRFLY_YFIASFRLF_YIFFASFYY_YIIKLIFLW_YLDAYNMMI_YLQPRTFLL_YLYALVYFL'
p8
g6
tp9
a(S'AELEGIQY_ALRANSAVK_ASKIITLKK_ATSRTLSYY_EEHVQIHTI_EILDITPCSF_FAYANRNRF_FEYVSQPFL_FLLNKEMYL_FLLPSLATV_FLNRFTTTL_FLPRVFSAV_FLQSINFVR_FPNITNLCPF_FPRGQGVPI_FTNVYADSF_FTYASALWEI_FVDGVPFVV_HVTFFIYNK_IELSLIDFYL_IPRRNVATL_ISDYDYYRY_ITLATCELY_ITLKKRWQL_KAYNVTQAF_KMQRMLLEK_KTFPPTEPK_KVSIWNLDY_LLYDANYFL_LNDLCFTNVY_LPFNDGVYF_LSPRWYFYY_LWPVTLACF_LYNSASFSTF_LYSPIFLIV_MGYINVFAF_MPASWVMRI_NSASFSTFK_NVFAFPFTIY_NYNYLYRLF_QELYSPIFL_RARSVSPKL_RISNCVADY_RLFRKSNLK_RLYYDSMSY_RTFKVSIWNL_SINFVRIIMR_SPRWYFYYL_SSPDDQIGYY_TMADLVYAL_TSRTLSYYK_TVYSHLLLV_VEHVTFFIY_VLWAHGFEL_VRFPNITNL_VTPSGTWLTY_VVYRGTTTY_VYFLQSINF_WPVTLACFVL_WTAGAAAYY_YANRNRFLY_YFIASFRLF_YIFFASFYY_YIIKLIFLW_YLDAYNMMI_YLQPRTFLL_YLYALVYFL'
p10
g3
(g5
S'\xc5\xb6\xc7P\x00\xae\xef?'
tRp11
tp12
a(S'AELEGIQY_ALRANSAVK_ASKIITLKK_ATSRTLSYY_EEHVQIHTI_EILDITPCSF_FAYANRNRF_FEYVSQPFL_FLLNKEMYL_FLLPSLATV_FLNRFTTTL_FLPRVFSAV_FLQSINFVR_FPNITNLCPF_FPRGQGVPI_FTNVYADSF_FTYASALWEI_FVDGVPFVV_HVTFFIYNK_IELSLIDFYL_IPRRNVATL_ISDYDYYRY_ITLATCELY_ITLKKRWQL_KAYNVTQAF_KMQRMLLEK_KTFPPTEPK_KVSIWNLDY_LLYDANYFL_LNDLCFTNVY_LPFNDGVYF_LSPRWYFYY_LWPVTLACF_LYNSASFSTF_LYSPIFLIV_MGYINVFAF_MIELSLIDFY_MPASWVMRI_NSASFSTFK_NVFAFPFTIY_NYNYLYRLF_QELYSPIFL_RARSVSPKL_RISNCVADY_RLFRKSNLK_RLYYDSMSY_RTFKVSIWNL_SINFVRIIMR_SPRWYFYYL_TMADLVYAL_TSRTLSYYK_TVYSHLLLV_VEHVTFFIY_VLWAHGFEL_VRFPNITNL_VTPSGTWLTY_VVYRGTTTY_VYFLQSINF_WPVTLACFVL_WTAGAAAYY_YANRNRFLY_YFIASFRLF_YIFFASFYY_YIIKLIFLW_YLDAYNMMI_YLQPRTFLL_YLYALVYFL'
p13
g3
(g5
S'\xc5\xb6\xc7P\x00\xae\xef?'
tRp14
tp15
a(S'AELEGIQY_ALRANSAVK_ASKIITLKK_ATSRTLSYY_EEHVQIHTI_EILDITPCSF_FAYANRNRF_FEYVSQPFL_FLLNKEMYL_FLLPSLATV_FLNRFTTTL_FLPRVFSAV_FLQSINFVR_FPNITNLCPF_FPRGQGVPI_FTNVYADSF_FTYASALWEI_FVDGVPFVV_HVTFFIYNK_IELSLIDFYL_IPRRNVATL_ISDYDYYRY_ITLATCELY_ITLKKRWQL_KAYNVTQAF_KMQRMLLEK_KTFPPTEPK_KVSIWNLDY_LLYDANYFL_LNDLCFTNVY_LPFNDGVYF_LSPRWYFYY_LWLLWPVTL_LYNSASFSTF_LYSPIFLIV_MGYINVFAF_MPASWVMRI_NSASFSTFK_NVFAFPFTIY_NYNYLYRLF_QELYSPIFL_RARSVSPKL_RISNCVADY_RLFRKSNLK_RLYYDSMSY_RTFKVSIWNL_SINFVRIIMR_SPRWYFYYL_SSPDDQIGYY_TMADLVYAL_TSRTLSYYK_TVYSHLLLV_VEHVTFFIY_VLWAHGFEL_VRFPNITNL_VTPSGTWLTY_VVYRGTTTY_VYFLQSINF_WPVTLACFVL_WTAGAAAYY_YANRNRFLY_YFIASFRLF_YIFFASFYY_YIIKLIFLW_YLDAYNMMI_YLQPRTFLL_YLYALVYFL'
p16
g11
tp17
a(S'AELEGIQY_ALRANSAVK_ASKIITLKK_ATSRTLSYY_EEHVQIHTI_EILDITPCSF_FAYANRNRF_FEYVSQPFL_FLLNKEMYL_FLLPSLATV_FLNRFTTTL_FLPRVFSAV_FLQSINFVR_FPNITNLCPF_FPRGQGVPI_FTNVYADSF_FTYASALWEI_FVDGVPFVV_HVTFFIYNK_IELSLIDFYL_IPRRNVATL_ISDYDYYRY_ITLATCELY_ITLKKRWQL_KAYNVTQAF_KMQRMLLEK_KTFPPTEPK_KVSIWNLDY_LLYDANYFL_LNDLCFTNVY_LPFNDGVYF_LSPRWYFYY_LWLLWPVTL_LYNSASFSTF_LYSPIFLIV_MGYINVFAF_MIELSLIDFY_MPASWVMRI_NSASFSTFK_NVFAFPFTIY_NYNYLYRLF_QELYSPIFL_RARSVSPKL_RISNCVADY_RLFRKSNLK_RLYYDSMSY_RTFKVSIWNL_SINFVRIIMR_SPRWYFYYL_TMADLVYAL_TSRTLSYYK_TVYSHLLLV_VEHVTFFIY_VLWAHGFEL_VRFPNITNL_VTPSGTWLTY_VVYRGTTTY_VYFLQSINF_WPVTLACFVL_WTAGAAAYY_YANRNRFLY_YFIASFRLF_YIFFASFYY_YIIKLIFLW_YLDAYNMMI_YLQPRTFLL_YLYALVYFL'
p18
g14
tp19
a(S'AELEGIQY_ALRANSAVK_ASKIITLKK_ATSRTLSYY_CNDPFLGVY_EEHVQIHTI_EILDITPCSF_FAYANRNRF_FEYVSQPFL_FLLNKEMYL_FLLPSLATV_FLNRFTTTL_FLPRVFSAV_FLQSINFVR_FPNITNLCPF_FPRGQGVPI_FTNVYADSF_FTYASALWEI_FVDGVPFVV_HVTFFIYNK_IELSLIDFYL_IPRRNVATL_ISDYDYYRY_ITLATCELY_ITLKKRWQL_KAYNVTQAF_KMQRMLLEK_KTFPPTEPK_KVSIWNLDY_LLYDANYFL_LPFNDGVYF_LSPRWYFYY_LWPVTLACF_LYNSASFSTF_LYSPIFLIV_MGYINVFAF_MPASWVMRI_NSASFSTFK_NVFAFPFTIY_NYNYLYRLF_QELYSPIFL_RARSVSPKL_RISNCVADY_RLFRKSNLK_RLYYDSMSY_RTFKVSIWNL_SINFVRIIMR_SPRWYFYYL_SSPDDQIGYY_TMADLVYAL_TSRTLSYYK_TVYSHLLLV_VEHVTFFIY_VLWAHGFEL_VRFPNITNL_VTPSGTWLTY_VVYRGTTTY_VYFLQSINF_WPVTLACFVL_WTAGAAAYY_YANRNRFLY_YFIASFRLF_YIFFASFYY_YIIKLIFLW_YLDAYNMMI_YLQPRTFLL_YLYALVYFL'
p20
g3
(g5
S'\xc5\xb6\xc7P\x00\xae\xef?'
tRp21
tp22
a(S'AELEGIQY_ALRANSAVK_ASKIITLKK_ATSRTLSYY_CNDPFLGVY_EEHVQIHTI_EILDITPCSF_FAYANRNRF_FEYVSQPFL_FLLNKEMYL_FLLPSLATV_FLNRFTTTL_FLPRVFSAV_FLQSINFVR_FPNITNLCPF_FPRGQGVPI_FTNVYADSF_FTYASALWEI_FVDGVPFVV_HVTFFIYNK_IELSLIDFYL_IPRRNVATL_ISDYDYYRY_ITLATCELY_ITLKKRWQL_KAYNVTQAF_KMQRMLLEK_KTFPPTEPK_KVSIWNLDY_LLYDANYFL_LPFNDGVYF_LSPRWYFYY_LWPVTLACF_LYNSASFSTF_LYSPIFLIV_MGYINVFAF_MIELSLIDFY_MPASWVMRI_NSASFSTFK_NVFAFPFTIY_NYNYLYRLF_QELYSPIFL_RARSVSPKL_RISNCVADY_RLFRKSNLK_RLYYDSMSY_RTFKVSIWNL_SINFVRIIMR_SPRWYFYYL_TMADLVYAL_TSRTLSYYK_TVYSHLLLV_VEHVTFFIY_VLWAHGFEL_VRFPNITNL_VTPSGTWLTY_VVYRGTTTY_VYFLQSINF_WPVTLACFVL_WTAGAAAYY_YANRNRFLY_YFIASFRLF_YIFFASFYY_YIIKLIFLW_YLDAYNMMI_YLQPRTFLL_YLYALVYFL'
p23
g3
(g5
S'\xc5\xb6\xc7P\x00\xae\xef?'
tRp24
tp25
a(S'AELEGIQY_ALRANSAVK_ASKIITLKK_ATSRTLSYY_CNDPFLGVY_EEHVQIHTI_EILDITPCSF_FAYANRNRF_FEYVSQPFL_FLLNKEMYL_FLLPSLATV_FLNRFTTTL_FLPRVFSAV_FLQSINFVR_FPNITNLCPF_FPRGQGVPI_FTNVYADSF_FTYASALWEI_FVDGVPFVV_HVTFFIYNK_IELSLIDFYL_IPRRNVATL_ISDYDYYRY_ITLATCELY_ITLKKRWQL_KAYNVTQAF_KMQRMLLEK_KTFPPTEPK_KVSIWNLDY_LLYDANYFL_LPFNDGVYF_LSPRWYFYY_LWLLWPVTL_LYNSASFSTF_LYSPIFLIV_MGYINVFAF_MPASWVMRI_NSASFSTFK_NVFAFPFTIY_NYNYLYRLF_QELYSPIFL_RARSVSPKL_RISNCVADY_RLFRKSNLK_RLYYDSMSY_RTFKVSIWNL_SINFVRIIMR_SPRWYFYYL_SSPDDQIGYY_TMADLVYAL_TSRTLSYYK_TVYSHLLLV_VEHVTFFIY_VLWAHGFEL_VRFPNITNL_VTPSGTWLTY_VVYRGTTTY_VYFLQSINF_WPVTLACFVL_WTAGAAAYY_YANRNRFLY_YFIASFRLF_YIFFASFYY_YIIKLIFLW_YLDAYNMMI_YLQPRTFLL_YLYALVYFL'
p26
g21
tp27
a(S'AELEGIQY_ALRANSAVK_ASKIITLKK_ATSRTLSYY_CNDPFLGVY_EEHVQIHTI_EILDITPCSF_FAYANRNRF_FEYVSQPFL_FLLNKEMYL_FLLPSLATV_FLNRFTTTL_FLPRVFSAV_FLQSINFVR_FPNITNLCPF_FPRGQGVPI_FTNVYADSF_FTYASALWEI_FVDGVPFVV_HVTFFIYNK_IELSLIDFYL_IPRRNVATL_ISDYDYYRY_ITLATCELY_ITLKKRWQL_KAYNVTQAF_KMQRMLLEK_KTFPPTEPK_KVSIWNLDY_LLYDANYFL_LPFNDGVYF_LSPRWYFYY_LWLLWPVTL_LYNSASFSTF_LYSPIFLIV_MGYINVFAF_MIELSLIDFY_MPASWVMRI_NSASFSTFK_NVFAFPFTIY_NYNYLYRLF_QELYSPIFL_RARSVSPKL_RISNCVADY_RLFRKSNLK_RLYYDSMSY_RTFKVSIWNL_SINFVRIIMR_SPRWYFYYL_TMADLVYAL_TSRTLSYYK_TVYSHLLLV_VEHVTFFIY_VLWAHGFEL_VRFPNITNL_VTPSGTWLTY_VVYRGTTTY_VYFLQSINF_WPVTLACFVL_WTAGAAAYY_YANRNRFLY_YFIASFRLF_YIFFASFYY_YIIKLIFLW_YLDAYNMMI_YLQPRTFLL_YLYALVYFL'
p28
g24
tp29
a.