(lp1
(S'ATSRTLSYY_FAYANRNRF_FLNRFTTTL_FLQSINFVR_FVDGVPFVV_KTFPPTEPK_RARSVSPKL_VRFPNITNL_YLDAYNMMI_YLQPRTFLL'
p2
cnumpy.core.multiarray
scalar
p3
(cnumpy
dtype
p4
(S'f8'
I0
I1
tRp5
(I3
S'<'
NNNI-1
I-1
I0
tbS'c\xcd\xf0\xcf\x9b\xdb\xef?'
tRp6
tp7
a(S'ATSRTLSYY_FAYANRNRF_FLNRFTTTL_FVDGVPFVV_KTFPPTEPK_RARSVSPKL_SINFVRIIMR_VRFPNITNL_YLDAYNMMI_YLQPRTFLL'
p8
g3
(g5
S'\xb4\xf9\xbb\xae\x99\xdb\xef?'
tRp9
tp10
a(S'ATSRTLSYY_FAYANRNRF_FLNRFTTTL_FLQSINFVR_FVDGVPFVV_KTFPPTEPK_SPRWYFYYL_VRFPNITNL_YLDAYNMMI_YLQPRTFLL'
p11
g3
(g5
S'L5f<\x91\xdb\xef?'
tRp12
tp13
a(S'ATSRTLSYY_FAYANRNRF_FLNRFTTTL_FVDGVPFVV_KTFPPTEPK_SINFVRIIMR_SPRWYFYYL_VRFPNITNL_YLDAYNMMI_YLQPRTFLL'
p14
g3
(g5
S'\x9fa1\x1b\x8f\xdb\xef?'
tRp15
tp16
a(S'ATSRTLSYY_FAYANRNRF_FLNRFTTTL_FLQSINFVR_FVDGVPFVV_RARSVSPKL_TSRTLSYYK_VRFPNITNL_YLDAYNMMI_YLQPRTFLL'
p17
g3
(g5
S'\x90\t\x9a\x86<\xdb\xef?'
tRp18
tp19
a(S'ATSRTLSYY_FAYANRNRF_FLNRFTTTL_FLQSINFVR_FVDGVPFVV_KTFPPTEPK_TSRTLSYYK_VRFPNITNL_YLDAYNMMI_YLQPRTFLL'
p20
g3
(g5
S'\xddy\xce\xf8;\xdb\xef?'
tRp21
tp22
a(S'ATSRTLSYY_FAYANRNRF_FLNRFTTTL_FVDGVPFVV_RARSVSPKL_SINFVRIIMR_TSRTLSYYK_VRFPNITNL_YLDAYNMMI_YLQPRTFLL'
p23
g3
(g5
S'\xe05ee:\xdb\xef?'
tRp24
tp25
a(S'ATSRTLSYY_FAYANRNRF_FLNRFTTTL_FVDGVPFVV_KTFPPTEPK_SINFVRIIMR_TSRTLSYYK_VRFPNITNL_YLDAYNMMI_YLQPRTFLL'
p26
g3
(g5
S'\x0b\xe5\x80\xe69\xdb\xef?'
tRp27
tp28
a(S'ALRANSAVK_ATSRTLSYY_FAYANRNRF_FLNRFTTTL_FLQSINFVR_FVDGVPFVV_KTFPPTEPK_VRFPNITNL_YLDAYNMMI_YLQPRTFLL'
p29
g3
(g5
S'+\xc3\xf5B8\xdb\xef?'
tRp30
tp31
a(S'ALRANSAVK_ATSRTLSYY_FAYANRNRF_FLNRFTTTL_FVDGVPFVV_KTFPPTEPK_SINFVRIIMR_VRFPNITNL_YLDAYNMMI_YLQPRTFLL'
p32
g3
(g5
S'|\xef\xc0!6\xdb\xef?'
tRp33
tp34
a.