(lp1
(S'AELEGIQY_ALRANSAVK_ASKIITLKK_ATSRTLSYY_EEHVQIHTI_EILDITPCSF_FAYANRNRF_FCNDPFLGVY_FEYVSQPFL_FLLNKEMYL_FLLPSLATV_FLNRFTTTL_FLPRVFSAV_FLQSINFVR_FPNITNLCPF_FPRGQGVPI_FTNVYADSF_FTYASALWEI_FVDGVPFVV_GVYFASTEK_HVTFFIYNK_IELSLIDFYL_IMRTFKVSI_IPIQASLPF_IPRRNVATL_ISDYDYYRY_ITLATCELY_ITLKKRWQL_KAYNVTQAF_KMQRMLLEK_KTFPPTEPK_KVSIWNLDY_LEYHDVRVV_LLYDANYFL_LNDLCFTNVY_LPFFSNVTW_LPFNDGVYF_LSPRWYFYY_LWPVTLACF_LYNSASFSTF_LYSPIFLIV_MEVTPSGTWL_MGYINVFAF_MPASWVMRI_NSASFSTFK_NVFAFPFTIY_NYNYLYRLF_QELYSPIFL_RARSVSPKL_RISNCVADY_RLFRKSNLK_RLYYDSMSY_RTFKVSIWNL_SINFVRIIMR_SPRWYFYYL_SSPDDQIGYY_SYFTSDYYQL_TLKSFTVEK_TMADLVYAL_TSRTLSYYK_TVYSHLLLV_VEHVTFFIY_VLWAHGFEL_VRFPNITNL_VSIWNLDYII_VTPSGTWLTY_VVYRGTTTY_VYFLQSINF_WPVTLACFVL_WTAGAAAYY_YANRNRFLY_YFIASFRLF_YIFFASFYY_YIIKLIFLW_YLDAYNMMI_YLQPRTFLL_YLYALVYFL'
p2
cnumpy.core.multiarray
scalar
p3
(cnumpy
dtype
p4
(S'f8'
I0
I1
tRp5
(I3
S'<'
NNNI-1
I-1
I0
tbS'%\xb2\xcf\xa6O\xab\xef?'
tRp6
tp7
a(S'AELEGIQY_ALRANSAVK_ASKIITLKK_ATSRTLSYY_EEHVQIHTI_EILDITPCSF_FAYANRNRF_FCNDPFLGVY_FEYVSQPFL_FLLNKEMYL_FLLPSLATV_FLNRFTTTL_FLPRVFSAV_FLQSINFVR_FPNITNLCPF_FPRGQGVPI_FTNVYADSF_FTYASALWEI_FVDGVPFVV_GVYFASTEK_HVTFFIYNK_IELSLIDFYL_IMRTFKVSI_IPIQASLPF_IPRRNVATL_ISDYDYYRY_ITLATCELY_ITLKKRWQL_KAYNVTQAF_KMQRMLLEK_KTFPPTEPK_KVSIWNLDY_LEYHDVRVV_LLYDANYFL_LNDLCFTNVY_LPFFSNVTW_LPFNDGVYF_LSPRWYFYY_LWLLWPVTL_LYNSASFSTF_LYSPIFLIV_MEVTPSGTWL_MGYINVFAF_MPASWVMRI_NSASFSTFK_NVFAFPFTIY_NYNYLYRLF_QELYSPIFL_RARSVSPKL_RISNCVADY_RLFRKSNLK_RLYYDSMSY_RTFKVSIWNL_SINFVRIIMR_SPRWYFYYL_SSPDDQIGYY_SYFTSDYYQL_TLKSFTVEK_TMADLVYAL_TSRTLSYYK_TVYSHLLLV_VEHVTFFIY_VLWAHGFEL_VRFPNITNL_VSIWNLDYII_VTPSGTWLTY_VVYRGTTTY_VYFLQSINF_WPVTLACFVL_WTAGAAAYY_YANRNRFLY_YFIASFRLF_YIFFASFYY_YIIKLIFLW_YLDAYNMMI_YLQPRTFLL_YLYALVYFL'
p8
g3
(g5
S'%\xb2\xcf\xa6O\xab\xef?'
tRp9
tp10
a(S'AELEGIQY_ALRANSAVK_ASKIITLKK_ATSRTLSYY_CNDPFLGVY_EEHVQIHTI_EILDITPCSF_FAYANRNRF_FEYVSQPFL_FLLNKEMYL_FLLPSLATV_FLNRFTTTL_FLPRVFSAV_FLQSINFVR_FPNITNLCPF_FPRGQGVPI_FTNVYADSF_FTYASALWEI_FVDGVPFVV_GVYFASTEK_HVTFFIYNK_IELSLIDFYL_IMRTFKVSI_IPIQASLPF_IPRRNVATL_ISDYDYYRY_ITLATCELY_ITLKKRWQL_KAYNVTQAF_KMQRMLLEK_KTFPPTEPK_KVSIWNLDY_LEYHDVRVV_LLYDANYFL_LNDLCFTNVY_LPFFSNVTW_LPFNDGVYF_LSPRWYFYY_LWPVTLACF_LYNSASFSTF_LYSPIFLIV_MEVTPSGTWL_MGYINVFAF_MPASWVMRI_NSASFSTFK_NVFAFPFTIY_NYNYLYRLF_QELYSPIFL_RARSVSPKL_RISNCVADY_RLFRKSNLK_RLYYDSMSY_RTFKVSIWNL_SINFVRIIMR_SPRWYFYYL_SSPDDQIGYY_SYFTSDYYQL_TLKSFTVEK_TMADLVYAL_TSRTLSYYK_TVYSHLLLV_VEHVTFFIY_VLWAHGFEL_VRFPNITNL_VSIWNLDYII_VTPSGTWLTY_VVYRGTTTY_VYFLQSINF_WPVTLACFVL_WTAGAAAYY_YANRNRFLY_YFIASFRLF_YIFFASFYY_YIIKLIFLW_YLDAYNMMI_YLQPRTFLL_YLYALVYFL'
p11
g3
(g5
S'%\xb2\xcf\xa6O\xab\xef?'
tRp12
tp13
a(S'AELEGIQY_ALRANSAVK_ASKIITLKK_ATSRTLSYY_CNDPFLGVY_EEHVQIHTI_EILDITPCSF_FAYANRNRF_FEYVSQPFL_FLLNKEMYL_FLLPSLATV_FLNRFTTTL_FLPRVFSAV_FLQSINFVR_FPNITNLCPF_FPRGQGVPI_FTNVYADSF_FTYASALWEI_FVDGVPFVV_GVYFASTEK_HVTFFIYNK_IELSLIDFYL_IMRTFKVSI_IPIQASLPF_IPRRNVATL_ISDYDYYRY_ITLATCELY_ITLKKRWQL_KAYNVTQAF_KMQRMLLEK_KTFPPTEPK_KVSIWNLDY_LEYHDVRVV_LLYDANYFL_LNDLCFTNVY_LPFFSNVTW_LPFNDGVYF_LSPRWYFYY_LWLLWPVTL_LYNSASFSTF_LYSPIFLIV_MEVTPSGTWL_MGYINVFAF_MPASWVMRI_NSASFSTFK_NVFAFPFTIY_NYNYLYRLF_QELYSPIFL_RARSVSPKL_RISNCVADY_RLFRKSNLK_RLYYDSMSY_RTFKVSIWNL_SINFVRIIMR_SPRWYFYYL_SSPDDQIGYY_SYFTSDYYQL_TLKSFTVEK_TMADLVYAL_TSRTLSYYK_TVYSHLLLV_VEHVTFFIY_VLWAHGFEL_VRFPNITNL_VSIWNLDYII_VTPSGTWLTY_VVYRGTTTY_VYFLQSINF_WPVTLACFVL_WTAGAAAYY_YANRNRFLY_YFIASFRLF_YIFFASFYY_YIIKLIFLW_YLDAYNMMI_YLQPRTFLL_YLYALVYFL'
p14
g3
(g5
S'%\xb2\xcf\xa6O\xab\xef?'
tRp15
tp16
a(S'AELEGIQY_ALRANSAVK_ASKIITLKK_ATSRTLSYY_EEHVQIHTI_EILDITPCSF_FAYANRNRF_FEYVSQPFL_FLLNKEMYL_FLLPSLATV_FLNRFTTTL_FLPRVFSAV_FLQSINFVR_FPNITNLCPF_FPRGQGVPI_FTNVYADSF_FTYASALWEI_FVDGVPFVV_GVYFASTEK_HVTFFIYNK_IELSLIDFYL_IMRTFKVSI_IPIQASLPF_IPRRNVATL_ISDYDYYRY_ITLATCELY_ITLKKRWQL_KAYNVTQAF_KMQRMLLEK_KTFPPTEPK_KVSIWNLDY_LEYHDVRVV_LLYDANYFL_LNDLCFTNVY_LPFFSNVTW_LPFNDGVYF_LSPRWYFYY_LWPVTLACF_LYNSASFSTF_LYSPIFLIV_MEVTPSGTWL_MGYINVFAF_MIELSLIDFY_MPASWVMRI_NSASFSTFK_NVFAFPFTIY_NYNYLYRLF_QELYSPIFL_RARSVSPKL_RISNCVADY_RLFRKSNLK_RLYYDSMSY_RTFKVSIWNL_SINFVRIIMR_SPRWYFYYL_SSPDDQIGYY_SYFTSDYYQL_TLKSFTVEK_TMADLVYAL_TSRTLSYYK_TVYSHLLLV_VEHVTFFIY_VLWAHGFEL_VRFPNITNL_VSIWNLDYII_VTPSGTWLTY_VVYRGTTTY_VYFLQSINF_WPVTLACFVL_WTAGAAAYY_YANRNRFLY_YFIASFRLF_YIFFASFYY_YIIKLIFLW_YLDAYNMMI_YLQPRTFLL_YLYALVYFL'
p17
g3
(g5
S'#\xb2\xcf\xa6O\xab\xef?'
tRp18
tp19
a(S'AELEGIQY_ALRANSAVK_ASKIITLKK_ATSRTLSYY_EEHVQIHTI_EILDITPCSF_FAYANRNRF_FEYVSQPFL_FLLNKEMYL_FLLPSLATV_FLNRFTTTL_FLPRVFSAV_FLQSINFVR_FPNITNLCPF_FPRGQGVPI_FTNVYADSF_FTYASALWEI_FVDGVPFVV_GVYFASTEK_HVTFFIYNK_IELSLIDFYL_IMRTFKVSI_IPIQASLPF_IPRRNVATL_ISDYDYYRY_ITLATCELY_ITLKKRWQL_KAYNVTQAF_KMQRMLLEK_KTFPPTEPK_KVSIWNLDY_LEYHDVRVV_LLYDANYFL_LNDLCFTNVY_LPFFSNVTW_LPFNDGVYF_LSPRWYFYY_LWLLWPVTL_LYNSASFSTF_LYSPIFLIV_MEVTPSGTWL_MGYINVFAF_MIELSLIDFY_MPASWVMRI_NSASFSTFK_NVFAFPFTIY_NYNYLYRLF_QELYSPIFL_RARSVSPKL_RISNCVADY_RLFRKSNLK_RLYYDSMSY_RTFKVSIWNL_SINFVRIIMR_SPRWYFYYL_SSPDDQIGYY_SYFTSDYYQL_TLKSFTVEK_TMADLVYAL_TSRTLSYYK_TVYSHLLLV_VEHVTFFIY_VLWAHGFEL_VRFPNITNL_VSIWNLDYII_VTPSGTWLTY_VVYRGTTTY_VYFLQSINF_WPVTLACFVL_WTAGAAAYY_YANRNRFLY_YFIASFRLF_YIFFASFYY_YIIKLIFLW_YLDAYNMMI_YLQPRTFLL_YLYALVYFL'
p20
g3
(g5
S'#\xb2\xcf\xa6O\xab\xef?'
tRp21
tp22
a(S'AELEGIQY_ALRANSAVK_ASKIITLKK_ATSRTLSYY_CNDPFLGVY_EEHVQIHTI_EILDITPCSF_FAYANRNRF_FEYVSQPFL_FLLNKEMYL_FLLPSLATV_FLNRFTTTL_FLPRVFSAV_FLQSINFVR_FPNITNLCPF_FPRGQGVPI_FTNVYADSF_FTYASALWEI_FVDGVPFVV_GVYFASTEK_HVTFFIYNK_IELSLIDFYL_IMRTFKVSI_IPIQASLPF_IPRRNVATL_ISDYDYYRY_ITLATCELY_ITLKKRWQL_KAYNVTQAF_KMQRMLLEK_KTFPPTEPK_KVSIWNLDY_LEYHDVRVV_LLYDANYFL_LPFFSNVTW_LPFNDGVYF_LSPRWYFYY_LWPVTLACF_LYNSASFSTF_LYSPIFLIV_MEVTPSGTWL_MGYINVFAF_MIELSLIDFY_MPASWVMRI_NSASFSTFK_NVFAFPFTIY_NYNYLYRLF_QELYSPIFL_RARSVSPKL_RISNCVADY_RLFRKSNLK_RLYYDSMSY_RTFKVSIWNL_SINFVRIIMR_SPRWYFYYL_SSPDDQIGYY_SYFTSDYYQL_TLKSFTVEK_TMADLVYAL_TSRTLSYYK_TVYSHLLLV_VEHVTFFIY_VLWAHGFEL_VRFPNITNL_VSIWNLDYII_VTPSGTWLTY_VVYRGTTTY_VYFLQSINF_WPVTLACFVL_WTAGAAAYY_YANRNRFLY_YFIASFRLF_YIFFASFYY_YIIKLIFLW_YLDAYNMMI_YLQPRTFLL_YLYALVYFL'
p23
g3
(g5
S'#\xb2\xcf\xa6O\xab\xef?'
tRp24
tp25
a(S'AELEGIQY_ALRANSAVK_ASKIITLKK_ATSRTLSYY_CNDPFLGVY_EEHVQIHTI_EILDITPCSF_FAYANRNRF_FEYVSQPFL_FLLNKEMYL_FLLPSLATV_FLNRFTTTL_FLPRVFSAV_FLQSINFVR_FPNITNLCPF_FPRGQGVPI_FTNVYADSF_FTYASALWEI_FVDGVPFVV_GVYFASTEK_HVTFFIYNK_IELSLIDFYL_IMRTFKVSI_IPIQASLPF_IPRRNVATL_ISDYDYYRY_ITLATCELY_ITLKKRWQL_KAYNVTQAF_KMQRMLLEK_KTFPPTEPK_KVSIWNLDY_LEYHDVRVV_LLYDANYFL_LPFFSNVTW_LPFNDGVYF_LSPRWYFYY_LWLLWPVTL_LYNSASFSTF_LYSPIFLIV_MEVTPSGTWL_MGYINVFAF_MIELSLIDFY_MPASWVMRI_NSASFSTFK_NVFAFPFTIY_NYNYLYRLF_QELYSPIFL_RARSVSPKL_RISNCVADY_RLFRKSNLK_RLYYDSMSY_RTFKVSIWNL_SINFVRIIMR_SPRWYFYYL_SSPDDQIGYY_SYFTSDYYQL_TLKSFTVEK_TMADLVYAL_TSRTLSYYK_TVYSHLLLV_VEHVTFFIY_VLWAHGFEL_VRFPNITNL_VSIWNLDYII_VTPSGTWLTY_VVYRGTTTY_VYFLQSINF_WPVTLACFVL_WTAGAAAYY_YANRNRFLY_YFIASFRLF_YIFFASFYY_YIIKLIFLW_YLDAYNMMI_YLQPRTFLL_YLYALVYFL'
p26
g3
(g5
S'#\xb2\xcf\xa6O\xab\xef?'
tRp27
tp28
a(S'AELEGIQY_ALRANSAVK_ASKIITLKK_ATSRTLSYY_CNDPFLGVY_EEHVQIHTI_EILDITPCSF_FAYANRNRF_FEYVSQPFL_FLLNKEMYL_FLLPSLATV_FLNRFTTTL_FLPRVFSAV_FLQSINFVR_FPNITNLCPF_FPRGQGVPI_FTNVYADSF_FTYASALWEI_FVDGVPFVV_GVYFASTEK_HVTFFIYNK_IELSLIDFYL_IMRTFKVSI_IPIQASLPF_IPRRNVATL_ISDYDYYRY_ITLATCELY_ITLKKRWQL_KAYNVTQAF_KMQRMLLEK_KTFPPTEPK_KVSIWNLDY_LEYHDVRVV_LLYDANYFL_LNDLCFTNVY_LPFFSNVTW_LPFNDGVYF_LSPRWYFYY_LWPVTLACF_LYNSASFSTF_LYSPIFLIV_MEVTPSGTWL_MGYINVFAF_MIELSLIDFY_MPASWVMRI_NSASFSTFK_NVFAFPFTIY_NYNYLYRLF_QELYSPIFL_RARSVSPKL_RISNCVADY_RLFRKSNLK_RLYYDSMSY_RTFKVSIWNL_SINFVRIIMR_SPRWYFYYL_SYFTSDYYQL_TLKSFTVEK_TMADLVYAL_TSRTLSYYK_TVYSHLLLV_VEHVTFFIY_VLWAHGFEL_VRFPNITNL_VSIWNLDYII_VTPSGTWLTY_VVYRGTTTY_VYFLQSINF_WPVTLACFVL_WTAGAAAYY_YANRNRFLY_YFIASFRLF_YIFFASFYY_YIIKLIFLW_YLDAYNMMI_YLQPRTFLL_YLYALVYFL'
p29
g3
(g5
S'#\xb2\xcf\xa6O\xab\xef?'
tRp30
tp31
a(S'AELEGIQY_ALRANSAVK_ASKIITLKK_ATSRTLSYY_CNDPFLGVY_EEHVQIHTI_EILDITPCSF_FAYANRNRF_FEYVSQPFL_FLLNKEMYL_FLLPSLATV_FLNRFTTTL_FLPRVFSAV_FLQSINFVR_FPNITNLCPF_FPRGQGVPI_FTNVYADSF_FTYASALWEI_FVDGVPFVV_GVYFASTEK_HVTFFIYNK_IELSLIDFYL_IMRTFKVSI_IPIQASLPF_IPRRNVATL_ISDYDYYRY_ITLATCELY_ITLKKRWQL_KAYNVTQAF_KMQRMLLEK_KTFPPTEPK_KVSIWNLDY_LEYHDVRVV_LLYDANYFL_LNDLCFTNVY_LPFFSNVTW_LPFNDGVYF_LSPRWYFYY_LWLLWPVTL_LYNSASFSTF_LYSPIFLIV_MEVTPSGTWL_MGYINVFAF_MIELSLIDFY_MPASWVMRI_NSASFSTFK_NVFAFPFTIY_NYNYLYRLF_QELYSPIFL_RARSVSPKL_RISNCVADY_RLFRKSNLK_RLYYDSMSY_RTFKVSIWNL_SINFVRIIMR_SPRWYFYYL_SYFTSDYYQL_TLKSFTVEK_TMADLVYAL_TSRTLSYYK_TVYSHLLLV_VEHVTFFIY_VLWAHGFEL_VRFPNITNL_VSIWNLDYII_VTPSGTWLTY_VVYRGTTTY_VYFLQSINF_WPVTLACFVL_WTAGAAAYY_YANRNRFLY_YFIASFRLF_YIFFASFYY_YIIKLIFLW_YLDAYNMMI_YLQPRTFLL_YLYALVYFL'
p32
g3
(g5
S'#\xb2\xcf\xa6O\xab\xef?'
tRp33
tp34
a.