(lp1
(S'ATSRTLSYY_FAYANRNRF_FLNRFTTTL_FLQSINFVR_FVDGVPFVV_KTFPPTEPK_RARSVSPKL_VEHVTFFIY_VRFPNITNL_YIFFASFYY_YLDAYNMMI_YLQPRTFLL'
p2
cnumpy.core.multiarray
scalar
p3
(cnumpy
dtype
p4
(S'f8'
I0
I1
tRp5
(I3
S'<'
NNNI-1
I-1
I0
tbS'-\xfbs\xaf\xb3\xe7\xef?'
tRp6
tp7
a(S'ATSRTLSYY_FAYANRNRF_FLNRFTTTL_FVDGVPFVV_KTFPPTEPK_RARSVSPKL_SINFVRIIMR_VEHVTFFIY_VRFPNITNL_YIFFASFYY_YLDAYNMMI_YLQPRTFLL'
p8
g3
(g5
S'Yf&\x9d\xb1\xe7\xef?'
tRp9
tp10
a(S'AELEGIQY_ATSRTLSYY_FAYANRNRF_FLNRFTTTL_FLQSINFVR_FVDGVPFVV_KTFPPTEPK_RARSVSPKL_VRFPNITNL_YIFFASFYY_YLDAYNMMI_YLQPRTFLL'
p11
g3
(g5
S'\xcd\xad`B\xac\xe7\xef?'
tRp12
tp13
a(S'AELEGIQY_ATSRTLSYY_FAYANRNRF_FLNRFTTTL_FVDGVPFVV_KTFPPTEPK_RARSVSPKL_SINFVRIIMR_VRFPNITNL_YIFFASFYY_YLDAYNMMI_YLQPRTFLL'
p14
g3
(g5
S'\xfb\x18\x130\xaa\xe7\xef?'
tRp15
tp16
a(S'ATSRTLSYY_FAYANRNRF_FLNRFTTTL_FVDGVPFVV_KTFPPTEPK_RARSVSPKL_RLYYDSMSY_SINFVRIIMR_VEHVTFFIY_VRFPNITNL_YLDAYNMMI_YLQPRTFLL'
p17
g3
(g5
S'7\xd8\x1a\x81\x88\xe7\xef?'
tRp18
tp19
a(S'ATSRTLSYY_FAYANRNRF_FLNRFTTTL_FLQSINFVR_FVDGVPFVV_KTFPPTEPK_RARSVSPKL_RLYYDSMSY_VEHVTFFIY_VRFPNITNL_YLDAYNMMI_YLQPRTFLL'
p20
g3
(g5
S'\x9b\x9a\xf0\x95\x87\xe7\xef?'
tRp21
tp22
a(S'AELEGIQY_ATSRTLSYY_FAYANRNRF_FLNRFTTTL_FVDGVPFVV_KTFPPTEPK_RARSVSPKL_RLYYDSMSY_SINFVRIIMR_VRFPNITNL_YLDAYNMMI_YLQPRTFLL'
p23
g3
(g5
S'q\x17\xe54\x84\xe7\xef?'
tRp24
tp25
a(S'AELEGIQY_ATSRTLSYY_FAYANRNRF_FLNRFTTTL_FLQSINFVR_FVDGVPFVV_KTFPPTEPK_RARSVSPKL_RLYYDSMSY_VRFPNITNL_YLDAYNMMI_YLQPRTFLL'
p26
g3
(g5
S'\xd8\xd9\xbaI\x83\xe7\xef?'
tRp27
tp28
a(S'ATSRTLSYY_FAYANRNRF_FLNRFTTTL_FLQSINFVR_FVDGVPFVV_RARSVSPKL_TSRTLSYYK_VEHVTFFIY_VRFPNITNL_YIFFASFYY_YLDAYNMMI_YLQPRTFLL'
p29
g3
(g5
S'\xbb\xcb\xfa\x1bj\xe7\xef?'
tRp30
tp31
a(S'ATSRTLSYY_FAYANRNRF_FLNRFTTTL_FVDGVPFVV_RARSVSPKL_SINFVRIIMR_TSRTLSYYK_VEHVTFFIY_VRFPNITNL_YIFFASFYY_YLDAYNMMI_YLQPRTFLL'
p32
g3
(g5
S'\xe56\xad\th\xe7\xef?'
tRp33
tp34
a.