(lp1
(S'ATSRTLSYY_FAYANRNRF_FLNRFTTTL_FLQSINFVR_FVDGVPFVV_KTFPPTEPK_RARSVSPKL_VRFPNITNL_YIFFASFYY_YLDAYNMMI_YLQPRTFLL'
p2
cnumpy.core.multiarray
scalar
p3
(cnumpy
dtype
p4
(S'f8'
I0
I1
tRp5
(I3
S'<'
NNNI-1
I-1
I0
tbS'\x90<@\xb8.\xe3\xef?'
tRp6
tp7
a(S'ATSRTLSYY_FAYANRNRF_FLNRFTTTL_FVDGVPFVV_KTFPPTEPK_RARSVSPKL_SINFVRIIMR_VRFPNITNL_YIFFASFYY_YLDAYNMMI_YLQPRTFLL'
p8
g3
(g5
S'0\xb22\xe1(\xe3\xef?'
tRp9
tp10
a(S'ATSRTLSYY_FAYANRNRF_FLNRFTTTL_FLQSINFVR_FVDGVPFVV_KTFPPTEPK_RARSVSPKL_RLYYDSMSY_VRFPNITNL_YLDAYNMMI_YLQPRTFLL'
p11
g3
(g5
S'\x91\x08\xe7\xaa\x06\xe3\xef?'
tRp12
tp13
a(S'ATSRTLSYY_FAYANRNRF_FLNRFTTTL_FVDGVPFVV_KTFPPTEPK_RARSVSPKL_RLYYDSMSY_SINFVRIIMR_VRFPNITNL_YLDAYNMMI_YLQPRTFLL'
p14
g3
(g5
S'\xa3PQ\xd1\x03\xe3\xef?'
tRp15
tp16
a(S'ATSRTLSYY_FAYANRNRF_FLNRFTTTL_FLQSINFVR_FVDGVPFVV_KTFPPTEPK_RARSVSPKL_VRFPNITNL_YANRNRFLY_YLDAYNMMI_YLQPRTFLL'
p17
g3
(g5
S'\x95\xf1\x15~\xf2\xe2\xef?'
tRp18
tp19
a(S'ATSRTLSYY_FAYANRNRF_FLNRFTTTL_FVDGVPFVV_KTFPPTEPK_RARSVSPKL_SINFVRIIMR_VRFPNITNL_YANRNRFLY_YLDAYNMMI_YLQPRTFLL'
p20
g3
(g5
S'\xe3\x1d\xe1\\\xf0\xe2\xef?'
tRp21
tp22
a(S'ATSRTLSYY_FAYANRNRF_FLNRFTTTL_FLQSINFVR_FVDGVPFVV_RARSVSPKL_TSRTLSYYK_VRFPNITNL_YIFFASFYY_YLDAYNMMI_YLQPRTFLL'
p23
g3
(g5
S'g#\x87\x8d\xd5\xe2\xef?'
tRp24
tp25
a(S'ATSRTLSYY_FAYANRNRF_FLNRFTTTL_FVDGVPFVV_RARSVSPKL_SINFVRIIMR_TSRTLSYYK_VRFPNITNL_YIFFASFYY_YLDAYNMMI_YLQPRTFLL'
p26
g3
(g5
S'\x08\x99y\xb6\xcf\xe2\xef?'
tRp27
tp28
a(S'ATSRTLSYY_FAYANRNRF_FLNRFTTTL_FLQSINFVR_FVDGVPFVV_KTFPPTEPK_RLYYDSMSY_TSRTLSYYK_VRFPNITNL_YLDAYNMMI_YLQPRTFLL'
p29
g3
(g5
S'\xd1\xd0x\xfb\xcd\xe2\xef?'
tRp30
tp31
a(S'ATSRTLSYY_FAYANRNRF_FLNRFTTTL_FVDGVPFVV_KTFPPTEPK_RLYYDSMSY_SINFVRIIMR_TSRTLSYYK_VRFPNITNL_YLDAYNMMI_YLQPRTFLL'
p32
g3
(g5
S'\xfd;+\xe9\xcb\xe2\xef?'
tRp33
tp34
a.