(lp1
(S'ATSRTLSYY_FAYANRNRF_FLNRFTTTL_FLQSINFVR_FPRGQGVPI_FVDGVPFVV_KTFPPTEPK_MGYINVFAF_NVFAFPFTIY_RARSVSPKL_RLYYDSMSY_SINFVRIIMR_SPRWYFYYL_TMADLVYAL_TSRTLSYYK_TVYSHLLLV_VEHVTFFIY_VLWAHGFEL_VRFPNITNL_WTAGAAAYY_YANRNRFLY_YIFFASFYY_YLDAYNMMI_YLQPRTFLL_YLYALVYFL'
p2
cnumpy.core.multiarray
scalar
p3
(cnumpy
dtype
p4
(S'f8'
I0
I1
tRp5
(I3
S'<'
NNNI-1
I-1
I0
tbS'{N\xf2\r\x16\xcf\xef?'
tRp6
tp7
a(S'ATSRTLSYY_FAYANRNRF_FLNRFTTTL_FLQSINFVR_FPRGQGVPI_FVDGVPFVV_KTFPPTEPK_LLYDANYFL_MGYINVFAF_NVFAFPFTIY_RARSVSPKL_RLYYDSMSY_SINFVRIIMR_SPRWYFYYL_TMADLVYAL_TSRTLSYYK_TVYSHLLLV_VEHVTFFIY_VLWAHGFEL_VRFPNITNL_WTAGAAAYY_YANRNRFLY_YIFFASFYY_YLDAYNMMI_YLQPRTFLL'
p8
g3
(g5
S'\x90Z\xc9\xeb\x15\xcf\xef?'
tRp9
tp10
a(S'ATSRTLSYY_FAYANRNRF_FLNRFTTTL_FLQSINFVR_FPRGQGVPI_FVDGVPFVV_KTFPPTEPK_LLYDANYFL_MGYINVFAF_NVFAFPFTIY_RARSVSPKL_RLYYDSMSY_SINFVRIIMR_SPRWYFYYL_TSRTLSYYK_TVYSHLLLV_VEHVTFFIY_VLWAHGFEL_VRFPNITNL_WTAGAAAYY_YANRNRFLY_YIFFASFYY_YLDAYNMMI_YLQPRTFLL_YLYALVYFL'
p11
g3
(g5
S'\x85\xe1\xd5\xc4\x14\xcf\xef?'
tRp12
tp13
a(S'AELEGIQY_ATSRTLSYY_FAYANRNRF_FLNRFTTTL_FLQSINFVR_FPRGQGVPI_FVDGVPFVV_KTFPPTEPK_MGYINVFAF_NVFAFPFTIY_RARSVSPKL_RLYYDSMSY_SINFVRIIMR_SPRWYFYYL_TMADLVYAL_TSRTLSYYK_TVYSHLLLV_VLWAHGFEL_VRFPNITNL_WTAGAAAYY_YANRNRFLY_YIFFASFYY_YLDAYNMMI_YLQPRTFLL_YLYALVYFL'
p14
g3
(g5
S'\xd0\xca\xff\xb9\x0c\xcf\xef?'
tRp15
tp16
a(S'AELEGIQY_ATSRTLSYY_FAYANRNRF_FLNRFTTTL_FLQSINFVR_FPRGQGVPI_FVDGVPFVV_KTFPPTEPK_LLYDANYFL_MGYINVFAF_NVFAFPFTIY_RARSVSPKL_RLYYDSMSY_SINFVRIIMR_SPRWYFYYL_TMADLVYAL_TSRTLSYYK_TVYSHLLLV_VLWAHGFEL_VRFPNITNL_WTAGAAAYY_YANRNRFLY_YIFFASFYY_YLDAYNMMI_YLQPRTFLL'
p17
g3
(g5
S'ce\xa7\xb0\x0c\xcf\xef?'
tRp18
tp19
a(S'ALRANSAVK_ATSRTLSYY_FAYANRNRF_FLNRFTTTL_FLQSINFVR_FPRGQGVPI_FVDGVPFVV_KTFPPTEPK_MGYINVFAF_NVFAFPFTIY_RARSVSPKL_RLYYDSMSY_SINFVRIIMR_SPRWYFYYL_TMADLVYAL_TVYSHLLLV_VEHVTFFIY_VLWAHGFEL_VRFPNITNL_WTAGAAAYY_YANRNRFLY_YIFFASFYY_YLDAYNMMI_YLQPRTFLL_YLYALVYFL'
p20
g3
(g5
S'k\xbc\xc8\xa0\x0b\xcf\xef?'
tRp21
tp22
a(S'ALRANSAVK_ATSRTLSYY_FAYANRNRF_FLNRFTTTL_FLQSINFVR_FPRGQGVPI_FVDGVPFVV_KTFPPTEPK_LLYDANYFL_MGYINVFAF_NVFAFPFTIY_RARSVSPKL_RLYYDSMSY_SINFVRIIMR_SPRWYFYYL_TMADLVYAL_TVYSHLLLV_VEHVTFFIY_VLWAHGFEL_VRFPNITNL_WTAGAAAYY_YANRNRFLY_YIFFASFYY_YLDAYNMMI_YLQPRTFLL'
p23
g3
(g5
S'\x80\xc8\x9f~\x0b\xcf\xef?'
tRp24
tp25
a(S'AELEGIQY_ATSRTLSYY_FAYANRNRF_FLNRFTTTL_FLQSINFVR_FPRGQGVPI_FVDGVPFVV_KTFPPTEPK_LLYDANYFL_MGYINVFAF_NVFAFPFTIY_RARSVSPKL_RLYYDSMSY_SINFVRIIMR_SPRWYFYYL_TSRTLSYYK_TVYSHLLLV_VLWAHGFEL_VRFPNITNL_WTAGAAAYY_YANRNRFLY_YIFFASFYY_YLDAYNMMI_YLQPRTFLL_YLYALVYFL'
p26
g3
(g5
S'\xdf]\xe3p\x0b\xcf\xef?'
tRp27
tp28
a(S'ALRANSAVK_ATSRTLSYY_FAYANRNRF_FLNRFTTTL_FLQSINFVR_FPRGQGVPI_FVDGVPFVV_KTFPPTEPK_LLYDANYFL_MGYINVFAF_NVFAFPFTIY_RARSVSPKL_RLYYDSMSY_SINFVRIIMR_SPRWYFYYL_TVYSHLLLV_VEHVTFFIY_VLWAHGFEL_VRFPNITNL_WTAGAAAYY_YANRNRFLY_YIFFASFYY_YLDAYNMMI_YLQPRTFLL_YLYALVYFL'
p29
g3
(g5
S'yO\xacW\n\xcf\xef?'
tRp30
tp31
a(S'ATSRTLSYY_FAYANRNRF_FEYVSQPFL_FLNRFTTTL_FLQSINFVR_FPRGQGVPI_FVDGVPFVV_KTFPPTEPK_MGYINVFAF_NVFAFPFTIY_RARSVSPKL_SINFVRIIMR_SPRWYFYYL_TMADLVYAL_TSRTLSYYK_TVYSHLLLV_VEHVTFFIY_VLWAHGFEL_VRFPNITNL_WTAGAAAYY_YANRNRFLY_YIFFASFYY_YLDAYNMMI_YLQPRTFLL_YLYALVYFL'
p32
g3
(g5
S'\x03\xd38\x1f\x03\xcf\xef?'
tRp33
tp34
a.